ARM GAS  C:\Users\acer\AppData\Local\Temp\ccc8ZzhX.s 			page 1


   1              		.syntax unified
   2              		.cpu cortex-m3
   3              		.fpu softvfp
   4              		.eabi_attribute 20, 1
   5              		.eabi_attribute 21, 1
   6              		.eabi_attribute 23, 3
   7              		.eabi_attribute 24, 1
   8              		.eabi_attribute 25, 1
   9              		.eabi_attribute 26, 1
  10              		.eabi_attribute 30, 4
  11              		.eabi_attribute 34, 1
  12              		.eabi_attribute 18, 4
  13              		.thumb
  14              		.file	"app_1.c"
  15              		.text
  16              	.Ltext0:
  17              		.cfi_sections	.debug_frame
  18              		.section	.text.app_test_led_uart_switch,"ax",%progbits
  19              		.align	1
  20              		.global	app_test_led_uart_switch
  21              		.thumb
  22              		.thumb_func
  23              		.type	app_test_led_uart_switch, %function
  24              	app_test_led_uart_switch:
  25              	.LFB56:
  26              		.file 1 ".\\app_1.c"
   1:.\app_1.c     **** /* ========================================
   2:.\app_1.c     ****  *
   3:.\app_1.c     ****  * Copyright YOUR COMPANY, THE YEAR
   4:.\app_1.c     ****  * All Rights Reserved
   5:.\app_1.c     ****  * UNPUBLISHED, LICENSED SOFTWARE.
   6:.\app_1.c     ****  *
   7:.\app_1.c     ****  * CONFIDENTIAL AND PROPRIETARY INFORMATION
   8:.\app_1.c     ****  * WHICH IS THE PROPERTY OF your company.
   9:.\app_1.c     ****  *
  10:.\app_1.c     ****  * ========================================
  11:.\app_1.c     **** */
  12:.\app_1.c     **** #include <project.h>
  13:.\app_1.c     **** #include "common.h"
  14:.\app_1.c     **** 
  15:.\app_1.c     **** void app_test_led_uart_switch(void)
  16:.\app_1.c     **** {
  27              		.loc 1 16 0
  28              		.cfi_startproc
  29              		@ args = 0, pretend = 0, frame = 0
  30              		@ frame_needed = 0, uses_anonymous_args = 0
  31 0000 10B5     		push	{r4, lr}
  32              		.cfi_def_cfa_offset 8
  33              		.cfi_offset 4, -8
  34              		.cfi_offset 14, -4
  17:.\app_1.c     ****    
  18:.\app_1.c     ****     
  19:.\app_1.c     ****     if(Api_Get_Switch_Status(SWITCH0))
  35              		.loc 1 19 0
  36 0002 0020     		movs	r0, #0
  37 0004 FFF7FEFF 		bl	Api_Get_Switch_Status
  38              	.LVL0:
ARM GAS  C:\Users\acer\AppData\Local\Temp\ccc8ZzhX.s 			page 2


  39 0008 0446     		mov	r4, r0
  40 000a 28B1     		cbz	r0, .L2
  20:.\app_1.c     ****     {
  21:.\app_1.c     ****        UART_1_WriteTxData(0x55);
  41              		.loc 1 21 0
  42 000c 5520     		movs	r0, #85
  43 000e FFF7FEFF 		bl	UART_1_WriteTxData
  44              	.LVL1:
  22:.\app_1.c     ****        Api_Led_Control(LED0,BLINK_500);
  45              		.loc 1 22 0
  46 0012 0020     		movs	r0, #0
  47 0014 0221     		movs	r1, #2
  48 0016 04E0     		b	.L3
  49              	.L2:
  23:.\app_1.c     ****     }
  24:.\app_1.c     ****     else
  25:.\app_1.c     ****     {
  26:.\app_1.c     ****         UART_1_WriteTxData(0xBB);
  50              		.loc 1 26 0
  51 0018 BB20     		movs	r0, #187
  52 001a FFF7FEFF 		bl	UART_1_WriteTxData
  53              	.LVL2:
  27:.\app_1.c     ****         Api_Led_Control(LED0,LED_OFF);
  54              		.loc 1 27 0
  55 001e 2046     		mov	r0, r4
  56 0020 2146     		mov	r1, r4
  57              	.L3:
  28:.\app_1.c     ****     }
  29:.\app_1.c     **** }
  58              		.loc 1 29 0
  59 0022 BDE81040 		pop	{r4, lr}
  60              		.cfi_restore 14
  61              		.cfi_restore 4
  62              		.cfi_def_cfa_offset 0
  27:.\app_1.c     ****         Api_Led_Control(LED0,LED_OFF);
  63              		.loc 1 27 0
  64 0026 FFF7FEBF 		b	Api_Led_Control
  65              	.LVL3:
  66              		.cfi_endproc
  67              	.LFE56:
  68              		.size	app_test_led_uart_switch, .-app_test_led_uart_switch
  69              		.text
  70              	.Letext0:
  71              		.file 2 "c:\\program files\\cypress\\psoc creator\\3.3\\psoc creator\\import\\gnu\\arm\\4.9.3\\arm
  72              		.file 3 "c:\\program files\\cypress\\psoc creator\\3.3\\psoc creator\\import\\gnu\\arm\\4.9.3\\arm
  73              		.file 4 "Generated_Source\\PSoC5/cytypes.h"
  74              		.file 5 ".\\type_def.h"
  75              		.file 6 "Generated_Source\\PSoC5/core_cm3.h"
  76              		.file 7 ".\\dio_pub.h"
  77              		.file 8 "Generated_Source\\PSoC5/UART_1.h"