ARM GAS  C:\Users\acer\AppData\Local\Temp\ccSf9NMa.s 			page 1


   1              		.syntax unified
   2              		.cpu cortex-m3
   3              		.fpu softvfp
   4              		.eabi_attribute 20, 1
   5              		.eabi_attribute 21, 1
   6              		.eabi_attribute 23, 3
   7              		.eabi_attribute 24, 1
   8              		.eabi_attribute 25, 1
   9              		.eabi_attribute 26, 1
  10              		.eabi_attribute 30, 4
  11              		.eabi_attribute 34, 1
  12              		.eabi_attribute 18, 4
  13              		.thumb
  14              		.file	"cyfitter_cfg.c"
  15              		.text
  16              	.Ltext0:
  17              		.cfi_sections	.debug_frame
  18              		.section	.text.SetAnalogRoutingPumps,"ax",%progbits
  19              		.align	1
  20              		.global	SetAnalogRoutingPumps
  21              		.thumb
  22              		.thumb_func
  23              		.type	SetAnalogRoutingPumps, %function
  24              	SetAnalogRoutingPumps:
  25              	.LFB7:
  26              		.file 1 ".\\Generated_Source\\PSoC5\\cyfitter_cfg.c"
   1:.\Generated_Source\PSoC5/cyfitter_cfg.c **** /*******************************************************************************
   2:.\Generated_Source\PSoC5/cyfitter_cfg.c **** * File Name: cyfitter_cfg.c
   3:.\Generated_Source\PSoC5/cyfitter_cfg.c **** * 
   4:.\Generated_Source\PSoC5/cyfitter_cfg.c **** * PSoC Creator  3.3 CP1
   5:.\Generated_Source\PSoC5/cyfitter_cfg.c **** *
   6:.\Generated_Source\PSoC5/cyfitter_cfg.c **** * Description:
   7:.\Generated_Source\PSoC5/cyfitter_cfg.c **** * This file contains device initialization code.
   8:.\Generated_Source\PSoC5/cyfitter_cfg.c **** * Except for the user defined sections in CyClockStartupError(), this file should not be modified.
   9:.\Generated_Source\PSoC5/cyfitter_cfg.c **** * This file is automatically generated by PSoC Creator.
  10:.\Generated_Source\PSoC5/cyfitter_cfg.c **** *
  11:.\Generated_Source\PSoC5/cyfitter_cfg.c **** ********************************************************************************
  12:.\Generated_Source\PSoC5/cyfitter_cfg.c **** * Copyright (c) 2007-2015 Cypress Semiconductor.  All rights reserved.
  13:.\Generated_Source\PSoC5/cyfitter_cfg.c **** * You may use this file only in accordance with the license, terms, conditions, 
  14:.\Generated_Source\PSoC5/cyfitter_cfg.c **** * disclaimers, and limitations in the end user license agreement accompanying 
  15:.\Generated_Source\PSoC5/cyfitter_cfg.c **** * the software package with which this file was provided.
  16:.\Generated_Source\PSoC5/cyfitter_cfg.c **** ********************************************************************************/
  17:.\Generated_Source\PSoC5/cyfitter_cfg.c **** 
  18:.\Generated_Source\PSoC5/cyfitter_cfg.c **** #include <string.h>
  19:.\Generated_Source\PSoC5/cyfitter_cfg.c **** #include "cytypes.h"
  20:.\Generated_Source\PSoC5/cyfitter_cfg.c **** #include "cydevice_trm.h"
  21:.\Generated_Source\PSoC5/cyfitter_cfg.c **** #include "cyfitter.h"
  22:.\Generated_Source\PSoC5/cyfitter_cfg.c **** #include "CyLib.h"
  23:.\Generated_Source\PSoC5/cyfitter_cfg.c **** #include "cyfitter_cfg.h"
  24:.\Generated_Source\PSoC5/cyfitter_cfg.c **** 
  25:.\Generated_Source\PSoC5/cyfitter_cfg.c **** #define CY_NEED_CYCLOCKSTARTUPERROR 1
  26:.\Generated_Source\PSoC5/cyfitter_cfg.c **** 
  27:.\Generated_Source\PSoC5/cyfitter_cfg.c **** 
  28:.\Generated_Source\PSoC5/cyfitter_cfg.c **** #if defined(__GNUC__) || defined(__ARMCC_VERSION)
  29:.\Generated_Source\PSoC5/cyfitter_cfg.c ****     #define CYPACKED 
  30:.\Generated_Source\PSoC5/cyfitter_cfg.c ****     #define CYPACKED_ATTR __attribute__ ((packed))
  31:.\Generated_Source\PSoC5/cyfitter_cfg.c ****     #define CYALIGNED __attribute__ ((aligned))
ARM GAS  C:\Users\acer\AppData\Local\Temp\ccSf9NMa.s 			page 2


  32:.\Generated_Source\PSoC5/cyfitter_cfg.c ****     #define CY_CFG_UNUSED __attribute__ ((unused))
  33:.\Generated_Source\PSoC5/cyfitter_cfg.c ****     #define CY_CFG_SECTION __attribute__ ((section(".psocinit")))
  34:.\Generated_Source\PSoC5/cyfitter_cfg.c ****     
  35:.\Generated_Source\PSoC5/cyfitter_cfg.c ****     #if defined(__ARMCC_VERSION)
  36:.\Generated_Source\PSoC5/cyfitter_cfg.c ****         #define CY_CFG_MEMORY_BARRIER() __memory_changed()
  37:.\Generated_Source\PSoC5/cyfitter_cfg.c ****     #else
  38:.\Generated_Source\PSoC5/cyfitter_cfg.c ****         #define CY_CFG_MEMORY_BARRIER() __sync_synchronize()
  39:.\Generated_Source\PSoC5/cyfitter_cfg.c ****     #endif
  40:.\Generated_Source\PSoC5/cyfitter_cfg.c ****     
  41:.\Generated_Source\PSoC5/cyfitter_cfg.c **** #elif defined(__ICCARM__)
  42:.\Generated_Source\PSoC5/cyfitter_cfg.c ****     #include <intrinsics.h>
  43:.\Generated_Source\PSoC5/cyfitter_cfg.c **** 
  44:.\Generated_Source\PSoC5/cyfitter_cfg.c ****     #define CYPACKED __packed
  45:.\Generated_Source\PSoC5/cyfitter_cfg.c ****     #define CYPACKED_ATTR 
  46:.\Generated_Source\PSoC5/cyfitter_cfg.c ****     #define CYALIGNED _Pragma("data_alignment=4")
  47:.\Generated_Source\PSoC5/cyfitter_cfg.c ****     #define CY_CFG_UNUSED _Pragma("diag_suppress=Pe177")
  48:.\Generated_Source\PSoC5/cyfitter_cfg.c ****     #define CY_CFG_SECTION _Pragma("location=\".psocinit\"")
  49:.\Generated_Source\PSoC5/cyfitter_cfg.c ****     
  50:.\Generated_Source\PSoC5/cyfitter_cfg.c ****     #define CY_CFG_MEMORY_BARRIER() __DMB()
  51:.\Generated_Source\PSoC5/cyfitter_cfg.c ****     
  52:.\Generated_Source\PSoC5/cyfitter_cfg.c **** #else
  53:.\Generated_Source\PSoC5/cyfitter_cfg.c ****     #error Unsupported toolchain
  54:.\Generated_Source\PSoC5/cyfitter_cfg.c **** #endif
  55:.\Generated_Source\PSoC5/cyfitter_cfg.c **** 
  56:.\Generated_Source\PSoC5/cyfitter_cfg.c **** 
  57:.\Generated_Source\PSoC5/cyfitter_cfg.c **** CY_CFG_UNUSED
  58:.\Generated_Source\PSoC5/cyfitter_cfg.c **** static void CYMEMZERO(void *s, size_t n);
  59:.\Generated_Source\PSoC5/cyfitter_cfg.c **** CY_CFG_UNUSED
  60:.\Generated_Source\PSoC5/cyfitter_cfg.c **** static void CYMEMZERO(void *s, size_t n)
  61:.\Generated_Source\PSoC5/cyfitter_cfg.c **** {
  62:.\Generated_Source\PSoC5/cyfitter_cfg.c **** 	(void)memset(s, 0, n);
  63:.\Generated_Source\PSoC5/cyfitter_cfg.c **** }
  64:.\Generated_Source\PSoC5/cyfitter_cfg.c **** CY_CFG_UNUSED
  65:.\Generated_Source\PSoC5/cyfitter_cfg.c **** static void CYCONFIGCPY(void *dest, const void *src, size_t n);
  66:.\Generated_Source\PSoC5/cyfitter_cfg.c **** CY_CFG_UNUSED
  67:.\Generated_Source\PSoC5/cyfitter_cfg.c **** static void CYCONFIGCPY(void *dest, const void *src, size_t n)
  68:.\Generated_Source\PSoC5/cyfitter_cfg.c **** {
  69:.\Generated_Source\PSoC5/cyfitter_cfg.c **** 	(void)memcpy(dest, src, n);
  70:.\Generated_Source\PSoC5/cyfitter_cfg.c **** }
  71:.\Generated_Source\PSoC5/cyfitter_cfg.c **** CY_CFG_UNUSED
  72:.\Generated_Source\PSoC5/cyfitter_cfg.c **** static void CYCONFIGCPYCODE(void *dest, const void *src, size_t n);
  73:.\Generated_Source\PSoC5/cyfitter_cfg.c **** CY_CFG_UNUSED
  74:.\Generated_Source\PSoC5/cyfitter_cfg.c **** static void CYCONFIGCPYCODE(void *dest, const void *src, size_t n)
  75:.\Generated_Source\PSoC5/cyfitter_cfg.c **** {
  76:.\Generated_Source\PSoC5/cyfitter_cfg.c **** 	(void)memcpy(dest, src, n);
  77:.\Generated_Source\PSoC5/cyfitter_cfg.c **** }
  78:.\Generated_Source\PSoC5/cyfitter_cfg.c **** 
  79:.\Generated_Source\PSoC5/cyfitter_cfg.c **** 
  80:.\Generated_Source\PSoC5/cyfitter_cfg.c **** 
  81:.\Generated_Source\PSoC5/cyfitter_cfg.c **** /* Clock startup error codes                                                   */
  82:.\Generated_Source\PSoC5/cyfitter_cfg.c **** #define CYCLOCKSTART_NO_ERROR    0u
  83:.\Generated_Source\PSoC5/cyfitter_cfg.c **** #define CYCLOCKSTART_XTAL_ERROR  1u
  84:.\Generated_Source\PSoC5/cyfitter_cfg.c **** #define CYCLOCKSTART_32KHZ_ERROR 2u
  85:.\Generated_Source\PSoC5/cyfitter_cfg.c **** #define CYCLOCKSTART_PLL_ERROR   3u
  86:.\Generated_Source\PSoC5/cyfitter_cfg.c **** 
  87:.\Generated_Source\PSoC5/cyfitter_cfg.c **** #ifdef CY_NEED_CYCLOCKSTARTUPERROR
  88:.\Generated_Source\PSoC5/cyfitter_cfg.c **** /*******************************************************************************
ARM GAS  C:\Users\acer\AppData\Local\Temp\ccSf9NMa.s 			page 3


  89:.\Generated_Source\PSoC5/cyfitter_cfg.c **** * Function Name: CyClockStartupError
  90:.\Generated_Source\PSoC5/cyfitter_cfg.c **** ********************************************************************************
  91:.\Generated_Source\PSoC5/cyfitter_cfg.c **** * Summary:
  92:.\Generated_Source\PSoC5/cyfitter_cfg.c **** *  If an error is encountered during clock configuration (crystal startup error,
  93:.\Generated_Source\PSoC5/cyfitter_cfg.c **** *  PLL lock error, etc.), the system will end up here.  Unless reimplemented by
  94:.\Generated_Source\PSoC5/cyfitter_cfg.c **** *  the customer, this function will stop in an infinite loop.
  95:.\Generated_Source\PSoC5/cyfitter_cfg.c **** *
  96:.\Generated_Source\PSoC5/cyfitter_cfg.c **** * Parameters:
  97:.\Generated_Source\PSoC5/cyfitter_cfg.c **** *   void
  98:.\Generated_Source\PSoC5/cyfitter_cfg.c **** *
  99:.\Generated_Source\PSoC5/cyfitter_cfg.c **** * Return:
 100:.\Generated_Source\PSoC5/cyfitter_cfg.c **** *   void
 101:.\Generated_Source\PSoC5/cyfitter_cfg.c **** *
 102:.\Generated_Source\PSoC5/cyfitter_cfg.c **** *******************************************************************************/
 103:.\Generated_Source\PSoC5/cyfitter_cfg.c **** CY_CFG_UNUSED
 104:.\Generated_Source\PSoC5/cyfitter_cfg.c **** static void CyClockStartupError(uint8 errorCode);
 105:.\Generated_Source\PSoC5/cyfitter_cfg.c **** CY_CFG_UNUSED
 106:.\Generated_Source\PSoC5/cyfitter_cfg.c **** static void CyClockStartupError(uint8 errorCode)
 107:.\Generated_Source\PSoC5/cyfitter_cfg.c **** {
 108:.\Generated_Source\PSoC5/cyfitter_cfg.c ****     /* To remove the compiler warning if errorCode not used.                */
 109:.\Generated_Source\PSoC5/cyfitter_cfg.c ****     errorCode = errorCode;
 110:.\Generated_Source\PSoC5/cyfitter_cfg.c **** 
 111:.\Generated_Source\PSoC5/cyfitter_cfg.c ****     /* `#START CyClockStartupError` */
 112:.\Generated_Source\PSoC5/cyfitter_cfg.c **** 
 113:.\Generated_Source\PSoC5/cyfitter_cfg.c ****     /* If we have a clock startup error (bad MHz crystal, PLL lock, etc.),  */
 114:.\Generated_Source\PSoC5/cyfitter_cfg.c ****     /* we will end up here to allow the customer to implement something to  */
 115:.\Generated_Source\PSoC5/cyfitter_cfg.c ****     /* deal with the clock condition.                                       */
 116:.\Generated_Source\PSoC5/cyfitter_cfg.c **** 
 117:.\Generated_Source\PSoC5/cyfitter_cfg.c ****     /* `#END` */
 118:.\Generated_Source\PSoC5/cyfitter_cfg.c **** 
 119:.\Generated_Source\PSoC5/cyfitter_cfg.c ****     /* If nothing else, stop here since the clocks have not started         */
 120:.\Generated_Source\PSoC5/cyfitter_cfg.c ****     /* correctly.                                                           */
 121:.\Generated_Source\PSoC5/cyfitter_cfg.c ****     while(1) {}
 122:.\Generated_Source\PSoC5/cyfitter_cfg.c **** }
 123:.\Generated_Source\PSoC5/cyfitter_cfg.c **** #endif
 124:.\Generated_Source\PSoC5/cyfitter_cfg.c **** 
 125:.\Generated_Source\PSoC5/cyfitter_cfg.c **** #define CY_CFG_BASE_ADDR_COUNT 30u
 126:.\Generated_Source\PSoC5/cyfitter_cfg.c **** CYPACKED typedef struct
 127:.\Generated_Source\PSoC5/cyfitter_cfg.c **** {
 128:.\Generated_Source\PSoC5/cyfitter_cfg.c **** 	uint8 offset;
 129:.\Generated_Source\PSoC5/cyfitter_cfg.c **** 	uint8 value;
 130:.\Generated_Source\PSoC5/cyfitter_cfg.c **** } CYPACKED_ATTR cy_cfg_addrvalue_t;
 131:.\Generated_Source\PSoC5/cyfitter_cfg.c **** 
 132:.\Generated_Source\PSoC5/cyfitter_cfg.c **** #define cy_cfg_addr_table ((const uint32 CYFAR *)0x48000000u)
 133:.\Generated_Source\PSoC5/cyfitter_cfg.c **** #define cy_cfg_data_table ((const cy_cfg_addrvalue_t CYFAR *)0x48000078u)
 134:.\Generated_Source\PSoC5/cyfitter_cfg.c **** 
 135:.\Generated_Source\PSoC5/cyfitter_cfg.c **** /* IOPINS0_0 Address: CYREG_PRT0_DR Size (bytes): 10 */
 136:.\Generated_Source\PSoC5/cyfitter_cfg.c **** #define BS_IOPINS0_0_VAL ((const uint8 CYFAR *)0x48000584u)
 137:.\Generated_Source\PSoC5/cyfitter_cfg.c **** 
 138:.\Generated_Source\PSoC5/cyfitter_cfg.c **** /* IOPINS0_7 Address: CYREG_PRT12_DM0 Size (bytes): 8 */
 139:.\Generated_Source\PSoC5/cyfitter_cfg.c **** #define BS_IOPINS0_7_VAL ((const uint8 CYFAR *)0x48000590u)
 140:.\Generated_Source\PSoC5/cyfitter_cfg.c **** 
 141:.\Generated_Source\PSoC5/cyfitter_cfg.c **** /* IOPINS0_2 Address: CYREG_PRT2_DM0 Size (bytes): 8 */
 142:.\Generated_Source\PSoC5/cyfitter_cfg.c **** #define BS_IOPINS0_2_VAL ((const uint8 CYFAR *)0x48000598u)
 143:.\Generated_Source\PSoC5/cyfitter_cfg.c **** 
 144:.\Generated_Source\PSoC5/cyfitter_cfg.c **** 
 145:.\Generated_Source\PSoC5/cyfitter_cfg.c **** /*******************************************************************************
ARM GAS  C:\Users\acer\AppData\Local\Temp\ccSf9NMa.s 			page 4


 146:.\Generated_Source\PSoC5/cyfitter_cfg.c **** * Function Name: cfg_write_bytes32
 147:.\Generated_Source\PSoC5/cyfitter_cfg.c **** ********************************************************************************
 148:.\Generated_Source\PSoC5/cyfitter_cfg.c **** * Summary:
 149:.\Generated_Source\PSoC5/cyfitter_cfg.c **** *  This function is used for setting up the chip configuration areas that
 150:.\Generated_Source\PSoC5/cyfitter_cfg.c **** *  contain relatively sparse data.
 151:.\Generated_Source\PSoC5/cyfitter_cfg.c **** *
 152:.\Generated_Source\PSoC5/cyfitter_cfg.c **** * Parameters:
 153:.\Generated_Source\PSoC5/cyfitter_cfg.c **** *   void
 154:.\Generated_Source\PSoC5/cyfitter_cfg.c **** *
 155:.\Generated_Source\PSoC5/cyfitter_cfg.c **** * Return:
 156:.\Generated_Source\PSoC5/cyfitter_cfg.c **** *   void
 157:.\Generated_Source\PSoC5/cyfitter_cfg.c **** *
 158:.\Generated_Source\PSoC5/cyfitter_cfg.c **** *******************************************************************************/
 159:.\Generated_Source\PSoC5/cyfitter_cfg.c **** static void cfg_write_bytes32(const uint32 addr_table[], const cy_cfg_addrvalue_t data_table[]);
 160:.\Generated_Source\PSoC5/cyfitter_cfg.c **** static void cfg_write_bytes32(const uint32 addr_table[], const cy_cfg_addrvalue_t data_table[])
 161:.\Generated_Source\PSoC5/cyfitter_cfg.c **** {
 162:.\Generated_Source\PSoC5/cyfitter_cfg.c **** 	/* For 32-bit little-endian architectures */
 163:.\Generated_Source\PSoC5/cyfitter_cfg.c **** 	uint32 i, j = 0u;
 164:.\Generated_Source\PSoC5/cyfitter_cfg.c **** 	for (i = 0u; i < CY_CFG_BASE_ADDR_COUNT; i++)
 165:.\Generated_Source\PSoC5/cyfitter_cfg.c **** 	{
 166:.\Generated_Source\PSoC5/cyfitter_cfg.c **** 		uint32 baseAddr = addr_table[i];
 167:.\Generated_Source\PSoC5/cyfitter_cfg.c **** 		uint8 count = (uint8)baseAddr;
 168:.\Generated_Source\PSoC5/cyfitter_cfg.c **** 		baseAddr &= 0xFFFFFF00u;
 169:.\Generated_Source\PSoC5/cyfitter_cfg.c **** 		while (count != 0u)
 170:.\Generated_Source\PSoC5/cyfitter_cfg.c **** 		{
 171:.\Generated_Source\PSoC5/cyfitter_cfg.c **** 			CY_SET_XTND_REG8((void CYFAR *)(baseAddr + data_table[j].offset), data_table[j].value);
 172:.\Generated_Source\PSoC5/cyfitter_cfg.c **** 			j++;
 173:.\Generated_Source\PSoC5/cyfitter_cfg.c **** 			count--;
 174:.\Generated_Source\PSoC5/cyfitter_cfg.c **** 		}
 175:.\Generated_Source\PSoC5/cyfitter_cfg.c **** 	}
 176:.\Generated_Source\PSoC5/cyfitter_cfg.c **** }
 177:.\Generated_Source\PSoC5/cyfitter_cfg.c **** 
 178:.\Generated_Source\PSoC5/cyfitter_cfg.c **** /*******************************************************************************
 179:.\Generated_Source\PSoC5/cyfitter_cfg.c **** * Function Name: ClockSetup
 180:.\Generated_Source\PSoC5/cyfitter_cfg.c **** ********************************************************************************
 181:.\Generated_Source\PSoC5/cyfitter_cfg.c **** *
 182:.\Generated_Source\PSoC5/cyfitter_cfg.c **** * Summary:
 183:.\Generated_Source\PSoC5/cyfitter_cfg.c **** *  Performs the initialization of all of the clocks in the device based on the
 184:.\Generated_Source\PSoC5/cyfitter_cfg.c **** *  settings in the Clock tab of the DWR.  This includes enabling the requested
 185:.\Generated_Source\PSoC5/cyfitter_cfg.c **** *  clocks and setting the necessary dividers to produce the desired frequency. 
 186:.\Generated_Source\PSoC5/cyfitter_cfg.c **** *
 187:.\Generated_Source\PSoC5/cyfitter_cfg.c **** * Parameters:
 188:.\Generated_Source\PSoC5/cyfitter_cfg.c **** *  void
 189:.\Generated_Source\PSoC5/cyfitter_cfg.c **** *
 190:.\Generated_Source\PSoC5/cyfitter_cfg.c **** * Return:
 191:.\Generated_Source\PSoC5/cyfitter_cfg.c **** *  void
 192:.\Generated_Source\PSoC5/cyfitter_cfg.c **** *
 193:.\Generated_Source\PSoC5/cyfitter_cfg.c **** *******************************************************************************/
 194:.\Generated_Source\PSoC5/cyfitter_cfg.c **** static void ClockSetup(void);
 195:.\Generated_Source\PSoC5/cyfitter_cfg.c **** static void ClockSetup(void)
 196:.\Generated_Source\PSoC5/cyfitter_cfg.c **** {
 197:.\Generated_Source\PSoC5/cyfitter_cfg.c **** 	uint32 timeout;
 198:.\Generated_Source\PSoC5/cyfitter_cfg.c **** 	uint8 pllLock;
 199:.\Generated_Source\PSoC5/cyfitter_cfg.c **** 
 200:.\Generated_Source\PSoC5/cyfitter_cfg.c **** 
 201:.\Generated_Source\PSoC5/cyfitter_cfg.c **** 	/* Configure Digital Clocks based on settings from Clock DWR */
 202:.\Generated_Source\PSoC5/cyfitter_cfg.c **** 	CY_SET_XTND_REG16((void CYFAR *)(CYREG_CLKDIST_DCFG0_CFG0), 0x0019u);
ARM GAS  C:\Users\acer\AppData\Local\Temp\ccSf9NMa.s 			page 5


 203:.\Generated_Source\PSoC5/cyfitter_cfg.c **** 	CY_SET_XTND_REG8((void CYFAR *)(CYREG_CLKDIST_DCFG0_CFG0 + 0x2u), 0x18u);
 204:.\Generated_Source\PSoC5/cyfitter_cfg.c **** 	CY_SET_XTND_REG16((void CYFAR *)(CYREG_CLKDIST_DCFG1_CFG0), 0x00EFu);
 205:.\Generated_Source\PSoC5/cyfitter_cfg.c **** 	CY_SET_XTND_REG8((void CYFAR *)(CYREG_CLKDIST_DCFG1_CFG0 + 0x2u), 0x18u);
 206:.\Generated_Source\PSoC5/cyfitter_cfg.c **** 	CY_SET_XTND_REG16((void CYFAR *)(CYREG_CLKDIST_DCFG2_CFG0), 0x00EFu);
 207:.\Generated_Source\PSoC5/cyfitter_cfg.c **** 	CY_SET_XTND_REG8((void CYFAR *)(CYREG_CLKDIST_DCFG2_CFG0 + 0x2u), 0x19u);
 208:.\Generated_Source\PSoC5/cyfitter_cfg.c **** 	CY_SET_XTND_REG16((void CYFAR *)(CYREG_CLKDIST_DCFG3_CFG0), 0x0000u);
 209:.\Generated_Source\PSoC5/cyfitter_cfg.c **** 	CY_SET_XTND_REG8((void CYFAR *)(CYREG_CLKDIST_DCFG3_CFG0 + 0x2u), 0x1Bu);
 210:.\Generated_Source\PSoC5/cyfitter_cfg.c **** 
 211:.\Generated_Source\PSoC5/cyfitter_cfg.c **** 	/* Configure ILO based on settings from Clock DWR */
 212:.\Generated_Source\PSoC5/cyfitter_cfg.c **** 	CY_SET_XTND_REG8((void CYFAR *)(CYREG_SLOWCLK_ILO_CR0), 0x26u);
 213:.\Generated_Source\PSoC5/cyfitter_cfg.c **** 
 214:.\Generated_Source\PSoC5/cyfitter_cfg.c **** 	/* Configure XTAL based on settings from Clock DWR */
 215:.\Generated_Source\PSoC5/cyfitter_cfg.c **** 	CY_SET_XTND_REG16((void CYFAR *)(CYREG_FASTCLK_XMHZ_CFG0), 0x3313u);
 216:.\Generated_Source\PSoC5/cyfitter_cfg.c **** 	CY_SET_XTND_REG8((void CYFAR *)(CYREG_FASTCLK_XMHZ_CSR), 0x05u);
 217:.\Generated_Source\PSoC5/cyfitter_cfg.c **** 	/* Wait up to 130000us for the XTAL to lock */
 218:.\Generated_Source\PSoC5/cyfitter_cfg.c **** 	CY_GET_XTND_REG8((void CYFAR *)CYREG_FASTCLK_XMHZ_CSR);
 219:.\Generated_Source\PSoC5/cyfitter_cfg.c **** 	for (timeout = 130000u / 10u; (timeout > 0u) && ((CY_GET_XTND_REG8((void CYFAR *)CYREG_FASTCLK_XMH
 220:.\Generated_Source\PSoC5/cyfitter_cfg.c **** 	{ 
 221:.\Generated_Source\PSoC5/cyfitter_cfg.c **** 		
 222:.\Generated_Source\PSoC5/cyfitter_cfg.c **** 		CyDelayCycles(10u * 48u); /* Delay 10us based on 48MHz clock */
 223:.\Generated_Source\PSoC5/cyfitter_cfg.c **** 	}
 224:.\Generated_Source\PSoC5/cyfitter_cfg.c **** 
 225:.\Generated_Source\PSoC5/cyfitter_cfg.c **** 	/* Configure IMO based on settings from Clock DWR */
 226:.\Generated_Source\PSoC5/cyfitter_cfg.c **** 	CY_SET_XTND_REG8((void CYFAR *)(CYREG_FASTCLK_IMO_CR), 0x52u);
 227:.\Generated_Source\PSoC5/cyfitter_cfg.c **** 	CY_SET_XTND_REG8((void CYFAR *)(CYREG_IMO_TR1), (CY_GET_XTND_REG8((void CYFAR *)CYREG_FLSHID_CUST_
 228:.\Generated_Source\PSoC5/cyfitter_cfg.c **** 
 229:.\Generated_Source\PSoC5/cyfitter_cfg.c **** 	/* Configure PLL based on settings from Clock DWR */
 230:.\Generated_Source\PSoC5/cyfitter_cfg.c **** 	CY_SET_XTND_REG16((void CYFAR *)(CYREG_FASTCLK_PLL_P), 0x0708u);
 231:.\Generated_Source\PSoC5/cyfitter_cfg.c **** 	CY_SET_XTND_REG16((void CYFAR *)(CYREG_FASTCLK_PLL_CFG0), 0x1251u);
 232:.\Generated_Source\PSoC5/cyfitter_cfg.c **** 	/* Wait up to 250us for the PLL to lock */
 233:.\Generated_Source\PSoC5/cyfitter_cfg.c **** 	pllLock = 0u;
 234:.\Generated_Source\PSoC5/cyfitter_cfg.c **** 	for (timeout = 250u / 10u; (timeout > 0u) && (pllLock != 0x03u); timeout--)
 235:.\Generated_Source\PSoC5/cyfitter_cfg.c **** 	{ 
 236:.\Generated_Source\PSoC5/cyfitter_cfg.c **** 		pllLock = 0x03u & ((uint8)((uint8)pllLock << 1) | ((CY_GET_XTND_REG8((void CYFAR *)CYREG_FASTCLK_
 237:.\Generated_Source\PSoC5/cyfitter_cfg.c **** 		CyDelayCycles(10u * 48u); /* Delay 10us based on 48MHz clock */
 238:.\Generated_Source\PSoC5/cyfitter_cfg.c **** 	}
 239:.\Generated_Source\PSoC5/cyfitter_cfg.c **** 	/* If we ran out of time the PLL didn't lock so go to the error function */
 240:.\Generated_Source\PSoC5/cyfitter_cfg.c **** 	if (timeout == 0u)
 241:.\Generated_Source\PSoC5/cyfitter_cfg.c **** 	{
 242:.\Generated_Source\PSoC5/cyfitter_cfg.c **** 		CyClockStartupError(CYCLOCKSTART_PLL_ERROR);
 243:.\Generated_Source\PSoC5/cyfitter_cfg.c **** 	}
 244:.\Generated_Source\PSoC5/cyfitter_cfg.c **** 
 245:.\Generated_Source\PSoC5/cyfitter_cfg.c **** 	/* Configure Bus/Master Clock based on settings from Clock DWR */
 246:.\Generated_Source\PSoC5/cyfitter_cfg.c **** 	CY_SET_XTND_REG16((void CYFAR *)(CYREG_CLKDIST_MSTR0), 0x0100u);
 247:.\Generated_Source\PSoC5/cyfitter_cfg.c **** 	CY_SET_XTND_REG8((void CYFAR *)(CYREG_CLKDIST_MSTR0), 0x07u);
 248:.\Generated_Source\PSoC5/cyfitter_cfg.c **** 	CY_SET_XTND_REG8((void CYFAR *)(CYREG_CLKDIST_BCFG0), 0x00u);
 249:.\Generated_Source\PSoC5/cyfitter_cfg.c **** 	CY_SET_XTND_REG8((void CYFAR *)(CYREG_CLKDIST_BCFG2), 0x48u);
 250:.\Generated_Source\PSoC5/cyfitter_cfg.c **** 	CY_SET_XTND_REG8((void CYFAR *)(CYREG_CLKDIST_MSTR0), 0x00u);
 251:.\Generated_Source\PSoC5/cyfitter_cfg.c **** 
 252:.\Generated_Source\PSoC5/cyfitter_cfg.c **** 	/* Configure USB Clock based on settings from Clock DWR */
 253:.\Generated_Source\PSoC5/cyfitter_cfg.c **** 	CY_SET_XTND_REG8((void CYFAR *)(CYREG_CLKDIST_UCFG), 0x00u);
 254:.\Generated_Source\PSoC5/cyfitter_cfg.c **** 	CY_SET_XTND_REG8((void CYFAR *)(CYREG_CLKDIST_LD), 0x02u);
 255:.\Generated_Source\PSoC5/cyfitter_cfg.c **** 
 256:.\Generated_Source\PSoC5/cyfitter_cfg.c **** 	CY_SET_XTND_REG8((void CYFAR *)(CYREG_PM_ACT_CFG2), ((CY_GET_XTND_REG8((void CYFAR *)CYREG_PM_ACT_
 257:.\Generated_Source\PSoC5/cyfitter_cfg.c **** }
 258:.\Generated_Source\PSoC5/cyfitter_cfg.c **** 
 259:.\Generated_Source\PSoC5/cyfitter_cfg.c **** 
ARM GAS  C:\Users\acer\AppData\Local\Temp\ccSf9NMa.s 			page 6


 260:.\Generated_Source\PSoC5/cyfitter_cfg.c **** /* Analog API Functions */
 261:.\Generated_Source\PSoC5/cyfitter_cfg.c **** 
 262:.\Generated_Source\PSoC5/cyfitter_cfg.c **** 
 263:.\Generated_Source\PSoC5/cyfitter_cfg.c **** /*******************************************************************************
 264:.\Generated_Source\PSoC5/cyfitter_cfg.c **** * Function Name: AnalogSetDefault
 265:.\Generated_Source\PSoC5/cyfitter_cfg.c **** ********************************************************************************
 266:.\Generated_Source\PSoC5/cyfitter_cfg.c **** *
 267:.\Generated_Source\PSoC5/cyfitter_cfg.c **** * Summary:
 268:.\Generated_Source\PSoC5/cyfitter_cfg.c **** *  Sets up the analog portions of the chip to default values based on chip
 269:.\Generated_Source\PSoC5/cyfitter_cfg.c **** *  configuration options from the project.
 270:.\Generated_Source\PSoC5/cyfitter_cfg.c **** *
 271:.\Generated_Source\PSoC5/cyfitter_cfg.c **** * Parameters:
 272:.\Generated_Source\PSoC5/cyfitter_cfg.c **** *  void
 273:.\Generated_Source\PSoC5/cyfitter_cfg.c **** *
 274:.\Generated_Source\PSoC5/cyfitter_cfg.c **** * Return:
 275:.\Generated_Source\PSoC5/cyfitter_cfg.c **** *  void
 276:.\Generated_Source\PSoC5/cyfitter_cfg.c **** *
 277:.\Generated_Source\PSoC5/cyfitter_cfg.c **** *******************************************************************************/
 278:.\Generated_Source\PSoC5/cyfitter_cfg.c **** static void AnalogSetDefault(void);
 279:.\Generated_Source\PSoC5/cyfitter_cfg.c **** static void AnalogSetDefault(void)
 280:.\Generated_Source\PSoC5/cyfitter_cfg.c **** {
 281:.\Generated_Source\PSoC5/cyfitter_cfg.c **** 	uint8 bg_xover_inl_trim = CY_GET_XTND_REG8((void CYFAR *)(CYREG_FLSHID_MFG_CFG_BG_XOVER_INL_TRIM +
 282:.\Generated_Source\PSoC5/cyfitter_cfg.c **** 	CY_SET_XTND_REG8((void CYFAR *)(CYREG_BG_DFT0), (bg_xover_inl_trim & 0x07u));
 283:.\Generated_Source\PSoC5/cyfitter_cfg.c **** 	CY_SET_XTND_REG8((void CYFAR *)(CYREG_BG_DFT1), ((bg_xover_inl_trim >> 4) & 0x0Fu));
 284:.\Generated_Source\PSoC5/cyfitter_cfg.c **** 	CY_SET_XTND_REG8((void CYFAR *)CYREG_PUMP_CR0, 0x44u);
 285:.\Generated_Source\PSoC5/cyfitter_cfg.c **** }
 286:.\Generated_Source\PSoC5/cyfitter_cfg.c **** 
 287:.\Generated_Source\PSoC5/cyfitter_cfg.c **** 
 288:.\Generated_Source\PSoC5/cyfitter_cfg.c **** /*******************************************************************************
 289:.\Generated_Source\PSoC5/cyfitter_cfg.c **** * Function Name: SetAnalogRoutingPumps
 290:.\Generated_Source\PSoC5/cyfitter_cfg.c **** ********************************************************************************
 291:.\Generated_Source\PSoC5/cyfitter_cfg.c **** *
 292:.\Generated_Source\PSoC5/cyfitter_cfg.c **** * Summary:
 293:.\Generated_Source\PSoC5/cyfitter_cfg.c **** * Enables or disables the analog pumps feeding analog routing switches.
 294:.\Generated_Source\PSoC5/cyfitter_cfg.c **** * Intended to be called at startup, based on the Vdda system configuration;
 295:.\Generated_Source\PSoC5/cyfitter_cfg.c **** * may be called during operation when the user informs us that the Vdda voltage
 296:.\Generated_Source\PSoC5/cyfitter_cfg.c **** * crossed the pump threshold.
 297:.\Generated_Source\PSoC5/cyfitter_cfg.c **** *
 298:.\Generated_Source\PSoC5/cyfitter_cfg.c **** * Parameters:
 299:.\Generated_Source\PSoC5/cyfitter_cfg.c **** *  enabled - 1 to enable the pumps, 0 to disable the pumps
 300:.\Generated_Source\PSoC5/cyfitter_cfg.c **** *
 301:.\Generated_Source\PSoC5/cyfitter_cfg.c **** * Return:
 302:.\Generated_Source\PSoC5/cyfitter_cfg.c **** *  void
 303:.\Generated_Source\PSoC5/cyfitter_cfg.c **** *
 304:.\Generated_Source\PSoC5/cyfitter_cfg.c **** *******************************************************************************/
 305:.\Generated_Source\PSoC5/cyfitter_cfg.c **** void SetAnalogRoutingPumps(uint8 enabled)
 306:.\Generated_Source\PSoC5/cyfitter_cfg.c **** {
  27              		.loc 1 306 0
  28              		.cfi_startproc
  29              		@ args = 0, pretend = 0, frame = 0
  30              		@ frame_needed = 0, uses_anonymous_args = 0
  31              		@ link register save eliminated.
  32              	.LVL0:
 307:.\Generated_Source\PSoC5/cyfitter_cfg.c **** 	uint8 regValue = CY_GET_XTND_REG8((void CYFAR *)CYREG_PUMP_CR0);
  33              		.loc 1 307 0
  34 0000 024A     		ldr	r2, .L2
  35 0002 1378     		ldrb	r3, [r2]	@ zero_extendqisi2
ARM GAS  C:\Users\acer\AppData\Local\Temp\ccSf9NMa.s 			page 7


  36 0004 DBB2     		uxtb	r3, r3
  37              	.LVL1:
 308:.\Generated_Source\PSoC5/cyfitter_cfg.c **** 	if (enabled != 0u)
 309:.\Generated_Source\PSoC5/cyfitter_cfg.c **** 	{
 310:.\Generated_Source\PSoC5/cyfitter_cfg.c **** 		regValue |= 0x00u;
 311:.\Generated_Source\PSoC5/cyfitter_cfg.c **** 	}
 312:.\Generated_Source\PSoC5/cyfitter_cfg.c **** 	else
 313:.\Generated_Source\PSoC5/cyfitter_cfg.c **** 	{
 314:.\Generated_Source\PSoC5/cyfitter_cfg.c **** 		regValue &= (uint8)~0x00u;
 315:.\Generated_Source\PSoC5/cyfitter_cfg.c **** 	}
 316:.\Generated_Source\PSoC5/cyfitter_cfg.c **** 	CY_SET_XTND_REG8((void CYFAR *)CYREG_PUMP_CR0, regValue);
  38              		.loc 1 316 0
  39 0006 1370     		strb	r3, [r2]
  40 0008 7047     		bx	lr
  41              	.L3:
  42 000a 00BF     		.align	2
  43              	.L2:
  44 000c 76580040 		.word	1073764470
  45              		.cfi_endproc
  46              	.LFE7:
  47              		.size	SetAnalogRoutingPumps, .-SetAnalogRoutingPumps
  48              		.section	.text.cyfitter_cfg,"ax",%progbits
  49              		.align	1
  50              		.global	cyfitter_cfg
  51              		.thumb
  52              		.thumb_func
  53              		.type	cyfitter_cfg, %function
  54              	cyfitter_cfg:
  55              	.LFB8:
 317:.\Generated_Source\PSoC5/cyfitter_cfg.c **** }
 318:.\Generated_Source\PSoC5/cyfitter_cfg.c **** 
 319:.\Generated_Source\PSoC5/cyfitter_cfg.c **** #define CY_AMUX_UNUSED CYREG_BOOST_SR
 320:.\Generated_Source\PSoC5/cyfitter_cfg.c **** 
 321:.\Generated_Source\PSoC5/cyfitter_cfg.c **** 
 322:.\Generated_Source\PSoC5/cyfitter_cfg.c **** /*******************************************************************************
 323:.\Generated_Source\PSoC5/cyfitter_cfg.c **** * Function Name: cyfitter_cfg
 324:.\Generated_Source\PSoC5/cyfitter_cfg.c **** ********************************************************************************
 325:.\Generated_Source\PSoC5/cyfitter_cfg.c **** * Summary:
 326:.\Generated_Source\PSoC5/cyfitter_cfg.c **** *  This function is called by the start-up code for the selected device. It
 327:.\Generated_Source\PSoC5/cyfitter_cfg.c **** *  performs all of the necessary device configuration based on the design
 328:.\Generated_Source\PSoC5/cyfitter_cfg.c **** *  settings.  This includes settings from the Design Wide Resources (DWR) such
 329:.\Generated_Source\PSoC5/cyfitter_cfg.c **** *  as Clocks and Pins as well as any component configuration that is necessary.
 330:.\Generated_Source\PSoC5/cyfitter_cfg.c **** *
 331:.\Generated_Source\PSoC5/cyfitter_cfg.c **** * Parameters:  
 332:.\Generated_Source\PSoC5/cyfitter_cfg.c **** *   void
 333:.\Generated_Source\PSoC5/cyfitter_cfg.c **** *
 334:.\Generated_Source\PSoC5/cyfitter_cfg.c **** * Return:
 335:.\Generated_Source\PSoC5/cyfitter_cfg.c **** *   void
 336:.\Generated_Source\PSoC5/cyfitter_cfg.c **** *
 337:.\Generated_Source\PSoC5/cyfitter_cfg.c **** *******************************************************************************/
 338:.\Generated_Source\PSoC5/cyfitter_cfg.c **** 
 339:.\Generated_Source\PSoC5/cyfitter_cfg.c **** void cyfitter_cfg(void)
 340:.\Generated_Source\PSoC5/cyfitter_cfg.c **** {
  56              		.loc 1 340 0
  57              		.cfi_startproc
  58              		@ args = 0, pretend = 0, frame = 0
  59              		@ frame_needed = 0, uses_anonymous_args = 0
ARM GAS  C:\Users\acer\AppData\Local\Temp\ccSf9NMa.s 			page 8


  60 0000 F8B5     		push	{r3, r4, r5, r6, r7, lr}
  61              		.cfi_def_cfa_offset 24
  62              		.cfi_offset 3, -24
  63              		.cfi_offset 4, -20
  64              		.cfi_offset 5, -16
  65              		.cfi_offset 6, -12
  66              		.cfi_offset 7, -8
  67              		.cfi_offset 14, -4
 341:.\Generated_Source\PSoC5/cyfitter_cfg.c **** #ifdef CYGlobalIntDisable
 342:.\Generated_Source\PSoC5/cyfitter_cfg.c **** 	/* Disable interrupts by default. Let user enable if/when they want. */
 343:.\Generated_Source\PSoC5/cyfitter_cfg.c **** 	CYGlobalIntDisable
  68              		.loc 1 343 0
  69              	@ 343 ".\Generated_Source\PSoC5\cyfitter_cfg.c" 1
  70 0002 72B6     		CPSID   i
  71              	@ 0 "" 2
 344:.\Generated_Source\PSoC5/cyfitter_cfg.c **** #endif
 345:.\Generated_Source\PSoC5/cyfitter_cfg.c **** 
 346:.\Generated_Source\PSoC5/cyfitter_cfg.c **** 	/* Enable/Disable Debug functionality based on settings from System DWR */
 347:.\Generated_Source\PSoC5/cyfitter_cfg.c **** 	CY_SET_XTND_REG8((void CYFAR *)CYREG_MLOGIC_DEBUG, (CY_GET_XTND_REG8((void CYFAR *)CYREG_MLOGIC_DE
  72              		.loc 1 347 0
  73              		.thumb
  74 0004 6D4A     		ldr	r2, .L24
  75 0006 0024     		movs	r4, #0
  76 0008 1378     		ldrb	r3, [r2]	@ zero_extendqisi2
  77 000a 43F00403 		orr	r3, r3, #4
  78 000e 1370     		strb	r3, [r2]
  79              	.LVL2:
  80              	.L5:
  81              	.LBB34:
  82              	.LBB35:
 348:.\Generated_Source\PSoC5/cyfitter_cfg.c **** 
 349:.\Generated_Source\PSoC5/cyfitter_cfg.c **** 	{
 350:.\Generated_Source\PSoC5/cyfitter_cfg.c **** 
 351:.\Generated_Source\PSoC5/cyfitter_cfg.c **** 		CYPACKED typedef struct {
 352:.\Generated_Source\PSoC5/cyfitter_cfg.c **** 			void CYFAR *address;
 353:.\Generated_Source\PSoC5/cyfitter_cfg.c **** 			uint16 size;
 354:.\Generated_Source\PSoC5/cyfitter_cfg.c **** 		} CYPACKED_ATTR cfg_memset_t;
 355:.\Generated_Source\PSoC5/cyfitter_cfg.c **** 
 356:.\Generated_Source\PSoC5/cyfitter_cfg.c **** 		static const cfg_memset_t CYCODE cfg_memset_list [] = {
 357:.\Generated_Source\PSoC5/cyfitter_cfg.c **** 			/* address, size */
 358:.\Generated_Source\PSoC5/cyfitter_cfg.c **** 			{(void CYFAR *)(CYREG_I2C_XCFG), 25u},
 359:.\Generated_Source\PSoC5/cyfitter_cfg.c **** 			{(void CYFAR *)(CYREG_TMR0_CFG0), 24u},
 360:.\Generated_Source\PSoC5/cyfitter_cfg.c **** 			{(void CYFAR *)(CYREG_PRT1_DR), 16u},
 361:.\Generated_Source\PSoC5/cyfitter_cfg.c **** 			{(void CYFAR *)(CYREG_PRT3_DR), 64u},
 362:.\Generated_Source\PSoC5/cyfitter_cfg.c **** 			{(void CYFAR *)(CYREG_PRT15_DR), 16u},
 363:.\Generated_Source\PSoC5/cyfitter_cfg.c **** 			{(void CYFAR *)(CYDEV_UCFG_B0_P0_U0_BASE), 4096u},
 364:.\Generated_Source\PSoC5/cyfitter_cfg.c **** 			{(void CYFAR *)(CYDEV_UCFG_B1_P2_U0_BASE), 2048u},
 365:.\Generated_Source\PSoC5/cyfitter_cfg.c **** 			{(void CYFAR *)(CYDEV_UCFG_DSI0_BASE), 2560u},
 366:.\Generated_Source\PSoC5/cyfitter_cfg.c **** 			{(void CYFAR *)(CYDEV_UCFG_DSI12_BASE), 512u},
 367:.\Generated_Source\PSoC5/cyfitter_cfg.c **** 			{(void CYFAR *)(CYREG_BCTL0_MDCLK_EN), 32u},
 368:.\Generated_Source\PSoC5/cyfitter_cfg.c **** 		};
 369:.\Generated_Source\PSoC5/cyfitter_cfg.c **** 
 370:.\Generated_Source\PSoC5/cyfitter_cfg.c **** 		uint8 CYDATA i;
 371:.\Generated_Source\PSoC5/cyfitter_cfg.c **** 
 372:.\Generated_Source\PSoC5/cyfitter_cfg.c **** 		/* Zero out critical memory blocks before beginning configuration */
 373:.\Generated_Source\PSoC5/cyfitter_cfg.c **** 		for (i = 0u; i < (sizeof(cfg_memset_list)/sizeof(cfg_memset_list[0])); i++)
 374:.\Generated_Source\PSoC5/cyfitter_cfg.c **** 		{
ARM GAS  C:\Users\acer\AppData\Local\Temp\ccSf9NMa.s 			page 9


 375:.\Generated_Source\PSoC5/cyfitter_cfg.c **** 			const cfg_memset_t CYCODE * CYDATA ms = &cfg_memset_list[i];
 376:.\Generated_Source\PSoC5/cyfitter_cfg.c **** 			CYMEMZERO(ms->address, (size_t)(uint32)(ms->size));
  83              		.loc 1 376 0 discriminator 3
  84 0010 6B4A     		ldr	r2, .L24+4
  85 0012 0623     		movs	r3, #6
  86 0014 03FB0423 		mla	r3, r3, r4, r2
  87              	.LBB36:
  88              	.LBB37:
  62:.\Generated_Source\PSoC5/cyfitter_cfg.c **** }
  89              		.loc 1 62 0 discriminator 3
  90 0018 0021     		movs	r1, #0
  91 001a 1868     		ldr	r0, [r3]	@ unaligned
  92 001c 9A88     		ldrh	r2, [r3, #4]	@ unaligned
  93 001e 0134     		adds	r4, r4, #1
  94              	.LVL3:
  95 0020 FFF7FEFF 		bl	memset
  96              	.LVL4:
  97              	.LBE37:
  98              	.LBE36:
  99              	.LBE35:
 373:.\Generated_Source\PSoC5/cyfitter_cfg.c **** 		{
 100              		.loc 1 373 0 discriminator 3
 101 0024 0A2C     		cmp	r4, #10
 102 0026 F3D1     		bne	.L5
 103 0028 6648     		ldr	r0, .L24+8
 104 002a 0024     		movs	r4, #0
 105              	.LVL5:
 106              	.L8:
 107              	.LBB38:
 108              	.LBB39:
 109              	.LBB40:
 166:.\Generated_Source\PSoC5/cyfitter_cfg.c **** 		uint8 count = (uint8)baseAddr;
 110              		.loc 1 166 0
 111 002c 50F8041F 		ldr	r1, [r0, #4]!
 112              	.LVL6:
 113 0030 04F11053 		add	r3, r4, #603979776
 114 0034 03F13C02 		add	r2, r3, #60
 168:.\Generated_Source\PSoC5/cyfitter_cfg.c **** 		while (count != 0u)
 115              		.loc 1 168 0
 116 0038 21F0FF05 		bic	r5, r1, #255
 117              	.LVL7:
 118 003c 3D33     		adds	r3, r3, #61
 119 003e C9B2     		uxtb	r1, r1
 120 0040 0B44     		add	r3, r3, r1
 121 0042 5200     		lsls	r2, r2, #1
 122 0044 5B00     		lsls	r3, r3, #1
 123              	.LVL8:
 124              	.L6:
 125 0046 0232     		adds	r2, r2, #2
 169:.\Generated_Source\PSoC5/cyfitter_cfg.c **** 		{
 126              		.loc 1 169 0
 127 0048 9A42     		cmp	r2, r3
 128 004a 05D0     		beq	.L23
 171:.\Generated_Source\PSoC5/cyfitter_cfg.c **** 			j++;
 129              		.loc 1 171 0
 130 004c 12F8026C 		ldrb	r6, [r2, #-2]	@ zero_extendqisi2
 131 0050 12F8017C 		ldrb	r7, [r2, #-1]	@ zero_extendqisi2
ARM GAS  C:\Users\acer\AppData\Local\Temp\ccSf9NMa.s 			page 10


 132 0054 AF55     		strb	r7, [r5, r6]
 133 0056 F6E7     		b	.L6
 134              	.L23:
 135              	.LBE40:
 164:.\Generated_Source\PSoC5/cyfitter_cfg.c **** 	{
 136              		.loc 1 164 0
 137 0058 5B4B     		ldr	r3, .L24+12
 138 005a 0C44     		add	r4, r4, r1
 139              	.LVL9:
 140 005c 9842     		cmp	r0, r3
 141 005e E5D1     		bne	.L8
 142              	.LBE39:
 143              	.LBE38:
 377:.\Generated_Source\PSoC5/cyfitter_cfg.c **** 		}
 378:.\Generated_Source\PSoC5/cyfitter_cfg.c **** 
 379:.\Generated_Source\PSoC5/cyfitter_cfg.c **** 		cfg_write_bytes32(cy_cfg_addr_table, cy_cfg_data_table);
 380:.\Generated_Source\PSoC5/cyfitter_cfg.c **** 
 381:.\Generated_Source\PSoC5/cyfitter_cfg.c **** 		/* Enable digital routing */
 382:.\Generated_Source\PSoC5/cyfitter_cfg.c **** 		CY_SET_XTND_REG8((void CYFAR *)CYREG_BCTL0_BANK_CTL, CY_GET_XTND_REG8((void CYFAR *)CYREG_BCTL0_B
 144              		.loc 1 382 0
 145 0060 5A4A     		ldr	r2, .L24+16
 383:.\Generated_Source\PSoC5/cyfitter_cfg.c **** 		CY_SET_XTND_REG8((void CYFAR *)CYREG_BCTL1_BANK_CTL, CY_GET_XTND_REG8((void CYFAR *)CYREG_BCTL1_B
 384:.\Generated_Source\PSoC5/cyfitter_cfg.c **** 
 385:.\Generated_Source\PSoC5/cyfitter_cfg.c **** 		/* Enable UDB array */
 386:.\Generated_Source\PSoC5/cyfitter_cfg.c **** 		CY_SET_XTND_REG8((void CYFAR *)CYREG_PM_ACT_CFG0, CY_GET_XTND_REG8((void CYFAR *)CYREG_PM_ACT_CFG
 146              		.loc 1 386 0
 147 0062 5B4C     		ldr	r4, .L24+20
 148              	.LVL10:
 382:.\Generated_Source\PSoC5/cyfitter_cfg.c **** 		CY_SET_XTND_REG8((void CYFAR *)CYREG_BCTL1_BANK_CTL, CY_GET_XTND_REG8((void CYFAR *)CYREG_BCTL1_B
 149              		.loc 1 382 0
 150 0064 1378     		ldrb	r3, [r2]	@ zero_extendqisi2
 151              	.LBE34:
 152              	.LBB41:
 153              	.LBB42:
 218:.\Generated_Source\PSoC5/cyfitter_cfg.c **** 	for (timeout = 130000u / 10u; (timeout > 0u) && ((CY_GET_XTND_REG8((void CYFAR *)CYREG_FASTCLK_XMH
 154              		.loc 1 218 0
 155 0066 43F2C826 		movw	r6, #13000
 156              	.LBE42:
 157              	.LBE41:
 158              	.LBB46:
 382:.\Generated_Source\PSoC5/cyfitter_cfg.c **** 		CY_SET_XTND_REG8((void CYFAR *)CYREG_BCTL1_BANK_CTL, CY_GET_XTND_REG8((void CYFAR *)CYREG_BCTL1_B
 159              		.loc 1 382 0
 160 006a 43F00203 		orr	r3, r3, #2
 161 006e 1370     		strb	r3, [r2]
 383:.\Generated_Source\PSoC5/cyfitter_cfg.c **** 		CY_SET_XTND_REG8((void CYFAR *)CYREG_BCTL1_BANK_CTL, CY_GET_XTND_REG8((void CYFAR *)CYREG_BCTL1_B
 162              		.loc 1 383 0
 163 0070 137C     		ldrb	r3, [r2, #16]	@ zero_extendqisi2
 164 0072 43F00203 		orr	r3, r3, #2
 165 0076 1374     		strb	r3, [r2, #16]
 166              		.loc 1 386 0
 167 0078 2378     		ldrb	r3, [r4]	@ zero_extendqisi2
 387:.\Generated_Source\PSoC5/cyfitter_cfg.c **** 		CY_SET_XTND_REG8((void CYFAR *)CYREG_PM_AVAIL_CR2, CY_GET_XTND_REG8((void CYFAR *)CYREG_PM_AVAIL_
 168              		.loc 1 387 0
 169 007a A2F58632 		sub	r2, r2, #68608
 386:.\Generated_Source\PSoC5/cyfitter_cfg.c **** 		CY_SET_XTND_REG8((void CYFAR *)CYREG_PM_AVAIL_CR2, CY_GET_XTND_REG8((void CYFAR *)CYREG_PM_AVAIL_
 170              		.loc 1 386 0
 171 007e 43F04003 		orr	r3, r3, #64
ARM GAS  C:\Users\acer\AppData\Local\Temp\ccSf9NMa.s 			page 11


 172 0082 2370     		strb	r3, [r4]
 173              		.loc 1 387 0
 174 0084 413A     		subs	r2, r2, #65
 175 0086 1378     		ldrb	r3, [r2]	@ zero_extendqisi2
 176 0088 43F01003 		orr	r3, r3, #16
 177 008c 1370     		strb	r3, [r2]
 178              	.LVL11:
 179              	.LBE46:
 180              	.LBB47:
 181              	.LBB48:
  69:.\Generated_Source\PSoC5/cyfitter_cfg.c **** }
 182              		.loc 1 69 0
 183 008e 514A     		ldr	r2, .L24+24
 184 0090 514B     		ldr	r3, .L24+28
 185 0092 07CA     		ldmia	r2, {r0, r1, r2}
 186 0094 03C3     		stmia	r3!, {r0, r1}
 187 0096 1A80     		strh	r2, [r3]	@ movhi
 188              	.LVL12:
 189              	.LBE48:
 190              	.LBE47:
 191              	.LBB49:
 192              	.LBB50:
 193 0098 504A     		ldr	r2, .L24+32
 194 009a 514B     		ldr	r3, .L24+36
 195              	.LBE50:
 196              	.LBE49:
 388:.\Generated_Source\PSoC5/cyfitter_cfg.c **** 	}
 389:.\Generated_Source\PSoC5/cyfitter_cfg.c **** 
 390:.\Generated_Source\PSoC5/cyfitter_cfg.c **** 
 391:.\Generated_Source\PSoC5/cyfitter_cfg.c **** 	/* Perform second pass device configuration. These items must be configured in specific order afte
 392:.\Generated_Source\PSoC5/cyfitter_cfg.c **** 	CYCONFIGCPY((void CYFAR *)(CYREG_PRT0_DR), (const void CYFAR *)(BS_IOPINS0_0_VAL), 10u);
 393:.\Generated_Source\PSoC5/cyfitter_cfg.c **** 	CYCONFIGCPY((void CYFAR *)(CYREG_PRT12_DM0), (const void CYFAR *)(BS_IOPINS0_7_VAL), 8u);
 394:.\Generated_Source\PSoC5/cyfitter_cfg.c **** 	CYCONFIGCPY((void CYFAR *)(CYREG_PRT2_DM0), (const void CYFAR *)(BS_IOPINS0_2_VAL), 8u);
 395:.\Generated_Source\PSoC5/cyfitter_cfg.c **** 	/* Switch Boost to the precision bandgap reference from its internal reference */
 396:.\Generated_Source\PSoC5/cyfitter_cfg.c **** 	CY_SET_REG8((void CYXDATA *)CYREG_BOOST_CR2, (CY_GET_REG8((void CYXDATA *)CYREG_BOOST_CR2) | 0x08u
 197              		.loc 1 396 0
 198 009c A2F56A62 		sub	r2, r2, #3744
 199              	.LBB52:
 200              	.LBB51:
  69:.\Generated_Source\PSoC5/cyfitter_cfg.c **** }
 201              		.loc 1 69 0
 202 00a0 03CB     		ldmia	r3!, {r0, r1}
 203 00a2 C2F8A00E 		str	r0, [r2, #3744]	@ unaligned
 204 00a6 C2F8A41E 		str	r1, [r2, #3748]	@ unaligned
 205              	.LVL13:
 206              	.LBE51:
 207              	.LBE52:
 208              	.LBB53:
 209              	.LBB54:
 210 00aa 03CB     		ldmia	r3!, {r0, r1}
 211 00ac C2F8000E 		str	r0, [r2, #3584]	@ unaligned
 212 00b0 C2F8041E 		str	r1, [r2, #3588]	@ unaligned
 213              	.LBE54:
 214              	.LBE53:
 215              		.loc 1 396 0
 216 00b4 1378     		ldrb	r3, [r2]	@ zero_extendqisi2
 217              	.LBB55:
ARM GAS  C:\Users\acer\AppData\Local\Temp\ccSf9NMa.s 			page 12


 218              	.LBB43:
 203:.\Generated_Source\PSoC5/cyfitter_cfg.c **** 	CY_SET_XTND_REG16((void CYFAR *)(CYREG_CLKDIST_DCFG1_CFG0), 0x00EFu);
 219              		.loc 1 203 0
 220 00b6 1821     		movs	r1, #24
 221              	.LBE43:
 222              	.LBE55:
 223              		.loc 1 396 0
 224 00b8 43F00803 		orr	r3, r3, #8
 225 00bc 1370     		strb	r3, [r2]
 397:.\Generated_Source\PSoC5/cyfitter_cfg.c **** 
 398:.\Generated_Source\PSoC5/cyfitter_cfg.c **** 	/* Set Flash Cycles based on max possible frequency in case a glitch occurs during ClockSetup(). *
 399:.\Generated_Source\PSoC5/cyfitter_cfg.c **** 	CY_SET_XTND_REG8((void CYFAR *)(CYREG_CACHE_CC_CTL), (((CYDEV_INSTRUCT_CACHE_ENABLED) != 0) ? 0x61
 226              		.loc 1 399 0
 227 00be 494B     		ldr	r3, .L24+40
 228 00c0 6122     		movs	r2, #97
 229 00c2 1A70     		strb	r2, [r3]
 230              	.LBB56:
 231              	.LBB44:
 202:.\Generated_Source\PSoC5/cyfitter_cfg.c **** 	CY_SET_XTND_REG8((void CYFAR *)(CYREG_CLKDIST_DCFG0_CFG0 + 0x2u), 0x18u);
 232              		.loc 1 202 0
 233 00c4 484A     		ldr	r2, .L24+44
 234 00c6 1923     		movs	r3, #25
 204:.\Generated_Source\PSoC5/cyfitter_cfg.c **** 	CY_SET_XTND_REG8((void CYFAR *)(CYREG_CLKDIST_DCFG1_CFG0 + 0x2u), 0x18u);
 235              		.loc 1 204 0
 236 00c8 4848     		ldr	r0, .L24+48
 202:.\Generated_Source\PSoC5/cyfitter_cfg.c **** 	CY_SET_XTND_REG8((void CYFAR *)(CYREG_CLKDIST_DCFG0_CFG0 + 0x2u), 0x18u);
 237              		.loc 1 202 0
 238 00ca 1380     		strh	r3, [r2]	@ movhi
 203:.\Generated_Source\PSoC5/cyfitter_cfg.c **** 	CY_SET_XTND_REG16((void CYFAR *)(CYREG_CLKDIST_DCFG1_CFG0), 0x00EFu);
 239              		.loc 1 203 0
 240 00cc 9170     		strb	r1, [r2, #2]
 204:.\Generated_Source\PSoC5/cyfitter_cfg.c **** 	CY_SET_XTND_REG8((void CYFAR *)(CYREG_CLKDIST_DCFG1_CFG0 + 0x2u), 0x18u);
 241              		.loc 1 204 0
 242 00ce EF22     		movs	r2, #239
 243 00d0 0280     		strh	r2, [r0]	@ movhi
 205:.\Generated_Source\PSoC5/cyfitter_cfg.c **** 	CY_SET_XTND_REG16((void CYFAR *)(CYREG_CLKDIST_DCFG2_CFG0), 0x00EFu);
 244              		.loc 1 205 0
 245 00d2 8170     		strb	r1, [r0, #2]
 206:.\Generated_Source\PSoC5/cyfitter_cfg.c **** 	CY_SET_XTND_REG8((void CYFAR *)(CYREG_CLKDIST_DCFG2_CFG0 + 0x2u), 0x19u);
 246              		.loc 1 206 0
 247 00d4 4649     		ldr	r1, .L24+52
 248 00d6 0A80     		strh	r2, [r1]	@ movhi
 207:.\Generated_Source\PSoC5/cyfitter_cfg.c **** 	CY_SET_XTND_REG16((void CYFAR *)(CYREG_CLKDIST_DCFG3_CFG0), 0x0000u);
 249              		.loc 1 207 0
 250 00d8 464A     		ldr	r2, .L24+56
 251 00da 1370     		strb	r3, [r2]
 208:.\Generated_Source\PSoC5/cyfitter_cfg.c **** 	CY_SET_XTND_REG8((void CYFAR *)(CYREG_CLKDIST_DCFG3_CFG0 + 0x2u), 0x1Bu);
 252              		.loc 1 208 0
 253 00dc 464B     		ldr	r3, .L24+60
 254 00de 0022     		movs	r2, #0
 255 00e0 1A80     		strh	r2, [r3]	@ movhi
 209:.\Generated_Source\PSoC5/cyfitter_cfg.c **** 
 256              		.loc 1 209 0
 257 00e2 1B22     		movs	r2, #27
 258 00e4 9A70     		strb	r2, [r3, #2]
 212:.\Generated_Source\PSoC5/cyfitter_cfg.c **** 
 259              		.loc 1 212 0
ARM GAS  C:\Users\acer\AppData\Local\Temp\ccSf9NMa.s 			page 13


 260 00e6 2622     		movs	r2, #38
 261 00e8 83F87422 		strb	r2, [r3, #628]
 215:.\Generated_Source\PSoC5/cyfitter_cfg.c **** 	CY_SET_XTND_REG8((void CYFAR *)(CYREG_FASTCLK_XMHZ_CSR), 0x05u);
 262              		.loc 1 215 0
 263 00ec 43F21332 		movw	r2, #13075
 264 00f0 A3F88621 		strh	r2, [r3, #390]	@ movhi
 216:.\Generated_Source\PSoC5/cyfitter_cfg.c **** 	/* Wait up to 130000us for the XTAL to lock */
 265              		.loc 1 216 0
 266 00f4 0522     		movs	r2, #5
 267 00f6 83F88421 		strb	r2, [r3, #388]
 218:.\Generated_Source\PSoC5/cyfitter_cfg.c **** 	for (timeout = 130000u / 10u; (timeout > 0u) && ((CY_GET_XTND_REG8((void CYFAR *)CYREG_FASTCLK_XMH
 268              		.loc 1 218 0
 269 00fa 93F88421 		ldrb	r2, [r3, #388]	@ zero_extendqisi2
 216:.\Generated_Source\PSoC5/cyfitter_cfg.c **** 	/* Wait up to 130000us for the XTAL to lock */
 270              		.loc 1 216 0
 271 00fe 03F5C273 		add	r3, r3, #388
 272              	.LVL14:
 273 0102 1D46     		mov	r5, r3
 274              	.LVL15:
 275              	.L9:
 219:.\Generated_Source\PSoC5/cyfitter_cfg.c **** 	{ 
 276              		.loc 1 219 0
 277 0104 2B78     		ldrb	r3, [r5]	@ zero_extendqisi2
 278 0106 1B06     		lsls	r3, r3, #24
 279 0108 05D5     		bpl	.L12
 222:.\Generated_Source\PSoC5/cyfitter_cfg.c **** 	}
 280              		.loc 1 222 0
 281 010a 4FF4F070 		mov	r0, #480
 282 010e FFF7FEFF 		bl	CyDelayCycles
 283              	.LVL16:
 219:.\Generated_Source\PSoC5/cyfitter_cfg.c **** 	{ 
 284              		.loc 1 219 0
 285 0112 013E     		subs	r6, r6, #1
 286              	.LVL17:
 287 0114 F6D1     		bne	.L9
 288              	.LVL18:
 289              	.L12:
 226:.\Generated_Source\PSoC5/cyfitter_cfg.c **** 	CY_SET_XTND_REG8((void CYFAR *)(CYREG_IMO_TR1), (CY_GET_XTND_REG8((void CYFAR *)CYREG_FLSHID_CUST_
 290              		.loc 1 226 0
 291 0116 394B     		ldr	r3, .L24+64
 292 0118 5222     		movs	r2, #82
 293 011a 1A70     		strb	r2, [r3]
 227:.\Generated_Source\PSoC5/cyfitter_cfg.c **** 
 294              		.loc 1 227 0
 295 011c 384B     		ldr	r3, .L24+68
 296 011e 394A     		ldr	r2, .L24+72
 297 0120 1B78     		ldrb	r3, [r3]	@ zero_extendqisi2
 231:.\Generated_Source\PSoC5/cyfitter_cfg.c **** 	/* Wait up to 250us for the PLL to lock */
 298              		.loc 1 231 0
 299 0122 1926     		movs	r6, #25
 227:.\Generated_Source\PSoC5/cyfitter_cfg.c **** 
 300              		.loc 1 227 0
 301 0124 DBB2     		uxtb	r3, r3
 302 0126 1370     		strb	r3, [r2]
 230:.\Generated_Source\PSoC5/cyfitter_cfg.c **** 	CY_SET_XTND_REG16((void CYFAR *)(CYREG_FASTCLK_PLL_CFG0), 0x1251u);
 303              		.loc 1 230 0
 304 0128 374B     		ldr	r3, .L24+76
ARM GAS  C:\Users\acer\AppData\Local\Temp\ccSf9NMa.s 			page 14


 305 012a 4FF4E162 		mov	r2, #1800
 306 012e 1A80     		strh	r2, [r3]	@ movhi
 231:.\Generated_Source\PSoC5/cyfitter_cfg.c **** 	/* Wait up to 250us for the PLL to lock */
 307              		.loc 1 231 0
 308 0130 41F25122 		movw	r2, #4689
 233:.\Generated_Source\PSoC5/cyfitter_cfg.c **** 	for (timeout = 250u / 10u; (timeout > 0u) && (pllLock != 0x03u); timeout--)
 309              		.loc 1 233 0
 310 0134 0025     		movs	r5, #0
 231:.\Generated_Source\PSoC5/cyfitter_cfg.c **** 	/* Wait up to 250us for the PLL to lock */
 311              		.loc 1 231 0
 312 0136 23F8022C 		strh	r2, [r3, #-2]	@ movhi
 313              	.LVL19:
 314              	.L10:
 236:.\Generated_Source\PSoC5/cyfitter_cfg.c **** 		CyDelayCycles(10u * 48u); /* Delay 10us based on 48MHz clock */
 315              		.loc 1 236 0
 316 013a 344B     		ldr	r3, .L24+80
 237:.\Generated_Source\PSoC5/cyfitter_cfg.c **** 	}
 317              		.loc 1 237 0
 318 013c 4FF4F070 		mov	r0, #480
 236:.\Generated_Source\PSoC5/cyfitter_cfg.c **** 		CyDelayCycles(10u * 48u); /* Delay 10us based on 48MHz clock */
 319              		.loc 1 236 0
 320 0140 1B78     		ldrb	r3, [r3]	@ zero_extendqisi2
 321 0142 03F00103 		and	r3, r3, #1
 322 0146 43EA4505 		orr	r5, r3, r5, lsl #1
 323              	.LVL20:
 237:.\Generated_Source\PSoC5/cyfitter_cfg.c **** 	}
 324              		.loc 1 237 0
 325 014a FFF7FEFF 		bl	CyDelayCycles
 326              	.LVL21:
 234:.\Generated_Source\PSoC5/cyfitter_cfg.c **** 	{ 
 327              		.loc 1 234 0
 328 014e 013E     		subs	r6, r6, #1
 329              	.LVL22:
 236:.\Generated_Source\PSoC5/cyfitter_cfg.c **** 		CyDelayCycles(10u * 48u); /* Delay 10us based on 48MHz clock */
 330              		.loc 1 236 0
 331 0150 05F00305 		and	r5, r5, #3
 332              	.LVL23:
 234:.\Generated_Source\PSoC5/cyfitter_cfg.c **** 	{ 
 333              		.loc 1 234 0
 334 0154 30D0     		beq	.L13
 335              	.LVL24:
 336 0156 032D     		cmp	r5, #3
 337 0158 EFD1     		bne	.L10
 246:.\Generated_Source\PSoC5/cyfitter_cfg.c **** 	CY_SET_XTND_REG8((void CYFAR *)(CYREG_CLKDIST_MSTR0), 0x07u);
 338              		.loc 1 246 0
 339 015a 2D4A     		ldr	r2, .L24+84
 340 015c 4FF48073 		mov	r3, #256
 341 0160 1380     		strh	r3, [r2]	@ movhi
 248:.\Generated_Source\PSoC5/cyfitter_cfg.c **** 	CY_SET_XTND_REG8((void CYFAR *)(CYREG_CLKDIST_BCFG2), 0x48u);
 342              		.loc 1 248 0
 343 0162 2C49     		ldr	r1, .L24+88
 247:.\Generated_Source\PSoC5/cyfitter_cfg.c **** 	CY_SET_XTND_REG8((void CYFAR *)(CYREG_CLKDIST_BCFG0), 0x00u);
 344              		.loc 1 247 0
 345 0164 0723     		movs	r3, #7
 346 0166 1370     		strb	r3, [r2]
 249:.\Generated_Source\PSoC5/cyfitter_cfg.c **** 	CY_SET_XTND_REG8((void CYFAR *)(CYREG_CLKDIST_MSTR0), 0x00u);
 347              		.loc 1 249 0
ARM GAS  C:\Users\acer\AppData\Local\Temp\ccSf9NMa.s 			page 15


 348 0168 4820     		movs	r0, #72
 248:.\Generated_Source\PSoC5/cyfitter_cfg.c **** 	CY_SET_XTND_REG8((void CYFAR *)(CYREG_CLKDIST_BCFG2), 0x48u);
 349              		.loc 1 248 0
 350 016a 0023     		movs	r3, #0
 351 016c 0B70     		strb	r3, [r1]
 249:.\Generated_Source\PSoC5/cyfitter_cfg.c **** 	CY_SET_XTND_REG8((void CYFAR *)(CYREG_CLKDIST_MSTR0), 0x00u);
 352              		.loc 1 249 0
 353 016e 8870     		strb	r0, [r1, #2]
 250:.\Generated_Source\PSoC5/cyfitter_cfg.c **** 
 354              		.loc 1 250 0
 355 0170 1370     		strb	r3, [r2]
 253:.\Generated_Source\PSoC5/cyfitter_cfg.c **** 	CY_SET_XTND_REG8((void CYFAR *)(CYREG_CLKDIST_LD), 0x02u);
 356              		.loc 1 253 0
 357 0172 5371     		strb	r3, [r2, #5]
 254:.\Generated_Source\PSoC5/cyfitter_cfg.c **** 
 358              		.loc 1 254 0
 359 0174 284B     		ldr	r3, .L24+92
 360 0176 0222     		movs	r2, #2
 361 0178 1A70     		strb	r2, [r3]
 256:.\Generated_Source\PSoC5/cyfitter_cfg.c **** }
 362              		.loc 1 256 0
 363 017a 284A     		ldr	r2, .L24+96
 364              	.LBE44:
 365              	.LBE56:
 366              	.LBB57:
 367              	.LBB58:
  69:.\Generated_Source\PSoC5/cyfitter_cfg.c **** }
 368              		.loc 1 69 0
 369 017c 284D     		ldr	r5, .L24+100
 370              	.LVL25:
 371              	.LBE58:
 372              	.LBE57:
 373              	.LBB60:
 374              	.LBB45:
 256:.\Generated_Source\PSoC5/cyfitter_cfg.c **** }
 375              		.loc 1 256 0
 376 017e 1378     		ldrb	r3, [r2]	@ zero_extendqisi2
 377 0180 43F00F03 		orr	r3, r3, #15
 378 0184 1370     		strb	r3, [r2]
 379              	.LBE45:
 380              	.LBE60:
 400:.\Generated_Source\PSoC5/cyfitter_cfg.c **** 	/* Setup clocks based on selections from Clock DWR */
 401:.\Generated_Source\PSoC5/cyfitter_cfg.c **** 	ClockSetup();
 402:.\Generated_Source\PSoC5/cyfitter_cfg.c **** 	/* Set Flash Cycles based on newly configured 24.00MHz Bus Clock. */
 403:.\Generated_Source\PSoC5/cyfitter_cfg.c **** 	CY_SET_XTND_REG8((void CYFAR *)(CYREG_CACHE_CC_CTL), (((CYDEV_INSTRUCT_CACHE_ENABLED) != 0) ? 0x81
 381              		.loc 1 403 0
 382 0186 174B     		ldr	r3, .L24+40
 383 0188 8122     		movs	r2, #129
 384 018a 1A70     		strb	r2, [r3]
 404:.\Generated_Source\PSoC5/cyfitter_cfg.c **** 	CY_SET_XTND_REG8((void CYFAR *)(CYREG_PANTHER_WAITPIPE), 0x01u);
 385              		.loc 1 404 0
 386 018c 03F5F723 		add	r3, r3, #505856
 387 0190 0122     		movs	r2, #1
 388 0192 0433     		adds	r3, r3, #4
 389 0194 1A70     		strb	r2, [r3]
 390              	.LBB61:
 391              	.LBB62:
ARM GAS  C:\Users\acer\AppData\Local\Temp\ccSf9NMa.s 			page 16


 281:.\Generated_Source\PSoC5/cyfitter_cfg.c **** 	CY_SET_XTND_REG8((void CYFAR *)(CYREG_BG_DFT0), (bg_xover_inl_trim & 0x07u));
 392              		.loc 1 281 0
 393 0196 234B     		ldr	r3, .L24+104
 282:.\Generated_Source\PSoC5/cyfitter_cfg.c **** 	CY_SET_XTND_REG8((void CYFAR *)(CYREG_BG_DFT1), ((bg_xover_inl_trim >> 4) & 0x0Fu));
 394              		.loc 1 282 0
 395 0198 234A     		ldr	r2, .L24+108
 281:.\Generated_Source\PSoC5/cyfitter_cfg.c **** 	CY_SET_XTND_REG8((void CYFAR *)(CYREG_BG_DFT0), (bg_xover_inl_trim & 0x07u));
 396              		.loc 1 281 0
 397 019a 1B78     		ldrb	r3, [r3]	@ zero_extendqisi2
 398 019c DBB2     		uxtb	r3, r3
 399              	.LVL26:
 282:.\Generated_Source\PSoC5/cyfitter_cfg.c **** 	CY_SET_XTND_REG8((void CYFAR *)(CYREG_BG_DFT1), ((bg_xover_inl_trim >> 4) & 0x0Fu));
 400              		.loc 1 282 0
 401 019e 03F00701 		and	r1, r3, #7
 283:.\Generated_Source\PSoC5/cyfitter_cfg.c **** 	CY_SET_XTND_REG8((void CYFAR *)CYREG_PUMP_CR0, 0x44u);
 402              		.loc 1 283 0
 403 01a2 1B09     		lsrs	r3, r3, #4
 404              	.LVL27:
 282:.\Generated_Source\PSoC5/cyfitter_cfg.c **** 	CY_SET_XTND_REG8((void CYFAR *)(CYREG_BG_DFT1), ((bg_xover_inl_trim >> 4) & 0x0Fu));
 405              		.loc 1 282 0
 406 01a4 1170     		strb	r1, [r2]
 283:.\Generated_Source\PSoC5/cyfitter_cfg.c **** 	CY_SET_XTND_REG8((void CYFAR *)CYREG_PUMP_CR0, 0x44u);
 407              		.loc 1 283 0
 408 01a6 5370     		strb	r3, [r2, #1]
 284:.\Generated_Source\PSoC5/cyfitter_cfg.c **** }
 409              		.loc 1 284 0
 410 01a8 204B     		ldr	r3, .L24+112
 411 01aa 4422     		movs	r2, #68
 412 01ac 1A70     		strb	r2, [r3]
 413              	.LVL28:
 414              	.LBE62:
 415              	.LBE61:
 416              	.LBB63:
 417              	.LBB59:
  69:.\Generated_Source\PSoC5/cyfitter_cfg.c **** }
 418              		.loc 1 69 0
 419 01ae 94E80F00 		ldmia	r4, {r0, r1, r2, r3}
 420 01b2 07C5     		stmia	r5!, {r0, r1, r2}
 421 01b4 2B80     		strh	r3, [r5]	@ movhi
 422 01b6 F8BD     		pop	{r3, r4, r5, r6, r7, pc}
 423              	.LVL29:
 424              	.L13:
 425 01b8 FEE7     		b	.L13
 426              	.L25:
 427 01ba 00BF     		.align	2
 428              	.L24:
 429 01bc E8460040 		.word	1073759976
 430 01c0 00000000 		.word	.LANCHOR0
 431 01c4 FCFFFF47 		.word	1207959548
 432 01c8 74000048 		.word	1207959668
 433 01cc 03500140 		.word	1073827843
 434 01d0 A0430040 		.word	1073759136
 435 01d4 84050048 		.word	1207960964
 436 01d8 00510040 		.word	1073762560
 437 01dc C2510040 		.word	1073762754
 438 01e0 90050048 		.word	1207960976
 439 01e4 00480040 		.word	1073760256
ARM GAS  C:\Users\acer\AppData\Local\Temp\ccSf9NMa.s 			page 17


 440 01e8 80400040 		.word	1073758336
 441 01ec 84400040 		.word	1073758340
 442 01f0 88400040 		.word	1073758344
 443 01f4 8A400040 		.word	1073758346
 444 01f8 8C400040 		.word	1073758348
 445 01fc 00420040 		.word	1073758720
 446 0200 0F010049 		.word	1224737039
 447 0204 A1460040 		.word	1073759905
 448 0208 22420040 		.word	1073758754
 449 020c 25420040 		.word	1073758757
 450 0210 04400040 		.word	1073758212
 451 0214 06400040 		.word	1073758214
 452 0218 01400040 		.word	1073758209
 453 021c A2430040 		.word	1073759138
 454 0220 B0430040 		.word	1073759152
 455 0224 CF010049 		.word	1224737231
 456 0228 6E580040 		.word	1073764462
 457 022c 76580040 		.word	1073764470
 458              	.LBE59:
 459              	.LBE63:
 460              		.cfi_endproc
 461              	.LFE8:
 462              		.size	cyfitter_cfg, .-cyfitter_cfg
 463              		.section	.rodata
 464              		.set	.LANCHOR0,. + 0
 465              		.type	cfg_memset_list.4879, %object
 466              		.size	cfg_memset_list.4879, 60
 467              	cfg_memset_list.4879:
 468 0000 C8490040 		.4byte	1073760712
 469 0004 1900     		.2byte	25
 470 0006 004F0040 		.4byte	1073762048
 471 000a 1800     		.2byte	24
 472 000c 10510040 		.4byte	1073762576
 473 0010 1000     		.2byte	16
 474 0012 30510040 		.4byte	1073762608
 475 0016 4000     		.2byte	64
 476 0018 F0510040 		.4byte	1073762800
 477 001c 1000     		.2byte	16
 478 001e 00000140 		.4byte	1073807360
 479 0022 0010     		.2byte	4096
 480 0024 00140140 		.4byte	1073812480
 481 0028 0008     		.2byte	2048
 482 002a 00400140 		.4byte	1073823744
 483 002e 000A     		.2byte	2560
 484 0030 004C0140 		.4byte	1073826816
 485 0034 0002     		.2byte	512
 486 0036 00500140 		.4byte	1073827840
 487 003a 2000     		.2byte	32
 488              		.text
 489              	.Letext0:
 490              		.file 2 "c:\\program files\\cypress\\psoc creator\\3.3\\psoc creator\\import\\gnu\\arm\\4.9.3\\lib
 491              		.file 3 ".\\Generated_Source\\PSoC5\\cytypes.h"
 492              		.file 4 ".\\Generated_Source\\PSoC5\\CyLib.h"