ARM GAS  C:\Users\acer\AppData\Local\Temp\ccK9hLJi.s 			page 1


   1              		.syntax unified
   2              		.cpu cortex-m3
   3              		.fpu softvfp
   4              		.eabi_attribute 20, 1
   5              		.eabi_attribute 21, 1
   6              		.eabi_attribute 23, 3
   7              		.eabi_attribute 24, 1
   8              		.eabi_attribute 25, 1
   9              		.eabi_attribute 26, 1
  10              		.eabi_attribute 30, 4
  11              		.eabi_attribute 34, 1
  12              		.eabi_attribute 18, 4
  13              		.thumb
  14              		.file	"CyFlash.c"
  15              		.text
  16              	.Ltext0:
  17              		.cfi_sections	.debug_frame
  18              		.section	.text.CyFlash_Start,"ax",%progbits
  19              		.align	1
  20              		.global	CyFlash_Start
  21              		.thumb
  22              		.thumb_func
  23              		.type	CyFlash_Start, %function
  24              	CyFlash_Start:
  25              	.LFB0:
  26              		.file 1 ".\\Generated_Source\\PSoC5\\CyFlash.c"
   1:.\Generated_Source\PSoC5/CyFlash.c **** /*******************************************************************************
   2:.\Generated_Source\PSoC5/CyFlash.c **** * File Name: CyFlash.c
   3:.\Generated_Source\PSoC5/CyFlash.c **** * Version 4.20
   4:.\Generated_Source\PSoC5/CyFlash.c **** *
   5:.\Generated_Source\PSoC5/CyFlash.c **** *  Description:
   6:.\Generated_Source\PSoC5/CyFlash.c **** *   Provides an API for the FLASH/EEPROM.
   7:.\Generated_Source\PSoC5/CyFlash.c **** *
   8:.\Generated_Source\PSoC5/CyFlash.c **** *  Note:
   9:.\Generated_Source\PSoC5/CyFlash.c **** *   This code is endian agnostic.
  10:.\Generated_Source\PSoC5/CyFlash.c **** *
  11:.\Generated_Source\PSoC5/CyFlash.c **** *  Note:
  12:.\Generated_Source\PSoC5/CyFlash.c **** *   Documentation of the API's in this file is located in the
  13:.\Generated_Source\PSoC5/CyFlash.c **** *   System Reference Guide provided with PSoC Creator.
  14:.\Generated_Source\PSoC5/CyFlash.c **** *
  15:.\Generated_Source\PSoC5/CyFlash.c **** ********************************************************************************
  16:.\Generated_Source\PSoC5/CyFlash.c **** * Copyright 2008-2014, Cypress Semiconductor Corporation. All rights reserved.
  17:.\Generated_Source\PSoC5/CyFlash.c **** * You may use this file only in accordance with the license, terms, conditions,
  18:.\Generated_Source\PSoC5/CyFlash.c **** * disclaimers, and limitations in the end user license agreement accompanying
  19:.\Generated_Source\PSoC5/CyFlash.c **** * the software package with which this file was provided.
  20:.\Generated_Source\PSoC5/CyFlash.c **** *******************************************************************************/
  21:.\Generated_Source\PSoC5/CyFlash.c **** 
  22:.\Generated_Source\PSoC5/CyFlash.c **** #include "CyFlash.h"
  23:.\Generated_Source\PSoC5/CyFlash.c **** 
  24:.\Generated_Source\PSoC5/CyFlash.c **** /*  The number of EEPROM arrays */
  25:.\Generated_Source\PSoC5/CyFlash.c **** #define CY_FLASH_EEPROM_NUMBER_ARRAYS                 (1u)
  26:.\Generated_Source\PSoC5/CyFlash.c **** 
  27:.\Generated_Source\PSoC5/CyFlash.c **** 
  28:.\Generated_Source\PSoC5/CyFlash.c **** /*******************************************************************************
  29:.\Generated_Source\PSoC5/CyFlash.c **** * Holds the die temperature, updated by CySetTemp(). Used for flash writing.
  30:.\Generated_Source\PSoC5/CyFlash.c **** * The first byte is the sign of the temperature (0 = negative, 1 = positive).
  31:.\Generated_Source\PSoC5/CyFlash.c **** * The second byte is the magnitude.
ARM GAS  C:\Users\acer\AppData\Local\Temp\ccK9hLJi.s 			page 2


  32:.\Generated_Source\PSoC5/CyFlash.c **** *******************************************************************************/
  33:.\Generated_Source\PSoC5/CyFlash.c **** uint8 dieTemperature[CY_FLASH_DIE_TEMP_DATA_SIZE];
  34:.\Generated_Source\PSoC5/CyFlash.c **** 
  35:.\Generated_Source\PSoC5/CyFlash.c **** #if(CYDEV_ECC_ENABLE == 0)
  36:.\Generated_Source\PSoC5/CyFlash.c ****     static uint8 * rowBuffer = 0;
  37:.\Generated_Source\PSoC5/CyFlash.c **** #endif  /* (CYDEV_ECC_ENABLE == 0) */
  38:.\Generated_Source\PSoC5/CyFlash.c **** 
  39:.\Generated_Source\PSoC5/CyFlash.c **** 
  40:.\Generated_Source\PSoC5/CyFlash.c **** static cystatus CySetTempInt(void);
  41:.\Generated_Source\PSoC5/CyFlash.c **** static cystatus CyFlashGetSpcAlgorithm(void);
  42:.\Generated_Source\PSoC5/CyFlash.c **** 
  43:.\Generated_Source\PSoC5/CyFlash.c **** 
  44:.\Generated_Source\PSoC5/CyFlash.c **** /*******************************************************************************
  45:.\Generated_Source\PSoC5/CyFlash.c **** * Function Name: CyFlash_Start
  46:.\Generated_Source\PSoC5/CyFlash.c **** ********************************************************************************
  47:.\Generated_Source\PSoC5/CyFlash.c **** *
  48:.\Generated_Source\PSoC5/CyFlash.c **** * Summary:
  49:.\Generated_Source\PSoC5/CyFlash.c **** *  Enable the Flash.
  50:.\Generated_Source\PSoC5/CyFlash.c **** *
  51:.\Generated_Source\PSoC5/CyFlash.c **** * Parameters:
  52:.\Generated_Source\PSoC5/CyFlash.c **** *  None
  53:.\Generated_Source\PSoC5/CyFlash.c **** *
  54:.\Generated_Source\PSoC5/CyFlash.c **** * Return:
  55:.\Generated_Source\PSoC5/CyFlash.c **** *  None
  56:.\Generated_Source\PSoC5/CyFlash.c **** *
  57:.\Generated_Source\PSoC5/CyFlash.c **** *******************************************************************************/
  58:.\Generated_Source\PSoC5/CyFlash.c **** void CyFlash_Start(void) 
  59:.\Generated_Source\PSoC5/CyFlash.c **** {
  27              		.loc 1 59 0
  28              		.cfi_startproc
  29              		@ args = 0, pretend = 0, frame = 0
  30              		@ frame_needed = 0, uses_anonymous_args = 0
  31 0000 08B5     		push	{r3, lr}
  32              		.cfi_def_cfa_offset 8
  33              		.cfi_offset 3, -8
  34              		.cfi_offset 14, -4
  60:.\Generated_Source\PSoC5/CyFlash.c ****     uint8 interruptState;
  61:.\Generated_Source\PSoC5/CyFlash.c **** 
  62:.\Generated_Source\PSoC5/CyFlash.c ****     interruptState = CyEnterCriticalSection();
  35              		.loc 1 62 0
  36 0002 FFF7FEFF 		bl	CyEnterCriticalSection
  37              	.LVL0:
  63:.\Generated_Source\PSoC5/CyFlash.c **** 
  64:.\Generated_Source\PSoC5/CyFlash.c **** 
  65:.\Generated_Source\PSoC5/CyFlash.c ****     /***************************************************************************
  66:.\Generated_Source\PSoC5/CyFlash.c ****     * Enable SPC clock. This also internally enables the 36MHz IMO, since this
  67:.\Generated_Source\PSoC5/CyFlash.c ****     * is required for the SPC to function.
  68:.\Generated_Source\PSoC5/CyFlash.c ****     ***************************************************************************/
  69:.\Generated_Source\PSoC5/CyFlash.c ****     CY_FLASH_PM_ACT_CFG0_REG    |= CY_FLASH_PM_ACT_CFG0_EN_CLK_SPC;
  38              		.loc 1 69 0
  39 0006 0E4A     		ldr	r2, .L6
  40 0008 1378     		ldrb	r3, [r2]	@ zero_extendqisi2
  41 000a 43F00803 		orr	r3, r3, #8
  42 000e 1370     		strb	r3, [r2]
  70:.\Generated_Source\PSoC5/CyFlash.c ****     CY_FLASH_PM_ALTACT_CFG0_REG |= CY_FLASH_PM_ALTACT_CFG0_EN_CLK_SPC;
  43              		.loc 1 70 0
  44 0010 137C     		ldrb	r3, [r2, #16]	@ zero_extendqisi2
ARM GAS  C:\Users\acer\AppData\Local\Temp\ccK9hLJi.s 			page 3


  45 0012 43F00803 		orr	r3, r3, #8
  46 0016 1374     		strb	r3, [r2, #16]
  71:.\Generated_Source\PSoC5/CyFlash.c **** 
  72:.\Generated_Source\PSoC5/CyFlash.c **** 
  73:.\Generated_Source\PSoC5/CyFlash.c ****     /***************************************************************************
  74:.\Generated_Source\PSoC5/CyFlash.c ****     * The wake count defines the number of Bus Clock cycles it takes for the
  75:.\Generated_Source\PSoC5/CyFlash.c ****     * flash or eeprom to wake up from a low power mode independent of the chip
  76:.\Generated_Source\PSoC5/CyFlash.c ****     * power mode. Wake up time for these blocks is 5 us.
  77:.\Generated_Source\PSoC5/CyFlash.c ****     * The granularity of this register is 2 Bus Clock cycles, so a value of 0x1E
  78:.\Generated_Source\PSoC5/CyFlash.c ****     * (30d) defines the wake up time as 60 cycles of the Bus Clock.
  79:.\Generated_Source\PSoC5/CyFlash.c ****     * This register needs to be written with a value dependent on the Bus Clock
  80:.\Generated_Source\PSoC5/CyFlash.c ****     * frequency so that the duration of the cycles is equal to or greater than
  81:.\Generated_Source\PSoC5/CyFlash.c ****     * the 5 us delay required.
  82:.\Generated_Source\PSoC5/CyFlash.c ****     ***************************************************************************/
  83:.\Generated_Source\PSoC5/CyFlash.c ****     CY_FLASH_SPC_FM_EE_WAKE_CNT_REG = CY_FLASH_SPC_FM_EE_WAKE_CNT_80MHZ;
  47              		.loc 1 83 0
  48 0018 0A4B     		ldr	r3, .L6+4
  49 001a C822     		movs	r2, #200
  50 001c 1A70     		strb	r2, [r3]
  84:.\Generated_Source\PSoC5/CyFlash.c **** 
  85:.\Generated_Source\PSoC5/CyFlash.c **** 
  86:.\Generated_Source\PSoC5/CyFlash.c ****     /***************************************************************************
  87:.\Generated_Source\PSoC5/CyFlash.c ****     * Enable flash. Active flash macros consume current, but re-enabling a
  88:.\Generated_Source\PSoC5/CyFlash.c ****     * disabled flash macro takes 5us. If the CPU attempts to fetch out of the
  89:.\Generated_Source\PSoC5/CyFlash.c ****     * macro during that time, it will be stalled. This bit allows the flash to
  90:.\Generated_Source\PSoC5/CyFlash.c ****     * be enabled even if the CPU is disabled, which allows a quicker return to
  91:.\Generated_Source\PSoC5/CyFlash.c ****     * code execution.
  92:.\Generated_Source\PSoC5/CyFlash.c ****     ***************************************************************************/
  93:.\Generated_Source\PSoC5/CyFlash.c ****     CY_FLASH_PM_ACT_CFG12_REG    |= CY_FLASH_PM_ACT_CFG12_EN_FM;
  51              		.loc 1 93 0
  52 001e 0A4A     		ldr	r2, .L6+8
  53 0020 1378     		ldrb	r3, [r2]	@ zero_extendqisi2
  54 0022 43F00F03 		orr	r3, r3, #15
  55 0026 1370     		strb	r3, [r2]
  94:.\Generated_Source\PSoC5/CyFlash.c ****     CY_FLASH_PM_ALTACT_CFG12_REG |= CY_FLASH_PM_ALTACT_CFG12_EN_FM;
  56              		.loc 1 94 0
  57 0028 137C     		ldrb	r3, [r2, #16]	@ zero_extendqisi2
  58 002a 43F00F03 		orr	r3, r3, #15
  59 002e 1374     		strb	r3, [r2, #16]
  60              	.L2:
  95:.\Generated_Source\PSoC5/CyFlash.c **** 
  96:.\Generated_Source\PSoC5/CyFlash.c ****     while(0u == (CY_FLASH_SPC_FM_EE_CR_REG & CY_FLASH_EE_EE_AWAKE))
  61              		.loc 1 96 0 discriminator 1
  62 0030 064B     		ldr	r3, .L6+12
  63 0032 1B78     		ldrb	r3, [r3]	@ zero_extendqisi2
  64 0034 9B06     		lsls	r3, r3, #26
  65 0036 FBD5     		bpl	.L2
  97:.\Generated_Source\PSoC5/CyFlash.c ****     {
  98:.\Generated_Source\PSoC5/CyFlash.c ****         /* Non-zero status denotes that the EEPROM/Flash is awake & powered. */
  99:.\Generated_Source\PSoC5/CyFlash.c ****     }
 100:.\Generated_Source\PSoC5/CyFlash.c **** 
 101:.\Generated_Source\PSoC5/CyFlash.c ****     CyExitCriticalSection(interruptState);
 102:.\Generated_Source\PSoC5/CyFlash.c **** }
  66              		.loc 1 102 0
  67 0038 BDE80840 		pop	{r3, lr}
  68              		.cfi_restore 14
  69              		.cfi_restore 3
ARM GAS  C:\Users\acer\AppData\Local\Temp\ccK9hLJi.s 			page 4


  70              		.cfi_def_cfa_offset 0
 101:.\Generated_Source\PSoC5/CyFlash.c **** }
  71              		.loc 1 101 0
  72 003c FFF7FEBF 		b	CyExitCriticalSection
  73              	.LVL1:
  74              	.L7:
  75              		.align	2
  76              	.L6:
  77 0040 A0430040 		.word	1073759136
  78 0044 01470040 		.word	1073760001
  79 0048 AC430040 		.word	1073759148
  80 004c 00470040 		.word	1073760000
  81              		.cfi_endproc
  82              	.LFE0:
  83              		.size	CyFlash_Start, .-CyFlash_Start
  84              		.section	.text.CyFlash_Stop,"ax",%progbits
  85              		.align	1
  86              		.global	CyFlash_Stop
  87              		.thumb
  88              		.thumb_func
  89              		.type	CyFlash_Stop, %function
  90              	CyFlash_Stop:
  91              	.LFB1:
 103:.\Generated_Source\PSoC5/CyFlash.c **** 
 104:.\Generated_Source\PSoC5/CyFlash.c **** 
 105:.\Generated_Source\PSoC5/CyFlash.c **** /*******************************************************************************
 106:.\Generated_Source\PSoC5/CyFlash.c **** * Function Name: CyFlash_Stop
 107:.\Generated_Source\PSoC5/CyFlash.c **** ********************************************************************************
 108:.\Generated_Source\PSoC5/CyFlash.c **** *
 109:.\Generated_Source\PSoC5/CyFlash.c **** * Summary:
 110:.\Generated_Source\PSoC5/CyFlash.c **** *  Disable the Flash.
 111:.\Generated_Source\PSoC5/CyFlash.c **** *
 112:.\Generated_Source\PSoC5/CyFlash.c **** * Parameters:
 113:.\Generated_Source\PSoC5/CyFlash.c **** *  None
 114:.\Generated_Source\PSoC5/CyFlash.c **** *
 115:.\Generated_Source\PSoC5/CyFlash.c **** * Return:
 116:.\Generated_Source\PSoC5/CyFlash.c **** *  None
 117:.\Generated_Source\PSoC5/CyFlash.c **** *
 118:.\Generated_Source\PSoC5/CyFlash.c **** * Side Effects:
 119:.\Generated_Source\PSoC5/CyFlash.c **** *  This setting is ignored as long as the CPU is currently running.  This will
 120:.\Generated_Source\PSoC5/CyFlash.c **** *  only take effect when the CPU is later disabled.
 121:.\Generated_Source\PSoC5/CyFlash.c **** *
 122:.\Generated_Source\PSoC5/CyFlash.c **** *******************************************************************************/
 123:.\Generated_Source\PSoC5/CyFlash.c **** void CyFlash_Stop(void) 
 124:.\Generated_Source\PSoC5/CyFlash.c **** {
  92              		.loc 1 124 0
  93              		.cfi_startproc
  94              		@ args = 0, pretend = 0, frame = 0
  95              		@ frame_needed = 0, uses_anonymous_args = 0
  96 0000 08B5     		push	{r3, lr}
  97              		.cfi_def_cfa_offset 8
  98              		.cfi_offset 3, -8
  99              		.cfi_offset 14, -4
 125:.\Generated_Source\PSoC5/CyFlash.c ****     uint8 interruptState;
 126:.\Generated_Source\PSoC5/CyFlash.c **** 
 127:.\Generated_Source\PSoC5/CyFlash.c ****     interruptState = CyEnterCriticalSection();
 100              		.loc 1 127 0
ARM GAS  C:\Users\acer\AppData\Local\Temp\ccK9hLJi.s 			page 5


 101 0002 FFF7FEFF 		bl	CyEnterCriticalSection
 102              	.LVL2:
 128:.\Generated_Source\PSoC5/CyFlash.c **** 
 129:.\Generated_Source\PSoC5/CyFlash.c ****     CY_FLASH_PM_ACT_CFG12_REG    &= ((uint8)(~CY_FLASH_PM_ACT_CFG12_EN_FM));
 103              		.loc 1 129 0
 104 0006 064A     		ldr	r2, .L9
 105 0008 1378     		ldrb	r3, [r2]	@ zero_extendqisi2
 106 000a 03F0F003 		and	r3, r3, #240
 107 000e 1370     		strb	r3, [r2]
 130:.\Generated_Source\PSoC5/CyFlash.c ****     CY_FLASH_PM_ALTACT_CFG12_REG &= ((uint8)(~CY_FLASH_PM_ALTACT_CFG12_EN_FM));
 108              		.loc 1 130 0
 109 0010 137C     		ldrb	r3, [r2, #16]	@ zero_extendqisi2
 110 0012 03F0F003 		and	r3, r3, #240
 111 0016 1374     		strb	r3, [r2, #16]
 131:.\Generated_Source\PSoC5/CyFlash.c **** 
 132:.\Generated_Source\PSoC5/CyFlash.c ****     CyExitCriticalSection(interruptState);
 133:.\Generated_Source\PSoC5/CyFlash.c **** }
 112              		.loc 1 133 0
 113 0018 BDE80840 		pop	{r3, lr}
 114              		.cfi_restore 14
 115              		.cfi_restore 3
 116              		.cfi_def_cfa_offset 0
 132:.\Generated_Source\PSoC5/CyFlash.c **** }
 117              		.loc 1 132 0
 118 001c FFF7FEBF 		b	CyExitCriticalSection
 119              	.LVL3:
 120              	.L10:
 121              		.align	2
 122              	.L9:
 123 0020 AC430040 		.word	1073759148
 124              		.cfi_endproc
 125              	.LFE1:
 126              		.size	CyFlash_Stop, .-CyFlash_Stop
 127              		.section	.text.CySetTemp,"ax",%progbits
 128              		.align	1
 129              		.global	CySetTemp
 130              		.thumb
 131              		.thumb_func
 132              		.type	CySetTemp, %function
 133              	CySetTemp:
 134              	.LFB4:
 134:.\Generated_Source\PSoC5/CyFlash.c **** 
 135:.\Generated_Source\PSoC5/CyFlash.c **** 
 136:.\Generated_Source\PSoC5/CyFlash.c **** /*******************************************************************************
 137:.\Generated_Source\PSoC5/CyFlash.c **** * Function Name: CySetTempInt
 138:.\Generated_Source\PSoC5/CyFlash.c **** ********************************************************************************
 139:.\Generated_Source\PSoC5/CyFlash.c **** *
 140:.\Generated_Source\PSoC5/CyFlash.c **** * Summary:
 141:.\Generated_Source\PSoC5/CyFlash.c **** *  Sends a command to the SPC to read the die temperature. Sets a global value
 142:.\Generated_Source\PSoC5/CyFlash.c **** *  used by the Write function. This function must be called once before
 143:.\Generated_Source\PSoC5/CyFlash.c **** *  executing a series of Flash writing functions.
 144:.\Generated_Source\PSoC5/CyFlash.c **** *
 145:.\Generated_Source\PSoC5/CyFlash.c **** * Parameters:
 146:.\Generated_Source\PSoC5/CyFlash.c **** *  None
 147:.\Generated_Source\PSoC5/CyFlash.c **** *
 148:.\Generated_Source\PSoC5/CyFlash.c **** * Return:
 149:.\Generated_Source\PSoC5/CyFlash.c **** *  status:
ARM GAS  C:\Users\acer\AppData\Local\Temp\ccK9hLJi.s 			page 6


 150:.\Generated_Source\PSoC5/CyFlash.c **** *   CYRET_SUCCESS - if successful
 151:.\Generated_Source\PSoC5/CyFlash.c **** *   CYRET_LOCKED  - if Flash writing already in use
 152:.\Generated_Source\PSoC5/CyFlash.c **** *   CYRET_UNKNOWN - if there was an SPC error
 153:.\Generated_Source\PSoC5/CyFlash.c **** *
 154:.\Generated_Source\PSoC5/CyFlash.c **** *******************************************************************************/
 155:.\Generated_Source\PSoC5/CyFlash.c **** static cystatus CySetTempInt(void) 
 156:.\Generated_Source\PSoC5/CyFlash.c **** {
 157:.\Generated_Source\PSoC5/CyFlash.c ****     cystatus status;
 158:.\Generated_Source\PSoC5/CyFlash.c **** 
 159:.\Generated_Source\PSoC5/CyFlash.c ****     /* Make sure SPC is powered */
 160:.\Generated_Source\PSoC5/CyFlash.c ****     CySpcStart();
 161:.\Generated_Source\PSoC5/CyFlash.c **** 
 162:.\Generated_Source\PSoC5/CyFlash.c ****     /* Plan for failure. */
 163:.\Generated_Source\PSoC5/CyFlash.c ****     status = CYRET_UNKNOWN;
 164:.\Generated_Source\PSoC5/CyFlash.c **** 
 165:.\Generated_Source\PSoC5/CyFlash.c ****     if(CySpcLock() == CYRET_SUCCESS)
 166:.\Generated_Source\PSoC5/CyFlash.c ****     {
 167:.\Generated_Source\PSoC5/CyFlash.c ****         /* Write the command. */
 168:.\Generated_Source\PSoC5/CyFlash.c ****         if(CYRET_STARTED == CySpcGetTemp(CY_TEMP_NUMBER_OF_SAMPLES))
 169:.\Generated_Source\PSoC5/CyFlash.c ****         {
 170:.\Generated_Source\PSoC5/CyFlash.c ****             do
 171:.\Generated_Source\PSoC5/CyFlash.c ****             {
 172:.\Generated_Source\PSoC5/CyFlash.c ****                 if(CySpcReadData(dieTemperature, CY_FLASH_DIE_TEMP_DATA_SIZE) == CY_FLASH_DIE_TEMP_
 173:.\Generated_Source\PSoC5/CyFlash.c ****                 {
 174:.\Generated_Source\PSoC5/CyFlash.c ****                     status = CYRET_SUCCESS;
 175:.\Generated_Source\PSoC5/CyFlash.c **** 
 176:.\Generated_Source\PSoC5/CyFlash.c ****                     while(CY_SPC_BUSY)
 177:.\Generated_Source\PSoC5/CyFlash.c ****                     {
 178:.\Generated_Source\PSoC5/CyFlash.c ****                         /* Spin until idle. */
 179:.\Generated_Source\PSoC5/CyFlash.c ****                         CyDelayUs(1u);
 180:.\Generated_Source\PSoC5/CyFlash.c ****                     }
 181:.\Generated_Source\PSoC5/CyFlash.c ****                     break;
 182:.\Generated_Source\PSoC5/CyFlash.c ****                 }
 183:.\Generated_Source\PSoC5/CyFlash.c **** 
 184:.\Generated_Source\PSoC5/CyFlash.c ****             } while(CY_SPC_BUSY);
 185:.\Generated_Source\PSoC5/CyFlash.c ****         }
 186:.\Generated_Source\PSoC5/CyFlash.c **** 
 187:.\Generated_Source\PSoC5/CyFlash.c ****         CySpcUnlock();
 188:.\Generated_Source\PSoC5/CyFlash.c ****     }
 189:.\Generated_Source\PSoC5/CyFlash.c ****     else
 190:.\Generated_Source\PSoC5/CyFlash.c ****     {
 191:.\Generated_Source\PSoC5/CyFlash.c ****         status = CYRET_LOCKED;
 192:.\Generated_Source\PSoC5/CyFlash.c ****     }
 193:.\Generated_Source\PSoC5/CyFlash.c **** 
 194:.\Generated_Source\PSoC5/CyFlash.c ****     return (status);
 195:.\Generated_Source\PSoC5/CyFlash.c **** }
 196:.\Generated_Source\PSoC5/CyFlash.c **** 
 197:.\Generated_Source\PSoC5/CyFlash.c **** 
 198:.\Generated_Source\PSoC5/CyFlash.c **** /*******************************************************************************
 199:.\Generated_Source\PSoC5/CyFlash.c **** * Function Name: CyFlashGetSpcAlgorithm
 200:.\Generated_Source\PSoC5/CyFlash.c **** ********************************************************************************
 201:.\Generated_Source\PSoC5/CyFlash.c **** *
 202:.\Generated_Source\PSoC5/CyFlash.c **** * Summary:
 203:.\Generated_Source\PSoC5/CyFlash.c **** *  Sends a command to the SPC to download code into RAM.
 204:.\Generated_Source\PSoC5/CyFlash.c **** *
 205:.\Generated_Source\PSoC5/CyFlash.c **** * Parameters:
 206:.\Generated_Source\PSoC5/CyFlash.c **** *  None
ARM GAS  C:\Users\acer\AppData\Local\Temp\ccK9hLJi.s 			page 7


 207:.\Generated_Source\PSoC5/CyFlash.c **** *
 208:.\Generated_Source\PSoC5/CyFlash.c **** * Return:
 209:.\Generated_Source\PSoC5/CyFlash.c **** *  status:
 210:.\Generated_Source\PSoC5/CyFlash.c **** *   CYRET_SUCCESS - if successful
 211:.\Generated_Source\PSoC5/CyFlash.c **** *   CYRET_LOCKED  - if Flash writing already in use
 212:.\Generated_Source\PSoC5/CyFlash.c **** *   CYRET_UNKNOWN - if there was an SPC error
 213:.\Generated_Source\PSoC5/CyFlash.c **** *
 214:.\Generated_Source\PSoC5/CyFlash.c **** *******************************************************************************/
 215:.\Generated_Source\PSoC5/CyFlash.c **** static cystatus CyFlashGetSpcAlgorithm(void) 
 216:.\Generated_Source\PSoC5/CyFlash.c **** {
 217:.\Generated_Source\PSoC5/CyFlash.c ****     cystatus status;
 218:.\Generated_Source\PSoC5/CyFlash.c **** 
 219:.\Generated_Source\PSoC5/CyFlash.c ****     /* Make sure SPC is powered */
 220:.\Generated_Source\PSoC5/CyFlash.c ****     CySpcStart();
 221:.\Generated_Source\PSoC5/CyFlash.c **** 
 222:.\Generated_Source\PSoC5/CyFlash.c ****     if(CySpcLock() == CYRET_SUCCESS)
 223:.\Generated_Source\PSoC5/CyFlash.c ****     {
 224:.\Generated_Source\PSoC5/CyFlash.c ****         status = CySpcGetAlgorithm();
 225:.\Generated_Source\PSoC5/CyFlash.c **** 
 226:.\Generated_Source\PSoC5/CyFlash.c ****         if(CYRET_STARTED == status)
 227:.\Generated_Source\PSoC5/CyFlash.c ****         {
 228:.\Generated_Source\PSoC5/CyFlash.c ****             while(CY_SPC_BUSY)
 229:.\Generated_Source\PSoC5/CyFlash.c ****             {
 230:.\Generated_Source\PSoC5/CyFlash.c ****                 /* Spin until idle. */
 231:.\Generated_Source\PSoC5/CyFlash.c ****                 CyDelayUs(1u);
 232:.\Generated_Source\PSoC5/CyFlash.c ****             }
 233:.\Generated_Source\PSoC5/CyFlash.c **** 
 234:.\Generated_Source\PSoC5/CyFlash.c ****             if(CY_SPC_STATUS_SUCCESS == CY_SPC_READ_STATUS)
 235:.\Generated_Source\PSoC5/CyFlash.c ****             {
 236:.\Generated_Source\PSoC5/CyFlash.c ****                 status = CYRET_SUCCESS;
 237:.\Generated_Source\PSoC5/CyFlash.c ****             }
 238:.\Generated_Source\PSoC5/CyFlash.c ****         }
 239:.\Generated_Source\PSoC5/CyFlash.c ****         CySpcUnlock();
 240:.\Generated_Source\PSoC5/CyFlash.c ****     }
 241:.\Generated_Source\PSoC5/CyFlash.c ****     else
 242:.\Generated_Source\PSoC5/CyFlash.c ****     {
 243:.\Generated_Source\PSoC5/CyFlash.c ****         status = CYRET_LOCKED;
 244:.\Generated_Source\PSoC5/CyFlash.c ****     }
 245:.\Generated_Source\PSoC5/CyFlash.c **** 
 246:.\Generated_Source\PSoC5/CyFlash.c ****     return (status);
 247:.\Generated_Source\PSoC5/CyFlash.c **** }
 248:.\Generated_Source\PSoC5/CyFlash.c **** 
 249:.\Generated_Source\PSoC5/CyFlash.c **** 
 250:.\Generated_Source\PSoC5/CyFlash.c **** /*******************************************************************************
 251:.\Generated_Source\PSoC5/CyFlash.c **** * Function Name: CySetTemp
 252:.\Generated_Source\PSoC5/CyFlash.c **** ********************************************************************************
 253:.\Generated_Source\PSoC5/CyFlash.c **** *
 254:.\Generated_Source\PSoC5/CyFlash.c **** * Summary:
 255:.\Generated_Source\PSoC5/CyFlash.c **** *  This is a wraparound for CySetTempInt(). It is used to return the second
 256:.\Generated_Source\PSoC5/CyFlash.c **** *  successful read of the temperature value.
 257:.\Generated_Source\PSoC5/CyFlash.c **** *
 258:.\Generated_Source\PSoC5/CyFlash.c **** * Parameters:
 259:.\Generated_Source\PSoC5/CyFlash.c **** *  None
 260:.\Generated_Source\PSoC5/CyFlash.c **** *
 261:.\Generated_Source\PSoC5/CyFlash.c **** * Return:
 262:.\Generated_Source\PSoC5/CyFlash.c **** *  status:
 263:.\Generated_Source\PSoC5/CyFlash.c **** *   CYRET_SUCCESS if successful.
ARM GAS  C:\Users\acer\AppData\Local\Temp\ccK9hLJi.s 			page 8


 264:.\Generated_Source\PSoC5/CyFlash.c **** *   CYRET_LOCKED  if Flash writing already in use
 265:.\Generated_Source\PSoC5/CyFlash.c **** *   CYRET_UNKNOWN if there was an SPC error.
 266:.\Generated_Source\PSoC5/CyFlash.c **** *
 267:.\Generated_Source\PSoC5/CyFlash.c **** *  uint8 dieTemperature[2]:
 268:.\Generated_Source\PSoC5/CyFlash.c **** *   Holds the die temperature for the flash writing algorithm. The first byte is
 269:.\Generated_Source\PSoC5/CyFlash.c **** *   the sign of the temperature (0 = negative, 1 = positive). The second byte is
 270:.\Generated_Source\PSoC5/CyFlash.c **** *   the magnitude.
 271:.\Generated_Source\PSoC5/CyFlash.c **** *
 272:.\Generated_Source\PSoC5/CyFlash.c **** *******************************************************************************/
 273:.\Generated_Source\PSoC5/CyFlash.c **** cystatus CySetTemp(void) 
 274:.\Generated_Source\PSoC5/CyFlash.c **** {
 135              		.loc 1 274 0
 136              		.cfi_startproc
 137              		@ args = 0, pretend = 0, frame = 0
 138              		@ frame_needed = 0, uses_anonymous_args = 0
 139 0000 38B5     		push	{r3, r4, r5, lr}
 140              		.cfi_def_cfa_offset 16
 141              		.cfi_offset 3, -16
 142              		.cfi_offset 4, -12
 143              		.cfi_offset 5, -8
 144              		.cfi_offset 14, -4
 145              	.LBB6:
 146              	.LBB7:
 220:.\Generated_Source\PSoC5/CyFlash.c **** 
 147              		.loc 1 220 0
 148 0002 FFF7FEFF 		bl	CySpcStart
 149              	.LVL4:
 222:.\Generated_Source\PSoC5/CyFlash.c ****     {
 150              		.loc 1 222 0
 151 0006 FFF7FEFF 		bl	CySpcLock
 152              	.LVL5:
 153 000a 08B1     		cbz	r0, .L12
 154              	.L17:
 243:.\Generated_Source\PSoC5/CyFlash.c ****     }
 155              		.loc 1 243 0
 156 000c 0424     		movs	r4, #4
 157 000e 38E0     		b	.L13
 158              	.L12:
 224:.\Generated_Source\PSoC5/CyFlash.c **** 
 159              		.loc 1 224 0
 160 0010 FFF7FEFF 		bl	CySpcGetAlgorithm
 161              	.LVL6:
 226:.\Generated_Source\PSoC5/CyFlash.c ****         {
 162              		.loc 1 226 0
 163 0014 0728     		cmp	r0, #7
 224:.\Generated_Source\PSoC5/CyFlash.c **** 
 164              		.loc 1 224 0
 165 0016 0446     		mov	r4, r0
 166              	.LVL7:
 226:.\Generated_Source\PSoC5/CyFlash.c ****         {
 167              		.loc 1 226 0
 168 0018 0FD1     		bne	.L15
 169              	.LVL8:
 170              	.L14:
 228:.\Generated_Source\PSoC5/CyFlash.c ****             {
 171              		.loc 1 228 0
 172 001a 1B4B     		ldr	r3, .L37
ARM GAS  C:\Users\acer\AppData\Local\Temp\ccK9hLJi.s 			page 9


 173 001c 1A78     		ldrb	r2, [r3]	@ zero_extendqisi2
 174 001e 9007     		lsls	r0, r2, #30
 175 0020 03D4     		bmi	.L36
 231:.\Generated_Source\PSoC5/CyFlash.c ****             }
 176              		.loc 1 231 0
 177 0022 0120     		movs	r0, #1
 178 0024 FFF7FEFF 		bl	CyDelayUs
 179              	.LVL9:
 180 0028 F7E7     		b	.L14
 181              	.L36:
 234:.\Generated_Source\PSoC5/CyFlash.c ****             {
 182              		.loc 1 234 0
 183 002a 1A78     		ldrb	r2, [r3]	@ zero_extendqisi2
 184 002c 9107     		lsls	r1, r2, #30
 185 002e 04D5     		bpl	.L15
 186 0030 1B78     		ldrb	r3, [r3]	@ zero_extendqisi2
 236:.\Generated_Source\PSoC5/CyFlash.c ****             }
 187              		.loc 1 236 0
 188 0032 9B08     		lsrs	r3, r3, #2
 189 0034 14BF     		ite	ne
 190 0036 0724     		movne	r4, #7
 191              	.LVL10:
 192 0038 0024     		moveq	r4, #0
 193              	.L15:
 194              	.LVL11:
 239:.\Generated_Source\PSoC5/CyFlash.c ****     }
 195              		.loc 1 239 0
 196 003a FFF7FEFF 		bl	CySpcUnlock
 197              	.LVL12:
 198              	.LBE7:
 199              	.LBE6:
 275:.\Generated_Source\PSoC5/CyFlash.c ****     cystatus status = CyFlashGetSpcAlgorithm();
 276:.\Generated_Source\PSoC5/CyFlash.c **** 
 277:.\Generated_Source\PSoC5/CyFlash.c ****     if(status == CYRET_SUCCESS)
 200              		.loc 1 277 0
 201 003e 04BB     		cbnz	r4, .L13
 202              	.LVL13:
 203              	.LBB8:
 204              	.LBB9:
 160:.\Generated_Source\PSoC5/CyFlash.c **** 
 205              		.loc 1 160 0
 206 0040 FFF7FEFF 		bl	CySpcStart
 207              	.LVL14:
 165:.\Generated_Source\PSoC5/CyFlash.c ****     {
 208              		.loc 1 165 0
 209 0044 FFF7FEFF 		bl	CySpcLock
 210              	.LVL15:
 211 0048 0028     		cmp	r0, #0
 212 004a DFD1     		bne	.L17
 168:.\Generated_Source\PSoC5/CyFlash.c ****         {
 213              		.loc 1 168 0
 214 004c 0120     		movs	r0, #1
 215 004e FFF7FEFF 		bl	CySpcGetTemp
 216              	.LVL16:
 217 0052 0728     		cmp	r0, #7
 218 0054 05D0     		beq	.L18
 219              	.L23:
ARM GAS  C:\Users\acer\AppData\Local\Temp\ccK9hLJi.s 			page 10


 163:.\Generated_Source\PSoC5/CyFlash.c **** 
 220              		.loc 1 163 0
 221 0056 4FF0FF34 		mov	r4, #-1
 222 005a 10E0     		b	.L19
 223              	.L35:
 184:.\Generated_Source\PSoC5/CyFlash.c ****         }
 224              		.loc 1 184 0
 225 005c 2B78     		ldrb	r3, [r5]	@ zero_extendqisi2
 226 005e 9B07     		lsls	r3, r3, #30
 227 0060 F9D4     		bmi	.L23
 228              	.L18:
 172:.\Generated_Source\PSoC5/CyFlash.c ****                 {
 229              		.loc 1 172 0
 230 0062 0A48     		ldr	r0, .L37+4
 231 0064 0221     		movs	r1, #2
 232 0066 FFF7FEFF 		bl	CySpcReadData
 233              	.LVL17:
 234 006a 0228     		cmp	r0, #2
 235 006c 064D     		ldr	r5, .L37
 236 006e F5D1     		bne	.L35
 237              	.L20:
 176:.\Generated_Source\PSoC5/CyFlash.c ****                     {
 238              		.loc 1 176 0
 239 0070 2B78     		ldrb	r3, [r5]	@ zero_extendqisi2
 240 0072 9A07     		lsls	r2, r3, #30
 241 0074 03D4     		bmi	.L19
 179:.\Generated_Source\PSoC5/CyFlash.c ****                     }
 242              		.loc 1 179 0
 243 0076 0120     		movs	r0, #1
 244 0078 FFF7FEFF 		bl	CyDelayUs
 245              	.LVL18:
 246 007c F8E7     		b	.L20
 247              	.L19:
 248              	.LVL19:
 187:.\Generated_Source\PSoC5/CyFlash.c ****     }
 249              		.loc 1 187 0
 250 007e FFF7FEFF 		bl	CySpcUnlock
 251              	.LVL20:
 252              	.L13:
 253              	.LBE9:
 254              	.LBE8:
 278:.\Generated_Source\PSoC5/CyFlash.c ****     {
 279:.\Generated_Source\PSoC5/CyFlash.c ****         status = CySetTempInt();
 280:.\Generated_Source\PSoC5/CyFlash.c ****     }
 281:.\Generated_Source\PSoC5/CyFlash.c **** 
 282:.\Generated_Source\PSoC5/CyFlash.c ****     return (status);
 283:.\Generated_Source\PSoC5/CyFlash.c **** }
 255              		.loc 1 283 0
 256 0082 2046     		mov	r0, r4
 257 0084 38BD     		pop	{r3, r4, r5, pc}
 258              	.LVL21:
 259              	.L38:
 260 0086 00BF     		.align	2
 261              	.L37:
 262 0088 22470040 		.word	1073760034
 263 008c 00000000 		.word	dieTemperature
 264              		.cfi_endproc
ARM GAS  C:\Users\acer\AppData\Local\Temp\ccK9hLJi.s 			page 11


 265              	.LFE4:
 266              		.size	CySetTemp, .-CySetTemp
 267              		.section	.text.CySetFlashEEBuffer,"ax",%progbits
 268              		.align	1
 269              		.global	CySetFlashEEBuffer
 270              		.thumb
 271              		.thumb_func
 272              		.type	CySetFlashEEBuffer, %function
 273              	CySetFlashEEBuffer:
 274              	.LFB5:
 284:.\Generated_Source\PSoC5/CyFlash.c **** 
 285:.\Generated_Source\PSoC5/CyFlash.c **** 
 286:.\Generated_Source\PSoC5/CyFlash.c **** /*******************************************************************************
 287:.\Generated_Source\PSoC5/CyFlash.c **** * Function Name: CySetFlashEEBuffer
 288:.\Generated_Source\PSoC5/CyFlash.c **** ********************************************************************************
 289:.\Generated_Source\PSoC5/CyFlash.c **** *
 290:.\Generated_Source\PSoC5/CyFlash.c **** * Summary:
 291:.\Generated_Source\PSoC5/CyFlash.c **** *  Sets the user supplied temporary buffer to store SPC data while performing
 292:.\Generated_Source\PSoC5/CyFlash.c **** *  Flash and EEPROM commands. This buffer is only necessary when the Flash ECC is
 293:.\Generated_Source\PSoC5/CyFlash.c **** *  disabled.
 294:.\Generated_Source\PSoC5/CyFlash.c **** *
 295:.\Generated_Source\PSoC5/CyFlash.c **** * Parameters:
 296:.\Generated_Source\PSoC5/CyFlash.c **** *  buffer:
 297:.\Generated_Source\PSoC5/CyFlash.c **** *   The address of a block of memory to store temporary memory. The size of the block
 298:.\Generated_Source\PSoC5/CyFlash.c **** *   of memory is CYDEV_FLS_ROW_SIZE + CYDEV_ECC_ROW_SIZE.
 299:.\Generated_Source\PSoC5/CyFlash.c **** *
 300:.\Generated_Source\PSoC5/CyFlash.c **** * Return:
 301:.\Generated_Source\PSoC5/CyFlash.c **** *  status:
 302:.\Generated_Source\PSoC5/CyFlash.c **** *   CYRET_SUCCESS if successful.
 303:.\Generated_Source\PSoC5/CyFlash.c **** *   CYRET_BAD_PARAM if the buffer is NULL
 304:.\Generated_Source\PSoC5/CyFlash.c **** *
 305:.\Generated_Source\PSoC5/CyFlash.c **** *******************************************************************************/
 306:.\Generated_Source\PSoC5/CyFlash.c **** cystatus CySetFlashEEBuffer(uint8 * buffer) 
 307:.\Generated_Source\PSoC5/CyFlash.c **** {
 275              		.loc 1 307 0
 276              		.cfi_startproc
 277              		@ args = 0, pretend = 0, frame = 0
 278              		@ frame_needed = 0, uses_anonymous_args = 0
 279              	.LVL22:
 280 0000 38B5     		push	{r3, r4, r5, lr}
 281              		.cfi_def_cfa_offset 16
 282              		.cfi_offset 3, -16
 283              		.cfi_offset 4, -12
 284              		.cfi_offset 5, -8
 285              		.cfi_offset 14, -4
 286              		.loc 1 307 0
 287 0002 0546     		mov	r5, r0
 308:.\Generated_Source\PSoC5/CyFlash.c ****     cystatus status = CYRET_SUCCESS;
 309:.\Generated_Source\PSoC5/CyFlash.c **** 
 310:.\Generated_Source\PSoC5/CyFlash.c ****     CySpcStart();
 288              		.loc 1 310 0
 289 0004 FFF7FEFF 		bl	CySpcStart
 290              	.LVL23:
 311:.\Generated_Source\PSoC5/CyFlash.c **** 
 312:.\Generated_Source\PSoC5/CyFlash.c ****     #if(CYDEV_ECC_ENABLE == 0)
 313:.\Generated_Source\PSoC5/CyFlash.c **** 
 314:.\Generated_Source\PSoC5/CyFlash.c ****         if(NULL == buffer)
ARM GAS  C:\Users\acer\AppData\Local\Temp\ccK9hLJi.s 			page 12


 291              		.loc 1 314 0
 292 0008 4DB1     		cbz	r5, .L41
 315:.\Generated_Source\PSoC5/CyFlash.c ****         {
 316:.\Generated_Source\PSoC5/CyFlash.c ****             rowBuffer = rowBuffer;
 317:.\Generated_Source\PSoC5/CyFlash.c ****             status = CYRET_BAD_PARAM;
 318:.\Generated_Source\PSoC5/CyFlash.c ****         }
 319:.\Generated_Source\PSoC5/CyFlash.c ****         else if(CySpcLock() != CYRET_SUCCESS)
 293              		.loc 1 319 0
 294 000a FFF7FEFF 		bl	CySpcLock
 295              	.LVL24:
 296 000e 0446     		mov	r4, r0
 297 0010 38B9     		cbnz	r0, .L42
 320:.\Generated_Source\PSoC5/CyFlash.c ****         {
 321:.\Generated_Source\PSoC5/CyFlash.c ****             rowBuffer = rowBuffer;
 322:.\Generated_Source\PSoC5/CyFlash.c ****             status = CYRET_LOCKED;
 323:.\Generated_Source\PSoC5/CyFlash.c ****         }
 324:.\Generated_Source\PSoC5/CyFlash.c ****         else
 325:.\Generated_Source\PSoC5/CyFlash.c ****         {
 326:.\Generated_Source\PSoC5/CyFlash.c ****             rowBuffer = buffer;
 298              		.loc 1 326 0
 299 0012 054B     		ldr	r3, .L43
 300 0014 1D60     		str	r5, [r3]
 327:.\Generated_Source\PSoC5/CyFlash.c ****             CySpcUnlock();
 301              		.loc 1 327 0
 302 0016 FFF7FEFF 		bl	CySpcUnlock
 303              	.LVL25:
 308:.\Generated_Source\PSoC5/CyFlash.c **** 
 304              		.loc 1 308 0
 305 001a 2046     		mov	r0, r4
 306 001c 38BD     		pop	{r3, r4, r5, pc}
 307              	.LVL26:
 308              	.L41:
 317:.\Generated_Source\PSoC5/CyFlash.c ****         }
 309              		.loc 1 317 0
 310 001e 0120     		movs	r0, #1
 311 0020 38BD     		pop	{r3, r4, r5, pc}
 312              	.LVL27:
 313              	.L42:
 322:.\Generated_Source\PSoC5/CyFlash.c ****         }
 314              		.loc 1 322 0
 315 0022 0420     		movs	r0, #4
 316              	.LVL28:
 328:.\Generated_Source\PSoC5/CyFlash.c ****         }
 329:.\Generated_Source\PSoC5/CyFlash.c **** 
 330:.\Generated_Source\PSoC5/CyFlash.c ****     #else
 331:.\Generated_Source\PSoC5/CyFlash.c **** 
 332:.\Generated_Source\PSoC5/CyFlash.c ****         /* To suppress warning */
 333:.\Generated_Source\PSoC5/CyFlash.c ****         buffer = buffer;
 334:.\Generated_Source\PSoC5/CyFlash.c **** 
 335:.\Generated_Source\PSoC5/CyFlash.c ****     #endif  /* (CYDEV_ECC_ENABLE == 0u) */
 336:.\Generated_Source\PSoC5/CyFlash.c **** 
 337:.\Generated_Source\PSoC5/CyFlash.c ****     return(status);
 338:.\Generated_Source\PSoC5/CyFlash.c **** }
 317              		.loc 1 338 0
 318 0024 38BD     		pop	{r3, r4, r5, pc}
 319              	.LVL29:
 320              	.L44:
ARM GAS  C:\Users\acer\AppData\Local\Temp\ccK9hLJi.s 			page 13


 321 0026 00BF     		.align	2
 322              	.L43:
 323 0028 00000000 		.word	.LANCHOR0
 324              		.cfi_endproc
 325              	.LFE5:
 326              		.size	CySetFlashEEBuffer, .-CySetFlashEEBuffer
 327              		.section	.text.CyWriteRowFull,"ax",%progbits
 328              		.align	1
 329              		.global	CyWriteRowFull
 330              		.thumb
 331              		.thumb_func
 332              		.type	CyWriteRowFull, %function
 333              	CyWriteRowFull:
 334              	.LFB7:
 339:.\Generated_Source\PSoC5/CyFlash.c **** 
 340:.\Generated_Source\PSoC5/CyFlash.c **** 
 341:.\Generated_Source\PSoC5/CyFlash.c **** /*******************************************************************************
 342:.\Generated_Source\PSoC5/CyFlash.c **** * Function Name: CyWriteRowData
 343:.\Generated_Source\PSoC5/CyFlash.c **** ********************************************************************************
 344:.\Generated_Source\PSoC5/CyFlash.c **** *
 345:.\Generated_Source\PSoC5/CyFlash.c **** * Summary:
 346:.\Generated_Source\PSoC5/CyFlash.c **** *  Sends a command to the SPC to load and program a row of data in
 347:.\Generated_Source\PSoC5/CyFlash.c **** *  Flash or EEPROM.
 348:.\Generated_Source\PSoC5/CyFlash.c **** *
 349:.\Generated_Source\PSoC5/CyFlash.c **** * Parameters:
 350:.\Generated_Source\PSoC5/CyFlash.c **** *  arrayID:    ID of the array to write.
 351:.\Generated_Source\PSoC5/CyFlash.c **** *   The type of write, Flash or EEPROM, is determined from the array ID.
 352:.\Generated_Source\PSoC5/CyFlash.c **** *   The arrays in the part are sequential starting at the first ID for the
 353:.\Generated_Source\PSoC5/CyFlash.c **** *   specific memory type. The array ID for the Flash memory lasts from 0x00 to
 354:.\Generated_Source\PSoC5/CyFlash.c **** *   0x3F and for the EEPROM memory it lasts from 0x40 to 0x7F.
 355:.\Generated_Source\PSoC5/CyFlash.c **** *  rowAddress: rowAddress of flash row to program.
 356:.\Generated_Source\PSoC5/CyFlash.c **** *  rowData:    Array of bytes to write.
 357:.\Generated_Source\PSoC5/CyFlash.c **** *
 358:.\Generated_Source\PSoC5/CyFlash.c **** * Return:
 359:.\Generated_Source\PSoC5/CyFlash.c **** *  status:
 360:.\Generated_Source\PSoC5/CyFlash.c **** *   CYRET_SUCCESS if successful.
 361:.\Generated_Source\PSoC5/CyFlash.c **** *   CYRET_LOCKED if the SPC is already in use.
 362:.\Generated_Source\PSoC5/CyFlash.c **** *   CYRET_CANCELED if command not accepted
 363:.\Generated_Source\PSoC5/CyFlash.c **** *   CYRET_UNKNOWN if there was an SPC error.
 364:.\Generated_Source\PSoC5/CyFlash.c **** *
 365:.\Generated_Source\PSoC5/CyFlash.c **** *******************************************************************************/
 366:.\Generated_Source\PSoC5/CyFlash.c **** cystatus CyWriteRowData(uint8 arrayId, uint16 rowAddress, const uint8 * rowData) 
 367:.\Generated_Source\PSoC5/CyFlash.c **** {
 368:.\Generated_Source\PSoC5/CyFlash.c ****     uint16 rowSize;
 369:.\Generated_Source\PSoC5/CyFlash.c ****     cystatus status;
 370:.\Generated_Source\PSoC5/CyFlash.c **** 
 371:.\Generated_Source\PSoC5/CyFlash.c ****     rowSize = (arrayId > CY_SPC_LAST_FLASH_ARRAYID) ? CYDEV_EEPROM_ROW_SIZE : CYDEV_FLS_ROW_SIZE;
 372:.\Generated_Source\PSoC5/CyFlash.c ****     status = CyWriteRowFull(arrayId, rowAddress, rowData, rowSize);
 373:.\Generated_Source\PSoC5/CyFlash.c **** 
 374:.\Generated_Source\PSoC5/CyFlash.c ****     return(status);
 375:.\Generated_Source\PSoC5/CyFlash.c **** }
 376:.\Generated_Source\PSoC5/CyFlash.c **** 
 377:.\Generated_Source\PSoC5/CyFlash.c **** 
 378:.\Generated_Source\PSoC5/CyFlash.c **** /*******************************************************************
 379:.\Generated_Source\PSoC5/CyFlash.c **** * If "Enable Error Correcting Code (ECC)" and "Store Configuration
 380:.\Generated_Source\PSoC5/CyFlash.c **** * Data in ECC" DWR options are disabled, ECC section is available
 381:.\Generated_Source\PSoC5/CyFlash.c **** * for user data.
ARM GAS  C:\Users\acer\AppData\Local\Temp\ccK9hLJi.s 			page 14


 382:.\Generated_Source\PSoC5/CyFlash.c **** *******************************************************************/
 383:.\Generated_Source\PSoC5/CyFlash.c **** #if ((CYDEV_ECC_ENABLE == 0u) && (CYDEV_CONFIGURATION_ECC == 0u))
 384:.\Generated_Source\PSoC5/CyFlash.c **** 
 385:.\Generated_Source\PSoC5/CyFlash.c ****     /*******************************************************************************
 386:.\Generated_Source\PSoC5/CyFlash.c ****     * Function Name: CyWriteRowConfig
 387:.\Generated_Source\PSoC5/CyFlash.c ****     ********************************************************************************
 388:.\Generated_Source\PSoC5/CyFlash.c ****     *
 389:.\Generated_Source\PSoC5/CyFlash.c ****     * Summary:
 390:.\Generated_Source\PSoC5/CyFlash.c ****     *  Sends a command to the SPC to load and program a row of config data in the Flash.
 391:.\Generated_Source\PSoC5/CyFlash.c ****     *  This function is only valid for Flash array IDs (not for EEPROM).
 392:.\Generated_Source\PSoC5/CyFlash.c ****     *
 393:.\Generated_Source\PSoC5/CyFlash.c ****     * Parameters:
 394:.\Generated_Source\PSoC5/CyFlash.c ****     *  arrayId:      ID of the array to write
 395:.\Generated_Source\PSoC5/CyFlash.c ****     *   The arrays in the part are sequential starting at the first ID for the
 396:.\Generated_Source\PSoC5/CyFlash.c ****     *   specific memory type. The array ID for the Flash memory lasts
 397:.\Generated_Source\PSoC5/CyFlash.c ****     *   from 0x00 to 0x3F.
 398:.\Generated_Source\PSoC5/CyFlash.c ****     *  rowAddress:   The address of the sector to erase.
 399:.\Generated_Source\PSoC5/CyFlash.c ****     *  rowECC:       The array of bytes to write.
 400:.\Generated_Source\PSoC5/CyFlash.c ****     *
 401:.\Generated_Source\PSoC5/CyFlash.c ****     * Return:
 402:.\Generated_Source\PSoC5/CyFlash.c ****     *  status:
 403:.\Generated_Source\PSoC5/CyFlash.c ****     *   CYRET_SUCCESS if successful.
 404:.\Generated_Source\PSoC5/CyFlash.c ****     *   CYRET_LOCKED if the SPC is already in use.
 405:.\Generated_Source\PSoC5/CyFlash.c ****     *   CYRET_CANCELED if command not accepted
 406:.\Generated_Source\PSoC5/CyFlash.c ****     *   CYRET_UNKNOWN if there was an SPC error.
 407:.\Generated_Source\PSoC5/CyFlash.c ****     *
 408:.\Generated_Source\PSoC5/CyFlash.c ****     *******************************************************************************/
 409:.\Generated_Source\PSoC5/CyFlash.c ****     cystatus CyWriteRowConfig(uint8 arrayId, uint16 rowAddress, const uint8 * rowECC)\
 410:.\Generated_Source\PSoC5/CyFlash.c ****     
 411:.\Generated_Source\PSoC5/CyFlash.c ****     {
 412:.\Generated_Source\PSoC5/CyFlash.c ****         cystatus status;
 413:.\Generated_Source\PSoC5/CyFlash.c **** 
 414:.\Generated_Source\PSoC5/CyFlash.c ****         status = CyWriteRowFull(arrayId, rowAddress, rowECC, CYDEV_ECC_ROW_SIZE);
 415:.\Generated_Source\PSoC5/CyFlash.c **** 
 416:.\Generated_Source\PSoC5/CyFlash.c ****         return (status);
 417:.\Generated_Source\PSoC5/CyFlash.c ****     }
 418:.\Generated_Source\PSoC5/CyFlash.c **** 
 419:.\Generated_Source\PSoC5/CyFlash.c **** #endif  /* ((CYDEV_ECC_ENABLE == 0u) && (CYDEV_CONFIGURATION_ECC == 0u)) */
 420:.\Generated_Source\PSoC5/CyFlash.c **** 
 421:.\Generated_Source\PSoC5/CyFlash.c **** 
 422:.\Generated_Source\PSoC5/CyFlash.c **** 
 423:.\Generated_Source\PSoC5/CyFlash.c **** /*******************************************************************************
 424:.\Generated_Source\PSoC5/CyFlash.c **** * Function Name: CyWriteRowFull
 425:.\Generated_Source\PSoC5/CyFlash.c **** ********************************************************************************
 426:.\Generated_Source\PSoC5/CyFlash.c **** * Summary:
 427:.\Generated_Source\PSoC5/CyFlash.c **** *  Sends a command to the SPC to load and program a row of data in the Flash.
 428:.\Generated_Source\PSoC5/CyFlash.c **** *  rowData array is expected to contain Flash and ECC data if needed.
 429:.\Generated_Source\PSoC5/CyFlash.c **** *
 430:.\Generated_Source\PSoC5/CyFlash.c **** * Parameters:
 431:.\Generated_Source\PSoC5/CyFlash.c **** *  arrayId:    FLASH or EEPROM array id.
 432:.\Generated_Source\PSoC5/CyFlash.c **** *  rowData:    Pointer to a row of data to write.
 433:.\Generated_Source\PSoC5/CyFlash.c **** *  rowNumber:  Zero based number of the row.
 434:.\Generated_Source\PSoC5/CyFlash.c **** *  rowSize:    Size of the row.
 435:.\Generated_Source\PSoC5/CyFlash.c **** *
 436:.\Generated_Source\PSoC5/CyFlash.c **** * Return:
 437:.\Generated_Source\PSoC5/CyFlash.c **** *  CYRET_SUCCESS if successful.
 438:.\Generated_Source\PSoC5/CyFlash.c **** *  CYRET_LOCKED if the SPC is already in use.
ARM GAS  C:\Users\acer\AppData\Local\Temp\ccK9hLJi.s 			page 15


 439:.\Generated_Source\PSoC5/CyFlash.c **** *  CYRET_CANCELED if command not accepted
 440:.\Generated_Source\PSoC5/CyFlash.c **** *  CYRET_UNKNOWN if there was an SPC error.
 441:.\Generated_Source\PSoC5/CyFlash.c **** *
 442:.\Generated_Source\PSoC5/CyFlash.c **** *******************************************************************************/
 443:.\Generated_Source\PSoC5/CyFlash.c **** cystatus CyWriteRowFull(uint8 arrayId, uint16 rowNumber, const uint8* rowData, uint16 rowSize) \
 444:.\Generated_Source\PSoC5/CyFlash.c ****         
 445:.\Generated_Source\PSoC5/CyFlash.c **** {
 335              		.loc 1 445 0
 336              		.cfi_startproc
 337              		@ args = 0, pretend = 0, frame = 0
 338              		@ frame_needed = 0, uses_anonymous_args = 0
 339              	.LVL30:
 446:.\Generated_Source\PSoC5/CyFlash.c ****     cystatus status = CYRET_SUCCESS;
 447:.\Generated_Source\PSoC5/CyFlash.c **** 
 448:.\Generated_Source\PSoC5/CyFlash.c ****     if((arrayId <=  CY_SPC_LAST_FLASH_ARRAYID) && (arrayId > (CY_FLASH_NUMBER_ARRAYS  + CY_SPC_FIRS
 449:.\Generated_Source\PSoC5/CyFlash.c ****     {
 450:.\Generated_Source\PSoC5/CyFlash.c ****         status = CYRET_BAD_PARAM;
 451:.\Generated_Source\PSoC5/CyFlash.c ****     }
 452:.\Generated_Source\PSoC5/CyFlash.c **** 
 453:.\Generated_Source\PSoC5/CyFlash.c ****     if(arrayId > CY_SPC_LAST_EE_ARRAYID)
 454:.\Generated_Source\PSoC5/CyFlash.c ****     {
 455:.\Generated_Source\PSoC5/CyFlash.c ****         status = CYRET_BAD_PARAM;
 456:.\Generated_Source\PSoC5/CyFlash.c ****     }
 457:.\Generated_Source\PSoC5/CyFlash.c **** 
 458:.\Generated_Source\PSoC5/CyFlash.c ****     if((arrayId >= CY_SPC_FIRST_EE_ARRAYID) && (arrayId > (CY_FLASH_EEPROM_NUMBER_ARRAYS + CY_SPC_F
 340              		.loc 1 458 0
 341 0000 4128     		cmp	r0, #65
 445:.\Generated_Source\PSoC5/CyFlash.c ****     cystatus status = CYRET_SUCCESS;
 342              		.loc 1 445 0
 343 0002 F8B5     		push	{r3, r4, r5, r6, r7, lr}
 344              		.cfi_def_cfa_offset 24
 345              		.cfi_offset 3, -24
 346              		.cfi_offset 4, -20
 347              		.cfi_offset 5, -16
 348              		.cfi_offset 6, -12
 349              		.cfi_offset 7, -8
 350              		.cfi_offset 14, -4
 445:.\Generated_Source\PSoC5/CyFlash.c ****     cystatus status = CYRET_SUCCESS;
 351              		.loc 1 445 0
 352 0004 0546     		mov	r5, r0
 353 0006 0E46     		mov	r6, r1
 354 0008 1746     		mov	r7, r2
 355 000a 1C46     		mov	r4, r3
 356              		.loc 1 458 0
 357 000c 0AD8     		bhi	.L56
 448:.\Generated_Source\PSoC5/CyFlash.c ****     {
 358              		.loc 1 448 0
 359 000e 411F     		subs	r1, r0, #5
 360              	.LVL31:
 361 0010 3A29     		cmp	r1, #58
 362 0012 8CBF     		ite	hi
 363 0014 0021     		movhi	r1, #0
 364 0016 0121     		movls	r1, #1
 459:.\Generated_Source\PSoC5/CyFlash.c ****     {
 460:.\Generated_Source\PSoC5/CyFlash.c ****         status = CYRET_BAD_PARAM;
 461:.\Generated_Source\PSoC5/CyFlash.c ****     }
 462:.\Generated_Source\PSoC5/CyFlash.c **** 
ARM GAS  C:\Users\acer\AppData\Local\Temp\ccK9hLJi.s 			page 16


 463:.\Generated_Source\PSoC5/CyFlash.c ****     if(arrayId <=  CY_SPC_LAST_FLASH_ARRAYID)
 365              		.loc 1 463 0
 366 0018 3F28     		cmp	r0, #63
 367 001a 04D8     		bhi	.L46
 464:.\Generated_Source\PSoC5/CyFlash.c ****     {
 465:.\Generated_Source\PSoC5/CyFlash.c ****         /* Flash */
 466:.\Generated_Source\PSoC5/CyFlash.c ****         if(rowNumber > (CY_FLASH_NUMBER_ROWS/CY_FLASH_NUMBER_ARRAYS))
 368              		.loc 1 466 0
 369 001c B6F5807F 		cmp	r6, #256
 370 0020 29D8     		bhi	.L60
 371 0022 05E0     		b	.L48
 372              	.LVL32:
 373              	.L56:
 374 0024 0121     		movs	r1, #1
 375              	.LVL33:
 376              	.L46:
 467:.\Generated_Source\PSoC5/CyFlash.c ****         {
 468:.\Generated_Source\PSoC5/CyFlash.c ****             status = CYRET_BAD_PARAM;
 469:.\Generated_Source\PSoC5/CyFlash.c ****         }
 470:.\Generated_Source\PSoC5/CyFlash.c ****     }
 471:.\Generated_Source\PSoC5/CyFlash.c ****     else
 472:.\Generated_Source\PSoC5/CyFlash.c ****     {
 473:.\Generated_Source\PSoC5/CyFlash.c ****         /* EEPROM */
 474:.\Generated_Source\PSoC5/CyFlash.c ****         if(rowNumber > (CY_EEPROM_NUMBER_ROWS/CY_FLASH_EEPROM_NUMBER_ARRAYS))
 475:.\Generated_Source\PSoC5/CyFlash.c ****         {
 476:.\Generated_Source\PSoC5/CyFlash.c ****             status = CYRET_BAD_PARAM;
 377              		.loc 1 476 0
 378 0026 812E     		cmp	r6, #129
 379 0028 28BF     		it	cs
 380 002a 0121     		movcs	r1, #1
 381              	.LVL34:
 477:.\Generated_Source\PSoC5/CyFlash.c ****         }
 478:.\Generated_Source\PSoC5/CyFlash.c **** 
 479:.\Generated_Source\PSoC5/CyFlash.c ****         if(CY_EEPROM_SIZEOF_ROW != rowSize)
 382              		.loc 1 479 0
 383 002c 102C     		cmp	r4, #16
 384 002e 22D1     		bne	.L60
 385              	.LVL35:
 386              	.L48:
 480:.\Generated_Source\PSoC5/CyFlash.c ****         {
 481:.\Generated_Source\PSoC5/CyFlash.c ****             status = CYRET_BAD_PARAM;
 482:.\Generated_Source\PSoC5/CyFlash.c ****         }
 483:.\Generated_Source\PSoC5/CyFlash.c ****     }
 484:.\Generated_Source\PSoC5/CyFlash.c **** 
 485:.\Generated_Source\PSoC5/CyFlash.c ****     if(rowData == NULL)
 387              		.loc 1 485 0
 388 0030 0FB3     		cbz	r7, .L60
 486:.\Generated_Source\PSoC5/CyFlash.c ****     {
 487:.\Generated_Source\PSoC5/CyFlash.c ****         status = CYRET_BAD_PARAM;
 488:.\Generated_Source\PSoC5/CyFlash.c ****     }
 489:.\Generated_Source\PSoC5/CyFlash.c **** 
 490:.\Generated_Source\PSoC5/CyFlash.c **** 
 491:.\Generated_Source\PSoC5/CyFlash.c ****     if(status == CYRET_SUCCESS)
 389              		.loc 1 491 0
 390 0032 01BB     		cbnz	r1, .L60
 492:.\Generated_Source\PSoC5/CyFlash.c ****     {
 493:.\Generated_Source\PSoC5/CyFlash.c ****         if(CySpcLock() == CYRET_SUCCESS)
ARM GAS  C:\Users\acer\AppData\Local\Temp\ccK9hLJi.s 			page 17


 391              		.loc 1 493 0
 392 0034 FFF7FEFF 		bl	CySpcLock
 393              	.LVL36:
 394 0038 F8B9     		cbnz	r0, .L61
 395              	.LVL37:
 396              	.LBB12:
 397              	.LBB13:
 494:.\Generated_Source\PSoC5/CyFlash.c ****         {
 495:.\Generated_Source\PSoC5/CyFlash.c ****             /* Load row data into SPC internal latch */
 496:.\Generated_Source\PSoC5/CyFlash.c ****             status = CySpcLoadRowFull(arrayId, rowNumber, rowData, rowSize);
 398              		.loc 1 496 0
 399 003a 2346     		mov	r3, r4
 400 003c 2846     		mov	r0, r5
 401 003e 3146     		mov	r1, r6
 402 0040 3A46     		mov	r2, r7
 403 0042 FFF7FEFF 		bl	CySpcLoadRowFull
 404              	.LVL38:
 497:.\Generated_Source\PSoC5/CyFlash.c **** 
 498:.\Generated_Source\PSoC5/CyFlash.c ****             if(CYRET_STARTED == status)
 405              		.loc 1 498 0
 406 0046 0728     		cmp	r0, #7
 496:.\Generated_Source\PSoC5/CyFlash.c **** 
 407              		.loc 1 496 0
 408 0048 0446     		mov	r4, r0
 409              	.LVL39:
 410              		.loc 1 498 0
 411 004a 11D1     		bne	.L51
 412              	.LVL40:
 413              	.L50:
 499:.\Generated_Source\PSoC5/CyFlash.c ****             {
 500:.\Generated_Source\PSoC5/CyFlash.c ****                 while(CY_SPC_BUSY)
 414              		.loc 1 500 0
 415 004c 1B4B     		ldr	r3, .L71
 416 004e 1A78     		ldrb	r2, [r3]	@ zero_extendqisi2
 417 0050 1F46     		mov	r7, r3
 418 0052 12F0020F 		tst	r2, #2
 419 0056 03D1     		bne	.L69
 501:.\Generated_Source\PSoC5/CyFlash.c ****                 {
 502:.\Generated_Source\PSoC5/CyFlash.c ****                     /* Wait for SPC to finish and get SPC status */
 503:.\Generated_Source\PSoC5/CyFlash.c ****                     CyDelayUs(1u);
 420              		.loc 1 503 0
 421 0058 0120     		movs	r0, #1
 422 005a FFF7FEFF 		bl	CyDelayUs
 423              	.LVL41:
 424 005e F5E7     		b	.L50
 425              	.L69:
 504:.\Generated_Source\PSoC5/CyFlash.c ****                 }
 505:.\Generated_Source\PSoC5/CyFlash.c **** 
 506:.\Generated_Source\PSoC5/CyFlash.c ****                 /* Hide SPC status */
 507:.\Generated_Source\PSoC5/CyFlash.c ****                 if(CY_SPC_STATUS_SUCCESS == CY_SPC_READ_STATUS)
 426              		.loc 1 507 0
 427 0060 1A78     		ldrb	r2, [r3]	@ zero_extendqisi2
 428 0062 9007     		lsls	r0, r2, #30
 429 0064 02D5     		bpl	.L63
 430 0066 1B78     		ldrb	r3, [r3]	@ zero_extendqisi2
 431 0068 9B08     		lsrs	r3, r3, #2
 432 006a 08D0     		beq	.L53
ARM GAS  C:\Users\acer\AppData\Local\Temp\ccK9hLJi.s 			page 18


 433              	.L63:
 508:.\Generated_Source\PSoC5/CyFlash.c ****                 {
 509:.\Generated_Source\PSoC5/CyFlash.c ****                     status = CYRET_SUCCESS;
 510:.\Generated_Source\PSoC5/CyFlash.c ****                 }
 511:.\Generated_Source\PSoC5/CyFlash.c ****                 else
 512:.\Generated_Source\PSoC5/CyFlash.c ****                 {
 513:.\Generated_Source\PSoC5/CyFlash.c ****                     status = CYRET_UNKNOWN;
 514:.\Generated_Source\PSoC5/CyFlash.c ****                 }
 515:.\Generated_Source\PSoC5/CyFlash.c **** 
 516:.\Generated_Source\PSoC5/CyFlash.c ****                 if(CYRET_SUCCESS == status)
 517:.\Generated_Source\PSoC5/CyFlash.c ****                 {
 518:.\Generated_Source\PSoC5/CyFlash.c ****                     /* Erase and program flash with data from SPC interval latch */
 519:.\Generated_Source\PSoC5/CyFlash.c ****                     status = CySpcWriteRow(arrayId, rowNumber, dieTemperature[0u], dieTemperature[1
 520:.\Generated_Source\PSoC5/CyFlash.c **** 
 521:.\Generated_Source\PSoC5/CyFlash.c ****                     if(CYRET_STARTED == status)
 522:.\Generated_Source\PSoC5/CyFlash.c ****                     {
 523:.\Generated_Source\PSoC5/CyFlash.c ****                         while(CY_SPC_BUSY)
 524:.\Generated_Source\PSoC5/CyFlash.c ****                         {
 525:.\Generated_Source\PSoC5/CyFlash.c ****                             /* Wait for SPC to finish and get SPC status */
 526:.\Generated_Source\PSoC5/CyFlash.c ****                             CyDelayUs(1u);
 527:.\Generated_Source\PSoC5/CyFlash.c ****                         }
 528:.\Generated_Source\PSoC5/CyFlash.c **** 
 529:.\Generated_Source\PSoC5/CyFlash.c ****                         /* Hide SPC status */
 530:.\Generated_Source\PSoC5/CyFlash.c ****                         if(CY_SPC_STATUS_SUCCESS == CY_SPC_READ_STATUS)
 531:.\Generated_Source\PSoC5/CyFlash.c ****                         {
 532:.\Generated_Source\PSoC5/CyFlash.c ****                             status = CYRET_SUCCESS;
 533:.\Generated_Source\PSoC5/CyFlash.c ****                         }
 534:.\Generated_Source\PSoC5/CyFlash.c ****                         else
 535:.\Generated_Source\PSoC5/CyFlash.c ****                         {
 536:.\Generated_Source\PSoC5/CyFlash.c ****                             status = CYRET_UNKNOWN;
 434              		.loc 1 536 0
 435 006c 4FF0FF34 		mov	r4, #-1
 436              	.LVL42:
 437              	.L51:
 537:.\Generated_Source\PSoC5/CyFlash.c ****                         }
 538:.\Generated_Source\PSoC5/CyFlash.c ****                     }
 539:.\Generated_Source\PSoC5/CyFlash.c ****                 }
 540:.\Generated_Source\PSoC5/CyFlash.c ****             }
 541:.\Generated_Source\PSoC5/CyFlash.c ****             CySpcUnlock();
 438              		.loc 1 541 0
 439 0070 FFF7FEFF 		bl	CySpcUnlock
 440              	.LVL43:
 441 0074 1FE0     		b	.L68
 442              	.LVL44:
 443              	.L60:
 444              	.LBE13:
 445              	.LBE12:
 446 0076 0124     		movs	r4, #1
 447 0078 1DE0     		b	.L68
 448              	.LVL45:
 449              	.L61:
 542:.\Generated_Source\PSoC5/CyFlash.c ****         }   /* if(CySpcLock() == CYRET_SUCCESS) */
 543:.\Generated_Source\PSoC5/CyFlash.c ****         else
 544:.\Generated_Source\PSoC5/CyFlash.c ****         {
 545:.\Generated_Source\PSoC5/CyFlash.c ****             status = CYRET_LOCKED;
 450              		.loc 1 545 0
 451 007a 0424     		movs	r4, #4
ARM GAS  C:\Users\acer\AppData\Local\Temp\ccK9hLJi.s 			page 19


 452              	.LVL46:
 453 007c 1BE0     		b	.L68
 454              	.LVL47:
 455              	.L53:
 456              	.LBB15:
 457              	.LBB14:
 519:.\Generated_Source\PSoC5/CyFlash.c **** 
 458              		.loc 1 519 0
 459 007e 104B     		ldr	r3, .L71+4
 460 0080 2846     		mov	r0, r5
 461 0082 1A78     		ldrb	r2, [r3]	@ zero_extendqisi2
 462 0084 3146     		mov	r1, r6
 463 0086 5B78     		ldrb	r3, [r3, #1]	@ zero_extendqisi2
 464 0088 FFF7FEFF 		bl	CySpcWriteRow
 465              	.LVL48:
 521:.\Generated_Source\PSoC5/CyFlash.c ****                     {
 466              		.loc 1 521 0
 467 008c 0728     		cmp	r0, #7
 519:.\Generated_Source\PSoC5/CyFlash.c **** 
 468              		.loc 1 519 0
 469 008e 0446     		mov	r4, r0
 470              	.LVL49:
 521:.\Generated_Source\PSoC5/CyFlash.c ****                     {
 471              		.loc 1 521 0
 472 0090 EED1     		bne	.L51
 473              	.LVL50:
 474              	.L55:
 523:.\Generated_Source\PSoC5/CyFlash.c ****                         {
 475              		.loc 1 523 0
 476 0092 3A78     		ldrb	r2, [r7]	@ zero_extendqisi2
 477 0094 094B     		ldr	r3, .L71
 478 0096 9107     		lsls	r1, r2, #30
 479 0098 03D4     		bmi	.L70
 526:.\Generated_Source\PSoC5/CyFlash.c ****                         }
 480              		.loc 1 526 0
 481 009a 0120     		movs	r0, #1
 482 009c FFF7FEFF 		bl	CyDelayUs
 483              	.LVL51:
 484 00a0 F7E7     		b	.L55
 485              	.L70:
 530:.\Generated_Source\PSoC5/CyFlash.c ****                         {
 486              		.loc 1 530 0
 487 00a2 1A78     		ldrb	r2, [r3]	@ zero_extendqisi2
 488 00a4 9207     		lsls	r2, r2, #30
 489 00a6 E1D5     		bpl	.L63
 490 00a8 1B78     		ldrb	r3, [r3]	@ zero_extendqisi2
 491 00aa 9B08     		lsrs	r3, r3, #2
 492 00ac 14BF     		ite	ne
 493 00ae 4FF0FF34 		movne	r4, #-1
 494              	.LVL52:
 495 00b2 0024     		moveq	r4, #0
 496 00b4 DCE7     		b	.L51
 497              	.LVL53:
 498              	.L68:
 499              	.LBE14:
 500              	.LBE15:
 546:.\Generated_Source\PSoC5/CyFlash.c ****         }
ARM GAS  C:\Users\acer\AppData\Local\Temp\ccK9hLJi.s 			page 20


 547:.\Generated_Source\PSoC5/CyFlash.c ****     }
 548:.\Generated_Source\PSoC5/CyFlash.c **** 
 549:.\Generated_Source\PSoC5/CyFlash.c ****     return(status);
 550:.\Generated_Source\PSoC5/CyFlash.c **** }
 501              		.loc 1 550 0
 502 00b6 2046     		mov	r0, r4
 503 00b8 F8BD     		pop	{r3, r4, r5, r6, r7, pc}
 504              	.L72:
 505 00ba 00BF     		.align	2
 506              	.L71:
 507 00bc 22470040 		.word	1073760034
 508 00c0 00000000 		.word	dieTemperature
 509              		.cfi_endproc
 510              	.LFE7:
 511              		.size	CyWriteRowFull, .-CyWriteRowFull
 512              		.section	.text.CyWriteRowData,"ax",%progbits
 513              		.align	1
 514              		.global	CyWriteRowData
 515              		.thumb
 516              		.thumb_func
 517              		.type	CyWriteRowData, %function
 518              	CyWriteRowData:
 519              	.LFB6:
 367:.\Generated_Source\PSoC5/CyFlash.c ****     uint16 rowSize;
 520              		.loc 1 367 0
 521              		.cfi_startproc
 522              		@ args = 0, pretend = 0, frame = 0
 523              		@ frame_needed = 0, uses_anonymous_args = 0
 524              		@ link register save eliminated.
 525              	.LVL54:
 371:.\Generated_Source\PSoC5/CyFlash.c ****     status = CyWriteRowFull(arrayId, rowAddress, rowData, rowSize);
 526              		.loc 1 371 0
 527 0000 3F28     		cmp	r0, #63
 528              	.LVL55:
 372:.\Generated_Source\PSoC5/CyFlash.c **** 
 529              		.loc 1 372 0
 530 0002 8CBF     		ite	hi
 531 0004 1023     		movhi	r3, #16
 532 0006 4FF48073 		movls	r3, #256
 533 000a FFF7FEBF 		b	CyWriteRowFull
 534              	.LVL56:
 535              		.cfi_endproc
 536              	.LFE6:
 537              		.size	CyWriteRowData, .-CyWriteRowData
 538              		.section	.text.CyFlash_SetWaitCycles,"ax",%progbits
 539              		.align	1
 540              		.global	CyFlash_SetWaitCycles
 541              		.thumb
 542              		.thumb_func
 543              		.type	CyFlash_SetWaitCycles, %function
 544              	CyFlash_SetWaitCycles:
 545              	.LFB8:
 551:.\Generated_Source\PSoC5/CyFlash.c **** 
 552:.\Generated_Source\PSoC5/CyFlash.c **** 
 553:.\Generated_Source\PSoC5/CyFlash.c **** /*******************************************************************************
 554:.\Generated_Source\PSoC5/CyFlash.c **** * Function Name: CyFlash_SetWaitCycles
 555:.\Generated_Source\PSoC5/CyFlash.c **** ********************************************************************************
ARM GAS  C:\Users\acer\AppData\Local\Temp\ccK9hLJi.s 			page 21


 556:.\Generated_Source\PSoC5/CyFlash.c **** *
 557:.\Generated_Source\PSoC5/CyFlash.c **** * Summary:
 558:.\Generated_Source\PSoC5/CyFlash.c **** *  Sets the number of clock cycles the cache will wait before it samples data
 559:.\Generated_Source\PSoC5/CyFlash.c **** *  coming back from the Flash. This function must be called before increasing the CPU
 560:.\Generated_Source\PSoC5/CyFlash.c **** *  clock frequency. It can optionally be called after lowering the CPU clock
 561:.\Generated_Source\PSoC5/CyFlash.c **** *  frequency in order to improve the CPU performance.
 562:.\Generated_Source\PSoC5/CyFlash.c **** *
 563:.\Generated_Source\PSoC5/CyFlash.c **** * Parameters:
 564:.\Generated_Source\PSoC5/CyFlash.c **** *  uint8 freq:
 565:.\Generated_Source\PSoC5/CyFlash.c **** *   Frequency of operation in Megahertz.
 566:.\Generated_Source\PSoC5/CyFlash.c **** *
 567:.\Generated_Source\PSoC5/CyFlash.c **** * Return:
 568:.\Generated_Source\PSoC5/CyFlash.c **** *  None
 569:.\Generated_Source\PSoC5/CyFlash.c **** *
 570:.\Generated_Source\PSoC5/CyFlash.c **** *******************************************************************************/
 571:.\Generated_Source\PSoC5/CyFlash.c **** void CyFlash_SetWaitCycles(uint8 freq) 
 572:.\Generated_Source\PSoC5/CyFlash.c **** {
 546              		.loc 1 572 0
 547              		.cfi_startproc
 548              		@ args = 0, pretend = 0, frame = 0
 549              		@ frame_needed = 0, uses_anonymous_args = 0
 550              	.LVL57:
 551 0000 10B5     		push	{r4, lr}
 552              		.cfi_def_cfa_offset 8
 553              		.cfi_offset 4, -8
 554              		.cfi_offset 14, -4
 555              		.loc 1 572 0
 556 0002 0446     		mov	r4, r0
 573:.\Generated_Source\PSoC5/CyFlash.c ****     uint8 interruptState;
 574:.\Generated_Source\PSoC5/CyFlash.c **** 
 575:.\Generated_Source\PSoC5/CyFlash.c ****     /* Save current global interrupt enable and disable it */
 576:.\Generated_Source\PSoC5/CyFlash.c ****     interruptState = CyEnterCriticalSection();
 557              		.loc 1 576 0
 558 0004 FFF7FEFF 		bl	CyEnterCriticalSection
 559              	.LVL58:
 577:.\Generated_Source\PSoC5/CyFlash.c **** 
 578:.\Generated_Source\PSoC5/CyFlash.c ****     /***************************************************************************
 579:.\Generated_Source\PSoC5/CyFlash.c ****     * The number of clock cycles the cache will wait before it samples data
 580:.\Generated_Source\PSoC5/CyFlash.c ****     * coming back from the Flash must be equal or greater to to the CPU frequency
 581:.\Generated_Source\PSoC5/CyFlash.c ****     * outlined in clock cycles.
 582:.\Generated_Source\PSoC5/CyFlash.c ****     ***************************************************************************/
 583:.\Generated_Source\PSoC5/CyFlash.c **** 
 584:.\Generated_Source\PSoC5/CyFlash.c ****     if (freq < CY_FLASH_CACHE_WS_1_FREQ_MAX)
 560              		.loc 1 584 0
 561 0008 0F2C     		cmp	r4, #15
 562 000a 06D8     		bhi	.L77
 585:.\Generated_Source\PSoC5/CyFlash.c ****     {
 586:.\Generated_Source\PSoC5/CyFlash.c ****         CY_FLASH_CONTROL_REG = (CY_FLASH_CONTROL_REG & (uint8)(~CY_FLASH_CACHE_WS_VALUE_MASK)) |
 563              		.loc 1 586 0
 564 000c 164A     		ldr	r2, .L83
 565 000e 1378     		ldrb	r3, [r2]	@ zero_extendqisi2
 566 0010 03F01F03 		and	r3, r3, #31
 567 0014 43F04003 		orr	r3, r3, #64
 568 0018 20E0     		b	.L82
 569              	.L77:
 587:.\Generated_Source\PSoC5/CyFlash.c ****                                     CY_FLASH_CACHE_WS_1_VALUE_MASK;
 588:.\Generated_Source\PSoC5/CyFlash.c ****     }
ARM GAS  C:\Users\acer\AppData\Local\Temp\ccK9hLJi.s 			page 22


 589:.\Generated_Source\PSoC5/CyFlash.c ****     else if (freq < CY_FLASH_CACHE_WS_2_FREQ_MAX)
 570              		.loc 1 589 0
 571 001a 202C     		cmp	r4, #32
 572 001c 06D8     		bhi	.L79
 590:.\Generated_Source\PSoC5/CyFlash.c ****     {
 591:.\Generated_Source\PSoC5/CyFlash.c ****         CY_FLASH_CONTROL_REG = (CY_FLASH_CONTROL_REG & (uint8)(~CY_FLASH_CACHE_WS_VALUE_MASK)) |
 573              		.loc 1 591 0
 574 001e 124A     		ldr	r2, .L83
 575 0020 1378     		ldrb	r3, [r2]	@ zero_extendqisi2
 576 0022 03F01F03 		and	r3, r3, #31
 577 0026 43F08003 		orr	r3, r3, #128
 578 002a 17E0     		b	.L82
 579              	.L79:
 592:.\Generated_Source\PSoC5/CyFlash.c ****                                     CY_FLASH_CACHE_WS_2_VALUE_MASK;
 593:.\Generated_Source\PSoC5/CyFlash.c ****     }
 594:.\Generated_Source\PSoC5/CyFlash.c ****     else if (freq < CY_FLASH_CACHE_WS_3_FREQ_MAX)
 580              		.loc 1 594 0
 581 002c 312C     		cmp	r4, #49
 582 002e 06D8     		bhi	.L80
 595:.\Generated_Source\PSoC5/CyFlash.c ****     {
 596:.\Generated_Source\PSoC5/CyFlash.c ****         CY_FLASH_CONTROL_REG = (CY_FLASH_CONTROL_REG & (uint8)(~CY_FLASH_CACHE_WS_VALUE_MASK)) |
 583              		.loc 1 596 0
 584 0030 0D4A     		ldr	r2, .L83
 585 0032 1378     		ldrb	r3, [r2]	@ zero_extendqisi2
 586 0034 03F01F03 		and	r3, r3, #31
 587 0038 43F0C003 		orr	r3, r3, #192
 588 003c 0EE0     		b	.L82
 589              	.L80:
 597:.\Generated_Source\PSoC5/CyFlash.c ****                                     CY_FLASH_CACHE_WS_3_VALUE_MASK;
 598:.\Generated_Source\PSoC5/CyFlash.c ****     }
 599:.\Generated_Source\PSoC5/CyFlash.c **** #if (CY_PSOC5)
 600:.\Generated_Source\PSoC5/CyFlash.c ****     else if (freq < CY_FLASH_CACHE_WS_4_FREQ_MAX)
 590              		.loc 1 600 0
 591 003e 422C     		cmp	r4, #66
 592 0040 04D8     		bhi	.L81
 601:.\Generated_Source\PSoC5/CyFlash.c ****     {
 602:.\Generated_Source\PSoC5/CyFlash.c ****         CY_FLASH_CONTROL_REG = (CY_FLASH_CONTROL_REG & (uint8)(~CY_FLASH_CACHE_WS_VALUE_MASK)) |
 593              		.loc 1 602 0
 594 0042 094A     		ldr	r2, .L83
 595 0044 1378     		ldrb	r3, [r2]	@ zero_extendqisi2
 596 0046 03F01F03 		and	r3, r3, #31
 597 004a 07E0     		b	.L82
 598              	.L81:
 603:.\Generated_Source\PSoC5/CyFlash.c ****                                     CY_FLASH_CACHE_WS_4_VALUE_MASK;
 604:.\Generated_Source\PSoC5/CyFlash.c ****     }
 605:.\Generated_Source\PSoC5/CyFlash.c ****     else if (freq <= CY_FLASH_CACHE_WS_5_FREQ_MAX)
 599              		.loc 1 605 0
 600 004c 532C     		cmp	r4, #83
 601 004e 06D8     		bhi	.L78
 606:.\Generated_Source\PSoC5/CyFlash.c ****     {
 607:.\Generated_Source\PSoC5/CyFlash.c ****         CY_FLASH_CONTROL_REG = (CY_FLASH_CONTROL_REG & (uint8)(~CY_FLASH_CACHE_WS_VALUE_MASK)) |
 602              		.loc 1 607 0
 603 0050 054A     		ldr	r2, .L83
 604 0052 1378     		ldrb	r3, [r2]	@ zero_extendqisi2
 605 0054 03F01F03 		and	r3, r3, #31
 606 0058 43F02003 		orr	r3, r3, #32
 607              	.L82:
ARM GAS  C:\Users\acer\AppData\Local\Temp\ccK9hLJi.s 			page 23


 608 005c 1370     		strb	r3, [r2]
 609              	.L78:
 608:.\Generated_Source\PSoC5/CyFlash.c ****                                     CY_FLASH_CACHE_WS_5_VALUE_MASK;
 609:.\Generated_Source\PSoC5/CyFlash.c ****     }
 610:.\Generated_Source\PSoC5/CyFlash.c **** #endif  /* (CY_PSOC5) */
 611:.\Generated_Source\PSoC5/CyFlash.c ****     else
 612:.\Generated_Source\PSoC5/CyFlash.c ****     {
 613:.\Generated_Source\PSoC5/CyFlash.c ****         /* Halt CPU in debug mode if frequency is invalid */
 614:.\Generated_Source\PSoC5/CyFlash.c ****         CYASSERT(0u != 0u);
 615:.\Generated_Source\PSoC5/CyFlash.c ****     }
 616:.\Generated_Source\PSoC5/CyFlash.c **** 
 617:.\Generated_Source\PSoC5/CyFlash.c ****     /* Restore global interrupt enable state */
 618:.\Generated_Source\PSoC5/CyFlash.c ****     CyExitCriticalSection(interruptState);
 619:.\Generated_Source\PSoC5/CyFlash.c **** }
 610              		.loc 1 619 0
 611 005e BDE81040 		pop	{r4, lr}
 612              		.cfi_restore 14
 613              		.cfi_restore 4
 614              		.cfi_def_cfa_offset 0
 618:.\Generated_Source\PSoC5/CyFlash.c **** }
 615              		.loc 1 618 0
 616 0062 FFF7FEBF 		b	CyExitCriticalSection
 617              	.LVL59:
 618              	.L84:
 619 0066 00BF     		.align	2
 620              	.L83:
 621 0068 00480040 		.word	1073760256
 622              		.cfi_endproc
 623              	.LFE8:
 624              		.size	CyFlash_SetWaitCycles, .-CyFlash_SetWaitCycles
 625              		.section	.text.CyEEPROM_Start,"ax",%progbits
 626              		.align	1
 627              		.global	CyEEPROM_Start
 628              		.thumb
 629              		.thumb_func
 630              		.type	CyEEPROM_Start, %function
 631              	CyEEPROM_Start:
 632              	.LFB9:
 620:.\Generated_Source\PSoC5/CyFlash.c **** 
 621:.\Generated_Source\PSoC5/CyFlash.c **** 
 622:.\Generated_Source\PSoC5/CyFlash.c **** /*******************************************************************************
 623:.\Generated_Source\PSoC5/CyFlash.c **** * Function Name: CyEEPROM_Start
 624:.\Generated_Source\PSoC5/CyFlash.c **** ********************************************************************************
 625:.\Generated_Source\PSoC5/CyFlash.c **** *
 626:.\Generated_Source\PSoC5/CyFlash.c **** * Summary:
 627:.\Generated_Source\PSoC5/CyFlash.c **** *  Enable the EEPROM.
 628:.\Generated_Source\PSoC5/CyFlash.c **** *
 629:.\Generated_Source\PSoC5/CyFlash.c **** * Parameters:
 630:.\Generated_Source\PSoC5/CyFlash.c **** *  None
 631:.\Generated_Source\PSoC5/CyFlash.c **** *
 632:.\Generated_Source\PSoC5/CyFlash.c **** * Return:
 633:.\Generated_Source\PSoC5/CyFlash.c **** *  None
 634:.\Generated_Source\PSoC5/CyFlash.c **** *
 635:.\Generated_Source\PSoC5/CyFlash.c **** *******************************************************************************/
 636:.\Generated_Source\PSoC5/CyFlash.c **** void CyEEPROM_Start(void) 
 637:.\Generated_Source\PSoC5/CyFlash.c **** {
 633              		.loc 1 637 0
ARM GAS  C:\Users\acer\AppData\Local\Temp\ccK9hLJi.s 			page 24


 634              		.cfi_startproc
 635              		@ args = 0, pretend = 0, frame = 0
 636              		@ frame_needed = 0, uses_anonymous_args = 0
 637 0000 08B5     		push	{r3, lr}
 638              		.cfi_def_cfa_offset 8
 639              		.cfi_offset 3, -8
 640              		.cfi_offset 14, -4
 638:.\Generated_Source\PSoC5/CyFlash.c ****     uint8 interruptState;
 639:.\Generated_Source\PSoC5/CyFlash.c **** 
 640:.\Generated_Source\PSoC5/CyFlash.c ****     interruptState = CyEnterCriticalSection();
 641              		.loc 1 640 0
 642 0002 FFF7FEFF 		bl	CyEnterCriticalSection
 643              	.LVL60:
 641:.\Generated_Source\PSoC5/CyFlash.c **** 
 642:.\Generated_Source\PSoC5/CyFlash.c **** 
 643:.\Generated_Source\PSoC5/CyFlash.c ****     /***************************************************************************
 644:.\Generated_Source\PSoC5/CyFlash.c ****     * Enable SPC clock. This also internally enables the 36MHz IMO, since this
 645:.\Generated_Source\PSoC5/CyFlash.c ****     * is required for the SPC to function.
 646:.\Generated_Source\PSoC5/CyFlash.c ****     ***************************************************************************/
 647:.\Generated_Source\PSoC5/CyFlash.c ****     CY_FLASH_PM_ACT_CFG0_REG    |= CY_FLASH_PM_ACT_CFG0_EN_CLK_SPC;
 644              		.loc 1 647 0
 645 0006 0E4A     		ldr	r2, .L89
 646 0008 1378     		ldrb	r3, [r2]	@ zero_extendqisi2
 647 000a 43F00803 		orr	r3, r3, #8
 648 000e 1370     		strb	r3, [r2]
 648:.\Generated_Source\PSoC5/CyFlash.c ****     CY_FLASH_PM_ALTACT_CFG0_REG |= CY_FLASH_PM_ALTACT_CFG0_EN_CLK_SPC;
 649              		.loc 1 648 0
 650 0010 137C     		ldrb	r3, [r2, #16]	@ zero_extendqisi2
 651 0012 43F00803 		orr	r3, r3, #8
 652 0016 1374     		strb	r3, [r2, #16]
 649:.\Generated_Source\PSoC5/CyFlash.c **** 
 650:.\Generated_Source\PSoC5/CyFlash.c **** 
 651:.\Generated_Source\PSoC5/CyFlash.c ****     /***************************************************************************
 652:.\Generated_Source\PSoC5/CyFlash.c ****     * The wake count defines the number of Bus Clock cycles it takes for the
 653:.\Generated_Source\PSoC5/CyFlash.c ****     * flash or EEPROM to wake up from a low power mode independent of the chip
 654:.\Generated_Source\PSoC5/CyFlash.c ****     * power mode. Wake up time for these blocks is 5 us.
 655:.\Generated_Source\PSoC5/CyFlash.c ****     * The granularity of this register is 2 Bus Clock cycles, so a value of 0x1E
 656:.\Generated_Source\PSoC5/CyFlash.c ****     * (30d) defines the wake up time as 60 cycles of the Bus Clock.
 657:.\Generated_Source\PSoC5/CyFlash.c ****     * This register needs to be written with a value dependent on the Bus Clock
 658:.\Generated_Source\PSoC5/CyFlash.c ****     * frequency so that the duration of the cycles is equal to or greater than
 659:.\Generated_Source\PSoC5/CyFlash.c ****     * the 5 us delay required.
 660:.\Generated_Source\PSoC5/CyFlash.c ****     ***************************************************************************/
 661:.\Generated_Source\PSoC5/CyFlash.c ****     CY_FLASH_SPC_FM_EE_WAKE_CNT_REG = CY_FLASH_SPC_FM_EE_WAKE_CNT_80MHZ;
 653              		.loc 1 661 0
 654 0018 0A4B     		ldr	r3, .L89+4
 655 001a C822     		movs	r2, #200
 656 001c 1A70     		strb	r2, [r3]
 662:.\Generated_Source\PSoC5/CyFlash.c **** 
 663:.\Generated_Source\PSoC5/CyFlash.c **** 
 664:.\Generated_Source\PSoC5/CyFlash.c ****     /***************************************************************************
 665:.\Generated_Source\PSoC5/CyFlash.c ****     * Enable EEPROM. Re-enabling an EEPROM macro takes 5us. During this time,
 666:.\Generated_Source\PSoC5/CyFlash.c ****     * the EE will not acknowledge a PHUB request.
 667:.\Generated_Source\PSoC5/CyFlash.c ****     ***************************************************************************/
 668:.\Generated_Source\PSoC5/CyFlash.c ****     CY_FLASH_PM_ACT_CFG12_REG    |= CY_FLASH_PM_ACT_CFG12_EN_EE;
 657              		.loc 1 668 0
 658 001e 0A4A     		ldr	r2, .L89+8
 659 0020 1378     		ldrb	r3, [r2]	@ zero_extendqisi2
ARM GAS  C:\Users\acer\AppData\Local\Temp\ccK9hLJi.s 			page 25


 660 0022 43F01003 		orr	r3, r3, #16
 661 0026 1370     		strb	r3, [r2]
 669:.\Generated_Source\PSoC5/CyFlash.c ****     CY_FLASH_PM_ALTACT_CFG12_REG |= CY_FLASH_PM_ALTACT_CFG12_EN_EE;
 662              		.loc 1 669 0
 663 0028 137C     		ldrb	r3, [r2, #16]	@ zero_extendqisi2
 664 002a 43F01003 		orr	r3, r3, #16
 665 002e 1374     		strb	r3, [r2, #16]
 666              	.L86:
 670:.\Generated_Source\PSoC5/CyFlash.c **** 
 671:.\Generated_Source\PSoC5/CyFlash.c ****     while(0u == (CY_FLASH_SPC_FM_EE_CR_REG & CY_FLASH_EE_EE_AWAKE))
 667              		.loc 1 671 0 discriminator 1
 668 0030 064B     		ldr	r3, .L89+12
 669 0032 1B78     		ldrb	r3, [r3]	@ zero_extendqisi2
 670 0034 9B06     		lsls	r3, r3, #26
 671 0036 FBD5     		bpl	.L86
 672:.\Generated_Source\PSoC5/CyFlash.c ****     {
 673:.\Generated_Source\PSoC5/CyFlash.c ****         /* Non-zero status denotes that the EEPROM/Flash is awake & powered. */
 674:.\Generated_Source\PSoC5/CyFlash.c ****     }
 675:.\Generated_Source\PSoC5/CyFlash.c **** 
 676:.\Generated_Source\PSoC5/CyFlash.c ****     CyExitCriticalSection(interruptState);
 677:.\Generated_Source\PSoC5/CyFlash.c **** }
 672              		.loc 1 677 0
 673 0038 BDE80840 		pop	{r3, lr}
 674              		.cfi_restore 14
 675              		.cfi_restore 3
 676              		.cfi_def_cfa_offset 0
 676:.\Generated_Source\PSoC5/CyFlash.c **** }
 677              		.loc 1 676 0
 678 003c FFF7FEBF 		b	CyExitCriticalSection
 679              	.LVL61:
 680              	.L90:
 681              		.align	2
 682              	.L89:
 683 0040 A0430040 		.word	1073759136
 684 0044 01470040 		.word	1073760001
 685 0048 AC430040 		.word	1073759148
 686 004c 00470040 		.word	1073760000
 687              		.cfi_endproc
 688              	.LFE9:
 689              		.size	CyEEPROM_Start, .-CyEEPROM_Start
 690              		.section	.text.CyEEPROM_Stop,"ax",%progbits
 691              		.align	1
 692              		.global	CyEEPROM_Stop
 693              		.thumb
 694              		.thumb_func
 695              		.type	CyEEPROM_Stop, %function
 696              	CyEEPROM_Stop:
 697              	.LFB10:
 678:.\Generated_Source\PSoC5/CyFlash.c **** 
 679:.\Generated_Source\PSoC5/CyFlash.c **** 
 680:.\Generated_Source\PSoC5/CyFlash.c **** /*******************************************************************************
 681:.\Generated_Source\PSoC5/CyFlash.c **** * Function Name: CyEEPROM_Stop
 682:.\Generated_Source\PSoC5/CyFlash.c **** ********************************************************************************
 683:.\Generated_Source\PSoC5/CyFlash.c **** *
 684:.\Generated_Source\PSoC5/CyFlash.c **** * Summary:
 685:.\Generated_Source\PSoC5/CyFlash.c **** *  Disable the EEPROM.
 686:.\Generated_Source\PSoC5/CyFlash.c **** *
ARM GAS  C:\Users\acer\AppData\Local\Temp\ccK9hLJi.s 			page 26


 687:.\Generated_Source\PSoC5/CyFlash.c **** * Parameters:
 688:.\Generated_Source\PSoC5/CyFlash.c **** *  None
 689:.\Generated_Source\PSoC5/CyFlash.c **** *
 690:.\Generated_Source\PSoC5/CyFlash.c **** * Return:
 691:.\Generated_Source\PSoC5/CyFlash.c **** *  None
 692:.\Generated_Source\PSoC5/CyFlash.c **** *
 693:.\Generated_Source\PSoC5/CyFlash.c **** *******************************************************************************/
 694:.\Generated_Source\PSoC5/CyFlash.c **** void CyEEPROM_Stop (void) 
 695:.\Generated_Source\PSoC5/CyFlash.c **** {
 698              		.loc 1 695 0
 699              		.cfi_startproc
 700              		@ args = 0, pretend = 0, frame = 0
 701              		@ frame_needed = 0, uses_anonymous_args = 0
 702 0000 08B5     		push	{r3, lr}
 703              		.cfi_def_cfa_offset 8
 704              		.cfi_offset 3, -8
 705              		.cfi_offset 14, -4
 696:.\Generated_Source\PSoC5/CyFlash.c ****     uint8 interruptState;
 697:.\Generated_Source\PSoC5/CyFlash.c **** 
 698:.\Generated_Source\PSoC5/CyFlash.c ****     interruptState = CyEnterCriticalSection();
 706              		.loc 1 698 0
 707 0002 FFF7FEFF 		bl	CyEnterCriticalSection
 708              	.LVL62:
 699:.\Generated_Source\PSoC5/CyFlash.c **** 
 700:.\Generated_Source\PSoC5/CyFlash.c ****     CY_FLASH_PM_ACT_CFG12_REG    &= ((uint8)(~CY_FLASH_PM_ACT_CFG12_EN_EE));
 709              		.loc 1 700 0
 710 0006 064A     		ldr	r2, .L92
 711 0008 1378     		ldrb	r3, [r2]	@ zero_extendqisi2
 712 000a 03F0EF03 		and	r3, r3, #239
 713 000e 1370     		strb	r3, [r2]
 701:.\Generated_Source\PSoC5/CyFlash.c ****     CY_FLASH_PM_ALTACT_CFG12_REG &= ((uint8)(~CY_FLASH_PM_ALTACT_CFG12_EN_EE));
 714              		.loc 1 701 0
 715 0010 137C     		ldrb	r3, [r2, #16]	@ zero_extendqisi2
 716 0012 03F0EF03 		and	r3, r3, #239
 717 0016 1374     		strb	r3, [r2, #16]
 702:.\Generated_Source\PSoC5/CyFlash.c **** 
 703:.\Generated_Source\PSoC5/CyFlash.c ****     CyExitCriticalSection(interruptState);
 704:.\Generated_Source\PSoC5/CyFlash.c **** }
 718              		.loc 1 704 0
 719 0018 BDE80840 		pop	{r3, lr}
 720              		.cfi_restore 14
 721              		.cfi_restore 3
 722              		.cfi_def_cfa_offset 0
 703:.\Generated_Source\PSoC5/CyFlash.c **** }
 723              		.loc 1 703 0
 724 001c FFF7FEBF 		b	CyExitCriticalSection
 725              	.LVL63:
 726              	.L93:
 727              		.align	2
 728              	.L92:
 729 0020 AC430040 		.word	1073759148
 730              		.cfi_endproc
 731              	.LFE10:
 732              		.size	CyEEPROM_Stop, .-CyEEPROM_Stop
 733              		.section	.text.CyEEPROM_ReadReserve,"ax",%progbits
 734              		.align	1
 735              		.global	CyEEPROM_ReadReserve
ARM GAS  C:\Users\acer\AppData\Local\Temp\ccK9hLJi.s 			page 27


 736              		.thumb
 737              		.thumb_func
 738              		.type	CyEEPROM_ReadReserve, %function
 739              	CyEEPROM_ReadReserve:
 740              	.LFB11:
 705:.\Generated_Source\PSoC5/CyFlash.c **** 
 706:.\Generated_Source\PSoC5/CyFlash.c **** 
 707:.\Generated_Source\PSoC5/CyFlash.c **** /*******************************************************************************
 708:.\Generated_Source\PSoC5/CyFlash.c **** * Function Name: CyEEPROM_ReadReserve
 709:.\Generated_Source\PSoC5/CyFlash.c **** ********************************************************************************
 710:.\Generated_Source\PSoC5/CyFlash.c **** *
 711:.\Generated_Source\PSoC5/CyFlash.c **** * Summary:
 712:.\Generated_Source\PSoC5/CyFlash.c **** *  Request access to the EEPROM for reading and wait until access is available.
 713:.\Generated_Source\PSoC5/CyFlash.c **** *
 714:.\Generated_Source\PSoC5/CyFlash.c **** * Parameters:
 715:.\Generated_Source\PSoC5/CyFlash.c **** *  None
 716:.\Generated_Source\PSoC5/CyFlash.c **** *
 717:.\Generated_Source\PSoC5/CyFlash.c **** * Return:
 718:.\Generated_Source\PSoC5/CyFlash.c **** *  None
 719:.\Generated_Source\PSoC5/CyFlash.c **** *
 720:.\Generated_Source\PSoC5/CyFlash.c **** *******************************************************************************/
 721:.\Generated_Source\PSoC5/CyFlash.c **** void CyEEPROM_ReadReserve(void) 
 722:.\Generated_Source\PSoC5/CyFlash.c **** {
 741              		.loc 1 722 0
 742              		.cfi_startproc
 743              		@ args = 0, pretend = 0, frame = 0
 744              		@ frame_needed = 0, uses_anonymous_args = 0
 745              		@ link register save eliminated.
 723:.\Generated_Source\PSoC5/CyFlash.c ****     /* Make request for PHUB to have access */
 724:.\Generated_Source\PSoC5/CyFlash.c ****     CY_FLASH_EE_SCR_REG |= CY_FLASH_EE_SCR_AHB_EE_REQ;
 746              		.loc 1 724 0
 747 0000 044B     		ldr	r3, .L98
 748 0002 1A78     		ldrb	r2, [r3]	@ zero_extendqisi2
 749 0004 42F00102 		orr	r2, r2, #1
 750 0008 1A70     		strb	r2, [r3]
 751              	.L95:
 725:.\Generated_Source\PSoC5/CyFlash.c **** 
 726:.\Generated_Source\PSoC5/CyFlash.c ****     while (0u == (CY_FLASH_EE_SCR_REG & CY_FLASH_EE_SCR_AHB_EE_ACK))
 752              		.loc 1 726 0 discriminator 1
 753 000a 1A78     		ldrb	r2, [r3]	@ zero_extendqisi2
 754 000c 9207     		lsls	r2, r2, #30
 755 000e FCD5     		bpl	.L95
 727:.\Generated_Source\PSoC5/CyFlash.c ****     {
 728:.\Generated_Source\PSoC5/CyFlash.c ****         /* Wait for acknowledgment from PHUB */
 729:.\Generated_Source\PSoC5/CyFlash.c ****     }
 730:.\Generated_Source\PSoC5/CyFlash.c **** }
 756              		.loc 1 730 0
 757 0010 7047     		bx	lr
 758              	.L99:
 759 0012 00BF     		.align	2
 760              	.L98:
 761 0014 02470040 		.word	1073760002
 762              		.cfi_endproc
 763              	.LFE11:
 764              		.size	CyEEPROM_ReadReserve, .-CyEEPROM_ReadReserve
 765              		.section	.text.CyEEPROM_ReadRelease,"ax",%progbits
 766              		.align	1
ARM GAS  C:\Users\acer\AppData\Local\Temp\ccK9hLJi.s 			page 28


 767              		.global	CyEEPROM_ReadRelease
 768              		.thumb
 769              		.thumb_func
 770              		.type	CyEEPROM_ReadRelease, %function
 771              	CyEEPROM_ReadRelease:
 772              	.LFB12:
 731:.\Generated_Source\PSoC5/CyFlash.c **** 
 732:.\Generated_Source\PSoC5/CyFlash.c **** 
 733:.\Generated_Source\PSoC5/CyFlash.c **** /*******************************************************************************
 734:.\Generated_Source\PSoC5/CyFlash.c **** * Function Name: CyEEPROM_ReadRelease
 735:.\Generated_Source\PSoC5/CyFlash.c **** ********************************************************************************
 736:.\Generated_Source\PSoC5/CyFlash.c **** *
 737:.\Generated_Source\PSoC5/CyFlash.c **** * Summary:
 738:.\Generated_Source\PSoC5/CyFlash.c **** *  Release the read reservation of the EEPROM.
 739:.\Generated_Source\PSoC5/CyFlash.c **** *
 740:.\Generated_Source\PSoC5/CyFlash.c **** * Parameters:
 741:.\Generated_Source\PSoC5/CyFlash.c **** *  None
 742:.\Generated_Source\PSoC5/CyFlash.c **** *
 743:.\Generated_Source\PSoC5/CyFlash.c **** * Return:
 744:.\Generated_Source\PSoC5/CyFlash.c **** *  None
 745:.\Generated_Source\PSoC5/CyFlash.c **** *
 746:.\Generated_Source\PSoC5/CyFlash.c **** *******************************************************************************/
 747:.\Generated_Source\PSoC5/CyFlash.c **** void CyEEPROM_ReadRelease(void) 
 748:.\Generated_Source\PSoC5/CyFlash.c **** {
 773              		.loc 1 748 0
 774              		.cfi_startproc
 775              		@ args = 0, pretend = 0, frame = 0
 776              		@ frame_needed = 0, uses_anonymous_args = 0
 777              		@ link register save eliminated.
 749:.\Generated_Source\PSoC5/CyFlash.c ****     CY_FLASH_EE_SCR_REG &= (uint8)(~CY_FLASH_EE_SCR_AHB_EE_REQ);
 778              		.loc 1 749 0
 779 0000 024A     		ldr	r2, .L101
 780 0002 1378     		ldrb	r3, [r2]	@ zero_extendqisi2
 781 0004 03F0FE03 		and	r3, r3, #254
 782 0008 1370     		strb	r3, [r2]
 783 000a 7047     		bx	lr
 784              	.L102:
 785              		.align	2
 786              	.L101:
 787 000c 02470040 		.word	1073760002
 788              		.cfi_endproc
 789              	.LFE12:
 790              		.size	CyEEPROM_ReadRelease, .-CyEEPROM_ReadRelease
 791              		.comm	dieTemperature,2,1
 792              		.bss
 793              		.align	2
 794              		.set	.LANCHOR0,. + 0
 795              		.type	rowBuffer, %object
 796              		.size	rowBuffer, 4
 797              	rowBuffer:
 798 0000 00000000 		.space	4
 799              		.text
 800              	.Letext0:
 801              		.file 2 ".\\Generated_Source\\PSoC5\\cytypes.h"
 802              		.file 3 ".\\Generated_Source\\PSoC5\\CyLib.h"
 803              		.file 4 ".\\Generated_Source\\PSoC5\\CySpc.h"