ARM GAS  C:\Users\acer\AppData\Local\Temp\ccmFwtok.s 			page 1


   1              		.syntax unified
   2              		.cpu cortex-m3
   3              		.fpu softvfp
   4              		.eabi_attribute 20, 1
   5              		.eabi_attribute 21, 1
   6              		.eabi_attribute 23, 3
   7              		.eabi_attribute 24, 1
   8              		.eabi_attribute 25, 1
   9              		.eabi_attribute 26, 1
  10              		.eabi_attribute 30, 4
  11              		.eabi_attribute 34, 1
  12              		.eabi_attribute 18, 4
  13              		.thumb
  14              		.file	"emFile_1_SPI0.c"
  15              		.text
  16              	.Ltext0:
  17              		.cfi_sections	.debug_frame
  18              		.section	.text.emFile_1_SPI0_Enable,"ax",%progbits
  19              		.align	1
  20              		.global	emFile_1_SPI0_Enable
  21              		.thumb
  22              		.thumb_func
  23              		.type	emFile_1_SPI0_Enable, %function
  24              	emFile_1_SPI0_Enable:
  25              	.LFB1:
  26              		.file 1 ".\\Generated_Source\\PSoC5\\emFile_1_SPI0.c"
   1:.\Generated_Source\PSoC5/emFile_1_SPI0.c **** /*******************************************************************************
   2:.\Generated_Source\PSoC5/emFile_1_SPI0.c **** * File Name: emFile_1_SPI0.c
   3:.\Generated_Source\PSoC5/emFile_1_SPI0.c **** * Version 2.40
   4:.\Generated_Source\PSoC5/emFile_1_SPI0.c **** *
   5:.\Generated_Source\PSoC5/emFile_1_SPI0.c **** * Description:
   6:.\Generated_Source\PSoC5/emFile_1_SPI0.c **** *  This file provides all API functionality of the SPI Master component.
   7:.\Generated_Source\PSoC5/emFile_1_SPI0.c **** *
   8:.\Generated_Source\PSoC5/emFile_1_SPI0.c **** * Note:
   9:.\Generated_Source\PSoC5/emFile_1_SPI0.c **** *  None.
  10:.\Generated_Source\PSoC5/emFile_1_SPI0.c **** *
  11:.\Generated_Source\PSoC5/emFile_1_SPI0.c **** ********************************************************************************
  12:.\Generated_Source\PSoC5/emFile_1_SPI0.c **** * Copyright 2008-2012, Cypress Semiconductor Corporation.  All rights reserved.
  13:.\Generated_Source\PSoC5/emFile_1_SPI0.c **** * You may use this file only in accordance with the license, terms, conditions,
  14:.\Generated_Source\PSoC5/emFile_1_SPI0.c **** * disclaimers, and limitations in the end user license agreement accompanying
  15:.\Generated_Source\PSoC5/emFile_1_SPI0.c **** * the software package with which this file was provided.
  16:.\Generated_Source\PSoC5/emFile_1_SPI0.c **** *******************************************************************************/
  17:.\Generated_Source\PSoC5/emFile_1_SPI0.c **** 
  18:.\Generated_Source\PSoC5/emFile_1_SPI0.c **** #include "emFile_1_SPI0_PVT.h"
  19:.\Generated_Source\PSoC5/emFile_1_SPI0.c **** 
  20:.\Generated_Source\PSoC5/emFile_1_SPI0.c **** #if(emFile_1_SPI0_TX_SOFTWARE_BUF_ENABLED)
  21:.\Generated_Source\PSoC5/emFile_1_SPI0.c ****     volatile uint8 emFile_1_SPI0_txBuffer[emFile_1_SPI0_TX_BUFFER_SIZE] = {0u};
  22:.\Generated_Source\PSoC5/emFile_1_SPI0.c ****     volatile uint8 emFile_1_SPI0_txBufferFull;
  23:.\Generated_Source\PSoC5/emFile_1_SPI0.c ****     volatile uint8 emFile_1_SPI0_txBufferRead;
  24:.\Generated_Source\PSoC5/emFile_1_SPI0.c ****     volatile uint8 emFile_1_SPI0_txBufferWrite;
  25:.\Generated_Source\PSoC5/emFile_1_SPI0.c **** #endif /* (emFile_1_SPI0_TX_SOFTWARE_BUF_ENABLED) */
  26:.\Generated_Source\PSoC5/emFile_1_SPI0.c **** 
  27:.\Generated_Source\PSoC5/emFile_1_SPI0.c **** #if(emFile_1_SPI0_RX_SOFTWARE_BUF_ENABLED)
  28:.\Generated_Source\PSoC5/emFile_1_SPI0.c ****     volatile uint8 emFile_1_SPI0_rxBuffer[emFile_1_SPI0_RX_BUFFER_SIZE] = {0u};
  29:.\Generated_Source\PSoC5/emFile_1_SPI0.c ****     volatile uint8 emFile_1_SPI0_rxBufferFull;
  30:.\Generated_Source\PSoC5/emFile_1_SPI0.c ****     volatile uint8 emFile_1_SPI0_rxBufferRead;
  31:.\Generated_Source\PSoC5/emFile_1_SPI0.c ****     volatile uint8 emFile_1_SPI0_rxBufferWrite;
ARM GAS  C:\Users\acer\AppData\Local\Temp\ccmFwtok.s 			page 2


  32:.\Generated_Source\PSoC5/emFile_1_SPI0.c **** #endif /* (emFile_1_SPI0_RX_SOFTWARE_BUF_ENABLED) */
  33:.\Generated_Source\PSoC5/emFile_1_SPI0.c **** 
  34:.\Generated_Source\PSoC5/emFile_1_SPI0.c **** uint8 emFile_1_SPI0_initVar = 0u;
  35:.\Generated_Source\PSoC5/emFile_1_SPI0.c **** 
  36:.\Generated_Source\PSoC5/emFile_1_SPI0.c **** volatile uint8 emFile_1_SPI0_swStatusTx;
  37:.\Generated_Source\PSoC5/emFile_1_SPI0.c **** volatile uint8 emFile_1_SPI0_swStatusRx;
  38:.\Generated_Source\PSoC5/emFile_1_SPI0.c **** 
  39:.\Generated_Source\PSoC5/emFile_1_SPI0.c **** 
  40:.\Generated_Source\PSoC5/emFile_1_SPI0.c **** /*******************************************************************************
  41:.\Generated_Source\PSoC5/emFile_1_SPI0.c **** * Function Name: emFile_1_SPI0_Init
  42:.\Generated_Source\PSoC5/emFile_1_SPI0.c **** ********************************************************************************
  43:.\Generated_Source\PSoC5/emFile_1_SPI0.c **** *
  44:.\Generated_Source\PSoC5/emFile_1_SPI0.c **** * Summary:
  45:.\Generated_Source\PSoC5/emFile_1_SPI0.c **** *  Inits/Restores default SPIM configuration provided with customizer.
  46:.\Generated_Source\PSoC5/emFile_1_SPI0.c **** *
  47:.\Generated_Source\PSoC5/emFile_1_SPI0.c **** * Parameters:
  48:.\Generated_Source\PSoC5/emFile_1_SPI0.c **** *  None.
  49:.\Generated_Source\PSoC5/emFile_1_SPI0.c **** *
  50:.\Generated_Source\PSoC5/emFile_1_SPI0.c **** * Return:
  51:.\Generated_Source\PSoC5/emFile_1_SPI0.c **** *  None.
  52:.\Generated_Source\PSoC5/emFile_1_SPI0.c **** *
  53:.\Generated_Source\PSoC5/emFile_1_SPI0.c **** * Side Effects:
  54:.\Generated_Source\PSoC5/emFile_1_SPI0.c **** *  When this function is called it initializes all of the necessary parameters
  55:.\Generated_Source\PSoC5/emFile_1_SPI0.c **** *  for execution. i.e. setting the initial interrupt mask, configuring the
  56:.\Generated_Source\PSoC5/emFile_1_SPI0.c **** *  interrupt service routine, configuring the bit-counter parameters and
  57:.\Generated_Source\PSoC5/emFile_1_SPI0.c **** *  clearing the FIFO and Status Register.
  58:.\Generated_Source\PSoC5/emFile_1_SPI0.c **** *
  59:.\Generated_Source\PSoC5/emFile_1_SPI0.c **** * Reentrant:
  60:.\Generated_Source\PSoC5/emFile_1_SPI0.c **** *  No.
  61:.\Generated_Source\PSoC5/emFile_1_SPI0.c **** *
  62:.\Generated_Source\PSoC5/emFile_1_SPI0.c **** *******************************************************************************/
  63:.\Generated_Source\PSoC5/emFile_1_SPI0.c **** void emFile_1_SPI0_Init(void) 
  64:.\Generated_Source\PSoC5/emFile_1_SPI0.c **** {
  65:.\Generated_Source\PSoC5/emFile_1_SPI0.c ****     /* Initialize the Bit counter */
  66:.\Generated_Source\PSoC5/emFile_1_SPI0.c ****     emFile_1_SPI0_COUNTER_PERIOD_REG = emFile_1_SPI0_BITCTR_INIT;
  67:.\Generated_Source\PSoC5/emFile_1_SPI0.c **** 
  68:.\Generated_Source\PSoC5/emFile_1_SPI0.c ****     /* Init TX ISR  */
  69:.\Generated_Source\PSoC5/emFile_1_SPI0.c ****     #if(0u != emFile_1_SPI0_INTERNAL_TX_INT_ENABLED)
  70:.\Generated_Source\PSoC5/emFile_1_SPI0.c ****         CyIntDisable         (emFile_1_SPI0_TX_ISR_NUMBER);
  71:.\Generated_Source\PSoC5/emFile_1_SPI0.c ****         CyIntSetPriority     (emFile_1_SPI0_TX_ISR_NUMBER,  emFile_1_SPI0_TX_ISR_PRIORITY);
  72:.\Generated_Source\PSoC5/emFile_1_SPI0.c ****         (void) CyIntSetVector(emFile_1_SPI0_TX_ISR_NUMBER, &emFile_1_SPI0_TX_ISR);
  73:.\Generated_Source\PSoC5/emFile_1_SPI0.c ****     #endif /* (0u != emFile_1_SPI0_INTERNAL_TX_INT_ENABLED) */
  74:.\Generated_Source\PSoC5/emFile_1_SPI0.c **** 
  75:.\Generated_Source\PSoC5/emFile_1_SPI0.c ****     /* Init RX ISR  */
  76:.\Generated_Source\PSoC5/emFile_1_SPI0.c ****     #if(0u != emFile_1_SPI0_INTERNAL_RX_INT_ENABLED)
  77:.\Generated_Source\PSoC5/emFile_1_SPI0.c ****         CyIntDisable         (emFile_1_SPI0_RX_ISR_NUMBER);
  78:.\Generated_Source\PSoC5/emFile_1_SPI0.c ****         CyIntSetPriority     (emFile_1_SPI0_RX_ISR_NUMBER,  emFile_1_SPI0_RX_ISR_PRIORITY);
  79:.\Generated_Source\PSoC5/emFile_1_SPI0.c ****         (void) CyIntSetVector(emFile_1_SPI0_RX_ISR_NUMBER, &emFile_1_SPI0_RX_ISR);
  80:.\Generated_Source\PSoC5/emFile_1_SPI0.c ****     #endif /* (0u != emFile_1_SPI0_INTERNAL_RX_INT_ENABLED) */
  81:.\Generated_Source\PSoC5/emFile_1_SPI0.c **** 
  82:.\Generated_Source\PSoC5/emFile_1_SPI0.c ****     /* Clear any stray data from the RX and TX FIFO */
  83:.\Generated_Source\PSoC5/emFile_1_SPI0.c ****     emFile_1_SPI0_ClearFIFO();
  84:.\Generated_Source\PSoC5/emFile_1_SPI0.c **** 
  85:.\Generated_Source\PSoC5/emFile_1_SPI0.c ****     #if(emFile_1_SPI0_RX_SOFTWARE_BUF_ENABLED)
  86:.\Generated_Source\PSoC5/emFile_1_SPI0.c ****         emFile_1_SPI0_rxBufferFull  = 0u;
  87:.\Generated_Source\PSoC5/emFile_1_SPI0.c ****         emFile_1_SPI0_rxBufferRead  = 0u;
  88:.\Generated_Source\PSoC5/emFile_1_SPI0.c ****         emFile_1_SPI0_rxBufferWrite = 0u;
ARM GAS  C:\Users\acer\AppData\Local\Temp\ccmFwtok.s 			page 3


  89:.\Generated_Source\PSoC5/emFile_1_SPI0.c ****     #endif /* (emFile_1_SPI0_RX_SOFTWARE_BUF_ENABLED) */
  90:.\Generated_Source\PSoC5/emFile_1_SPI0.c **** 
  91:.\Generated_Source\PSoC5/emFile_1_SPI0.c ****     #if(emFile_1_SPI0_TX_SOFTWARE_BUF_ENABLED)
  92:.\Generated_Source\PSoC5/emFile_1_SPI0.c ****         emFile_1_SPI0_txBufferFull  = 0u;
  93:.\Generated_Source\PSoC5/emFile_1_SPI0.c ****         emFile_1_SPI0_txBufferRead  = 0u;
  94:.\Generated_Source\PSoC5/emFile_1_SPI0.c ****         emFile_1_SPI0_txBufferWrite = 0u;
  95:.\Generated_Source\PSoC5/emFile_1_SPI0.c ****     #endif /* (emFile_1_SPI0_TX_SOFTWARE_BUF_ENABLED) */
  96:.\Generated_Source\PSoC5/emFile_1_SPI0.c **** 
  97:.\Generated_Source\PSoC5/emFile_1_SPI0.c ****     (void) emFile_1_SPI0_ReadTxStatus(); /* Clear Tx status and swStatusTx */
  98:.\Generated_Source\PSoC5/emFile_1_SPI0.c ****     (void) emFile_1_SPI0_ReadRxStatus(); /* Clear Rx status and swStatusRx */
  99:.\Generated_Source\PSoC5/emFile_1_SPI0.c **** 
 100:.\Generated_Source\PSoC5/emFile_1_SPI0.c ****     /* Configure TX and RX interrupt mask */
 101:.\Generated_Source\PSoC5/emFile_1_SPI0.c ****     emFile_1_SPI0_TX_STATUS_MASK_REG = emFile_1_SPI0_TX_INIT_INTERRUPTS_MASK;
 102:.\Generated_Source\PSoC5/emFile_1_SPI0.c ****     emFile_1_SPI0_RX_STATUS_MASK_REG = emFile_1_SPI0_RX_INIT_INTERRUPTS_MASK;
 103:.\Generated_Source\PSoC5/emFile_1_SPI0.c **** }
 104:.\Generated_Source\PSoC5/emFile_1_SPI0.c **** 
 105:.\Generated_Source\PSoC5/emFile_1_SPI0.c **** 
 106:.\Generated_Source\PSoC5/emFile_1_SPI0.c **** /*******************************************************************************
 107:.\Generated_Source\PSoC5/emFile_1_SPI0.c **** * Function Name: emFile_1_SPI0_Enable
 108:.\Generated_Source\PSoC5/emFile_1_SPI0.c **** ********************************************************************************
 109:.\Generated_Source\PSoC5/emFile_1_SPI0.c **** *
 110:.\Generated_Source\PSoC5/emFile_1_SPI0.c **** * Summary:
 111:.\Generated_Source\PSoC5/emFile_1_SPI0.c **** *  Enable SPIM component.
 112:.\Generated_Source\PSoC5/emFile_1_SPI0.c **** *
 113:.\Generated_Source\PSoC5/emFile_1_SPI0.c **** * Parameters:
 114:.\Generated_Source\PSoC5/emFile_1_SPI0.c **** *  None.
 115:.\Generated_Source\PSoC5/emFile_1_SPI0.c **** *
 116:.\Generated_Source\PSoC5/emFile_1_SPI0.c **** * Return:
 117:.\Generated_Source\PSoC5/emFile_1_SPI0.c **** *  None.
 118:.\Generated_Source\PSoC5/emFile_1_SPI0.c **** *
 119:.\Generated_Source\PSoC5/emFile_1_SPI0.c **** *******************************************************************************/
 120:.\Generated_Source\PSoC5/emFile_1_SPI0.c **** void emFile_1_SPI0_Enable(void) 
 121:.\Generated_Source\PSoC5/emFile_1_SPI0.c **** {
  27              		.loc 1 121 0
  28              		.cfi_startproc
  29              		@ args = 0, pretend = 0, frame = 0
  30              		@ frame_needed = 0, uses_anonymous_args = 0
  31 0000 08B5     		push	{r3, lr}
  32              		.cfi_def_cfa_offset 8
  33              		.cfi_offset 3, -8
  34              		.cfi_offset 14, -4
 122:.\Generated_Source\PSoC5/emFile_1_SPI0.c ****     uint8 enableInterrupts;
 123:.\Generated_Source\PSoC5/emFile_1_SPI0.c **** 
 124:.\Generated_Source\PSoC5/emFile_1_SPI0.c ****     enableInterrupts = CyEnterCriticalSection();
  35              		.loc 1 124 0
  36 0002 FFF7FEFF 		bl	CyEnterCriticalSection
  37              	.LVL0:
 125:.\Generated_Source\PSoC5/emFile_1_SPI0.c ****     emFile_1_SPI0_COUNTER_CONTROL_REG |= emFile_1_SPI0_CNTR_ENABLE;
  38              		.loc 1 125 0
  39 0006 084A     		ldr	r2, .L2
  40 0008 1378     		ldrb	r3, [r2]	@ zero_extendqisi2
  41 000a 43F02003 		orr	r3, r3, #32
  42 000e 1370     		strb	r3, [r2]
 126:.\Generated_Source\PSoC5/emFile_1_SPI0.c ****     emFile_1_SPI0_TX_STATUS_ACTL_REG  |= emFile_1_SPI0_INT_ENABLE;
  43              		.loc 1 126 0
  44 0010 D378     		ldrb	r3, [r2, #3]	@ zero_extendqisi2
  45 0012 43F01003 		orr	r3, r3, #16
ARM GAS  C:\Users\acer\AppData\Local\Temp\ccmFwtok.s 			page 4


  46 0016 D370     		strb	r3, [r2, #3]
 127:.\Generated_Source\PSoC5/emFile_1_SPI0.c ****     emFile_1_SPI0_RX_STATUS_ACTL_REG  |= emFile_1_SPI0_INT_ENABLE;
  47              		.loc 1 127 0
  48 0018 5378     		ldrb	r3, [r2, #1]	@ zero_extendqisi2
  49 001a 43F01003 		orr	r3, r3, #16
  50 001e 5370     		strb	r3, [r2, #1]
 128:.\Generated_Source\PSoC5/emFile_1_SPI0.c ****     CyExitCriticalSection(enableInterrupts);
 129:.\Generated_Source\PSoC5/emFile_1_SPI0.c **** 
 130:.\Generated_Source\PSoC5/emFile_1_SPI0.c ****     #if(0u != emFile_1_SPI0_INTERNAL_CLOCK)
 131:.\Generated_Source\PSoC5/emFile_1_SPI0.c ****         emFile_1_SPI0_IntClock_Enable();
 132:.\Generated_Source\PSoC5/emFile_1_SPI0.c ****     #endif /* (0u != emFile_1_SPI0_INTERNAL_CLOCK) */
 133:.\Generated_Source\PSoC5/emFile_1_SPI0.c **** 
 134:.\Generated_Source\PSoC5/emFile_1_SPI0.c ****     emFile_1_SPI0_EnableTxInt();
 135:.\Generated_Source\PSoC5/emFile_1_SPI0.c ****     emFile_1_SPI0_EnableRxInt();
 136:.\Generated_Source\PSoC5/emFile_1_SPI0.c **** }
  51              		.loc 1 136 0
  52 0020 BDE80840 		pop	{r3, lr}
  53              		.cfi_restore 14
  54              		.cfi_restore 3
  55              		.cfi_def_cfa_offset 0
 128:.\Generated_Source\PSoC5/emFile_1_SPI0.c ****     CyExitCriticalSection(enableInterrupts);
  56              		.loc 1 128 0
  57 0024 FFF7FEBF 		b	CyExitCriticalSection
  58              	.LVL1:
  59              	.L3:
  60              		.align	2
  61              	.L2:
  62 0028 98640040 		.word	1073767576
  63              		.cfi_endproc
  64              	.LFE1:
  65              		.size	emFile_1_SPI0_Enable, .-emFile_1_SPI0_Enable
  66              		.section	.text.emFile_1_SPI0_Stop,"ax",%progbits
  67              		.align	1
  68              		.global	emFile_1_SPI0_Stop
  69              		.thumb
  70              		.thumb_func
  71              		.type	emFile_1_SPI0_Stop, %function
  72              	emFile_1_SPI0_Stop:
  73              	.LFB3:
 137:.\Generated_Source\PSoC5/emFile_1_SPI0.c **** 
 138:.\Generated_Source\PSoC5/emFile_1_SPI0.c **** 
 139:.\Generated_Source\PSoC5/emFile_1_SPI0.c **** /*******************************************************************************
 140:.\Generated_Source\PSoC5/emFile_1_SPI0.c **** * Function Name: emFile_1_SPI0_Start
 141:.\Generated_Source\PSoC5/emFile_1_SPI0.c **** ********************************************************************************
 142:.\Generated_Source\PSoC5/emFile_1_SPI0.c **** *
 143:.\Generated_Source\PSoC5/emFile_1_SPI0.c **** * Summary:
 144:.\Generated_Source\PSoC5/emFile_1_SPI0.c **** *  Initialize and Enable the SPI Master component.
 145:.\Generated_Source\PSoC5/emFile_1_SPI0.c **** *
 146:.\Generated_Source\PSoC5/emFile_1_SPI0.c **** * Parameters:
 147:.\Generated_Source\PSoC5/emFile_1_SPI0.c **** *  None.
 148:.\Generated_Source\PSoC5/emFile_1_SPI0.c **** *
 149:.\Generated_Source\PSoC5/emFile_1_SPI0.c **** * Return:
 150:.\Generated_Source\PSoC5/emFile_1_SPI0.c **** *  None.
 151:.\Generated_Source\PSoC5/emFile_1_SPI0.c **** *
 152:.\Generated_Source\PSoC5/emFile_1_SPI0.c **** * Global variables:
 153:.\Generated_Source\PSoC5/emFile_1_SPI0.c **** *  emFile_1_SPI0_initVar - used to check initial configuration, modified on
 154:.\Generated_Source\PSoC5/emFile_1_SPI0.c **** *  first function call.
ARM GAS  C:\Users\acer\AppData\Local\Temp\ccmFwtok.s 			page 5


 155:.\Generated_Source\PSoC5/emFile_1_SPI0.c **** *
 156:.\Generated_Source\PSoC5/emFile_1_SPI0.c **** * Theory:
 157:.\Generated_Source\PSoC5/emFile_1_SPI0.c **** *  Enable the clock input to enable operation.
 158:.\Generated_Source\PSoC5/emFile_1_SPI0.c **** *
 159:.\Generated_Source\PSoC5/emFile_1_SPI0.c **** * Reentrant:
 160:.\Generated_Source\PSoC5/emFile_1_SPI0.c **** *  No.
 161:.\Generated_Source\PSoC5/emFile_1_SPI0.c **** *
 162:.\Generated_Source\PSoC5/emFile_1_SPI0.c **** *******************************************************************************/
 163:.\Generated_Source\PSoC5/emFile_1_SPI0.c **** void emFile_1_SPI0_Start(void) 
 164:.\Generated_Source\PSoC5/emFile_1_SPI0.c **** {
 165:.\Generated_Source\PSoC5/emFile_1_SPI0.c ****     if(0u == emFile_1_SPI0_initVar)
 166:.\Generated_Source\PSoC5/emFile_1_SPI0.c ****     {
 167:.\Generated_Source\PSoC5/emFile_1_SPI0.c ****         emFile_1_SPI0_Init();
 168:.\Generated_Source\PSoC5/emFile_1_SPI0.c ****         emFile_1_SPI0_initVar = 1u;
 169:.\Generated_Source\PSoC5/emFile_1_SPI0.c ****     }
 170:.\Generated_Source\PSoC5/emFile_1_SPI0.c **** 
 171:.\Generated_Source\PSoC5/emFile_1_SPI0.c ****     emFile_1_SPI0_Enable();
 172:.\Generated_Source\PSoC5/emFile_1_SPI0.c **** }
 173:.\Generated_Source\PSoC5/emFile_1_SPI0.c **** 
 174:.\Generated_Source\PSoC5/emFile_1_SPI0.c **** 
 175:.\Generated_Source\PSoC5/emFile_1_SPI0.c **** /*******************************************************************************
 176:.\Generated_Source\PSoC5/emFile_1_SPI0.c **** * Function Name: emFile_1_SPI0_Stop
 177:.\Generated_Source\PSoC5/emFile_1_SPI0.c **** ********************************************************************************
 178:.\Generated_Source\PSoC5/emFile_1_SPI0.c **** *
 179:.\Generated_Source\PSoC5/emFile_1_SPI0.c **** * Summary:
 180:.\Generated_Source\PSoC5/emFile_1_SPI0.c **** *  Disable the SPI Master component.
 181:.\Generated_Source\PSoC5/emFile_1_SPI0.c **** *
 182:.\Generated_Source\PSoC5/emFile_1_SPI0.c **** * Parameters:
 183:.\Generated_Source\PSoC5/emFile_1_SPI0.c **** *  None.
 184:.\Generated_Source\PSoC5/emFile_1_SPI0.c **** *
 185:.\Generated_Source\PSoC5/emFile_1_SPI0.c **** * Return:
 186:.\Generated_Source\PSoC5/emFile_1_SPI0.c **** *  None.
 187:.\Generated_Source\PSoC5/emFile_1_SPI0.c **** *
 188:.\Generated_Source\PSoC5/emFile_1_SPI0.c **** * Theory:
 189:.\Generated_Source\PSoC5/emFile_1_SPI0.c **** *  Disable the clock input to enable operation.
 190:.\Generated_Source\PSoC5/emFile_1_SPI0.c **** *
 191:.\Generated_Source\PSoC5/emFile_1_SPI0.c **** *******************************************************************************/
 192:.\Generated_Source\PSoC5/emFile_1_SPI0.c **** void emFile_1_SPI0_Stop(void) 
 193:.\Generated_Source\PSoC5/emFile_1_SPI0.c **** {
  74              		.loc 1 193 0
  75              		.cfi_startproc
  76              		@ args = 0, pretend = 0, frame = 0
  77              		@ frame_needed = 0, uses_anonymous_args = 0
  78 0000 08B5     		push	{r3, lr}
  79              		.cfi_def_cfa_offset 8
  80              		.cfi_offset 3, -8
  81              		.cfi_offset 14, -4
 194:.\Generated_Source\PSoC5/emFile_1_SPI0.c ****     uint8 enableInterrupts;
 195:.\Generated_Source\PSoC5/emFile_1_SPI0.c **** 
 196:.\Generated_Source\PSoC5/emFile_1_SPI0.c ****     enableInterrupts = CyEnterCriticalSection();
  82              		.loc 1 196 0
  83 0002 FFF7FEFF 		bl	CyEnterCriticalSection
  84              	.LVL2:
 197:.\Generated_Source\PSoC5/emFile_1_SPI0.c ****     emFile_1_SPI0_TX_STATUS_ACTL_REG &= ((uint8) ~emFile_1_SPI0_INT_ENABLE);
  85              		.loc 1 197 0
  86 0006 074A     		ldr	r2, .L5
  87 0008 1378     		ldrb	r3, [r2]	@ zero_extendqisi2
ARM GAS  C:\Users\acer\AppData\Local\Temp\ccmFwtok.s 			page 6


  88 000a 03F0EF03 		and	r3, r3, #239
  89 000e 1370     		strb	r3, [r2]
 198:.\Generated_Source\PSoC5/emFile_1_SPI0.c ****     emFile_1_SPI0_RX_STATUS_ACTL_REG &= ((uint8) ~emFile_1_SPI0_INT_ENABLE);
  90              		.loc 1 198 0
  91 0010 12F8023C 		ldrb	r3, [r2, #-2]	@ zero_extendqisi2
  92 0014 03F0EF03 		and	r3, r3, #239
  93 0018 02F8023C 		strb	r3, [r2, #-2]
 199:.\Generated_Source\PSoC5/emFile_1_SPI0.c ****     CyExitCriticalSection(enableInterrupts);
 200:.\Generated_Source\PSoC5/emFile_1_SPI0.c **** 
 201:.\Generated_Source\PSoC5/emFile_1_SPI0.c ****     #if(0u != emFile_1_SPI0_INTERNAL_CLOCK)
 202:.\Generated_Source\PSoC5/emFile_1_SPI0.c ****         emFile_1_SPI0_IntClock_Disable();
 203:.\Generated_Source\PSoC5/emFile_1_SPI0.c ****     #endif /* (0u != emFile_1_SPI0_INTERNAL_CLOCK) */
 204:.\Generated_Source\PSoC5/emFile_1_SPI0.c **** 
 205:.\Generated_Source\PSoC5/emFile_1_SPI0.c ****     emFile_1_SPI0_DisableTxInt();
 206:.\Generated_Source\PSoC5/emFile_1_SPI0.c ****     emFile_1_SPI0_DisableRxInt();
 207:.\Generated_Source\PSoC5/emFile_1_SPI0.c **** }
  94              		.loc 1 207 0
  95 001c BDE80840 		pop	{r3, lr}
  96              		.cfi_restore 14
  97              		.cfi_restore 3
  98              		.cfi_def_cfa_offset 0
 199:.\Generated_Source\PSoC5/emFile_1_SPI0.c ****     CyExitCriticalSection(enableInterrupts);
  99              		.loc 1 199 0
 100 0020 FFF7FEBF 		b	CyExitCriticalSection
 101              	.LVL3:
 102              	.L6:
 103              		.align	2
 104              	.L5:
 105 0024 9B640040 		.word	1073767579
 106              		.cfi_endproc
 107              	.LFE3:
 108              		.size	emFile_1_SPI0_Stop, .-emFile_1_SPI0_Stop
 109              		.section	.text.emFile_1_SPI0_EnableTxInt,"ax",%progbits
 110              		.align	1
 111              		.global	emFile_1_SPI0_EnableTxInt
 112              		.thumb
 113              		.thumb_func
 114              		.type	emFile_1_SPI0_EnableTxInt, %function
 115              	emFile_1_SPI0_EnableTxInt:
 116              	.LFB4:
 208:.\Generated_Source\PSoC5/emFile_1_SPI0.c **** 
 209:.\Generated_Source\PSoC5/emFile_1_SPI0.c **** 
 210:.\Generated_Source\PSoC5/emFile_1_SPI0.c **** /*******************************************************************************
 211:.\Generated_Source\PSoC5/emFile_1_SPI0.c **** * Function Name: emFile_1_SPI0_EnableTxInt
 212:.\Generated_Source\PSoC5/emFile_1_SPI0.c **** ********************************************************************************
 213:.\Generated_Source\PSoC5/emFile_1_SPI0.c **** *
 214:.\Generated_Source\PSoC5/emFile_1_SPI0.c **** * Summary:
 215:.\Generated_Source\PSoC5/emFile_1_SPI0.c **** *  Enable internal Tx interrupt generation.
 216:.\Generated_Source\PSoC5/emFile_1_SPI0.c **** *
 217:.\Generated_Source\PSoC5/emFile_1_SPI0.c **** * Parameters:
 218:.\Generated_Source\PSoC5/emFile_1_SPI0.c **** *  None.
 219:.\Generated_Source\PSoC5/emFile_1_SPI0.c **** *
 220:.\Generated_Source\PSoC5/emFile_1_SPI0.c **** * Return:
 221:.\Generated_Source\PSoC5/emFile_1_SPI0.c **** *  None.
 222:.\Generated_Source\PSoC5/emFile_1_SPI0.c **** *
 223:.\Generated_Source\PSoC5/emFile_1_SPI0.c **** * Theory:
 224:.\Generated_Source\PSoC5/emFile_1_SPI0.c **** *  Enable the internal Tx interrupt output -or- the interrupt component itself.
ARM GAS  C:\Users\acer\AppData\Local\Temp\ccmFwtok.s 			page 7


 225:.\Generated_Source\PSoC5/emFile_1_SPI0.c **** *
 226:.\Generated_Source\PSoC5/emFile_1_SPI0.c **** *******************************************************************************/
 227:.\Generated_Source\PSoC5/emFile_1_SPI0.c **** void emFile_1_SPI0_EnableTxInt(void) 
 228:.\Generated_Source\PSoC5/emFile_1_SPI0.c **** {
 117              		.loc 1 228 0
 118              		.cfi_startproc
 119              		@ args = 0, pretend = 0, frame = 0
 120              		@ frame_needed = 0, uses_anonymous_args = 0
 121              		@ link register save eliminated.
 122 0000 7047     		bx	lr
 123              		.cfi_endproc
 124              	.LFE4:
 125              		.size	emFile_1_SPI0_EnableTxInt, .-emFile_1_SPI0_EnableTxInt
 126              		.section	.text.emFile_1_SPI0_EnableRxInt,"ax",%progbits
 127              		.align	1
 128              		.global	emFile_1_SPI0_EnableRxInt
 129              		.thumb
 130              		.thumb_func
 131              		.type	emFile_1_SPI0_EnableRxInt, %function
 132              	emFile_1_SPI0_EnableRxInt:
 133              	.LFB5:
 229:.\Generated_Source\PSoC5/emFile_1_SPI0.c ****     #if(0u != emFile_1_SPI0_INTERNAL_TX_INT_ENABLED)
 230:.\Generated_Source\PSoC5/emFile_1_SPI0.c ****         CyIntEnable(emFile_1_SPI0_TX_ISR_NUMBER);
 231:.\Generated_Source\PSoC5/emFile_1_SPI0.c ****     #endif /* (0u != emFile_1_SPI0_INTERNAL_TX_INT_ENABLED) */
 232:.\Generated_Source\PSoC5/emFile_1_SPI0.c **** }
 233:.\Generated_Source\PSoC5/emFile_1_SPI0.c **** 
 234:.\Generated_Source\PSoC5/emFile_1_SPI0.c **** 
 235:.\Generated_Source\PSoC5/emFile_1_SPI0.c **** /*******************************************************************************
 236:.\Generated_Source\PSoC5/emFile_1_SPI0.c **** * Function Name: emFile_1_SPI0_EnableRxInt
 237:.\Generated_Source\PSoC5/emFile_1_SPI0.c **** ********************************************************************************
 238:.\Generated_Source\PSoC5/emFile_1_SPI0.c **** *
 239:.\Generated_Source\PSoC5/emFile_1_SPI0.c **** * Summary:
 240:.\Generated_Source\PSoC5/emFile_1_SPI0.c **** *  Enable internal Rx interrupt generation.
 241:.\Generated_Source\PSoC5/emFile_1_SPI0.c **** *
 242:.\Generated_Source\PSoC5/emFile_1_SPI0.c **** * Parameters:
 243:.\Generated_Source\PSoC5/emFile_1_SPI0.c **** *  None.
 244:.\Generated_Source\PSoC5/emFile_1_SPI0.c **** *
 245:.\Generated_Source\PSoC5/emFile_1_SPI0.c **** * Return:
 246:.\Generated_Source\PSoC5/emFile_1_SPI0.c **** *  None.
 247:.\Generated_Source\PSoC5/emFile_1_SPI0.c **** *
 248:.\Generated_Source\PSoC5/emFile_1_SPI0.c **** * Theory:
 249:.\Generated_Source\PSoC5/emFile_1_SPI0.c **** *  Enable the internal Rx interrupt output -or- the interrupt component itself.
 250:.\Generated_Source\PSoC5/emFile_1_SPI0.c **** *
 251:.\Generated_Source\PSoC5/emFile_1_SPI0.c **** *******************************************************************************/
 252:.\Generated_Source\PSoC5/emFile_1_SPI0.c **** void emFile_1_SPI0_EnableRxInt(void) 
 253:.\Generated_Source\PSoC5/emFile_1_SPI0.c **** {
 134              		.loc 1 253 0
 135              		.cfi_startproc
 136              		@ args = 0, pretend = 0, frame = 0
 137              		@ frame_needed = 0, uses_anonymous_args = 0
 138              		@ link register save eliminated.
 139 0000 7047     		bx	lr
 140              		.cfi_endproc
 141              	.LFE5:
 142              		.size	emFile_1_SPI0_EnableRxInt, .-emFile_1_SPI0_EnableRxInt
 143              		.section	.text.emFile_1_SPI0_DisableTxInt,"ax",%progbits
 144              		.align	1
ARM GAS  C:\Users\acer\AppData\Local\Temp\ccmFwtok.s 			page 8


 145              		.global	emFile_1_SPI0_DisableTxInt
 146              		.thumb
 147              		.thumb_func
 148              		.type	emFile_1_SPI0_DisableTxInt, %function
 149              	emFile_1_SPI0_DisableTxInt:
 150              	.LFB6:
 254:.\Generated_Source\PSoC5/emFile_1_SPI0.c ****     #if(0u != emFile_1_SPI0_INTERNAL_RX_INT_ENABLED)
 255:.\Generated_Source\PSoC5/emFile_1_SPI0.c ****         CyIntEnable(emFile_1_SPI0_RX_ISR_NUMBER);
 256:.\Generated_Source\PSoC5/emFile_1_SPI0.c ****     #endif /* (0u != emFile_1_SPI0_INTERNAL_RX_INT_ENABLED) */
 257:.\Generated_Source\PSoC5/emFile_1_SPI0.c **** }
 258:.\Generated_Source\PSoC5/emFile_1_SPI0.c **** 
 259:.\Generated_Source\PSoC5/emFile_1_SPI0.c **** 
 260:.\Generated_Source\PSoC5/emFile_1_SPI0.c **** /*******************************************************************************
 261:.\Generated_Source\PSoC5/emFile_1_SPI0.c **** * Function Name: emFile_1_SPI0_DisableTxInt
 262:.\Generated_Source\PSoC5/emFile_1_SPI0.c **** ********************************************************************************
 263:.\Generated_Source\PSoC5/emFile_1_SPI0.c **** *
 264:.\Generated_Source\PSoC5/emFile_1_SPI0.c **** * Summary:
 265:.\Generated_Source\PSoC5/emFile_1_SPI0.c **** *  Disable internal Tx interrupt generation.
 266:.\Generated_Source\PSoC5/emFile_1_SPI0.c **** *
 267:.\Generated_Source\PSoC5/emFile_1_SPI0.c **** * Parameters:
 268:.\Generated_Source\PSoC5/emFile_1_SPI0.c **** *  None.
 269:.\Generated_Source\PSoC5/emFile_1_SPI0.c **** *
 270:.\Generated_Source\PSoC5/emFile_1_SPI0.c **** * Return:
 271:.\Generated_Source\PSoC5/emFile_1_SPI0.c **** *  None.
 272:.\Generated_Source\PSoC5/emFile_1_SPI0.c **** *
 273:.\Generated_Source\PSoC5/emFile_1_SPI0.c **** * Theory:
 274:.\Generated_Source\PSoC5/emFile_1_SPI0.c **** *  Disable the internal Tx interrupt output -or- the interrupt component itself.
 275:.\Generated_Source\PSoC5/emFile_1_SPI0.c **** *
 276:.\Generated_Source\PSoC5/emFile_1_SPI0.c **** *******************************************************************************/
 277:.\Generated_Source\PSoC5/emFile_1_SPI0.c **** void emFile_1_SPI0_DisableTxInt(void) 
 278:.\Generated_Source\PSoC5/emFile_1_SPI0.c **** {
 151              		.loc 1 278 0
 152              		.cfi_startproc
 153              		@ args = 0, pretend = 0, frame = 0
 154              		@ frame_needed = 0, uses_anonymous_args = 0
 155              		@ link register save eliminated.
 156 0000 7047     		bx	lr
 157              		.cfi_endproc
 158              	.LFE6:
 159              		.size	emFile_1_SPI0_DisableTxInt, .-emFile_1_SPI0_DisableTxInt
 160              		.section	.text.emFile_1_SPI0_DisableRxInt,"ax",%progbits
 161              		.align	1
 162              		.global	emFile_1_SPI0_DisableRxInt
 163              		.thumb
 164              		.thumb_func
 165              		.type	emFile_1_SPI0_DisableRxInt, %function
 166              	emFile_1_SPI0_DisableRxInt:
 167              	.LFB7:
 279:.\Generated_Source\PSoC5/emFile_1_SPI0.c ****     #if(0u != emFile_1_SPI0_INTERNAL_TX_INT_ENABLED)
 280:.\Generated_Source\PSoC5/emFile_1_SPI0.c ****         CyIntDisable(emFile_1_SPI0_TX_ISR_NUMBER);
 281:.\Generated_Source\PSoC5/emFile_1_SPI0.c ****     #endif /* (0u != emFile_1_SPI0_INTERNAL_TX_INT_ENABLED) */
 282:.\Generated_Source\PSoC5/emFile_1_SPI0.c **** }
 283:.\Generated_Source\PSoC5/emFile_1_SPI0.c **** 
 284:.\Generated_Source\PSoC5/emFile_1_SPI0.c **** 
 285:.\Generated_Source\PSoC5/emFile_1_SPI0.c **** /*******************************************************************************
 286:.\Generated_Source\PSoC5/emFile_1_SPI0.c **** * Function Name: emFile_1_SPI0_DisableRxInt
 287:.\Generated_Source\PSoC5/emFile_1_SPI0.c **** ********************************************************************************
ARM GAS  C:\Users\acer\AppData\Local\Temp\ccmFwtok.s 			page 9


 288:.\Generated_Source\PSoC5/emFile_1_SPI0.c **** *
 289:.\Generated_Source\PSoC5/emFile_1_SPI0.c **** * Summary:
 290:.\Generated_Source\PSoC5/emFile_1_SPI0.c **** *  Disable internal Rx interrupt generation.
 291:.\Generated_Source\PSoC5/emFile_1_SPI0.c **** *
 292:.\Generated_Source\PSoC5/emFile_1_SPI0.c **** * Parameters:
 293:.\Generated_Source\PSoC5/emFile_1_SPI0.c **** *  None.
 294:.\Generated_Source\PSoC5/emFile_1_SPI0.c **** *
 295:.\Generated_Source\PSoC5/emFile_1_SPI0.c **** * Return:
 296:.\Generated_Source\PSoC5/emFile_1_SPI0.c **** *  None.
 297:.\Generated_Source\PSoC5/emFile_1_SPI0.c **** *
 298:.\Generated_Source\PSoC5/emFile_1_SPI0.c **** * Theory:
 299:.\Generated_Source\PSoC5/emFile_1_SPI0.c **** *  Disable the internal Rx interrupt output -or- the interrupt component itself.
 300:.\Generated_Source\PSoC5/emFile_1_SPI0.c **** *
 301:.\Generated_Source\PSoC5/emFile_1_SPI0.c **** *******************************************************************************/
 302:.\Generated_Source\PSoC5/emFile_1_SPI0.c **** void emFile_1_SPI0_DisableRxInt(void) 
 303:.\Generated_Source\PSoC5/emFile_1_SPI0.c **** {
 168              		.loc 1 303 0
 169              		.cfi_startproc
 170              		@ args = 0, pretend = 0, frame = 0
 171              		@ frame_needed = 0, uses_anonymous_args = 0
 172              		@ link register save eliminated.
 173 0000 7047     		bx	lr
 174              		.cfi_endproc
 175              	.LFE7:
 176              		.size	emFile_1_SPI0_DisableRxInt, .-emFile_1_SPI0_DisableRxInt
 177              		.section	.text.emFile_1_SPI0_SetTxInterruptMode,"ax",%progbits
 178              		.align	1
 179              		.global	emFile_1_SPI0_SetTxInterruptMode
 180              		.thumb
 181              		.thumb_func
 182              		.type	emFile_1_SPI0_SetTxInterruptMode, %function
 183              	emFile_1_SPI0_SetTxInterruptMode:
 184              	.LFB8:
 304:.\Generated_Source\PSoC5/emFile_1_SPI0.c ****     #if(0u != emFile_1_SPI0_INTERNAL_RX_INT_ENABLED)
 305:.\Generated_Source\PSoC5/emFile_1_SPI0.c ****         CyIntDisable(emFile_1_SPI0_RX_ISR_NUMBER);
 306:.\Generated_Source\PSoC5/emFile_1_SPI0.c ****     #endif /* (0u != emFile_1_SPI0_INTERNAL_RX_INT_ENABLED) */
 307:.\Generated_Source\PSoC5/emFile_1_SPI0.c **** }
 308:.\Generated_Source\PSoC5/emFile_1_SPI0.c **** 
 309:.\Generated_Source\PSoC5/emFile_1_SPI0.c **** 
 310:.\Generated_Source\PSoC5/emFile_1_SPI0.c **** /*******************************************************************************
 311:.\Generated_Source\PSoC5/emFile_1_SPI0.c **** * Function Name: emFile_1_SPI0_SetTxInterruptMode
 312:.\Generated_Source\PSoC5/emFile_1_SPI0.c **** ********************************************************************************
 313:.\Generated_Source\PSoC5/emFile_1_SPI0.c **** *
 314:.\Generated_Source\PSoC5/emFile_1_SPI0.c **** * Summary:
 315:.\Generated_Source\PSoC5/emFile_1_SPI0.c **** *  Configure which status bits trigger an interrupt event.
 316:.\Generated_Source\PSoC5/emFile_1_SPI0.c **** *
 317:.\Generated_Source\PSoC5/emFile_1_SPI0.c **** * Parameters:
 318:.\Generated_Source\PSoC5/emFile_1_SPI0.c **** *  intSrc: An or'd combination of the desired status bit masks (defined in the
 319:.\Generated_Source\PSoC5/emFile_1_SPI0.c **** *  header file).
 320:.\Generated_Source\PSoC5/emFile_1_SPI0.c **** *
 321:.\Generated_Source\PSoC5/emFile_1_SPI0.c **** * Return:
 322:.\Generated_Source\PSoC5/emFile_1_SPI0.c **** *  None.
 323:.\Generated_Source\PSoC5/emFile_1_SPI0.c **** *
 324:.\Generated_Source\PSoC5/emFile_1_SPI0.c **** * Theory:
 325:.\Generated_Source\PSoC5/emFile_1_SPI0.c **** *  Enables the output of specific status bits to the interrupt controller.
 326:.\Generated_Source\PSoC5/emFile_1_SPI0.c **** *
 327:.\Generated_Source\PSoC5/emFile_1_SPI0.c **** *******************************************************************************/
ARM GAS  C:\Users\acer\AppData\Local\Temp\ccmFwtok.s 			page 10


 328:.\Generated_Source\PSoC5/emFile_1_SPI0.c **** void emFile_1_SPI0_SetTxInterruptMode(uint8 intSrc) 
 329:.\Generated_Source\PSoC5/emFile_1_SPI0.c **** {
 185              		.loc 1 329 0
 186              		.cfi_startproc
 187              		@ args = 0, pretend = 0, frame = 0
 188              		@ frame_needed = 0, uses_anonymous_args = 0
 189              		@ link register save eliminated.
 190              	.LVL4:
 330:.\Generated_Source\PSoC5/emFile_1_SPI0.c ****     emFile_1_SPI0_TX_STATUS_MASK_REG = intSrc;
 191              		.loc 1 330 0
 192 0000 014B     		ldr	r3, .L12
 193 0002 1870     		strb	r0, [r3]
 194 0004 7047     		bx	lr
 195              	.L13:
 196 0006 00BF     		.align	2
 197              	.L12:
 198 0008 8B640040 		.word	1073767563
 199              		.cfi_endproc
 200              	.LFE8:
 201              		.size	emFile_1_SPI0_SetTxInterruptMode, .-emFile_1_SPI0_SetTxInterruptMode
 202              		.section	.text.emFile_1_SPI0_SetRxInterruptMode,"ax",%progbits
 203              		.align	1
 204              		.global	emFile_1_SPI0_SetRxInterruptMode
 205              		.thumb
 206              		.thumb_func
 207              		.type	emFile_1_SPI0_SetRxInterruptMode, %function
 208              	emFile_1_SPI0_SetRxInterruptMode:
 209              	.LFB9:
 331:.\Generated_Source\PSoC5/emFile_1_SPI0.c **** }
 332:.\Generated_Source\PSoC5/emFile_1_SPI0.c **** 
 333:.\Generated_Source\PSoC5/emFile_1_SPI0.c **** 
 334:.\Generated_Source\PSoC5/emFile_1_SPI0.c **** /*******************************************************************************
 335:.\Generated_Source\PSoC5/emFile_1_SPI0.c **** * Function Name: emFile_1_SPI0_SetRxInterruptMode
 336:.\Generated_Source\PSoC5/emFile_1_SPI0.c **** ********************************************************************************
 337:.\Generated_Source\PSoC5/emFile_1_SPI0.c **** *
 338:.\Generated_Source\PSoC5/emFile_1_SPI0.c **** * Summary:
 339:.\Generated_Source\PSoC5/emFile_1_SPI0.c **** *  Configure which status bits trigger an interrupt event.
 340:.\Generated_Source\PSoC5/emFile_1_SPI0.c **** *
 341:.\Generated_Source\PSoC5/emFile_1_SPI0.c **** * Parameters:
 342:.\Generated_Source\PSoC5/emFile_1_SPI0.c **** *  intSrc: An or'd combination of the desired status bit masks (defined in the
 343:.\Generated_Source\PSoC5/emFile_1_SPI0.c **** *  header file).
 344:.\Generated_Source\PSoC5/emFile_1_SPI0.c **** *
 345:.\Generated_Source\PSoC5/emFile_1_SPI0.c **** * Return:
 346:.\Generated_Source\PSoC5/emFile_1_SPI0.c **** *  None.
 347:.\Generated_Source\PSoC5/emFile_1_SPI0.c **** *
 348:.\Generated_Source\PSoC5/emFile_1_SPI0.c **** * Theory:
 349:.\Generated_Source\PSoC5/emFile_1_SPI0.c **** *  Enables the output of specific status bits to the interrupt controller.
 350:.\Generated_Source\PSoC5/emFile_1_SPI0.c **** *
 351:.\Generated_Source\PSoC5/emFile_1_SPI0.c **** *******************************************************************************/
 352:.\Generated_Source\PSoC5/emFile_1_SPI0.c **** void emFile_1_SPI0_SetRxInterruptMode(uint8 intSrc) 
 353:.\Generated_Source\PSoC5/emFile_1_SPI0.c **** {
 210              		.loc 1 353 0
 211              		.cfi_startproc
 212              		@ args = 0, pretend = 0, frame = 0
 213              		@ frame_needed = 0, uses_anonymous_args = 0
 214              		@ link register save eliminated.
 215              	.LVL5:
ARM GAS  C:\Users\acer\AppData\Local\Temp\ccmFwtok.s 			page 11


 354:.\Generated_Source\PSoC5/emFile_1_SPI0.c ****     emFile_1_SPI0_RX_STATUS_MASK_REG  = intSrc;
 216              		.loc 1 354 0
 217 0000 014B     		ldr	r3, .L15
 218 0002 1870     		strb	r0, [r3]
 219 0004 7047     		bx	lr
 220              	.L16:
 221 0006 00BF     		.align	2
 222              	.L15:
 223 0008 89640040 		.word	1073767561
 224              		.cfi_endproc
 225              	.LFE9:
 226              		.size	emFile_1_SPI0_SetRxInterruptMode, .-emFile_1_SPI0_SetRxInterruptMode
 227              		.section	.text.emFile_1_SPI0_ReadTxStatus,"ax",%progbits
 228              		.align	1
 229              		.global	emFile_1_SPI0_ReadTxStatus
 230              		.thumb
 231              		.thumb_func
 232              		.type	emFile_1_SPI0_ReadTxStatus, %function
 233              	emFile_1_SPI0_ReadTxStatus:
 234              	.LFB10:
 355:.\Generated_Source\PSoC5/emFile_1_SPI0.c **** }
 356:.\Generated_Source\PSoC5/emFile_1_SPI0.c **** 
 357:.\Generated_Source\PSoC5/emFile_1_SPI0.c **** 
 358:.\Generated_Source\PSoC5/emFile_1_SPI0.c **** /*******************************************************************************
 359:.\Generated_Source\PSoC5/emFile_1_SPI0.c **** * Function Name: emFile_1_SPI0_ReadTxStatus
 360:.\Generated_Source\PSoC5/emFile_1_SPI0.c **** ********************************************************************************
 361:.\Generated_Source\PSoC5/emFile_1_SPI0.c **** *
 362:.\Generated_Source\PSoC5/emFile_1_SPI0.c **** * Summary:
 363:.\Generated_Source\PSoC5/emFile_1_SPI0.c **** *  Read the Tx status register for the component.
 364:.\Generated_Source\PSoC5/emFile_1_SPI0.c **** *
 365:.\Generated_Source\PSoC5/emFile_1_SPI0.c **** * Parameters:
 366:.\Generated_Source\PSoC5/emFile_1_SPI0.c **** *  None.
 367:.\Generated_Source\PSoC5/emFile_1_SPI0.c **** *
 368:.\Generated_Source\PSoC5/emFile_1_SPI0.c **** * Return:
 369:.\Generated_Source\PSoC5/emFile_1_SPI0.c **** *  Contents of the Tx status register.
 370:.\Generated_Source\PSoC5/emFile_1_SPI0.c **** *
 371:.\Generated_Source\PSoC5/emFile_1_SPI0.c **** * Global variables:
 372:.\Generated_Source\PSoC5/emFile_1_SPI0.c **** *  emFile_1_SPI0_swStatusTx - used to store in software status register,
 373:.\Generated_Source\PSoC5/emFile_1_SPI0.c **** *  modified every function call - resets to zero.
 374:.\Generated_Source\PSoC5/emFile_1_SPI0.c **** *
 375:.\Generated_Source\PSoC5/emFile_1_SPI0.c **** * Theory:
 376:.\Generated_Source\PSoC5/emFile_1_SPI0.c **** *  Allows the user and the API to read the Tx status register for error
 377:.\Generated_Source\PSoC5/emFile_1_SPI0.c **** *  detection and flow control.
 378:.\Generated_Source\PSoC5/emFile_1_SPI0.c **** *
 379:.\Generated_Source\PSoC5/emFile_1_SPI0.c **** * Side Effects:
 380:.\Generated_Source\PSoC5/emFile_1_SPI0.c **** *  Clear Tx status register of the component.
 381:.\Generated_Source\PSoC5/emFile_1_SPI0.c **** *
 382:.\Generated_Source\PSoC5/emFile_1_SPI0.c **** * Reentrant:
 383:.\Generated_Source\PSoC5/emFile_1_SPI0.c **** *  No.
 384:.\Generated_Source\PSoC5/emFile_1_SPI0.c **** *
 385:.\Generated_Source\PSoC5/emFile_1_SPI0.c **** *******************************************************************************/
 386:.\Generated_Source\PSoC5/emFile_1_SPI0.c **** uint8 emFile_1_SPI0_ReadTxStatus(void) 
 387:.\Generated_Source\PSoC5/emFile_1_SPI0.c **** {
 235              		.loc 1 387 0
 236              		.cfi_startproc
 237              		@ args = 0, pretend = 0, frame = 0
 238              		@ frame_needed = 0, uses_anonymous_args = 0
ARM GAS  C:\Users\acer\AppData\Local\Temp\ccmFwtok.s 			page 12


 239              		@ link register save eliminated.
 388:.\Generated_Source\PSoC5/emFile_1_SPI0.c ****     uint8 tmpStatus;
 389:.\Generated_Source\PSoC5/emFile_1_SPI0.c **** 
 390:.\Generated_Source\PSoC5/emFile_1_SPI0.c ****     #if(emFile_1_SPI0_TX_SOFTWARE_BUF_ENABLED)
 391:.\Generated_Source\PSoC5/emFile_1_SPI0.c ****         /* Disable TX interrupt to protect global veriables */
 392:.\Generated_Source\PSoC5/emFile_1_SPI0.c ****         emFile_1_SPI0_DisableTxInt();
 393:.\Generated_Source\PSoC5/emFile_1_SPI0.c **** 
 394:.\Generated_Source\PSoC5/emFile_1_SPI0.c ****         tmpStatus = emFile_1_SPI0_GET_STATUS_TX(emFile_1_SPI0_swStatusTx);
 395:.\Generated_Source\PSoC5/emFile_1_SPI0.c ****         emFile_1_SPI0_swStatusTx = 0u;
 396:.\Generated_Source\PSoC5/emFile_1_SPI0.c **** 
 397:.\Generated_Source\PSoC5/emFile_1_SPI0.c ****         emFile_1_SPI0_EnableTxInt();
 398:.\Generated_Source\PSoC5/emFile_1_SPI0.c **** 
 399:.\Generated_Source\PSoC5/emFile_1_SPI0.c ****     #else
 400:.\Generated_Source\PSoC5/emFile_1_SPI0.c **** 
 401:.\Generated_Source\PSoC5/emFile_1_SPI0.c ****         tmpStatus = emFile_1_SPI0_TX_STATUS_REG;
 240              		.loc 1 401 0
 241 0000 014B     		ldr	r3, .L18
 242 0002 1878     		ldrb	r0, [r3]	@ zero_extendqisi2
 243              	.LVL6:
 402:.\Generated_Source\PSoC5/emFile_1_SPI0.c **** 
 403:.\Generated_Source\PSoC5/emFile_1_SPI0.c ****     #endif /* (emFile_1_SPI0_TX_SOFTWARE_BUF_ENABLED) */
 404:.\Generated_Source\PSoC5/emFile_1_SPI0.c **** 
 405:.\Generated_Source\PSoC5/emFile_1_SPI0.c ****     return(tmpStatus);
 406:.\Generated_Source\PSoC5/emFile_1_SPI0.c **** }
 244              		.loc 1 406 0
 245 0004 7047     		bx	lr
 246              	.L19:
 247 0006 00BF     		.align	2
 248              	.L18:
 249 0008 6B640040 		.word	1073767531
 250              		.cfi_endproc
 251              	.LFE10:
 252              		.size	emFile_1_SPI0_ReadTxStatus, .-emFile_1_SPI0_ReadTxStatus
 253              		.section	.text.emFile_1_SPI0_ReadRxStatus,"ax",%progbits
 254              		.align	1
 255              		.global	emFile_1_SPI0_ReadRxStatus
 256              		.thumb
 257              		.thumb_func
 258              		.type	emFile_1_SPI0_ReadRxStatus, %function
 259              	emFile_1_SPI0_ReadRxStatus:
 260              	.LFB11:
 407:.\Generated_Source\PSoC5/emFile_1_SPI0.c **** 
 408:.\Generated_Source\PSoC5/emFile_1_SPI0.c **** 
 409:.\Generated_Source\PSoC5/emFile_1_SPI0.c **** /*******************************************************************************
 410:.\Generated_Source\PSoC5/emFile_1_SPI0.c **** * Function Name: emFile_1_SPI0_ReadRxStatus
 411:.\Generated_Source\PSoC5/emFile_1_SPI0.c **** ********************************************************************************
 412:.\Generated_Source\PSoC5/emFile_1_SPI0.c **** *
 413:.\Generated_Source\PSoC5/emFile_1_SPI0.c **** * Summary:
 414:.\Generated_Source\PSoC5/emFile_1_SPI0.c **** *  Read the Rx status register for the component.
 415:.\Generated_Source\PSoC5/emFile_1_SPI0.c **** *
 416:.\Generated_Source\PSoC5/emFile_1_SPI0.c **** * Parameters:
 417:.\Generated_Source\PSoC5/emFile_1_SPI0.c **** *  None.
 418:.\Generated_Source\PSoC5/emFile_1_SPI0.c **** *
 419:.\Generated_Source\PSoC5/emFile_1_SPI0.c **** * Return:
 420:.\Generated_Source\PSoC5/emFile_1_SPI0.c **** *  Contents of the Rx status register.
 421:.\Generated_Source\PSoC5/emFile_1_SPI0.c **** *
 422:.\Generated_Source\PSoC5/emFile_1_SPI0.c **** * Global variables:
ARM GAS  C:\Users\acer\AppData\Local\Temp\ccmFwtok.s 			page 13


 423:.\Generated_Source\PSoC5/emFile_1_SPI0.c **** *  emFile_1_SPI0_swStatusRx - used to store in software Rx status register,
 424:.\Generated_Source\PSoC5/emFile_1_SPI0.c **** *  modified every function call - resets to zero.
 425:.\Generated_Source\PSoC5/emFile_1_SPI0.c **** *
 426:.\Generated_Source\PSoC5/emFile_1_SPI0.c **** * Theory:
 427:.\Generated_Source\PSoC5/emFile_1_SPI0.c **** *  Allows the user and the API to read the Rx status register for error
 428:.\Generated_Source\PSoC5/emFile_1_SPI0.c **** *  detection and flow control.
 429:.\Generated_Source\PSoC5/emFile_1_SPI0.c **** *
 430:.\Generated_Source\PSoC5/emFile_1_SPI0.c **** * Side Effects:
 431:.\Generated_Source\PSoC5/emFile_1_SPI0.c **** *  Clear Rx status register of the component.
 432:.\Generated_Source\PSoC5/emFile_1_SPI0.c **** *
 433:.\Generated_Source\PSoC5/emFile_1_SPI0.c **** * Reentrant:
 434:.\Generated_Source\PSoC5/emFile_1_SPI0.c **** *  No.
 435:.\Generated_Source\PSoC5/emFile_1_SPI0.c **** *
 436:.\Generated_Source\PSoC5/emFile_1_SPI0.c **** *******************************************************************************/
 437:.\Generated_Source\PSoC5/emFile_1_SPI0.c **** uint8 emFile_1_SPI0_ReadRxStatus(void) 
 438:.\Generated_Source\PSoC5/emFile_1_SPI0.c **** {
 261              		.loc 1 438 0
 262              		.cfi_startproc
 263              		@ args = 0, pretend = 0, frame = 0
 264              		@ frame_needed = 0, uses_anonymous_args = 0
 265              		@ link register save eliminated.
 439:.\Generated_Source\PSoC5/emFile_1_SPI0.c ****     uint8 tmpStatus;
 440:.\Generated_Source\PSoC5/emFile_1_SPI0.c **** 
 441:.\Generated_Source\PSoC5/emFile_1_SPI0.c ****     #if(emFile_1_SPI0_RX_SOFTWARE_BUF_ENABLED)
 442:.\Generated_Source\PSoC5/emFile_1_SPI0.c ****         /* Disable RX interrupt to protect global veriables */
 443:.\Generated_Source\PSoC5/emFile_1_SPI0.c ****         emFile_1_SPI0_DisableRxInt();
 444:.\Generated_Source\PSoC5/emFile_1_SPI0.c **** 
 445:.\Generated_Source\PSoC5/emFile_1_SPI0.c ****         tmpStatus = emFile_1_SPI0_GET_STATUS_RX(emFile_1_SPI0_swStatusRx);
 446:.\Generated_Source\PSoC5/emFile_1_SPI0.c ****         emFile_1_SPI0_swStatusRx = 0u;
 447:.\Generated_Source\PSoC5/emFile_1_SPI0.c **** 
 448:.\Generated_Source\PSoC5/emFile_1_SPI0.c ****         emFile_1_SPI0_EnableRxInt();
 449:.\Generated_Source\PSoC5/emFile_1_SPI0.c **** 
 450:.\Generated_Source\PSoC5/emFile_1_SPI0.c ****     #else
 451:.\Generated_Source\PSoC5/emFile_1_SPI0.c **** 
 452:.\Generated_Source\PSoC5/emFile_1_SPI0.c ****         tmpStatus = emFile_1_SPI0_RX_STATUS_REG;
 266              		.loc 1 452 0
 267 0000 014B     		ldr	r3, .L21
 268 0002 1878     		ldrb	r0, [r3]	@ zero_extendqisi2
 269              	.LVL7:
 453:.\Generated_Source\PSoC5/emFile_1_SPI0.c **** 
 454:.\Generated_Source\PSoC5/emFile_1_SPI0.c ****     #endif /* (emFile_1_SPI0_RX_SOFTWARE_BUF_ENABLED) */
 455:.\Generated_Source\PSoC5/emFile_1_SPI0.c **** 
 456:.\Generated_Source\PSoC5/emFile_1_SPI0.c ****     return(tmpStatus);
 457:.\Generated_Source\PSoC5/emFile_1_SPI0.c **** }
 270              		.loc 1 457 0
 271 0004 7047     		bx	lr
 272              	.L22:
 273 0006 00BF     		.align	2
 274              	.L21:
 275 0008 69640040 		.word	1073767529
 276              		.cfi_endproc
 277              	.LFE11:
 278              		.size	emFile_1_SPI0_ReadRxStatus, .-emFile_1_SPI0_ReadRxStatus
 279              		.section	.text.emFile_1_SPI0_WriteTxData,"ax",%progbits
 280              		.align	1
 281              		.global	emFile_1_SPI0_WriteTxData
 282              		.thumb
ARM GAS  C:\Users\acer\AppData\Local\Temp\ccmFwtok.s 			page 14


 283              		.thumb_func
 284              		.type	emFile_1_SPI0_WriteTxData, %function
 285              	emFile_1_SPI0_WriteTxData:
 286              	.LFB12:
 458:.\Generated_Source\PSoC5/emFile_1_SPI0.c **** 
 459:.\Generated_Source\PSoC5/emFile_1_SPI0.c **** 
 460:.\Generated_Source\PSoC5/emFile_1_SPI0.c **** /*******************************************************************************
 461:.\Generated_Source\PSoC5/emFile_1_SPI0.c **** * Function Name: emFile_1_SPI0_WriteTxData
 462:.\Generated_Source\PSoC5/emFile_1_SPI0.c **** ********************************************************************************
 463:.\Generated_Source\PSoC5/emFile_1_SPI0.c **** *
 464:.\Generated_Source\PSoC5/emFile_1_SPI0.c **** * Summary:
 465:.\Generated_Source\PSoC5/emFile_1_SPI0.c **** *  Write a byte of data to be sent across the SPI.
 466:.\Generated_Source\PSoC5/emFile_1_SPI0.c **** *
 467:.\Generated_Source\PSoC5/emFile_1_SPI0.c **** * Parameters:
 468:.\Generated_Source\PSoC5/emFile_1_SPI0.c **** *  txDataByte: The data value to send across the SPI.
 469:.\Generated_Source\PSoC5/emFile_1_SPI0.c **** *
 470:.\Generated_Source\PSoC5/emFile_1_SPI0.c **** * Return:
 471:.\Generated_Source\PSoC5/emFile_1_SPI0.c **** *  None.
 472:.\Generated_Source\PSoC5/emFile_1_SPI0.c **** *
 473:.\Generated_Source\PSoC5/emFile_1_SPI0.c **** * Global variables:
 474:.\Generated_Source\PSoC5/emFile_1_SPI0.c **** *  emFile_1_SPI0_txBufferWrite - used for the account of the bytes which
 475:.\Generated_Source\PSoC5/emFile_1_SPI0.c **** *  have been written down in the TX software buffer, modified every function
 476:.\Generated_Source\PSoC5/emFile_1_SPI0.c **** *  call if TX Software Buffer is used.
 477:.\Generated_Source\PSoC5/emFile_1_SPI0.c **** *  emFile_1_SPI0_txBufferRead - used for the account of the bytes which
 478:.\Generated_Source\PSoC5/emFile_1_SPI0.c **** *  have been read from the TX software buffer.
 479:.\Generated_Source\PSoC5/emFile_1_SPI0.c **** *  emFile_1_SPI0_txBuffer[emFile_1_SPI0_TX_BUFFER_SIZE] - used to store
 480:.\Generated_Source\PSoC5/emFile_1_SPI0.c **** *  data to sending, modified every function call if TX Software Buffer is used.
 481:.\Generated_Source\PSoC5/emFile_1_SPI0.c **** *
 482:.\Generated_Source\PSoC5/emFile_1_SPI0.c **** * Theory:
 483:.\Generated_Source\PSoC5/emFile_1_SPI0.c **** *  Allows the user to transmit any byte of data in a single transfer.
 484:.\Generated_Source\PSoC5/emFile_1_SPI0.c **** *
 485:.\Generated_Source\PSoC5/emFile_1_SPI0.c **** * Side Effects:
 486:.\Generated_Source\PSoC5/emFile_1_SPI0.c **** *  If this function is called again before the previous byte is finished then
 487:.\Generated_Source\PSoC5/emFile_1_SPI0.c **** *  the next byte will be appended to the transfer with no time between
 488:.\Generated_Source\PSoC5/emFile_1_SPI0.c **** *  the byte transfers. Clear Tx status register of the component.
 489:.\Generated_Source\PSoC5/emFile_1_SPI0.c **** *
 490:.\Generated_Source\PSoC5/emFile_1_SPI0.c **** * Reentrant:
 491:.\Generated_Source\PSoC5/emFile_1_SPI0.c **** *  No.
 492:.\Generated_Source\PSoC5/emFile_1_SPI0.c **** *
 493:.\Generated_Source\PSoC5/emFile_1_SPI0.c **** *******************************************************************************/
 494:.\Generated_Source\PSoC5/emFile_1_SPI0.c **** void emFile_1_SPI0_WriteTxData(uint8 txData) 
 495:.\Generated_Source\PSoC5/emFile_1_SPI0.c **** {
 287              		.loc 1 495 0
 288              		.cfi_startproc
 289              		@ args = 0, pretend = 0, frame = 0
 290              		@ frame_needed = 0, uses_anonymous_args = 0
 291              		@ link register save eliminated.
 292              	.LVL8:
 293              	.L24:
 496:.\Generated_Source\PSoC5/emFile_1_SPI0.c ****     #if(emFile_1_SPI0_TX_SOFTWARE_BUF_ENABLED)
 497:.\Generated_Source\PSoC5/emFile_1_SPI0.c **** 
 498:.\Generated_Source\PSoC5/emFile_1_SPI0.c ****         uint8 tempStatus;
 499:.\Generated_Source\PSoC5/emFile_1_SPI0.c ****         uint8 tmpTxBufferRead;
 500:.\Generated_Source\PSoC5/emFile_1_SPI0.c **** 
 501:.\Generated_Source\PSoC5/emFile_1_SPI0.c ****         /* Block if TX buffer is FULL: don't overwrite */
 502:.\Generated_Source\PSoC5/emFile_1_SPI0.c ****         do
 503:.\Generated_Source\PSoC5/emFile_1_SPI0.c ****         {
ARM GAS  C:\Users\acer\AppData\Local\Temp\ccmFwtok.s 			page 15


 504:.\Generated_Source\PSoC5/emFile_1_SPI0.c ****             tmpTxBufferRead = emFile_1_SPI0_txBufferRead;
 505:.\Generated_Source\PSoC5/emFile_1_SPI0.c ****             if(0u == tmpTxBufferRead)
 506:.\Generated_Source\PSoC5/emFile_1_SPI0.c ****             {
 507:.\Generated_Source\PSoC5/emFile_1_SPI0.c ****                 tmpTxBufferRead = (emFile_1_SPI0_TX_BUFFER_SIZE - 1u);
 508:.\Generated_Source\PSoC5/emFile_1_SPI0.c ****             }
 509:.\Generated_Source\PSoC5/emFile_1_SPI0.c ****             else
 510:.\Generated_Source\PSoC5/emFile_1_SPI0.c ****             {
 511:.\Generated_Source\PSoC5/emFile_1_SPI0.c ****                 tmpTxBufferRead--;
 512:.\Generated_Source\PSoC5/emFile_1_SPI0.c ****             }
 513:.\Generated_Source\PSoC5/emFile_1_SPI0.c **** 
 514:.\Generated_Source\PSoC5/emFile_1_SPI0.c ****         }while(tmpTxBufferRead == emFile_1_SPI0_txBufferWrite);
 515:.\Generated_Source\PSoC5/emFile_1_SPI0.c **** 
 516:.\Generated_Source\PSoC5/emFile_1_SPI0.c ****         /* Disable TX interrupt to protect global veriables */
 517:.\Generated_Source\PSoC5/emFile_1_SPI0.c ****         emFile_1_SPI0_DisableTxInt();
 518:.\Generated_Source\PSoC5/emFile_1_SPI0.c **** 
 519:.\Generated_Source\PSoC5/emFile_1_SPI0.c ****         tempStatus = emFile_1_SPI0_GET_STATUS_TX(emFile_1_SPI0_swStatusTx);
 520:.\Generated_Source\PSoC5/emFile_1_SPI0.c ****         emFile_1_SPI0_swStatusTx = tempStatus;
 521:.\Generated_Source\PSoC5/emFile_1_SPI0.c **** 
 522:.\Generated_Source\PSoC5/emFile_1_SPI0.c **** 
 523:.\Generated_Source\PSoC5/emFile_1_SPI0.c ****         if((emFile_1_SPI0_txBufferRead == emFile_1_SPI0_txBufferWrite) &&
 524:.\Generated_Source\PSoC5/emFile_1_SPI0.c ****            (0u != (emFile_1_SPI0_swStatusTx & emFile_1_SPI0_STS_TX_FIFO_NOT_FULL)))
 525:.\Generated_Source\PSoC5/emFile_1_SPI0.c ****         {
 526:.\Generated_Source\PSoC5/emFile_1_SPI0.c ****             /* Add directly to the TX FIFO */
 527:.\Generated_Source\PSoC5/emFile_1_SPI0.c ****             CY_SET_REG8(emFile_1_SPI0_TXDATA_PTR, txData);
 528:.\Generated_Source\PSoC5/emFile_1_SPI0.c ****         }
 529:.\Generated_Source\PSoC5/emFile_1_SPI0.c ****         else
 530:.\Generated_Source\PSoC5/emFile_1_SPI0.c ****         {
 531:.\Generated_Source\PSoC5/emFile_1_SPI0.c ****             /* Add to the TX software buffer */
 532:.\Generated_Source\PSoC5/emFile_1_SPI0.c ****             emFile_1_SPI0_txBufferWrite++;
 533:.\Generated_Source\PSoC5/emFile_1_SPI0.c ****             if(emFile_1_SPI0_txBufferWrite >= emFile_1_SPI0_TX_BUFFER_SIZE)
 534:.\Generated_Source\PSoC5/emFile_1_SPI0.c ****             {
 535:.\Generated_Source\PSoC5/emFile_1_SPI0.c ****                 emFile_1_SPI0_txBufferWrite = 0u;
 536:.\Generated_Source\PSoC5/emFile_1_SPI0.c ****             }
 537:.\Generated_Source\PSoC5/emFile_1_SPI0.c **** 
 538:.\Generated_Source\PSoC5/emFile_1_SPI0.c ****             if(emFile_1_SPI0_txBufferWrite == emFile_1_SPI0_txBufferRead)
 539:.\Generated_Source\PSoC5/emFile_1_SPI0.c ****             {
 540:.\Generated_Source\PSoC5/emFile_1_SPI0.c ****                 emFile_1_SPI0_txBufferRead++;
 541:.\Generated_Source\PSoC5/emFile_1_SPI0.c ****                 if(emFile_1_SPI0_txBufferRead >= emFile_1_SPI0_TX_BUFFER_SIZE)
 542:.\Generated_Source\PSoC5/emFile_1_SPI0.c ****                 {
 543:.\Generated_Source\PSoC5/emFile_1_SPI0.c ****                     emFile_1_SPI0_txBufferRead = 0u;
 544:.\Generated_Source\PSoC5/emFile_1_SPI0.c ****                 }
 545:.\Generated_Source\PSoC5/emFile_1_SPI0.c ****                 emFile_1_SPI0_txBufferFull = 1u;
 546:.\Generated_Source\PSoC5/emFile_1_SPI0.c ****             }
 547:.\Generated_Source\PSoC5/emFile_1_SPI0.c **** 
 548:.\Generated_Source\PSoC5/emFile_1_SPI0.c ****             emFile_1_SPI0_txBuffer[emFile_1_SPI0_txBufferWrite] = txData;
 549:.\Generated_Source\PSoC5/emFile_1_SPI0.c **** 
 550:.\Generated_Source\PSoC5/emFile_1_SPI0.c ****             emFile_1_SPI0_TX_STATUS_MASK_REG |= emFile_1_SPI0_STS_TX_FIFO_NOT_FULL;
 551:.\Generated_Source\PSoC5/emFile_1_SPI0.c ****         }
 552:.\Generated_Source\PSoC5/emFile_1_SPI0.c **** 
 553:.\Generated_Source\PSoC5/emFile_1_SPI0.c ****         emFile_1_SPI0_EnableTxInt();
 554:.\Generated_Source\PSoC5/emFile_1_SPI0.c **** 
 555:.\Generated_Source\PSoC5/emFile_1_SPI0.c ****     #else
 556:.\Generated_Source\PSoC5/emFile_1_SPI0.c **** 
 557:.\Generated_Source\PSoC5/emFile_1_SPI0.c ****         while(0u == (emFile_1_SPI0_TX_STATUS_REG & emFile_1_SPI0_STS_TX_FIFO_NOT_FULL))
 294              		.loc 1 557 0 discriminator 1
 295 0000 034B     		ldr	r3, .L28
 296 0002 1B78     		ldrb	r3, [r3]	@ zero_extendqisi2
ARM GAS  C:\Users\acer\AppData\Local\Temp\ccmFwtok.s 			page 16


 297 0004 5B07     		lsls	r3, r3, #29
 298 0006 FBD5     		bpl	.L24
 558:.\Generated_Source\PSoC5/emFile_1_SPI0.c ****         {
 559:.\Generated_Source\PSoC5/emFile_1_SPI0.c ****             ; /* Wait for room in FIFO */
 560:.\Generated_Source\PSoC5/emFile_1_SPI0.c ****         }
 561:.\Generated_Source\PSoC5/emFile_1_SPI0.c **** 
 562:.\Generated_Source\PSoC5/emFile_1_SPI0.c ****         /* Put byte in TX FIFO */
 563:.\Generated_Source\PSoC5/emFile_1_SPI0.c ****         CY_SET_REG8(emFile_1_SPI0_TXDATA_PTR, txData);
 299              		.loc 1 563 0
 300 0008 024B     		ldr	r3, .L28+4
 301 000a 1870     		strb	r0, [r3]
 302 000c 7047     		bx	lr
 303              	.L29:
 304 000e 00BF     		.align	2
 305              	.L28:
 306 0010 6B640040 		.word	1073767531
 307 0014 48640040 		.word	1073767496
 308              		.cfi_endproc
 309              	.LFE12:
 310              		.size	emFile_1_SPI0_WriteTxData, .-emFile_1_SPI0_WriteTxData
 311              		.section	.text.emFile_1_SPI0_ReadRxData,"ax",%progbits
 312              		.align	1
 313              		.global	emFile_1_SPI0_ReadRxData
 314              		.thumb
 315              		.thumb_func
 316              		.type	emFile_1_SPI0_ReadRxData, %function
 317              	emFile_1_SPI0_ReadRxData:
 318              	.LFB13:
 564:.\Generated_Source\PSoC5/emFile_1_SPI0.c **** 
 565:.\Generated_Source\PSoC5/emFile_1_SPI0.c ****     #endif /* (emFile_1_SPI0_TX_SOFTWARE_BUF_ENABLED) */
 566:.\Generated_Source\PSoC5/emFile_1_SPI0.c **** }
 567:.\Generated_Source\PSoC5/emFile_1_SPI0.c **** 
 568:.\Generated_Source\PSoC5/emFile_1_SPI0.c **** 
 569:.\Generated_Source\PSoC5/emFile_1_SPI0.c **** /*******************************************************************************
 570:.\Generated_Source\PSoC5/emFile_1_SPI0.c **** * Function Name: emFile_1_SPI0_ReadRxData
 571:.\Generated_Source\PSoC5/emFile_1_SPI0.c **** ********************************************************************************
 572:.\Generated_Source\PSoC5/emFile_1_SPI0.c **** *
 573:.\Generated_Source\PSoC5/emFile_1_SPI0.c **** * Summary:
 574:.\Generated_Source\PSoC5/emFile_1_SPI0.c **** *  Read the next byte of data received across the SPI.
 575:.\Generated_Source\PSoC5/emFile_1_SPI0.c **** *
 576:.\Generated_Source\PSoC5/emFile_1_SPI0.c **** * Parameters:
 577:.\Generated_Source\PSoC5/emFile_1_SPI0.c **** *  None.
 578:.\Generated_Source\PSoC5/emFile_1_SPI0.c **** *
 579:.\Generated_Source\PSoC5/emFile_1_SPI0.c **** * Return:
 580:.\Generated_Source\PSoC5/emFile_1_SPI0.c **** *  The next byte of data read from the FIFO.
 581:.\Generated_Source\PSoC5/emFile_1_SPI0.c **** *
 582:.\Generated_Source\PSoC5/emFile_1_SPI0.c **** * Global variables:
 583:.\Generated_Source\PSoC5/emFile_1_SPI0.c **** *  emFile_1_SPI0_rxBufferWrite - used for the account of the bytes which
 584:.\Generated_Source\PSoC5/emFile_1_SPI0.c **** *  have been written down in the RX software buffer.
 585:.\Generated_Source\PSoC5/emFile_1_SPI0.c **** *  emFile_1_SPI0_rxBufferRead - used for the account of the bytes which
 586:.\Generated_Source\PSoC5/emFile_1_SPI0.c **** *  have been read from the RX software buffer, modified every function
 587:.\Generated_Source\PSoC5/emFile_1_SPI0.c **** *  call if RX Software Buffer is used.
 588:.\Generated_Source\PSoC5/emFile_1_SPI0.c **** *  emFile_1_SPI0_rxBuffer[emFile_1_SPI0_RX_BUFFER_SIZE] - used to store
 589:.\Generated_Source\PSoC5/emFile_1_SPI0.c **** *  received data.
 590:.\Generated_Source\PSoC5/emFile_1_SPI0.c **** *
 591:.\Generated_Source\PSoC5/emFile_1_SPI0.c **** * Theory:
 592:.\Generated_Source\PSoC5/emFile_1_SPI0.c **** *  Allows the user to read a byte of data received.
ARM GAS  C:\Users\acer\AppData\Local\Temp\ccmFwtok.s 			page 17


 593:.\Generated_Source\PSoC5/emFile_1_SPI0.c **** *
 594:.\Generated_Source\PSoC5/emFile_1_SPI0.c **** * Side Effects:
 595:.\Generated_Source\PSoC5/emFile_1_SPI0.c **** *  Will return invalid data if the FIFO is empty. The user should Call
 596:.\Generated_Source\PSoC5/emFile_1_SPI0.c **** *  GetRxBufferSize() and if it returns a non-zero value then it is safe to call
 597:.\Generated_Source\PSoC5/emFile_1_SPI0.c **** *  ReadByte() function.
 598:.\Generated_Source\PSoC5/emFile_1_SPI0.c **** *
 599:.\Generated_Source\PSoC5/emFile_1_SPI0.c **** * Reentrant:
 600:.\Generated_Source\PSoC5/emFile_1_SPI0.c **** *  No.
 601:.\Generated_Source\PSoC5/emFile_1_SPI0.c **** *
 602:.\Generated_Source\PSoC5/emFile_1_SPI0.c **** *******************************************************************************/
 603:.\Generated_Source\PSoC5/emFile_1_SPI0.c **** uint8 emFile_1_SPI0_ReadRxData(void) 
 604:.\Generated_Source\PSoC5/emFile_1_SPI0.c **** {
 319              		.loc 1 604 0
 320              		.cfi_startproc
 321              		@ args = 0, pretend = 0, frame = 0
 322              		@ frame_needed = 0, uses_anonymous_args = 0
 323              		@ link register save eliminated.
 605:.\Generated_Source\PSoC5/emFile_1_SPI0.c ****     uint8 rxData;
 606:.\Generated_Source\PSoC5/emFile_1_SPI0.c **** 
 607:.\Generated_Source\PSoC5/emFile_1_SPI0.c ****     #if(emFile_1_SPI0_RX_SOFTWARE_BUF_ENABLED)
 608:.\Generated_Source\PSoC5/emFile_1_SPI0.c **** 
 609:.\Generated_Source\PSoC5/emFile_1_SPI0.c ****         /* Disable RX interrupt to protect global veriables */
 610:.\Generated_Source\PSoC5/emFile_1_SPI0.c ****         emFile_1_SPI0_DisableRxInt();
 611:.\Generated_Source\PSoC5/emFile_1_SPI0.c **** 
 612:.\Generated_Source\PSoC5/emFile_1_SPI0.c ****         if(emFile_1_SPI0_rxBufferRead != emFile_1_SPI0_rxBufferWrite)
 613:.\Generated_Source\PSoC5/emFile_1_SPI0.c ****         {
 614:.\Generated_Source\PSoC5/emFile_1_SPI0.c ****             if(0u == emFile_1_SPI0_rxBufferFull)
 615:.\Generated_Source\PSoC5/emFile_1_SPI0.c ****             {
 616:.\Generated_Source\PSoC5/emFile_1_SPI0.c ****                 emFile_1_SPI0_rxBufferRead++;
 617:.\Generated_Source\PSoC5/emFile_1_SPI0.c ****                 if(emFile_1_SPI0_rxBufferRead >= emFile_1_SPI0_RX_BUFFER_SIZE)
 618:.\Generated_Source\PSoC5/emFile_1_SPI0.c ****                 {
 619:.\Generated_Source\PSoC5/emFile_1_SPI0.c ****                     emFile_1_SPI0_rxBufferRead = 0u;
 620:.\Generated_Source\PSoC5/emFile_1_SPI0.c ****                 }
 621:.\Generated_Source\PSoC5/emFile_1_SPI0.c ****             }
 622:.\Generated_Source\PSoC5/emFile_1_SPI0.c ****             else
 623:.\Generated_Source\PSoC5/emFile_1_SPI0.c ****             {
 624:.\Generated_Source\PSoC5/emFile_1_SPI0.c ****                 emFile_1_SPI0_rxBufferFull = 0u;
 625:.\Generated_Source\PSoC5/emFile_1_SPI0.c ****             }
 626:.\Generated_Source\PSoC5/emFile_1_SPI0.c ****         }
 627:.\Generated_Source\PSoC5/emFile_1_SPI0.c **** 
 628:.\Generated_Source\PSoC5/emFile_1_SPI0.c ****         rxData = emFile_1_SPI0_rxBuffer[emFile_1_SPI0_rxBufferRead];
 629:.\Generated_Source\PSoC5/emFile_1_SPI0.c **** 
 630:.\Generated_Source\PSoC5/emFile_1_SPI0.c ****         emFile_1_SPI0_EnableRxInt();
 631:.\Generated_Source\PSoC5/emFile_1_SPI0.c **** 
 632:.\Generated_Source\PSoC5/emFile_1_SPI0.c ****     #else
 633:.\Generated_Source\PSoC5/emFile_1_SPI0.c **** 
 634:.\Generated_Source\PSoC5/emFile_1_SPI0.c ****         rxData = CY_GET_REG8(emFile_1_SPI0_RXDATA_PTR);
 324              		.loc 1 634 0
 325 0000 014B     		ldr	r3, .L31
 326 0002 1878     		ldrb	r0, [r3]	@ zero_extendqisi2
 327              	.LVL9:
 635:.\Generated_Source\PSoC5/emFile_1_SPI0.c **** 
 636:.\Generated_Source\PSoC5/emFile_1_SPI0.c ****     #endif /* (emFile_1_SPI0_RX_SOFTWARE_BUF_ENABLED) */
 637:.\Generated_Source\PSoC5/emFile_1_SPI0.c **** 
 638:.\Generated_Source\PSoC5/emFile_1_SPI0.c ****     return(rxData);
 639:.\Generated_Source\PSoC5/emFile_1_SPI0.c **** }
 328              		.loc 1 639 0
ARM GAS  C:\Users\acer\AppData\Local\Temp\ccmFwtok.s 			page 18


 329 0004 7047     		bx	lr
 330              	.L32:
 331 0006 00BF     		.align	2
 332              	.L31:
 333 0008 58640040 		.word	1073767512
 334              		.cfi_endproc
 335              	.LFE13:
 336              		.size	emFile_1_SPI0_ReadRxData, .-emFile_1_SPI0_ReadRxData
 337              		.section	.text.emFile_1_SPI0_GetRxBufferSize,"ax",%progbits
 338              		.align	1
 339              		.global	emFile_1_SPI0_GetRxBufferSize
 340              		.thumb
 341              		.thumb_func
 342              		.type	emFile_1_SPI0_GetRxBufferSize, %function
 343              	emFile_1_SPI0_GetRxBufferSize:
 344              	.LFB14:
 640:.\Generated_Source\PSoC5/emFile_1_SPI0.c **** 
 641:.\Generated_Source\PSoC5/emFile_1_SPI0.c **** 
 642:.\Generated_Source\PSoC5/emFile_1_SPI0.c **** /*******************************************************************************
 643:.\Generated_Source\PSoC5/emFile_1_SPI0.c **** * Function Name: emFile_1_SPI0_GetRxBufferSize
 644:.\Generated_Source\PSoC5/emFile_1_SPI0.c **** ********************************************************************************
 645:.\Generated_Source\PSoC5/emFile_1_SPI0.c **** *
 646:.\Generated_Source\PSoC5/emFile_1_SPI0.c **** * Summary:
 647:.\Generated_Source\PSoC5/emFile_1_SPI0.c **** *  Returns the number of bytes/words of data currently held in the RX buffer.
 648:.\Generated_Source\PSoC5/emFile_1_SPI0.c **** *  If RX Software Buffer not used then function return 0 if FIFO empty or 1 if
 649:.\Generated_Source\PSoC5/emFile_1_SPI0.c **** *  FIFO not empty. In another case function return size of RX Software Buffer.
 650:.\Generated_Source\PSoC5/emFile_1_SPI0.c **** *
 651:.\Generated_Source\PSoC5/emFile_1_SPI0.c **** * Parameters:
 652:.\Generated_Source\PSoC5/emFile_1_SPI0.c **** *  None.
 653:.\Generated_Source\PSoC5/emFile_1_SPI0.c **** *
 654:.\Generated_Source\PSoC5/emFile_1_SPI0.c **** * Return:
 655:.\Generated_Source\PSoC5/emFile_1_SPI0.c **** *  Integer count of the number of bytes/words in the RX buffer.
 656:.\Generated_Source\PSoC5/emFile_1_SPI0.c **** *
 657:.\Generated_Source\PSoC5/emFile_1_SPI0.c **** * Global variables:
 658:.\Generated_Source\PSoC5/emFile_1_SPI0.c **** *  emFile_1_SPI0_rxBufferWrite - used for the account of the bytes which
 659:.\Generated_Source\PSoC5/emFile_1_SPI0.c **** *  have been written down in the RX software buffer.
 660:.\Generated_Source\PSoC5/emFile_1_SPI0.c **** *  emFile_1_SPI0_rxBufferRead - used for the account of the bytes which
 661:.\Generated_Source\PSoC5/emFile_1_SPI0.c **** *  have been read from the RX software buffer.
 662:.\Generated_Source\PSoC5/emFile_1_SPI0.c **** *
 663:.\Generated_Source\PSoC5/emFile_1_SPI0.c **** * Side Effects:
 664:.\Generated_Source\PSoC5/emFile_1_SPI0.c **** *  Clear status register of the component.
 665:.\Generated_Source\PSoC5/emFile_1_SPI0.c **** *
 666:.\Generated_Source\PSoC5/emFile_1_SPI0.c **** *******************************************************************************/
 667:.\Generated_Source\PSoC5/emFile_1_SPI0.c **** uint8 emFile_1_SPI0_GetRxBufferSize(void) 
 668:.\Generated_Source\PSoC5/emFile_1_SPI0.c **** {
 345              		.loc 1 668 0
 346              		.cfi_startproc
 347              		@ args = 0, pretend = 0, frame = 0
 348              		@ frame_needed = 0, uses_anonymous_args = 0
 349              		@ link register save eliminated.
 669:.\Generated_Source\PSoC5/emFile_1_SPI0.c ****     uint8 size;
 670:.\Generated_Source\PSoC5/emFile_1_SPI0.c **** 
 671:.\Generated_Source\PSoC5/emFile_1_SPI0.c ****     #if(emFile_1_SPI0_RX_SOFTWARE_BUF_ENABLED)
 672:.\Generated_Source\PSoC5/emFile_1_SPI0.c **** 
 673:.\Generated_Source\PSoC5/emFile_1_SPI0.c ****         /* Disable RX interrupt to protect global veriables */
 674:.\Generated_Source\PSoC5/emFile_1_SPI0.c ****         emFile_1_SPI0_DisableRxInt();
 675:.\Generated_Source\PSoC5/emFile_1_SPI0.c **** 
ARM GAS  C:\Users\acer\AppData\Local\Temp\ccmFwtok.s 			page 19


 676:.\Generated_Source\PSoC5/emFile_1_SPI0.c ****         if(emFile_1_SPI0_rxBufferRead == emFile_1_SPI0_rxBufferWrite)
 677:.\Generated_Source\PSoC5/emFile_1_SPI0.c ****         {
 678:.\Generated_Source\PSoC5/emFile_1_SPI0.c ****             size = 0u;
 679:.\Generated_Source\PSoC5/emFile_1_SPI0.c ****         }
 680:.\Generated_Source\PSoC5/emFile_1_SPI0.c ****         else if(emFile_1_SPI0_rxBufferRead < emFile_1_SPI0_rxBufferWrite)
 681:.\Generated_Source\PSoC5/emFile_1_SPI0.c ****         {
 682:.\Generated_Source\PSoC5/emFile_1_SPI0.c ****             size = (emFile_1_SPI0_rxBufferWrite - emFile_1_SPI0_rxBufferRead);
 683:.\Generated_Source\PSoC5/emFile_1_SPI0.c ****         }
 684:.\Generated_Source\PSoC5/emFile_1_SPI0.c ****         else
 685:.\Generated_Source\PSoC5/emFile_1_SPI0.c ****         {
 686:.\Generated_Source\PSoC5/emFile_1_SPI0.c ****             size = (emFile_1_SPI0_RX_BUFFER_SIZE - emFile_1_SPI0_rxBufferRead) + emFile_1_SPI0_rxBu
 687:.\Generated_Source\PSoC5/emFile_1_SPI0.c ****         }
 688:.\Generated_Source\PSoC5/emFile_1_SPI0.c **** 
 689:.\Generated_Source\PSoC5/emFile_1_SPI0.c ****         emFile_1_SPI0_EnableRxInt();
 690:.\Generated_Source\PSoC5/emFile_1_SPI0.c **** 
 691:.\Generated_Source\PSoC5/emFile_1_SPI0.c ****     #else
 692:.\Generated_Source\PSoC5/emFile_1_SPI0.c **** 
 693:.\Generated_Source\PSoC5/emFile_1_SPI0.c ****         /* We can only know if there is data in the RX FIFO */
 694:.\Generated_Source\PSoC5/emFile_1_SPI0.c ****         size = (0u != (emFile_1_SPI0_RX_STATUS_REG & emFile_1_SPI0_STS_RX_FIFO_NOT_EMPTY)) ? 1u : 0
 350              		.loc 1 694 0
 351 0000 024B     		ldr	r3, .L34
 352 0002 1878     		ldrb	r0, [r3]	@ zero_extendqisi2
 353              	.LVL10:
 695:.\Generated_Source\PSoC5/emFile_1_SPI0.c **** 
 696:.\Generated_Source\PSoC5/emFile_1_SPI0.c ****     #endif /* (emFile_1_SPI0_TX_SOFTWARE_BUF_ENABLED) */
 697:.\Generated_Source\PSoC5/emFile_1_SPI0.c **** 
 698:.\Generated_Source\PSoC5/emFile_1_SPI0.c ****     return(size);
 699:.\Generated_Source\PSoC5/emFile_1_SPI0.c **** }
 354              		.loc 1 699 0
 355 0004 C0F34010 		ubfx	r0, r0, #5, #1
 356              	.LVL11:
 357 0008 7047     		bx	lr
 358              	.L35:
 359 000a 00BF     		.align	2
 360              	.L34:
 361 000c 69640040 		.word	1073767529
 362              		.cfi_endproc
 363              	.LFE14:
 364              		.size	emFile_1_SPI0_GetRxBufferSize, .-emFile_1_SPI0_GetRxBufferSize
 365              		.section	.text.emFile_1_SPI0_GetTxBufferSize,"ax",%progbits
 366              		.align	1
 367              		.global	emFile_1_SPI0_GetTxBufferSize
 368              		.thumb
 369              		.thumb_func
 370              		.type	emFile_1_SPI0_GetTxBufferSize, %function
 371              	emFile_1_SPI0_GetTxBufferSize:
 372              	.LFB15:
 700:.\Generated_Source\PSoC5/emFile_1_SPI0.c **** 
 701:.\Generated_Source\PSoC5/emFile_1_SPI0.c **** 
 702:.\Generated_Source\PSoC5/emFile_1_SPI0.c **** /*******************************************************************************
 703:.\Generated_Source\PSoC5/emFile_1_SPI0.c **** * Function Name: emFile_1_SPI0_GetTxBufferSize
 704:.\Generated_Source\PSoC5/emFile_1_SPI0.c **** ********************************************************************************
 705:.\Generated_Source\PSoC5/emFile_1_SPI0.c **** *
 706:.\Generated_Source\PSoC5/emFile_1_SPI0.c **** * Summary:
 707:.\Generated_Source\PSoC5/emFile_1_SPI0.c **** *  Returns the number of bytes/words of data currently held in the TX buffer.
 708:.\Generated_Source\PSoC5/emFile_1_SPI0.c **** *  If TX Software Buffer not used then function return 0 - if FIFO empty, 1 - if
 709:.\Generated_Source\PSoC5/emFile_1_SPI0.c **** *  FIFO not full, 4 - if FIFO full. In another case function return size of TX
ARM GAS  C:\Users\acer\AppData\Local\Temp\ccmFwtok.s 			page 20


 710:.\Generated_Source\PSoC5/emFile_1_SPI0.c **** *  Software Buffer.
 711:.\Generated_Source\PSoC5/emFile_1_SPI0.c **** *
 712:.\Generated_Source\PSoC5/emFile_1_SPI0.c **** * Parameters:
 713:.\Generated_Source\PSoC5/emFile_1_SPI0.c **** *  None.
 714:.\Generated_Source\PSoC5/emFile_1_SPI0.c **** *
 715:.\Generated_Source\PSoC5/emFile_1_SPI0.c **** * Return:
 716:.\Generated_Source\PSoC5/emFile_1_SPI0.c **** *  Integer count of the number of bytes/words in the TX buffer.
 717:.\Generated_Source\PSoC5/emFile_1_SPI0.c **** *
 718:.\Generated_Source\PSoC5/emFile_1_SPI0.c **** * Global variables:
 719:.\Generated_Source\PSoC5/emFile_1_SPI0.c **** *  emFile_1_SPI0_txBufferWrite - used for the account of the bytes which
 720:.\Generated_Source\PSoC5/emFile_1_SPI0.c **** *  have been written down in the TX software buffer.
 721:.\Generated_Source\PSoC5/emFile_1_SPI0.c **** *  emFile_1_SPI0_txBufferRead - used for the account of the bytes which
 722:.\Generated_Source\PSoC5/emFile_1_SPI0.c **** *  have been read from the TX software buffer.
 723:.\Generated_Source\PSoC5/emFile_1_SPI0.c **** *
 724:.\Generated_Source\PSoC5/emFile_1_SPI0.c **** * Side Effects:
 725:.\Generated_Source\PSoC5/emFile_1_SPI0.c **** *  Clear status register of the component.
 726:.\Generated_Source\PSoC5/emFile_1_SPI0.c **** *
 727:.\Generated_Source\PSoC5/emFile_1_SPI0.c **** *******************************************************************************/
 728:.\Generated_Source\PSoC5/emFile_1_SPI0.c **** uint8  emFile_1_SPI0_GetTxBufferSize(void) 
 729:.\Generated_Source\PSoC5/emFile_1_SPI0.c **** {
 373              		.loc 1 729 0
 374              		.cfi_startproc
 375              		@ args = 0, pretend = 0, frame = 0
 376              		@ frame_needed = 0, uses_anonymous_args = 0
 377              		@ link register save eliminated.
 730:.\Generated_Source\PSoC5/emFile_1_SPI0.c ****     uint8 size;
 731:.\Generated_Source\PSoC5/emFile_1_SPI0.c **** 
 732:.\Generated_Source\PSoC5/emFile_1_SPI0.c ****     #if(emFile_1_SPI0_TX_SOFTWARE_BUF_ENABLED)
 733:.\Generated_Source\PSoC5/emFile_1_SPI0.c ****         /* Disable TX interrupt to protect global veriables */
 734:.\Generated_Source\PSoC5/emFile_1_SPI0.c ****         emFile_1_SPI0_DisableTxInt();
 735:.\Generated_Source\PSoC5/emFile_1_SPI0.c **** 
 736:.\Generated_Source\PSoC5/emFile_1_SPI0.c ****         if(emFile_1_SPI0_txBufferRead == emFile_1_SPI0_txBufferWrite)
 737:.\Generated_Source\PSoC5/emFile_1_SPI0.c ****         {
 738:.\Generated_Source\PSoC5/emFile_1_SPI0.c ****             size = 0u;
 739:.\Generated_Source\PSoC5/emFile_1_SPI0.c ****         }
 740:.\Generated_Source\PSoC5/emFile_1_SPI0.c ****         else if(emFile_1_SPI0_txBufferRead < emFile_1_SPI0_txBufferWrite)
 741:.\Generated_Source\PSoC5/emFile_1_SPI0.c ****         {
 742:.\Generated_Source\PSoC5/emFile_1_SPI0.c ****             size = (emFile_1_SPI0_txBufferWrite - emFile_1_SPI0_txBufferRead);
 743:.\Generated_Source\PSoC5/emFile_1_SPI0.c ****         }
 744:.\Generated_Source\PSoC5/emFile_1_SPI0.c ****         else
 745:.\Generated_Source\PSoC5/emFile_1_SPI0.c ****         {
 746:.\Generated_Source\PSoC5/emFile_1_SPI0.c ****             size = (emFile_1_SPI0_TX_BUFFER_SIZE - emFile_1_SPI0_txBufferRead) + emFile_1_SPI0_txBu
 747:.\Generated_Source\PSoC5/emFile_1_SPI0.c ****         }
 748:.\Generated_Source\PSoC5/emFile_1_SPI0.c **** 
 749:.\Generated_Source\PSoC5/emFile_1_SPI0.c ****         emFile_1_SPI0_EnableTxInt();
 750:.\Generated_Source\PSoC5/emFile_1_SPI0.c **** 
 751:.\Generated_Source\PSoC5/emFile_1_SPI0.c ****     #else
 752:.\Generated_Source\PSoC5/emFile_1_SPI0.c **** 
 753:.\Generated_Source\PSoC5/emFile_1_SPI0.c ****         size = emFile_1_SPI0_TX_STATUS_REG;
 378              		.loc 1 753 0
 379 0000 064B     		ldr	r3, .L40
 380 0002 1B78     		ldrb	r3, [r3]	@ zero_extendqisi2
 381 0004 DBB2     		uxtb	r3, r3
 382              	.LVL12:
 754:.\Generated_Source\PSoC5/emFile_1_SPI0.c **** 
 755:.\Generated_Source\PSoC5/emFile_1_SPI0.c ****         if(0u != (size & emFile_1_SPI0_STS_TX_FIFO_EMPTY))
 383              		.loc 1 755 0
ARM GAS  C:\Users\acer\AppData\Local\Temp\ccmFwtok.s 			page 21


 384 0006 9A07     		lsls	r2, r3, #30
 385 0008 05D4     		bmi	.L38
 756:.\Generated_Source\PSoC5/emFile_1_SPI0.c ****         {
 757:.\Generated_Source\PSoC5/emFile_1_SPI0.c ****             size = 0u;
 758:.\Generated_Source\PSoC5/emFile_1_SPI0.c ****         }
 759:.\Generated_Source\PSoC5/emFile_1_SPI0.c ****         else if(0u != (size & emFile_1_SPI0_STS_TX_FIFO_NOT_FULL))
 386              		.loc 1 759 0
 387 000a 13F0040F 		tst	r3, #4
 760:.\Generated_Source\PSoC5/emFile_1_SPI0.c ****         {
 761:.\Generated_Source\PSoC5/emFile_1_SPI0.c ****             size = 1u;
 762:.\Generated_Source\PSoC5/emFile_1_SPI0.c ****         }
 763:.\Generated_Source\PSoC5/emFile_1_SPI0.c ****         else
 764:.\Generated_Source\PSoC5/emFile_1_SPI0.c ****         {
 765:.\Generated_Source\PSoC5/emFile_1_SPI0.c ****             size = emFile_1_SPI0_FIFO_SIZE;
 388              		.loc 1 765 0
 389 000e 14BF     		ite	ne
 390 0010 0120     		movne	r0, #1
 391 0012 0420     		moveq	r0, #4
 392 0014 7047     		bx	lr
 393              	.L38:
 757:.\Generated_Source\PSoC5/emFile_1_SPI0.c ****         }
 394              		.loc 1 757 0
 395 0016 0020     		movs	r0, #0
 396              	.LVL13:
 766:.\Generated_Source\PSoC5/emFile_1_SPI0.c ****         }
 767:.\Generated_Source\PSoC5/emFile_1_SPI0.c **** 
 768:.\Generated_Source\PSoC5/emFile_1_SPI0.c ****     #endif /* (emFile_1_SPI0_TX_SOFTWARE_BUF_ENABLED) */
 769:.\Generated_Source\PSoC5/emFile_1_SPI0.c **** 
 770:.\Generated_Source\PSoC5/emFile_1_SPI0.c ****     return(size);
 771:.\Generated_Source\PSoC5/emFile_1_SPI0.c **** }
 397              		.loc 1 771 0
 398 0018 7047     		bx	lr
 399              	.L41:
 400 001a 00BF     		.align	2
 401              	.L40:
 402 001c 6B640040 		.word	1073767531
 403              		.cfi_endproc
 404              	.LFE15:
 405              		.size	emFile_1_SPI0_GetTxBufferSize, .-emFile_1_SPI0_GetTxBufferSize
 406              		.section	.text.emFile_1_SPI0_ClearRxBuffer,"ax",%progbits
 407              		.align	1
 408              		.global	emFile_1_SPI0_ClearRxBuffer
 409              		.thumb
 410              		.thumb_func
 411              		.type	emFile_1_SPI0_ClearRxBuffer, %function
 412              	emFile_1_SPI0_ClearRxBuffer:
 413              	.LFB16:
 772:.\Generated_Source\PSoC5/emFile_1_SPI0.c **** 
 773:.\Generated_Source\PSoC5/emFile_1_SPI0.c **** 
 774:.\Generated_Source\PSoC5/emFile_1_SPI0.c **** /*******************************************************************************
 775:.\Generated_Source\PSoC5/emFile_1_SPI0.c **** * Function Name: emFile_1_SPI0_ClearRxBuffer
 776:.\Generated_Source\PSoC5/emFile_1_SPI0.c **** ********************************************************************************
 777:.\Generated_Source\PSoC5/emFile_1_SPI0.c **** *
 778:.\Generated_Source\PSoC5/emFile_1_SPI0.c **** * Summary:
 779:.\Generated_Source\PSoC5/emFile_1_SPI0.c **** *  Clear the RX RAM buffer by setting the read and write pointers both to zero.
 780:.\Generated_Source\PSoC5/emFile_1_SPI0.c **** *
 781:.\Generated_Source\PSoC5/emFile_1_SPI0.c **** * Parameters:
ARM GAS  C:\Users\acer\AppData\Local\Temp\ccmFwtok.s 			page 22


 782:.\Generated_Source\PSoC5/emFile_1_SPI0.c **** *  None.
 783:.\Generated_Source\PSoC5/emFile_1_SPI0.c **** *
 784:.\Generated_Source\PSoC5/emFile_1_SPI0.c **** * Return:
 785:.\Generated_Source\PSoC5/emFile_1_SPI0.c **** *  None.
 786:.\Generated_Source\PSoC5/emFile_1_SPI0.c **** *
 787:.\Generated_Source\PSoC5/emFile_1_SPI0.c **** * Global variables:
 788:.\Generated_Source\PSoC5/emFile_1_SPI0.c **** *  emFile_1_SPI0_rxBufferWrite - used for the account of the bytes which
 789:.\Generated_Source\PSoC5/emFile_1_SPI0.c **** *  have been written down in the RX software buffer, modified every function
 790:.\Generated_Source\PSoC5/emFile_1_SPI0.c **** *  call - resets to zero.
 791:.\Generated_Source\PSoC5/emFile_1_SPI0.c **** *  emFile_1_SPI0_rxBufferRead - used for the account of the bytes which
 792:.\Generated_Source\PSoC5/emFile_1_SPI0.c **** *  have been read from the RX software buffer, modified every function call -
 793:.\Generated_Source\PSoC5/emFile_1_SPI0.c **** *  resets to zero.
 794:.\Generated_Source\PSoC5/emFile_1_SPI0.c **** *
 795:.\Generated_Source\PSoC5/emFile_1_SPI0.c **** * Theory:
 796:.\Generated_Source\PSoC5/emFile_1_SPI0.c **** *  Setting the pointers to zero makes the system believe there is no data to
 797:.\Generated_Source\PSoC5/emFile_1_SPI0.c **** *  read and writing will resume at address 0 overwriting any data that may have
 798:.\Generated_Source\PSoC5/emFile_1_SPI0.c **** *  remained in the RAM.
 799:.\Generated_Source\PSoC5/emFile_1_SPI0.c **** *
 800:.\Generated_Source\PSoC5/emFile_1_SPI0.c **** * Side Effects:
 801:.\Generated_Source\PSoC5/emFile_1_SPI0.c **** *  Any received data not read from the RAM buffer will be lost when overwritten.
 802:.\Generated_Source\PSoC5/emFile_1_SPI0.c **** *
 803:.\Generated_Source\PSoC5/emFile_1_SPI0.c **** * Reentrant:
 804:.\Generated_Source\PSoC5/emFile_1_SPI0.c **** *  No.
 805:.\Generated_Source\PSoC5/emFile_1_SPI0.c **** *
 806:.\Generated_Source\PSoC5/emFile_1_SPI0.c **** *******************************************************************************/
 807:.\Generated_Source\PSoC5/emFile_1_SPI0.c **** void emFile_1_SPI0_ClearRxBuffer(void) 
 808:.\Generated_Source\PSoC5/emFile_1_SPI0.c **** {
 414              		.loc 1 808 0
 415              		.cfi_startproc
 416              		@ args = 0, pretend = 0, frame = 0
 417              		@ frame_needed = 0, uses_anonymous_args = 0
 418              		@ link register save eliminated.
 419              	.L43:
 809:.\Generated_Source\PSoC5/emFile_1_SPI0.c ****     /* Clear Hardware RX FIFO */
 810:.\Generated_Source\PSoC5/emFile_1_SPI0.c ****     while(0u !=(emFile_1_SPI0_RX_STATUS_REG & emFile_1_SPI0_STS_RX_FIFO_NOT_EMPTY))
 420              		.loc 1 810 0
 421 0000 034B     		ldr	r3, .L46
 422 0002 1B78     		ldrb	r3, [r3]	@ zero_extendqisi2
 423 0004 9B06     		lsls	r3, r3, #26
 424 0006 02D5     		bpl	.L45
 811:.\Generated_Source\PSoC5/emFile_1_SPI0.c ****     {
 812:.\Generated_Source\PSoC5/emFile_1_SPI0.c ****         (void) CY_GET_REG8(emFile_1_SPI0_RXDATA_PTR);
 425              		.loc 1 812 0
 426 0008 024B     		ldr	r3, .L46+4
 427 000a 1B78     		ldrb	r3, [r3]	@ zero_extendqisi2
 428 000c F8E7     		b	.L43
 429              	.L45:
 813:.\Generated_Source\PSoC5/emFile_1_SPI0.c ****     }
 814:.\Generated_Source\PSoC5/emFile_1_SPI0.c **** 
 815:.\Generated_Source\PSoC5/emFile_1_SPI0.c ****     #if(emFile_1_SPI0_RX_SOFTWARE_BUF_ENABLED)
 816:.\Generated_Source\PSoC5/emFile_1_SPI0.c ****         /* Disable RX interrupt to protect global veriables */
 817:.\Generated_Source\PSoC5/emFile_1_SPI0.c ****         emFile_1_SPI0_DisableRxInt();
 818:.\Generated_Source\PSoC5/emFile_1_SPI0.c **** 
 819:.\Generated_Source\PSoC5/emFile_1_SPI0.c ****         emFile_1_SPI0_rxBufferFull  = 0u;
 820:.\Generated_Source\PSoC5/emFile_1_SPI0.c ****         emFile_1_SPI0_rxBufferRead  = 0u;
 821:.\Generated_Source\PSoC5/emFile_1_SPI0.c ****         emFile_1_SPI0_rxBufferWrite = 0u;
 822:.\Generated_Source\PSoC5/emFile_1_SPI0.c **** 
ARM GAS  C:\Users\acer\AppData\Local\Temp\ccmFwtok.s 			page 23


 823:.\Generated_Source\PSoC5/emFile_1_SPI0.c ****         emFile_1_SPI0_EnableRxInt();
 824:.\Generated_Source\PSoC5/emFile_1_SPI0.c ****     #endif /* (emFile_1_SPI0_RX_SOFTWARE_BUF_ENABLED) */
 825:.\Generated_Source\PSoC5/emFile_1_SPI0.c **** }
 430              		.loc 1 825 0
 431 000e 7047     		bx	lr
 432              	.L47:
 433              		.align	2
 434              	.L46:
 435 0010 69640040 		.word	1073767529
 436 0014 58640040 		.word	1073767512
 437              		.cfi_endproc
 438              	.LFE16:
 439              		.size	emFile_1_SPI0_ClearRxBuffer, .-emFile_1_SPI0_ClearRxBuffer
 440              		.section	.text.emFile_1_SPI0_ClearTxBuffer,"ax",%progbits
 441              		.align	1
 442              		.global	emFile_1_SPI0_ClearTxBuffer
 443              		.thumb
 444              		.thumb_func
 445              		.type	emFile_1_SPI0_ClearTxBuffer, %function
 446              	emFile_1_SPI0_ClearTxBuffer:
 447              	.LFB17:
 826:.\Generated_Source\PSoC5/emFile_1_SPI0.c **** 
 827:.\Generated_Source\PSoC5/emFile_1_SPI0.c **** 
 828:.\Generated_Source\PSoC5/emFile_1_SPI0.c **** /*******************************************************************************
 829:.\Generated_Source\PSoC5/emFile_1_SPI0.c **** * Function Name: emFile_1_SPI0_ClearTxBuffer
 830:.\Generated_Source\PSoC5/emFile_1_SPI0.c **** ********************************************************************************
 831:.\Generated_Source\PSoC5/emFile_1_SPI0.c **** *
 832:.\Generated_Source\PSoC5/emFile_1_SPI0.c **** * Summary:
 833:.\Generated_Source\PSoC5/emFile_1_SPI0.c **** *  Clear the TX RAM buffer by setting the read and write pointers both to zero.
 834:.\Generated_Source\PSoC5/emFile_1_SPI0.c **** *
 835:.\Generated_Source\PSoC5/emFile_1_SPI0.c **** * Parameters:
 836:.\Generated_Source\PSoC5/emFile_1_SPI0.c **** *  None.
 837:.\Generated_Source\PSoC5/emFile_1_SPI0.c **** *
 838:.\Generated_Source\PSoC5/emFile_1_SPI0.c **** * Return:
 839:.\Generated_Source\PSoC5/emFile_1_SPI0.c **** *  None.
 840:.\Generated_Source\PSoC5/emFile_1_SPI0.c **** *
 841:.\Generated_Source\PSoC5/emFile_1_SPI0.c **** * Global variables:
 842:.\Generated_Source\PSoC5/emFile_1_SPI0.c **** *  emFile_1_SPI0_txBufferWrite - used for the account of the bytes which
 843:.\Generated_Source\PSoC5/emFile_1_SPI0.c **** *  have been written down in the TX software buffer, modified every function
 844:.\Generated_Source\PSoC5/emFile_1_SPI0.c **** *  call - resets to zero.
 845:.\Generated_Source\PSoC5/emFile_1_SPI0.c **** *  emFile_1_SPI0_txBufferRead - used for the account of the bytes which
 846:.\Generated_Source\PSoC5/emFile_1_SPI0.c **** *  have been read from the TX software buffer, modified every function call -
 847:.\Generated_Source\PSoC5/emFile_1_SPI0.c **** *  resets to zero.
 848:.\Generated_Source\PSoC5/emFile_1_SPI0.c **** *
 849:.\Generated_Source\PSoC5/emFile_1_SPI0.c **** * Theory:
 850:.\Generated_Source\PSoC5/emFile_1_SPI0.c **** *  Setting the pointers to zero makes the system believe there is no data to
 851:.\Generated_Source\PSoC5/emFile_1_SPI0.c **** *  read and writing will resume at address 0 overwriting any data that may have
 852:.\Generated_Source\PSoC5/emFile_1_SPI0.c **** *  remained in the RAM.
 853:.\Generated_Source\PSoC5/emFile_1_SPI0.c **** *
 854:.\Generated_Source\PSoC5/emFile_1_SPI0.c **** * Side Effects:
 855:.\Generated_Source\PSoC5/emFile_1_SPI0.c **** *  Any data not yet transmitted from the RAM buffer will be lost when
 856:.\Generated_Source\PSoC5/emFile_1_SPI0.c **** *  overwritten.
 857:.\Generated_Source\PSoC5/emFile_1_SPI0.c **** *
 858:.\Generated_Source\PSoC5/emFile_1_SPI0.c **** * Reentrant:
 859:.\Generated_Source\PSoC5/emFile_1_SPI0.c **** *  No.
 860:.\Generated_Source\PSoC5/emFile_1_SPI0.c **** *
 861:.\Generated_Source\PSoC5/emFile_1_SPI0.c **** *******************************************************************************/
ARM GAS  C:\Users\acer\AppData\Local\Temp\ccmFwtok.s 			page 24


 862:.\Generated_Source\PSoC5/emFile_1_SPI0.c **** void emFile_1_SPI0_ClearTxBuffer(void) 
 863:.\Generated_Source\PSoC5/emFile_1_SPI0.c **** {
 448              		.loc 1 863 0
 449              		.cfi_startproc
 450              		@ args = 0, pretend = 0, frame = 0
 451              		@ frame_needed = 0, uses_anonymous_args = 0
 452 0000 08B5     		push	{r3, lr}
 453              		.cfi_def_cfa_offset 8
 454              		.cfi_offset 3, -8
 455              		.cfi_offset 14, -4
 864:.\Generated_Source\PSoC5/emFile_1_SPI0.c ****     uint8 enableInterrupts;
 865:.\Generated_Source\PSoC5/emFile_1_SPI0.c **** 
 866:.\Generated_Source\PSoC5/emFile_1_SPI0.c ****     enableInterrupts = CyEnterCriticalSection();
 456              		.loc 1 866 0
 457 0002 FFF7FEFF 		bl	CyEnterCriticalSection
 458              	.LVL14:
 867:.\Generated_Source\PSoC5/emFile_1_SPI0.c ****     /* Clear TX FIFO */
 868:.\Generated_Source\PSoC5/emFile_1_SPI0.c ****     emFile_1_SPI0_AUX_CONTROL_DP0_REG |= ((uint8)  emFile_1_SPI0_TX_FIFO_CLR);
 459              		.loc 1 868 0
 460 0006 064B     		ldr	r3, .L49
 461 0008 1A78     		ldrb	r2, [r3]	@ zero_extendqisi2
 462 000a 42F00102 		orr	r2, r2, #1
 463 000e 1A70     		strb	r2, [r3]
 869:.\Generated_Source\PSoC5/emFile_1_SPI0.c ****     emFile_1_SPI0_AUX_CONTROL_DP0_REG &= ((uint8) ~emFile_1_SPI0_TX_FIFO_CLR);
 464              		.loc 1 869 0
 465 0010 1A78     		ldrb	r2, [r3]	@ zero_extendqisi2
 466 0012 02F0FE02 		and	r2, r2, #254
 467 0016 1A70     		strb	r2, [r3]
 870:.\Generated_Source\PSoC5/emFile_1_SPI0.c **** 
 871:.\Generated_Source\PSoC5/emFile_1_SPI0.c ****     #if(emFile_1_SPI0_USE_SECOND_DATAPATH)
 872:.\Generated_Source\PSoC5/emFile_1_SPI0.c ****         /* Clear TX FIFO for 2nd Datapath */
 873:.\Generated_Source\PSoC5/emFile_1_SPI0.c ****         emFile_1_SPI0_AUX_CONTROL_DP1_REG |= ((uint8)  emFile_1_SPI0_TX_FIFO_CLR);
 874:.\Generated_Source\PSoC5/emFile_1_SPI0.c ****         emFile_1_SPI0_AUX_CONTROL_DP1_REG &= ((uint8) ~emFile_1_SPI0_TX_FIFO_CLR);
 875:.\Generated_Source\PSoC5/emFile_1_SPI0.c ****     #endif /* (emFile_1_SPI0_USE_SECOND_DATAPATH) */
 876:.\Generated_Source\PSoC5/emFile_1_SPI0.c ****     CyExitCriticalSection(enableInterrupts);
 877:.\Generated_Source\PSoC5/emFile_1_SPI0.c **** 
 878:.\Generated_Source\PSoC5/emFile_1_SPI0.c ****     #if(emFile_1_SPI0_TX_SOFTWARE_BUF_ENABLED)
 879:.\Generated_Source\PSoC5/emFile_1_SPI0.c ****         /* Disable TX interrupt to protect global veriables */
 880:.\Generated_Source\PSoC5/emFile_1_SPI0.c ****         emFile_1_SPI0_DisableTxInt();
 881:.\Generated_Source\PSoC5/emFile_1_SPI0.c **** 
 882:.\Generated_Source\PSoC5/emFile_1_SPI0.c ****         emFile_1_SPI0_txBufferFull  = 0u;
 883:.\Generated_Source\PSoC5/emFile_1_SPI0.c ****         emFile_1_SPI0_txBufferRead  = 0u;
 884:.\Generated_Source\PSoC5/emFile_1_SPI0.c ****         emFile_1_SPI0_txBufferWrite = 0u;
 885:.\Generated_Source\PSoC5/emFile_1_SPI0.c **** 
 886:.\Generated_Source\PSoC5/emFile_1_SPI0.c ****         /* Buffer is EMPTY: disable TX FIFO NOT FULL interrupt */
 887:.\Generated_Source\PSoC5/emFile_1_SPI0.c ****         emFile_1_SPI0_TX_STATUS_MASK_REG &= ((uint8) ~emFile_1_SPI0_STS_TX_FIFO_NOT_FULL);
 888:.\Generated_Source\PSoC5/emFile_1_SPI0.c **** 
 889:.\Generated_Source\PSoC5/emFile_1_SPI0.c ****         emFile_1_SPI0_EnableTxInt();
 890:.\Generated_Source\PSoC5/emFile_1_SPI0.c ****     #endif /* (emFile_1_SPI0_TX_SOFTWARE_BUF_ENABLED) */
 891:.\Generated_Source\PSoC5/emFile_1_SPI0.c **** }
 468              		.loc 1 891 0
 469 0018 BDE80840 		pop	{r3, lr}
 470              		.cfi_restore 14
 471              		.cfi_restore 3
 472              		.cfi_def_cfa_offset 0
 876:.\Generated_Source\PSoC5/emFile_1_SPI0.c **** 
 473              		.loc 1 876 0
ARM GAS  C:\Users\acer\AppData\Local\Temp\ccmFwtok.s 			page 25


 474 001c FFF7FEBF 		b	CyExitCriticalSection
 475              	.LVL15:
 476              	.L50:
 477              		.align	2
 478              	.L49:
 479 0020 98640040 		.word	1073767576
 480              		.cfi_endproc
 481              	.LFE17:
 482              		.size	emFile_1_SPI0_ClearTxBuffer, .-emFile_1_SPI0_ClearTxBuffer
 483              		.section	.text.emFile_1_SPI0_PutArray,"ax",%progbits
 484              		.align	1
 485              		.global	emFile_1_SPI0_PutArray
 486              		.thumb
 487              		.thumb_func
 488              		.type	emFile_1_SPI0_PutArray, %function
 489              	emFile_1_SPI0_PutArray:
 490              	.LFB18:
 892:.\Generated_Source\PSoC5/emFile_1_SPI0.c **** 
 893:.\Generated_Source\PSoC5/emFile_1_SPI0.c **** 
 894:.\Generated_Source\PSoC5/emFile_1_SPI0.c **** #if(0u != emFile_1_SPI0_BIDIRECTIONAL_MODE)
 895:.\Generated_Source\PSoC5/emFile_1_SPI0.c ****     /*******************************************************************************
 896:.\Generated_Source\PSoC5/emFile_1_SPI0.c ****     * Function Name: emFile_1_SPI0_TxEnable
 897:.\Generated_Source\PSoC5/emFile_1_SPI0.c ****     ********************************************************************************
 898:.\Generated_Source\PSoC5/emFile_1_SPI0.c ****     *
 899:.\Generated_Source\PSoC5/emFile_1_SPI0.c ****     * Summary:
 900:.\Generated_Source\PSoC5/emFile_1_SPI0.c ****     *  If the SPI master is configured to use a single bi-directional pin then this
 901:.\Generated_Source\PSoC5/emFile_1_SPI0.c ****     *  will set the bi-directional pin to transmit.
 902:.\Generated_Source\PSoC5/emFile_1_SPI0.c ****     *
 903:.\Generated_Source\PSoC5/emFile_1_SPI0.c ****     * Parameters:
 904:.\Generated_Source\PSoC5/emFile_1_SPI0.c ****     *  None.
 905:.\Generated_Source\PSoC5/emFile_1_SPI0.c ****     *
 906:.\Generated_Source\PSoC5/emFile_1_SPI0.c ****     * Return:
 907:.\Generated_Source\PSoC5/emFile_1_SPI0.c ****     *  None.
 908:.\Generated_Source\PSoC5/emFile_1_SPI0.c ****     *
 909:.\Generated_Source\PSoC5/emFile_1_SPI0.c ****     *******************************************************************************/
 910:.\Generated_Source\PSoC5/emFile_1_SPI0.c ****     void emFile_1_SPI0_TxEnable(void) 
 911:.\Generated_Source\PSoC5/emFile_1_SPI0.c ****     {
 912:.\Generated_Source\PSoC5/emFile_1_SPI0.c ****         emFile_1_SPI0_CONTROL_REG |= emFile_1_SPI0_CTRL_TX_SIGNAL_EN;
 913:.\Generated_Source\PSoC5/emFile_1_SPI0.c ****     }
 914:.\Generated_Source\PSoC5/emFile_1_SPI0.c **** 
 915:.\Generated_Source\PSoC5/emFile_1_SPI0.c **** 
 916:.\Generated_Source\PSoC5/emFile_1_SPI0.c ****     /*******************************************************************************
 917:.\Generated_Source\PSoC5/emFile_1_SPI0.c ****     * Function Name: emFile_1_SPI0_TxDisable
 918:.\Generated_Source\PSoC5/emFile_1_SPI0.c ****     ********************************************************************************
 919:.\Generated_Source\PSoC5/emFile_1_SPI0.c ****     *
 920:.\Generated_Source\PSoC5/emFile_1_SPI0.c ****     * Summary:
 921:.\Generated_Source\PSoC5/emFile_1_SPI0.c ****     *  If the SPI master is configured to use a single bi-directional pin then this
 922:.\Generated_Source\PSoC5/emFile_1_SPI0.c ****     *  will set the bi-directional pin to receive.
 923:.\Generated_Source\PSoC5/emFile_1_SPI0.c ****     *
 924:.\Generated_Source\PSoC5/emFile_1_SPI0.c ****     * Parameters:
 925:.\Generated_Source\PSoC5/emFile_1_SPI0.c ****     *  None.
 926:.\Generated_Source\PSoC5/emFile_1_SPI0.c ****     *
 927:.\Generated_Source\PSoC5/emFile_1_SPI0.c ****     * Return:
 928:.\Generated_Source\PSoC5/emFile_1_SPI0.c ****     *  None.
 929:.\Generated_Source\PSoC5/emFile_1_SPI0.c ****     *
 930:.\Generated_Source\PSoC5/emFile_1_SPI0.c ****     *******************************************************************************/
 931:.\Generated_Source\PSoC5/emFile_1_SPI0.c ****     void emFile_1_SPI0_TxDisable(void) 
ARM GAS  C:\Users\acer\AppData\Local\Temp\ccmFwtok.s 			page 26


 932:.\Generated_Source\PSoC5/emFile_1_SPI0.c ****     {
 933:.\Generated_Source\PSoC5/emFile_1_SPI0.c ****         emFile_1_SPI0_CONTROL_REG &= ((uint8) ~emFile_1_SPI0_CTRL_TX_SIGNAL_EN);
 934:.\Generated_Source\PSoC5/emFile_1_SPI0.c ****     }
 935:.\Generated_Source\PSoC5/emFile_1_SPI0.c **** 
 936:.\Generated_Source\PSoC5/emFile_1_SPI0.c **** #endif /* (0u != emFile_1_SPI0_BIDIRECTIONAL_MODE) */
 937:.\Generated_Source\PSoC5/emFile_1_SPI0.c **** 
 938:.\Generated_Source\PSoC5/emFile_1_SPI0.c **** 
 939:.\Generated_Source\PSoC5/emFile_1_SPI0.c **** /*******************************************************************************
 940:.\Generated_Source\PSoC5/emFile_1_SPI0.c **** * Function Name: emFile_1_SPI0_PutArray
 941:.\Generated_Source\PSoC5/emFile_1_SPI0.c **** ********************************************************************************
 942:.\Generated_Source\PSoC5/emFile_1_SPI0.c **** *
 943:.\Generated_Source\PSoC5/emFile_1_SPI0.c **** * Summary:
 944:.\Generated_Source\PSoC5/emFile_1_SPI0.c **** *  Write available data from ROM/RAM to the TX buffer while space is available
 945:.\Generated_Source\PSoC5/emFile_1_SPI0.c **** *  in the TX buffer. Keep trying until all data is passed to the TX buffer.
 946:.\Generated_Source\PSoC5/emFile_1_SPI0.c **** *
 947:.\Generated_Source\PSoC5/emFile_1_SPI0.c **** * Parameters:
 948:.\Generated_Source\PSoC5/emFile_1_SPI0.c **** *  *buffer: Pointer to the location in RAM containing the data to send
 949:.\Generated_Source\PSoC5/emFile_1_SPI0.c **** *  byteCount: The number of bytes to move to the transmit buffer.
 950:.\Generated_Source\PSoC5/emFile_1_SPI0.c **** *
 951:.\Generated_Source\PSoC5/emFile_1_SPI0.c **** * Return:
 952:.\Generated_Source\PSoC5/emFile_1_SPI0.c **** *  None.
 953:.\Generated_Source\PSoC5/emFile_1_SPI0.c **** *
 954:.\Generated_Source\PSoC5/emFile_1_SPI0.c **** * Side Effects:
 955:.\Generated_Source\PSoC5/emFile_1_SPI0.c **** *  Will stay in this routine until all data has been sent.  May get locked in
 956:.\Generated_Source\PSoC5/emFile_1_SPI0.c **** *  this loop if data is not being initiated by the master if there is not
 957:.\Generated_Source\PSoC5/emFile_1_SPI0.c **** *  enough room in the TX FIFO.
 958:.\Generated_Source\PSoC5/emFile_1_SPI0.c **** *
 959:.\Generated_Source\PSoC5/emFile_1_SPI0.c **** * Reentrant:
 960:.\Generated_Source\PSoC5/emFile_1_SPI0.c **** *  No.
 961:.\Generated_Source\PSoC5/emFile_1_SPI0.c **** *
 962:.\Generated_Source\PSoC5/emFile_1_SPI0.c **** *******************************************************************************/
 963:.\Generated_Source\PSoC5/emFile_1_SPI0.c **** void emFile_1_SPI0_PutArray(const uint8 buffer[], uint8 byteCount)
 964:.\Generated_Source\PSoC5/emFile_1_SPI0.c ****                                                                           
 965:.\Generated_Source\PSoC5/emFile_1_SPI0.c **** {
 491              		.loc 1 965 0
 492              		.cfi_startproc
 493              		@ args = 0, pretend = 0, frame = 0
 494              		@ frame_needed = 0, uses_anonymous_args = 0
 495              	.LVL16:
 496 0000 38B5     		push	{r3, r4, r5, lr}
 497              		.cfi_def_cfa_offset 16
 498              		.cfi_offset 3, -16
 499              		.cfi_offset 4, -12
 500              		.cfi_offset 5, -8
 501              		.cfi_offset 14, -4
 502              		.loc 1 965 0
 503 0002 0C46     		mov	r4, r1
 504 0004 451E     		subs	r5, r0, #1
 505              	.LVL17:
 506              	.L52:
 966:.\Generated_Source\PSoC5/emFile_1_SPI0.c ****     uint8 bufIndex;
 967:.\Generated_Source\PSoC5/emFile_1_SPI0.c **** 
 968:.\Generated_Source\PSoC5/emFile_1_SPI0.c ****     bufIndex = 0u;
 969:.\Generated_Source\PSoC5/emFile_1_SPI0.c **** 
 970:.\Generated_Source\PSoC5/emFile_1_SPI0.c ****     while(byteCount > 0u)
 507              		.loc 1 970 0
 508 0006 34B1     		cbz	r4, .L54
ARM GAS  C:\Users\acer\AppData\Local\Temp\ccmFwtok.s 			page 27


 971:.\Generated_Source\PSoC5/emFile_1_SPI0.c ****     {
 972:.\Generated_Source\PSoC5/emFile_1_SPI0.c ****         emFile_1_SPI0_WriteTxData(buffer[bufIndex]);
 509              		.loc 1 972 0
 510 0008 15F8010F 		ldrb	r0, [r5, #1]!	@ zero_extendqisi2
 511              	.LVL18:
 973:.\Generated_Source\PSoC5/emFile_1_SPI0.c ****         bufIndex++;
 974:.\Generated_Source\PSoC5/emFile_1_SPI0.c ****         byteCount--;
 512              		.loc 1 974 0
 513 000c 013C     		subs	r4, r4, #1
 514              	.LVL19:
 972:.\Generated_Source\PSoC5/emFile_1_SPI0.c ****         bufIndex++;
 515              		.loc 1 972 0
 516 000e FFF7FEFF 		bl	emFile_1_SPI0_WriteTxData
 517              	.LVL20:
 518              		.loc 1 974 0
 519 0012 E4B2     		uxtb	r4, r4
 520              	.LVL21:
 521 0014 F7E7     		b	.L52
 522              	.L54:
 975:.\Generated_Source\PSoC5/emFile_1_SPI0.c ****     }
 976:.\Generated_Source\PSoC5/emFile_1_SPI0.c **** }
 523              		.loc 1 976 0
 524 0016 38BD     		pop	{r3, r4, r5, pc}
 525              		.cfi_endproc
 526              	.LFE18:
 527              		.size	emFile_1_SPI0_PutArray, .-emFile_1_SPI0_PutArray
 528              		.section	.text.emFile_1_SPI0_ClearFIFO,"ax",%progbits
 529              		.align	1
 530              		.global	emFile_1_SPI0_ClearFIFO
 531              		.thumb
 532              		.thumb_func
 533              		.type	emFile_1_SPI0_ClearFIFO, %function
 534              	emFile_1_SPI0_ClearFIFO:
 535              	.LFB19:
 977:.\Generated_Source\PSoC5/emFile_1_SPI0.c **** 
 978:.\Generated_Source\PSoC5/emFile_1_SPI0.c **** 
 979:.\Generated_Source\PSoC5/emFile_1_SPI0.c **** /*******************************************************************************
 980:.\Generated_Source\PSoC5/emFile_1_SPI0.c **** * Function Name: emFile_1_SPI0_ClearFIFO
 981:.\Generated_Source\PSoC5/emFile_1_SPI0.c **** ********************************************************************************
 982:.\Generated_Source\PSoC5/emFile_1_SPI0.c **** *
 983:.\Generated_Source\PSoC5/emFile_1_SPI0.c **** * Summary:
 984:.\Generated_Source\PSoC5/emFile_1_SPI0.c **** *  Clear the RX and TX FIFO's of all data for a fresh start.
 985:.\Generated_Source\PSoC5/emFile_1_SPI0.c **** *
 986:.\Generated_Source\PSoC5/emFile_1_SPI0.c **** * Parameters:
 987:.\Generated_Source\PSoC5/emFile_1_SPI0.c **** *  None.
 988:.\Generated_Source\PSoC5/emFile_1_SPI0.c **** *
 989:.\Generated_Source\PSoC5/emFile_1_SPI0.c **** * Return:
 990:.\Generated_Source\PSoC5/emFile_1_SPI0.c **** *  None.
 991:.\Generated_Source\PSoC5/emFile_1_SPI0.c **** *
 992:.\Generated_Source\PSoC5/emFile_1_SPI0.c **** * Side Effects:
 993:.\Generated_Source\PSoC5/emFile_1_SPI0.c **** *  Clear status register of the component.
 994:.\Generated_Source\PSoC5/emFile_1_SPI0.c **** *
 995:.\Generated_Source\PSoC5/emFile_1_SPI0.c **** *******************************************************************************/
 996:.\Generated_Source\PSoC5/emFile_1_SPI0.c **** void emFile_1_SPI0_ClearFIFO(void) 
 997:.\Generated_Source\PSoC5/emFile_1_SPI0.c **** {
 536              		.loc 1 997 0
 537              		.cfi_startproc
ARM GAS  C:\Users\acer\AppData\Local\Temp\ccmFwtok.s 			page 28


 538              		@ args = 0, pretend = 0, frame = 0
 539              		@ frame_needed = 0, uses_anonymous_args = 0
 540 0000 08B5     		push	{r3, lr}
 541              		.cfi_def_cfa_offset 8
 542              		.cfi_offset 3, -8
 543              		.cfi_offset 14, -4
 544              	.L56:
 998:.\Generated_Source\PSoC5/emFile_1_SPI0.c ****     uint8 enableInterrupts;
 999:.\Generated_Source\PSoC5/emFile_1_SPI0.c **** 
1000:.\Generated_Source\PSoC5/emFile_1_SPI0.c ****     /* Clear Hardware RX FIFO */
1001:.\Generated_Source\PSoC5/emFile_1_SPI0.c ****     while(0u !=(emFile_1_SPI0_RX_STATUS_REG & emFile_1_SPI0_STS_RX_FIFO_NOT_EMPTY))
 545              		.loc 1 1001 0
 546 0002 0B4B     		ldr	r3, .L59
 547 0004 1B78     		ldrb	r3, [r3]	@ zero_extendqisi2
 548 0006 9B06     		lsls	r3, r3, #26
 549 0008 02D5     		bpl	.L58
1002:.\Generated_Source\PSoC5/emFile_1_SPI0.c ****     {
1003:.\Generated_Source\PSoC5/emFile_1_SPI0.c ****         (void) CY_GET_REG8(emFile_1_SPI0_RXDATA_PTR);
 550              		.loc 1 1003 0
 551 000a 0A4B     		ldr	r3, .L59+4
 552 000c 1B78     		ldrb	r3, [r3]	@ zero_extendqisi2
 553 000e F8E7     		b	.L56
 554              	.L58:
1004:.\Generated_Source\PSoC5/emFile_1_SPI0.c ****     }
1005:.\Generated_Source\PSoC5/emFile_1_SPI0.c **** 
1006:.\Generated_Source\PSoC5/emFile_1_SPI0.c ****     enableInterrupts = CyEnterCriticalSection();
 555              		.loc 1 1006 0
 556 0010 FFF7FEFF 		bl	CyEnterCriticalSection
 557              	.LVL22:
1007:.\Generated_Source\PSoC5/emFile_1_SPI0.c ****     /* Clear TX FIFO */
1008:.\Generated_Source\PSoC5/emFile_1_SPI0.c ****     emFile_1_SPI0_AUX_CONTROL_DP0_REG |= ((uint8)  emFile_1_SPI0_TX_FIFO_CLR);
 558              		.loc 1 1008 0
 559 0014 084B     		ldr	r3, .L59+8
 560 0016 1A78     		ldrb	r2, [r3]	@ zero_extendqisi2
 561 0018 42F00102 		orr	r2, r2, #1
 562 001c 1A70     		strb	r2, [r3]
1009:.\Generated_Source\PSoC5/emFile_1_SPI0.c ****     emFile_1_SPI0_AUX_CONTROL_DP0_REG &= ((uint8) ~emFile_1_SPI0_TX_FIFO_CLR);
 563              		.loc 1 1009 0
 564 001e 1A78     		ldrb	r2, [r3]	@ zero_extendqisi2
 565 0020 02F0FE02 		and	r2, r2, #254
 566 0024 1A70     		strb	r2, [r3]
1010:.\Generated_Source\PSoC5/emFile_1_SPI0.c **** 
1011:.\Generated_Source\PSoC5/emFile_1_SPI0.c ****     #if(emFile_1_SPI0_USE_SECOND_DATAPATH)
1012:.\Generated_Source\PSoC5/emFile_1_SPI0.c ****         /* Clear TX FIFO for 2nd Datapath */
1013:.\Generated_Source\PSoC5/emFile_1_SPI0.c ****         emFile_1_SPI0_AUX_CONTROL_DP1_REG |= ((uint8)  emFile_1_SPI0_TX_FIFO_CLR);
1014:.\Generated_Source\PSoC5/emFile_1_SPI0.c ****         emFile_1_SPI0_AUX_CONTROL_DP1_REG &= ((uint8) ~emFile_1_SPI0_TX_FIFO_CLR);
1015:.\Generated_Source\PSoC5/emFile_1_SPI0.c ****     #endif /* (emFile_1_SPI0_USE_SECOND_DATAPATH) */
1016:.\Generated_Source\PSoC5/emFile_1_SPI0.c ****     CyExitCriticalSection(enableInterrupts);
1017:.\Generated_Source\PSoC5/emFile_1_SPI0.c **** }
 567              		.loc 1 1017 0
 568 0026 BDE80840 		pop	{r3, lr}
 569              		.cfi_restore 14
 570              		.cfi_restore 3
 571              		.cfi_def_cfa_offset 0
1016:.\Generated_Source\PSoC5/emFile_1_SPI0.c **** }
 572              		.loc 1 1016 0
 573 002a FFF7FEBF 		b	CyExitCriticalSection
ARM GAS  C:\Users\acer\AppData\Local\Temp\ccmFwtok.s 			page 29


 574              	.LVL23:
 575              	.L60:
 576 002e 00BF     		.align	2
 577              	.L59:
 578 0030 69640040 		.word	1073767529
 579 0034 58640040 		.word	1073767512
 580 0038 98640040 		.word	1073767576
 581              		.cfi_endproc
 582              	.LFE19:
 583              		.size	emFile_1_SPI0_ClearFIFO, .-emFile_1_SPI0_ClearFIFO
 584              		.section	.text.emFile_1_SPI0_Init,"ax",%progbits
 585              		.align	1
 586              		.global	emFile_1_SPI0_Init
 587              		.thumb
 588              		.thumb_func
 589              		.type	emFile_1_SPI0_Init, %function
 590              	emFile_1_SPI0_Init:
 591              	.LFB0:
  64:.\Generated_Source\PSoC5/emFile_1_SPI0.c ****     /* Initialize the Bit counter */
 592              		.loc 1 64 0
 593              		.cfi_startproc
 594              		@ args = 0, pretend = 0, frame = 0
 595              		@ frame_needed = 0, uses_anonymous_args = 0
 596 0000 08B5     		push	{r3, lr}
 597              		.cfi_def_cfa_offset 8
 598              		.cfi_offset 3, -8
 599              		.cfi_offset 14, -4
  66:.\Generated_Source\PSoC5/emFile_1_SPI0.c **** 
 600              		.loc 1 66 0
 601 0002 074B     		ldr	r3, .L62
 602 0004 0F22     		movs	r2, #15
 603 0006 1A70     		strb	r2, [r3]
  83:.\Generated_Source\PSoC5/emFile_1_SPI0.c **** 
 604              		.loc 1 83 0
 605 0008 FFF7FEFF 		bl	emFile_1_SPI0_ClearFIFO
 606              	.LVL24:
 607              	.LBB22:
 608              	.LBB23:
 401:.\Generated_Source\PSoC5/emFile_1_SPI0.c **** 
 609              		.loc 1 401 0
 610 000c 054B     		ldr	r3, .L62+4
 611              	.LBE23:
 612              	.LBE22:
 101:.\Generated_Source\PSoC5/emFile_1_SPI0.c ****     emFile_1_SPI0_RX_STATUS_MASK_REG = emFile_1_SPI0_RX_INIT_INTERRUPTS_MASK;
 613              		.loc 1 101 0
 614 000e 064A     		ldr	r2, .L62+8
 615              	.LBB25:
 616              	.LBB24:
 401:.\Generated_Source\PSoC5/emFile_1_SPI0.c **** 
 617              		.loc 1 401 0
 618 0010 1B78     		ldrb	r3, [r3]	@ zero_extendqisi2
 619              	.LVL25:
 620              	.LBE24:
 621              	.LBE25:
 622              	.LBB26:
 623              	.LBB27:
 452:.\Generated_Source\PSoC5/emFile_1_SPI0.c **** 
ARM GAS  C:\Users\acer\AppData\Local\Temp\ccmFwtok.s 			page 30


 624              		.loc 1 452 0
 625 0012 064B     		ldr	r3, .L62+12
 626 0014 1B78     		ldrb	r3, [r3]	@ zero_extendqisi2
 627              	.LVL26:
 628              	.LBE27:
 629              	.LBE26:
 101:.\Generated_Source\PSoC5/emFile_1_SPI0.c ****     emFile_1_SPI0_RX_STATUS_MASK_REG = emFile_1_SPI0_RX_INIT_INTERRUPTS_MASK;
 630              		.loc 1 101 0
 631 0016 0023     		movs	r3, #0
 632 0018 1370     		strb	r3, [r2]
 102:.\Generated_Source\PSoC5/emFile_1_SPI0.c **** }
 633              		.loc 1 102 0
 634 001a 02F8023C 		strb	r3, [r2, #-2]
 635 001e 08BD     		pop	{r3, pc}
 636              	.L63:
 637              		.align	2
 638              	.L62:
 639 0020 88640040 		.word	1073767560
 640 0024 6B640040 		.word	1073767531
 641 0028 8B640040 		.word	1073767563
 642 002c 69640040 		.word	1073767529
 643              		.cfi_endproc
 644              	.LFE0:
 645              		.size	emFile_1_SPI0_Init, .-emFile_1_SPI0_Init
 646              		.section	.text.emFile_1_SPI0_Start,"ax",%progbits
 647              		.align	1
 648              		.global	emFile_1_SPI0_Start
 649              		.thumb
 650              		.thumb_func
 651              		.type	emFile_1_SPI0_Start, %function
 652              	emFile_1_SPI0_Start:
 653              	.LFB2:
 164:.\Generated_Source\PSoC5/emFile_1_SPI0.c ****     if(0u == emFile_1_SPI0_initVar)
 654              		.loc 1 164 0
 655              		.cfi_startproc
 656              		@ args = 0, pretend = 0, frame = 0
 657              		@ frame_needed = 0, uses_anonymous_args = 0
 658 0000 10B5     		push	{r4, lr}
 659              		.cfi_def_cfa_offset 8
 660              		.cfi_offset 4, -8
 661              		.cfi_offset 14, -4
 165:.\Generated_Source\PSoC5/emFile_1_SPI0.c ****     {
 662              		.loc 1 165 0
 663 0002 054C     		ldr	r4, .L66
 664 0004 2378     		ldrb	r3, [r4]	@ zero_extendqisi2
 665 0006 1BB9     		cbnz	r3, .L65
 167:.\Generated_Source\PSoC5/emFile_1_SPI0.c ****         emFile_1_SPI0_initVar = 1u;
 666              		.loc 1 167 0
 667 0008 FFF7FEFF 		bl	emFile_1_SPI0_Init
 668              	.LVL27:
 168:.\Generated_Source\PSoC5/emFile_1_SPI0.c ****     }
 669              		.loc 1 168 0
 670 000c 0123     		movs	r3, #1
 671 000e 2370     		strb	r3, [r4]
 672              	.L65:
 172:.\Generated_Source\PSoC5/emFile_1_SPI0.c **** 
 673              		.loc 1 172 0
ARM GAS  C:\Users\acer\AppData\Local\Temp\ccmFwtok.s 			page 31


 674 0010 BDE81040 		pop	{r4, lr}
 675              		.cfi_restore 14
 676              		.cfi_restore 4
 677              		.cfi_def_cfa_offset 0
 171:.\Generated_Source\PSoC5/emFile_1_SPI0.c **** }
 678              		.loc 1 171 0
 679 0014 FFF7FEBF 		b	emFile_1_SPI0_Enable
 680              	.LVL28:
 681              	.L67:
 682              		.align	2
 683              	.L66:
 684 0018 00000000 		.word	.LANCHOR0
 685              		.cfi_endproc
 686              	.LFE2:
 687              		.size	emFile_1_SPI0_Start, .-emFile_1_SPI0_Start
 688              		.section	.text.emFile_1_SPI0_EnableInt,"ax",%progbits
 689              		.align	1
 690              		.global	emFile_1_SPI0_EnableInt
 691              		.thumb
 692              		.thumb_func
 693              		.type	emFile_1_SPI0_EnableInt, %function
 694              	emFile_1_SPI0_EnableInt:
 695              	.LFB20:
1018:.\Generated_Source\PSoC5/emFile_1_SPI0.c **** 
1019:.\Generated_Source\PSoC5/emFile_1_SPI0.c **** 
1020:.\Generated_Source\PSoC5/emFile_1_SPI0.c **** /* Following functions are for version Compatibility, they are obsolete.
1021:.\Generated_Source\PSoC5/emFile_1_SPI0.c **** *  Please do not use it in new projects.
1022:.\Generated_Source\PSoC5/emFile_1_SPI0.c **** */
1023:.\Generated_Source\PSoC5/emFile_1_SPI0.c **** 
1024:.\Generated_Source\PSoC5/emFile_1_SPI0.c **** 
1025:.\Generated_Source\PSoC5/emFile_1_SPI0.c **** /*******************************************************************************
1026:.\Generated_Source\PSoC5/emFile_1_SPI0.c **** * Function Name: emFile_1_SPI0_EnableInt
1027:.\Generated_Source\PSoC5/emFile_1_SPI0.c **** ********************************************************************************
1028:.\Generated_Source\PSoC5/emFile_1_SPI0.c **** *
1029:.\Generated_Source\PSoC5/emFile_1_SPI0.c **** * Summary:
1030:.\Generated_Source\PSoC5/emFile_1_SPI0.c **** *  Enable internal interrupt generation.
1031:.\Generated_Source\PSoC5/emFile_1_SPI0.c **** *
1032:.\Generated_Source\PSoC5/emFile_1_SPI0.c **** * Parameters:
1033:.\Generated_Source\PSoC5/emFile_1_SPI0.c **** *  None.
1034:.\Generated_Source\PSoC5/emFile_1_SPI0.c **** *
1035:.\Generated_Source\PSoC5/emFile_1_SPI0.c **** * Return:
1036:.\Generated_Source\PSoC5/emFile_1_SPI0.c **** *  None.
1037:.\Generated_Source\PSoC5/emFile_1_SPI0.c **** *
1038:.\Generated_Source\PSoC5/emFile_1_SPI0.c **** * Theory:
1039:.\Generated_Source\PSoC5/emFile_1_SPI0.c **** *  Enable the internal interrupt output -or- the interrupt component itself.
1040:.\Generated_Source\PSoC5/emFile_1_SPI0.c **** *
1041:.\Generated_Source\PSoC5/emFile_1_SPI0.c **** *******************************************************************************/
1042:.\Generated_Source\PSoC5/emFile_1_SPI0.c **** void emFile_1_SPI0_EnableInt(void) 
1043:.\Generated_Source\PSoC5/emFile_1_SPI0.c **** {
 696              		.loc 1 1043 0
 697              		.cfi_startproc
 698              		@ args = 0, pretend = 0, frame = 0
 699              		@ frame_needed = 0, uses_anonymous_args = 0
 700              		@ link register save eliminated.
 701 0000 7047     		bx	lr
 702              		.cfi_endproc
 703              	.LFE20:
ARM GAS  C:\Users\acer\AppData\Local\Temp\ccmFwtok.s 			page 32


 704              		.size	emFile_1_SPI0_EnableInt, .-emFile_1_SPI0_EnableInt
 705              		.section	.text.emFile_1_SPI0_DisableInt,"ax",%progbits
 706              		.align	1
 707              		.global	emFile_1_SPI0_DisableInt
 708              		.thumb
 709              		.thumb_func
 710              		.type	emFile_1_SPI0_DisableInt, %function
 711              	emFile_1_SPI0_DisableInt:
 712              	.LFB21:
1044:.\Generated_Source\PSoC5/emFile_1_SPI0.c ****     emFile_1_SPI0_EnableRxInt();
1045:.\Generated_Source\PSoC5/emFile_1_SPI0.c ****     emFile_1_SPI0_EnableTxInt();
1046:.\Generated_Source\PSoC5/emFile_1_SPI0.c **** }
1047:.\Generated_Source\PSoC5/emFile_1_SPI0.c **** 
1048:.\Generated_Source\PSoC5/emFile_1_SPI0.c **** 
1049:.\Generated_Source\PSoC5/emFile_1_SPI0.c **** /*******************************************************************************
1050:.\Generated_Source\PSoC5/emFile_1_SPI0.c **** * Function Name: emFile_1_SPI0_DisableInt
1051:.\Generated_Source\PSoC5/emFile_1_SPI0.c **** ********************************************************************************
1052:.\Generated_Source\PSoC5/emFile_1_SPI0.c **** *
1053:.\Generated_Source\PSoC5/emFile_1_SPI0.c **** * Summary:
1054:.\Generated_Source\PSoC5/emFile_1_SPI0.c **** *  Disable internal interrupt generation.
1055:.\Generated_Source\PSoC5/emFile_1_SPI0.c **** *
1056:.\Generated_Source\PSoC5/emFile_1_SPI0.c **** * Parameters:
1057:.\Generated_Source\PSoC5/emFile_1_SPI0.c **** *  None.
1058:.\Generated_Source\PSoC5/emFile_1_SPI0.c **** *
1059:.\Generated_Source\PSoC5/emFile_1_SPI0.c **** * Return:
1060:.\Generated_Source\PSoC5/emFile_1_SPI0.c **** *  None.
1061:.\Generated_Source\PSoC5/emFile_1_SPI0.c **** *
1062:.\Generated_Source\PSoC5/emFile_1_SPI0.c **** * Theory:
1063:.\Generated_Source\PSoC5/emFile_1_SPI0.c **** *  Disable the internal interrupt output -or- the interrupt component itself.
1064:.\Generated_Source\PSoC5/emFile_1_SPI0.c **** *
1065:.\Generated_Source\PSoC5/emFile_1_SPI0.c **** *******************************************************************************/
1066:.\Generated_Source\PSoC5/emFile_1_SPI0.c **** void emFile_1_SPI0_DisableInt(void) 
1067:.\Generated_Source\PSoC5/emFile_1_SPI0.c **** {
 713              		.loc 1 1067 0
 714              		.cfi_startproc
 715              		@ args = 0, pretend = 0, frame = 0
 716              		@ frame_needed = 0, uses_anonymous_args = 0
 717              		@ link register save eliminated.
 718 0000 7047     		bx	lr
 719              		.cfi_endproc
 720              	.LFE21:
 721              		.size	emFile_1_SPI0_DisableInt, .-emFile_1_SPI0_DisableInt
 722              		.section	.text.emFile_1_SPI0_SetInterruptMode,"ax",%progbits
 723              		.align	1
 724              		.global	emFile_1_SPI0_SetInterruptMode
 725              		.thumb
 726              		.thumb_func
 727              		.type	emFile_1_SPI0_SetInterruptMode, %function
 728              	emFile_1_SPI0_SetInterruptMode:
 729              	.LFB22:
1068:.\Generated_Source\PSoC5/emFile_1_SPI0.c ****     emFile_1_SPI0_DisableTxInt();
1069:.\Generated_Source\PSoC5/emFile_1_SPI0.c ****     emFile_1_SPI0_DisableRxInt();
1070:.\Generated_Source\PSoC5/emFile_1_SPI0.c **** }
1071:.\Generated_Source\PSoC5/emFile_1_SPI0.c **** 
1072:.\Generated_Source\PSoC5/emFile_1_SPI0.c **** 
1073:.\Generated_Source\PSoC5/emFile_1_SPI0.c **** /*******************************************************************************
1074:.\Generated_Source\PSoC5/emFile_1_SPI0.c **** * Function Name: emFile_1_SPI0_SetInterruptMode
ARM GAS  C:\Users\acer\AppData\Local\Temp\ccmFwtok.s 			page 33


1075:.\Generated_Source\PSoC5/emFile_1_SPI0.c **** ********************************************************************************
1076:.\Generated_Source\PSoC5/emFile_1_SPI0.c **** *
1077:.\Generated_Source\PSoC5/emFile_1_SPI0.c **** * Summary:
1078:.\Generated_Source\PSoC5/emFile_1_SPI0.c **** *  Configure which status bits trigger an interrupt event.
1079:.\Generated_Source\PSoC5/emFile_1_SPI0.c **** *
1080:.\Generated_Source\PSoC5/emFile_1_SPI0.c **** * Parameters:
1081:.\Generated_Source\PSoC5/emFile_1_SPI0.c **** *  intSrc: An or'd combination of the desired status bit masks (defined in the
1082:.\Generated_Source\PSoC5/emFile_1_SPI0.c **** *  header file).
1083:.\Generated_Source\PSoC5/emFile_1_SPI0.c **** *
1084:.\Generated_Source\PSoC5/emFile_1_SPI0.c **** * Return:
1085:.\Generated_Source\PSoC5/emFile_1_SPI0.c **** *  None.
1086:.\Generated_Source\PSoC5/emFile_1_SPI0.c **** *
1087:.\Generated_Source\PSoC5/emFile_1_SPI0.c **** * Theory:
1088:.\Generated_Source\PSoC5/emFile_1_SPI0.c **** *  Enables the output of specific status bits to the interrupt controller.
1089:.\Generated_Source\PSoC5/emFile_1_SPI0.c **** *
1090:.\Generated_Source\PSoC5/emFile_1_SPI0.c **** *******************************************************************************/
1091:.\Generated_Source\PSoC5/emFile_1_SPI0.c **** void emFile_1_SPI0_SetInterruptMode(uint8 intSrc) 
1092:.\Generated_Source\PSoC5/emFile_1_SPI0.c **** {
 730              		.loc 1 1092 0
 731              		.cfi_startproc
 732              		@ args = 0, pretend = 0, frame = 0
 733              		@ frame_needed = 0, uses_anonymous_args = 0
 734              		@ link register save eliminated.
 735              	.LVL29:
1093:.\Generated_Source\PSoC5/emFile_1_SPI0.c ****     emFile_1_SPI0_TX_STATUS_MASK_REG  = (intSrc & ((uint8) ~emFile_1_SPI0_STS_SPI_IDLE));
 736              		.loc 1 1093 0
 737 0000 034B     		ldr	r3, .L71
 738 0002 00F0EF02 		and	r2, r0, #239
 739 0006 1A70     		strb	r2, [r3]
1094:.\Generated_Source\PSoC5/emFile_1_SPI0.c ****     emFile_1_SPI0_RX_STATUS_MASK_REG  =  intSrc;
 740              		.loc 1 1094 0
 741 0008 03F8020C 		strb	r0, [r3, #-2]
 742 000c 7047     		bx	lr
 743              	.L72:
 744 000e 00BF     		.align	2
 745              	.L71:
 746 0010 8B640040 		.word	1073767563
 747              		.cfi_endproc
 748              	.LFE22:
 749              		.size	emFile_1_SPI0_SetInterruptMode, .-emFile_1_SPI0_SetInterruptMode
 750              		.section	.text.emFile_1_SPI0_ReadStatus,"ax",%progbits
 751              		.align	1
 752              		.global	emFile_1_SPI0_ReadStatus
 753              		.thumb
 754              		.thumb_func
 755              		.type	emFile_1_SPI0_ReadStatus, %function
 756              	emFile_1_SPI0_ReadStatus:
 757              	.LFB23:
1095:.\Generated_Source\PSoC5/emFile_1_SPI0.c **** }
1096:.\Generated_Source\PSoC5/emFile_1_SPI0.c **** 
1097:.\Generated_Source\PSoC5/emFile_1_SPI0.c **** 
1098:.\Generated_Source\PSoC5/emFile_1_SPI0.c **** /*******************************************************************************
1099:.\Generated_Source\PSoC5/emFile_1_SPI0.c **** * Function Name: emFile_1_SPI0_ReadStatus
1100:.\Generated_Source\PSoC5/emFile_1_SPI0.c **** ********************************************************************************
1101:.\Generated_Source\PSoC5/emFile_1_SPI0.c **** *
1102:.\Generated_Source\PSoC5/emFile_1_SPI0.c **** * Summary:
1103:.\Generated_Source\PSoC5/emFile_1_SPI0.c **** *  Read the status register for the component.
ARM GAS  C:\Users\acer\AppData\Local\Temp\ccmFwtok.s 			page 34


1104:.\Generated_Source\PSoC5/emFile_1_SPI0.c **** *
1105:.\Generated_Source\PSoC5/emFile_1_SPI0.c **** * Parameters:
1106:.\Generated_Source\PSoC5/emFile_1_SPI0.c **** *  None.
1107:.\Generated_Source\PSoC5/emFile_1_SPI0.c **** *
1108:.\Generated_Source\PSoC5/emFile_1_SPI0.c **** * Return:
1109:.\Generated_Source\PSoC5/emFile_1_SPI0.c **** *  Contents of the status register.
1110:.\Generated_Source\PSoC5/emFile_1_SPI0.c **** *
1111:.\Generated_Source\PSoC5/emFile_1_SPI0.c **** * Global variables:
1112:.\Generated_Source\PSoC5/emFile_1_SPI0.c **** *  emFile_1_SPI0_swStatus - used to store in software status register,
1113:.\Generated_Source\PSoC5/emFile_1_SPI0.c **** *  modified every function call - resets to zero.
1114:.\Generated_Source\PSoC5/emFile_1_SPI0.c **** *
1115:.\Generated_Source\PSoC5/emFile_1_SPI0.c **** * Theory:
1116:.\Generated_Source\PSoC5/emFile_1_SPI0.c **** *  Allows the user and the API to read the status register for error detection
1117:.\Generated_Source\PSoC5/emFile_1_SPI0.c **** *  and flow control.
1118:.\Generated_Source\PSoC5/emFile_1_SPI0.c **** *
1119:.\Generated_Source\PSoC5/emFile_1_SPI0.c **** * Side Effects:
1120:.\Generated_Source\PSoC5/emFile_1_SPI0.c **** *  Clear status register of the component.
1121:.\Generated_Source\PSoC5/emFile_1_SPI0.c **** *
1122:.\Generated_Source\PSoC5/emFile_1_SPI0.c **** * Reentrant:
1123:.\Generated_Source\PSoC5/emFile_1_SPI0.c **** *  No.
1124:.\Generated_Source\PSoC5/emFile_1_SPI0.c **** *
1125:.\Generated_Source\PSoC5/emFile_1_SPI0.c **** *******************************************************************************/
1126:.\Generated_Source\PSoC5/emFile_1_SPI0.c **** uint8 emFile_1_SPI0_ReadStatus(void) 
1127:.\Generated_Source\PSoC5/emFile_1_SPI0.c **** {
 758              		.loc 1 1127 0
 759              		.cfi_startproc
 760              		@ args = 0, pretend = 0, frame = 0
 761              		@ frame_needed = 0, uses_anonymous_args = 0
 762              		@ link register save eliminated.
1128:.\Generated_Source\PSoC5/emFile_1_SPI0.c ****     uint8 tmpStatus;
1129:.\Generated_Source\PSoC5/emFile_1_SPI0.c **** 
1130:.\Generated_Source\PSoC5/emFile_1_SPI0.c ****     #if(emFile_1_SPI0_TX_SOFTWARE_BUF_ENABLED || emFile_1_SPI0_RX_SOFTWARE_BUF_ENABLED)
1131:.\Generated_Source\PSoC5/emFile_1_SPI0.c **** 
1132:.\Generated_Source\PSoC5/emFile_1_SPI0.c ****         emFile_1_SPI0_DisableInt();
1133:.\Generated_Source\PSoC5/emFile_1_SPI0.c **** 
1134:.\Generated_Source\PSoC5/emFile_1_SPI0.c ****         tmpStatus  = emFile_1_SPI0_GET_STATUS_RX(emFile_1_SPI0_swStatusRx);
1135:.\Generated_Source\PSoC5/emFile_1_SPI0.c ****         tmpStatus |= emFile_1_SPI0_GET_STATUS_TX(emFile_1_SPI0_swStatusTx);
1136:.\Generated_Source\PSoC5/emFile_1_SPI0.c ****         tmpStatus &= ((uint8) ~emFile_1_SPI0_STS_SPI_IDLE);
1137:.\Generated_Source\PSoC5/emFile_1_SPI0.c **** 
1138:.\Generated_Source\PSoC5/emFile_1_SPI0.c ****         emFile_1_SPI0_swStatusTx = 0u;
1139:.\Generated_Source\PSoC5/emFile_1_SPI0.c ****         emFile_1_SPI0_swStatusRx = 0u;
1140:.\Generated_Source\PSoC5/emFile_1_SPI0.c **** 
1141:.\Generated_Source\PSoC5/emFile_1_SPI0.c ****         emFile_1_SPI0_EnableInt();
1142:.\Generated_Source\PSoC5/emFile_1_SPI0.c **** 
1143:.\Generated_Source\PSoC5/emFile_1_SPI0.c ****     #else
1144:.\Generated_Source\PSoC5/emFile_1_SPI0.c **** 
1145:.\Generated_Source\PSoC5/emFile_1_SPI0.c ****         tmpStatus  = emFile_1_SPI0_RX_STATUS_REG;
1146:.\Generated_Source\PSoC5/emFile_1_SPI0.c ****         tmpStatus |= emFile_1_SPI0_TX_STATUS_REG;
 763              		.loc 1 1146 0
 764 0000 034A     		ldr	r2, .L74
1145:.\Generated_Source\PSoC5/emFile_1_SPI0.c ****         tmpStatus |= emFile_1_SPI0_TX_STATUS_REG;
 765              		.loc 1 1145 0
 766 0002 044B     		ldr	r3, .L74+4
 767 0004 1B78     		ldrb	r3, [r3]	@ zero_extendqisi2
 768              	.LVL30:
 769              		.loc 1 1146 0
 770 0006 1078     		ldrb	r0, [r2]	@ zero_extendqisi2
ARM GAS  C:\Users\acer\AppData\Local\Temp\ccmFwtok.s 			page 35


 771 0008 1843     		orrs	r0, r0, r3
 772              	.LVL31:
1147:.\Generated_Source\PSoC5/emFile_1_SPI0.c ****         tmpStatus &= ((uint8) ~emFile_1_SPI0_STS_SPI_IDLE);
1148:.\Generated_Source\PSoC5/emFile_1_SPI0.c **** 
1149:.\Generated_Source\PSoC5/emFile_1_SPI0.c ****     #endif /* (emFile_1_SPI0_TX_SOFTWARE_BUF_ENABLED || emFile_1_SPI0_RX_SOFTWARE_BUF_ENABLED) */
1150:.\Generated_Source\PSoC5/emFile_1_SPI0.c **** 
1151:.\Generated_Source\PSoC5/emFile_1_SPI0.c ****     return(tmpStatus);
1152:.\Generated_Source\PSoC5/emFile_1_SPI0.c **** }
 773              		.loc 1 1152 0
 774 000a 00F0EF00 		and	r0, r0, #239
 775              	.LVL32:
 776 000e 7047     		bx	lr
 777              	.L75:
 778              		.align	2
 779              	.L74:
 780 0010 6B640040 		.word	1073767531
 781 0014 69640040 		.word	1073767529
 782              		.cfi_endproc
 783              	.LFE23:
 784              		.size	emFile_1_SPI0_ReadStatus, .-emFile_1_SPI0_ReadStatus
 785              		.comm	emFile_1_SPI0_swStatusRx,1,1
 786              		.comm	emFile_1_SPI0_swStatusTx,1,1
 787              		.global	emFile_1_SPI0_initVar
 788              		.bss
 789              		.set	.LANCHOR0,. + 0
 790              		.type	emFile_1_SPI0_initVar, %object
 791              		.size	emFile_1_SPI0_initVar, 1
 792              	emFile_1_SPI0_initVar:
 793 0000 00       		.space	1
 794              		.text
 795              	.Letext0:
 796              		.file 2 ".\\Generated_Source\\PSoC5\\cytypes.h"
 797              		.file 3 ".\\Generated_Source\\PSoC5\\CyLib.h"