ARM GAS  C:\Users\acer\AppData\Local\Temp\ccJ7mpj2.s 			page 1


   1              		.syntax unified
   2              		.cpu cortex-m3
   3              		.fpu softvfp
   4              		.eabi_attribute 20, 1
   5              		.eabi_attribute 21, 1
   6              		.eabi_attribute 23, 3
   7              		.eabi_attribute 24, 1
   8              		.eabi_attribute 25, 1
   9              		.eabi_attribute 26, 1
  10              		.eabi_attribute 30, 4
  11              		.eabi_attribute 34, 1
  12              		.eabi_attribute 18, 4
  13              		.thumb
  14              		.file	"I2C_1_MASTER.c"
  15              		.text
  16              	.Ltext0:
  17              		.cfi_sections	.debug_frame
  18              		.section	.text.I2C_1_MasterWriteBuf,"ax",%progbits
  19              		.align	1
  20              		.global	I2C_1_MasterWriteBuf
  21              		.thumb
  22              		.thumb_func
  23              		.type	I2C_1_MasterWriteBuf, %function
  24              	I2C_1_MasterWriteBuf:
  25              	.LFB0:
  26              		.file 1 ".\\Generated_Source\\PSoC5\\I2C_1_MASTER.c"
   1:.\Generated_Source\PSoC5/I2C_1_MASTER.c **** /*******************************************************************************
   2:.\Generated_Source\PSoC5/I2C_1_MASTER.c **** * File Name: I2C_1_MASTER.c
   3:.\Generated_Source\PSoC5/I2C_1_MASTER.c **** * Version 3.50
   4:.\Generated_Source\PSoC5/I2C_1_MASTER.c **** *
   5:.\Generated_Source\PSoC5/I2C_1_MASTER.c **** * Description:
   6:.\Generated_Source\PSoC5/I2C_1_MASTER.c **** *  This file provides the source code of APIs for the I2C component master mode.
   7:.\Generated_Source\PSoC5/I2C_1_MASTER.c **** *
   8:.\Generated_Source\PSoC5/I2C_1_MASTER.c **** *******************************************************************************
   9:.\Generated_Source\PSoC5/I2C_1_MASTER.c **** * Copyright 2012-2015, Cypress Semiconductor Corporation. All rights reserved.
  10:.\Generated_Source\PSoC5/I2C_1_MASTER.c **** * You may use this file only in accordance with the license, terms, conditions,
  11:.\Generated_Source\PSoC5/I2C_1_MASTER.c **** * disclaimers, and limitations in the end user license agreement accompanying
  12:.\Generated_Source\PSoC5/I2C_1_MASTER.c **** * the software package with which this file was provided.
  13:.\Generated_Source\PSoC5/I2C_1_MASTER.c **** *******************************************************************************/
  14:.\Generated_Source\PSoC5/I2C_1_MASTER.c **** 
  15:.\Generated_Source\PSoC5/I2C_1_MASTER.c **** #include "I2C_1_PVT.h"
  16:.\Generated_Source\PSoC5/I2C_1_MASTER.c **** 
  17:.\Generated_Source\PSoC5/I2C_1_MASTER.c **** #if(I2C_1_MODE_MASTER_ENABLED)
  18:.\Generated_Source\PSoC5/I2C_1_MASTER.c **** 
  19:.\Generated_Source\PSoC5/I2C_1_MASTER.c **** /**********************************
  20:.\Generated_Source\PSoC5/I2C_1_MASTER.c **** *      System variables
  21:.\Generated_Source\PSoC5/I2C_1_MASTER.c **** **********************************/
  22:.\Generated_Source\PSoC5/I2C_1_MASTER.c **** 
  23:.\Generated_Source\PSoC5/I2C_1_MASTER.c **** volatile uint8 I2C_1_mstrStatus;     /* Master Status byte  */
  24:.\Generated_Source\PSoC5/I2C_1_MASTER.c **** volatile uint8 I2C_1_mstrControl;    /* Master Control byte */
  25:.\Generated_Source\PSoC5/I2C_1_MASTER.c **** 
  26:.\Generated_Source\PSoC5/I2C_1_MASTER.c **** /* Transmit buffer variables */
  27:.\Generated_Source\PSoC5/I2C_1_MASTER.c **** volatile uint8 * I2C_1_mstrRdBufPtr;     /* Pointer to Master Read buffer */
  28:.\Generated_Source\PSoC5/I2C_1_MASTER.c **** volatile uint8   I2C_1_mstrRdBufSize;    /* Master Read buffer size       */
  29:.\Generated_Source\PSoC5/I2C_1_MASTER.c **** volatile uint8   I2C_1_mstrRdBufIndex;   /* Master Read buffer Index      */
  30:.\Generated_Source\PSoC5/I2C_1_MASTER.c **** 
  31:.\Generated_Source\PSoC5/I2C_1_MASTER.c **** /* Receive buffer variables */
ARM GAS  C:\Users\acer\AppData\Local\Temp\ccJ7mpj2.s 			page 2


  32:.\Generated_Source\PSoC5/I2C_1_MASTER.c **** volatile uint8 * I2C_1_mstrWrBufPtr;     /* Pointer to Master Write buffer */
  33:.\Generated_Source\PSoC5/I2C_1_MASTER.c **** volatile uint8   I2C_1_mstrWrBufSize;    /* Master Write buffer size       */
  34:.\Generated_Source\PSoC5/I2C_1_MASTER.c **** volatile uint8   I2C_1_mstrWrBufIndex;   /* Master Write buffer Index      */
  35:.\Generated_Source\PSoC5/I2C_1_MASTER.c **** 
  36:.\Generated_Source\PSoC5/I2C_1_MASTER.c **** 
  37:.\Generated_Source\PSoC5/I2C_1_MASTER.c **** /*******************************************************************************
  38:.\Generated_Source\PSoC5/I2C_1_MASTER.c **** * Function Name: I2C_1_MasterWriteBuf
  39:.\Generated_Source\PSoC5/I2C_1_MASTER.c **** ********************************************************************************
  40:.\Generated_Source\PSoC5/I2C_1_MASTER.c **** *
  41:.\Generated_Source\PSoC5/I2C_1_MASTER.c **** * Summary:
  42:.\Generated_Source\PSoC5/I2C_1_MASTER.c **** *  Automatically writes an entire buffer of data to a slave device. Once the
  43:.\Generated_Source\PSoC5/I2C_1_MASTER.c **** *  data transfer is initiated by this function, further data transfer is handled
  44:.\Generated_Source\PSoC5/I2C_1_MASTER.c **** *  by the included ISR in byte by byte mode.
  45:.\Generated_Source\PSoC5/I2C_1_MASTER.c **** *
  46:.\Generated_Source\PSoC5/I2C_1_MASTER.c **** * Parameters:
  47:.\Generated_Source\PSoC5/I2C_1_MASTER.c **** *  slaveAddr: 7-bit slave address.
  48:.\Generated_Source\PSoC5/I2C_1_MASTER.c **** *  xferData:  Pointer to buffer of data to be sent.
  49:.\Generated_Source\PSoC5/I2C_1_MASTER.c **** *  cnt:       Size of buffer to send.
  50:.\Generated_Source\PSoC5/I2C_1_MASTER.c **** *  mode:      Transfer mode defines: start or restart condition generation at
  51:.\Generated_Source\PSoC5/I2C_1_MASTER.c **** *             begin of the transfer and complete the transfer or halt before
  52:.\Generated_Source\PSoC5/I2C_1_MASTER.c **** *             generating a stop.
  53:.\Generated_Source\PSoC5/I2C_1_MASTER.c **** *
  54:.\Generated_Source\PSoC5/I2C_1_MASTER.c **** * Return:
  55:.\Generated_Source\PSoC5/I2C_1_MASTER.c **** *  Status error - Zero means no errors.
  56:.\Generated_Source\PSoC5/I2C_1_MASTER.c **** *
  57:.\Generated_Source\PSoC5/I2C_1_MASTER.c **** * Side Effects:
  58:.\Generated_Source\PSoC5/I2C_1_MASTER.c **** *  The included ISR will start a transfer after a start or restart condition is
  59:.\Generated_Source\PSoC5/I2C_1_MASTER.c **** *  generated.
  60:.\Generated_Source\PSoC5/I2C_1_MASTER.c **** *
  61:.\Generated_Source\PSoC5/I2C_1_MASTER.c **** * Global variables:
  62:.\Generated_Source\PSoC5/I2C_1_MASTER.c **** *  I2C_1_mstrStatus  - The global variable used to store a current
  63:.\Generated_Source\PSoC5/I2C_1_MASTER.c **** *                                 status of the I2C Master.
  64:.\Generated_Source\PSoC5/I2C_1_MASTER.c **** *  I2C_1_state       - The global variable used to store a current
  65:.\Generated_Source\PSoC5/I2C_1_MASTER.c **** *                                 state of the software FSM.
  66:.\Generated_Source\PSoC5/I2C_1_MASTER.c **** *  I2C_1_mstrControl - The global variable used to control the master
  67:.\Generated_Source\PSoC5/I2C_1_MASTER.c **** *                                 end of a transaction with or without Stop
  68:.\Generated_Source\PSoC5/I2C_1_MASTER.c **** *                                 generation.
  69:.\Generated_Source\PSoC5/I2C_1_MASTER.c **** *  I2C_1_mstrWrBufPtr - The global variable used to store a pointer
  70:.\Generated_Source\PSoC5/I2C_1_MASTER.c **** *                                  to the master write buffer.
  71:.\Generated_Source\PSoC5/I2C_1_MASTER.c **** *  I2C_1_mstrWrBufIndex - The global variable used to store current
  72:.\Generated_Source\PSoC5/I2C_1_MASTER.c **** *                                    index within the master write buffer.
  73:.\Generated_Source\PSoC5/I2C_1_MASTER.c **** *  I2C_1_mstrWrBufSize - The global variable used to store a master
  74:.\Generated_Source\PSoC5/I2C_1_MASTER.c **** *                                   write buffer size.
  75:.\Generated_Source\PSoC5/I2C_1_MASTER.c **** *
  76:.\Generated_Source\PSoC5/I2C_1_MASTER.c **** * Reentrant:
  77:.\Generated_Source\PSoC5/I2C_1_MASTER.c **** *  No
  78:.\Generated_Source\PSoC5/I2C_1_MASTER.c **** *
  79:.\Generated_Source\PSoC5/I2C_1_MASTER.c **** *******************************************************************************/
  80:.\Generated_Source\PSoC5/I2C_1_MASTER.c **** uint8 I2C_1_MasterWriteBuf(uint8 slaveAddress, uint8 * wrData, uint8 cnt, uint8 mode)
  81:.\Generated_Source\PSoC5/I2C_1_MASTER.c ****       
  82:.\Generated_Source\PSoC5/I2C_1_MASTER.c **** {
  27              		.loc 1 82 0
  28              		.cfi_startproc
  29              		@ args = 0, pretend = 0, frame = 0
  30              		@ frame_needed = 0, uses_anonymous_args = 0
  31              	.LVL0:
  32 0000 70B5     		push	{r4, r5, r6, lr}
ARM GAS  C:\Users\acer\AppData\Local\Temp\ccJ7mpj2.s 			page 3


  33              		.cfi_def_cfa_offset 16
  34              		.cfi_offset 4, -16
  35              		.cfi_offset 5, -12
  36              		.cfi_offset 6, -8
  37              		.cfi_offset 14, -4
  83:.\Generated_Source\PSoC5/I2C_1_MASTER.c ****     uint8 errStatus;
  84:.\Generated_Source\PSoC5/I2C_1_MASTER.c **** 
  85:.\Generated_Source\PSoC5/I2C_1_MASTER.c ****     errStatus = I2C_1_MSTR_NOT_READY;
  86:.\Generated_Source\PSoC5/I2C_1_MASTER.c **** 
  87:.\Generated_Source\PSoC5/I2C_1_MASTER.c ****     if(NULL != wrData)
  38              		.loc 1 87 0
  39 0002 B1B1     		cbz	r1, .L10
  88:.\Generated_Source\PSoC5/I2C_1_MASTER.c ****     {
  89:.\Generated_Source\PSoC5/I2C_1_MASTER.c ****         /* Check I2C state to allow transfer: valid states are IDLE or HALT */
  90:.\Generated_Source\PSoC5/I2C_1_MASTER.c ****         if(I2C_1_SM_IDLE == I2C_1_state)
  40              		.loc 1 90 0
  41 0004 1E4C     		ldr	r4, .L19
  42 0006 2578     		ldrb	r5, [r4]	@ zero_extendqisi2
  43 0008 102D     		cmp	r5, #16
  44 000a 05D1     		bne	.L3
  91:.\Generated_Source\PSoC5/I2C_1_MASTER.c ****         {
  92:.\Generated_Source\PSoC5/I2C_1_MASTER.c ****             /* Master is ready for transaction: check if bus is free */
  93:.\Generated_Source\PSoC5/I2C_1_MASTER.c ****             if(I2C_1_CHECK_BUS_FREE(I2C_1_MCSR_REG))
  45              		.loc 1 93 0
  46 000c 1D4D     		ldr	r5, .L19+4
  47 000e 2D78     		ldrb	r5, [r5]	@ zero_extendqisi2
  48 0010 2D07     		lsls	r5, r5, #28
  49 0012 10D5     		bpl	.L4
  94:.\Generated_Source\PSoC5/I2C_1_MASTER.c ****             {
  95:.\Generated_Source\PSoC5/I2C_1_MASTER.c ****                 errStatus = I2C_1_MSTR_NO_ERROR;
  96:.\Generated_Source\PSoC5/I2C_1_MASTER.c ****             }
  97:.\Generated_Source\PSoC5/I2C_1_MASTER.c ****             else
  98:.\Generated_Source\PSoC5/I2C_1_MASTER.c ****             {
  99:.\Generated_Source\PSoC5/I2C_1_MASTER.c ****                 errStatus = I2C_1_MSTR_BUS_BUSY;
  50              		.loc 1 99 0
  51 0014 0120     		movs	r0, #1
  52              	.LVL1:
  53 0016 70BD     		pop	{r4, r5, r6, pc}
  54              	.LVL2:
  55              	.L3:
 100:.\Generated_Source\PSoC5/I2C_1_MASTER.c ****             }
 101:.\Generated_Source\PSoC5/I2C_1_MASTER.c ****         }
 102:.\Generated_Source\PSoC5/I2C_1_MASTER.c ****         else if(I2C_1_SM_MSTR_HALT == I2C_1_state)
  56              		.loc 1 102 0
  57 0018 2578     		ldrb	r5, [r4]	@ zero_extendqisi2
  58 001a 602D     		cmp	r5, #96
  59 001c 09D1     		bne	.L10
  60              	.LVL3:
 103:.\Generated_Source\PSoC5/I2C_1_MASTER.c ****         {
 104:.\Generated_Source\PSoC5/I2C_1_MASTER.c ****             /* Master is ready and waiting for ReStart */
 105:.\Generated_Source\PSoC5/I2C_1_MASTER.c ****             errStatus = I2C_1_MSTR_NO_ERROR;
 106:.\Generated_Source\PSoC5/I2C_1_MASTER.c **** 
 107:.\Generated_Source\PSoC5/I2C_1_MASTER.c ****             I2C_1_ClearPendingInt();
  61              		.loc 1 107 0
  62 001e 1A4D     		ldr	r5, .L19+8
  63 0020 4FF40046 		mov	r6, #32768
  64 0024 2E60     		str	r6, [r5]
ARM GAS  C:\Users\acer\AppData\Local\Temp\ccJ7mpj2.s 			page 4


 108:.\Generated_Source\PSoC5/I2C_1_MASTER.c ****             I2C_1_mstrStatus &= (uint8) ~I2C_1_MSTAT_XFER_HALT;
  65              		.loc 1 108 0
  66 0026 194E     		ldr	r6, .L19+12
  67 0028 3578     		ldrb	r5, [r6]	@ zero_extendqisi2
  68 002a 05F0F705 		and	r5, r5, #247
  69 002e 3570     		strb	r5, [r6]
  70 0030 01E0     		b	.L4
  71              	.LVL4:
  72              	.L10:
  85:.\Generated_Source\PSoC5/I2C_1_MASTER.c **** 
  73              		.loc 1 85 0
  74 0032 0220     		movs	r0, #2
  75              	.LVL5:
  76 0034 70BD     		pop	{r4, r5, r6, pc}
  77              	.LVL6:
  78              	.L4:
 109:.\Generated_Source\PSoC5/I2C_1_MASTER.c ****         }
 110:.\Generated_Source\PSoC5/I2C_1_MASTER.c ****         else
 111:.\Generated_Source\PSoC5/I2C_1_MASTER.c ****         {
 112:.\Generated_Source\PSoC5/I2C_1_MASTER.c ****             /* errStatus = I2C_1_MSTR_NOT_READY was send before */
 113:.\Generated_Source\PSoC5/I2C_1_MASTER.c ****         }
 114:.\Generated_Source\PSoC5/I2C_1_MASTER.c **** 
 115:.\Generated_Source\PSoC5/I2C_1_MASTER.c ****         if(I2C_1_MSTR_NO_ERROR == errStatus)
 116:.\Generated_Source\PSoC5/I2C_1_MASTER.c ****         {
 117:.\Generated_Source\PSoC5/I2C_1_MASTER.c ****             /* Set state to start write transaction */
 118:.\Generated_Source\PSoC5/I2C_1_MASTER.c ****             I2C_1_state = I2C_1_SM_MSTR_WR_ADDR;
  79              		.loc 1 118 0
  80 0036 4525     		movs	r5, #69
  81 0038 2570     		strb	r5, [r4]
 119:.\Generated_Source\PSoC5/I2C_1_MASTER.c **** 
 120:.\Generated_Source\PSoC5/I2C_1_MASTER.c ****             /* Prepare write buffer */
 121:.\Generated_Source\PSoC5/I2C_1_MASTER.c ****             I2C_1_mstrWrBufIndex = 0u;
  82              		.loc 1 121 0
  83 003a 154C     		ldr	r4, .L19+16
  84 003c 0025     		movs	r5, #0
  85 003e 2570     		strb	r5, [r4]
 122:.\Generated_Source\PSoC5/I2C_1_MASTER.c ****             I2C_1_mstrWrBufSize  = cnt;
  86              		.loc 1 122 0
  87 0040 144C     		ldr	r4, .L19+20
 123:.\Generated_Source\PSoC5/I2C_1_MASTER.c ****             I2C_1_mstrWrBufPtr   = (volatile uint8 *) wrData;
 124:.\Generated_Source\PSoC5/I2C_1_MASTER.c **** 
 125:.\Generated_Source\PSoC5/I2C_1_MASTER.c ****             /* Set end of transaction flag: Stop or Halt (following ReStart) */
 126:.\Generated_Source\PSoC5/I2C_1_MASTER.c ****             I2C_1_mstrControl = mode;
 127:.\Generated_Source\PSoC5/I2C_1_MASTER.c **** 
 128:.\Generated_Source\PSoC5/I2C_1_MASTER.c ****             /* Clear write status history */
 129:.\Generated_Source\PSoC5/I2C_1_MASTER.c ****             I2C_1_mstrStatus &= (uint8) ~I2C_1_MSTAT_WR_CMPLT;
 130:.\Generated_Source\PSoC5/I2C_1_MASTER.c **** 
 131:.\Generated_Source\PSoC5/I2C_1_MASTER.c ****             /* Hardware actions: write address and generate Start or ReStart */
 132:.\Generated_Source\PSoC5/I2C_1_MASTER.c ****             I2C_1_DATA_REG = (uint8) (slaveAddress << I2C_1_SLAVE_ADDR_SHIFT);
  88              		.loc 1 132 0
  89 0042 4000     		lsls	r0, r0, #1
  90              	.LVL7:
 122:.\Generated_Source\PSoC5/I2C_1_MASTER.c ****             I2C_1_mstrWrBufSize  = cnt;
  91              		.loc 1 122 0
  92 0044 2270     		strb	r2, [r4]
 123:.\Generated_Source\PSoC5/I2C_1_MASTER.c ****             I2C_1_mstrWrBufPtr   = (volatile uint8 *) wrData;
  93              		.loc 1 123 0
ARM GAS  C:\Users\acer\AppData\Local\Temp\ccJ7mpj2.s 			page 5


  94 0046 144A     		ldr	r2, .L19+24
  95              	.LVL8:
  96              		.loc 1 132 0
  97 0048 C0B2     		uxtb	r0, r0
 123:.\Generated_Source\PSoC5/I2C_1_MASTER.c ****             I2C_1_mstrWrBufPtr   = (volatile uint8 *) wrData;
  98              		.loc 1 123 0
  99 004a 1160     		str	r1, [r2]
 126:.\Generated_Source\PSoC5/I2C_1_MASTER.c **** 
 100              		.loc 1 126 0
 101 004c 134A     		ldr	r2, .L19+28
 129:.\Generated_Source\PSoC5/I2C_1_MASTER.c **** 
 102              		.loc 1 129 0
 103 004e 0F49     		ldr	r1, .L19+12
 104              	.LVL9:
 126:.\Generated_Source\PSoC5/I2C_1_MASTER.c **** 
 105              		.loc 1 126 0
 106 0050 1370     		strb	r3, [r2]
 107              	.LVL10:
 129:.\Generated_Source\PSoC5/I2C_1_MASTER.c **** 
 108              		.loc 1 129 0
 109 0052 0A78     		ldrb	r2, [r1]	@ zero_extendqisi2
 133:.\Generated_Source\PSoC5/I2C_1_MASTER.c **** 
 134:.\Generated_Source\PSoC5/I2C_1_MASTER.c ****             if(I2C_1_CHECK_RESTART(mode))
 110              		.loc 1 134 0
 111 0054 13F0010F 		tst	r3, #1
 129:.\Generated_Source\PSoC5/I2C_1_MASTER.c **** 
 112              		.loc 1 129 0
 113 0058 02F0FD02 		and	r2, r2, #253
 114 005c 0A70     		strb	r2, [r1]
 132:.\Generated_Source\PSoC5/I2C_1_MASTER.c **** 
 115              		.loc 1 132 0
 116 005e 104A     		ldr	r2, .L19+32
 117 0060 084B     		ldr	r3, .L19+4
 118              	.LVL11:
 119 0062 1070     		strb	r0, [r2]
 120              	.LVL12:
 121              		.loc 1 134 0
 122 0064 04D0     		beq	.L18
 135:.\Generated_Source\PSoC5/I2C_1_MASTER.c ****             {
 136:.\Generated_Source\PSoC5/I2C_1_MASTER.c ****                 I2C_1_GENERATE_RESTART;
 123              		.loc 1 136 0
 124 0066 1222     		movs	r2, #18
 125 0068 1A70     		strb	r2, [r3]
 126 006a 0422     		movs	r2, #4
 127 006c 0D4B     		ldr	r3, .L19+36
 128 006e 00E0     		b	.L16
 129              	.L18:
 137:.\Generated_Source\PSoC5/I2C_1_MASTER.c ****             }
 138:.\Generated_Source\PSoC5/I2C_1_MASTER.c ****             else
 139:.\Generated_Source\PSoC5/I2C_1_MASTER.c ****             {
 140:.\Generated_Source\PSoC5/I2C_1_MASTER.c ****                 I2C_1_GENERATE_START;
 130              		.loc 1 140 0
 131 0070 0122     		movs	r2, #1
 132              	.L16:
 133 0072 1A70     		strb	r2, [r3]
 141:.\Generated_Source\PSoC5/I2C_1_MASTER.c ****             }
 142:.\Generated_Source\PSoC5/I2C_1_MASTER.c **** 
ARM GAS  C:\Users\acer\AppData\Local\Temp\ccJ7mpj2.s 			page 6


 143:.\Generated_Source\PSoC5/I2C_1_MASTER.c ****             /* Enable interrupt to complete transfer */
 144:.\Generated_Source\PSoC5/I2C_1_MASTER.c ****             I2C_1_EnableInt();
 134              		.loc 1 144 0
 135 0074 0C4B     		ldr	r3, .L19+40
 136 0076 4FF40042 		mov	r2, #32768
 137 007a 1A60     		str	r2, [r3]
 138 007c 0020     		movs	r0, #0
 139 007e 70BD     		pop	{r4, r5, r6, pc}
 140              	.L20:
 141              		.align	2
 142              	.L19:
 143 0080 00000000 		.word	I2C_1_state
 144 0084 D9490040 		.word	1073760729
 145 0088 80E200E0 		.word	-536812928
 146 008c 00000000 		.word	I2C_1_mstrStatus
 147 0090 00000000 		.word	I2C_1_mstrWrBufIndex
 148 0094 00000000 		.word	I2C_1_mstrWrBufSize
 149 0098 00000000 		.word	I2C_1_mstrWrBufPtr
 150 009c 00000000 		.word	I2C_1_mstrControl
 151 00a0 D8490040 		.word	1073760728
 152 00a4 D7490040 		.word	1073760727
 153 00a8 00E100E0 		.word	-536813312
 154              		.cfi_endproc
 155              	.LFE0:
 156              		.size	I2C_1_MasterWriteBuf, .-I2C_1_MasterWriteBuf
 157              		.section	.text.I2C_1_MasterReadBuf,"ax",%progbits
 158              		.align	1
 159              		.global	I2C_1_MasterReadBuf
 160              		.thumb
 161              		.thumb_func
 162              		.type	I2C_1_MasterReadBuf, %function
 163              	I2C_1_MasterReadBuf:
 164              	.LFB1:
 145:.\Generated_Source\PSoC5/I2C_1_MASTER.c ****         }
 146:.\Generated_Source\PSoC5/I2C_1_MASTER.c ****     }
 147:.\Generated_Source\PSoC5/I2C_1_MASTER.c **** 
 148:.\Generated_Source\PSoC5/I2C_1_MASTER.c ****     return(errStatus);
 149:.\Generated_Source\PSoC5/I2C_1_MASTER.c **** }
 150:.\Generated_Source\PSoC5/I2C_1_MASTER.c **** 
 151:.\Generated_Source\PSoC5/I2C_1_MASTER.c **** 
 152:.\Generated_Source\PSoC5/I2C_1_MASTER.c **** /*******************************************************************************
 153:.\Generated_Source\PSoC5/I2C_1_MASTER.c **** * Function Name: I2C_1_MasterReadBuf
 154:.\Generated_Source\PSoC5/I2C_1_MASTER.c **** ********************************************************************************
 155:.\Generated_Source\PSoC5/I2C_1_MASTER.c **** *
 156:.\Generated_Source\PSoC5/I2C_1_MASTER.c **** * Summary:
 157:.\Generated_Source\PSoC5/I2C_1_MASTER.c **** *  Automatically writes an entire buffer of data to a slave device. Once the
 158:.\Generated_Source\PSoC5/I2C_1_MASTER.c **** *  data transfer is initiated by this function, further data transfer is handled
 159:.\Generated_Source\PSoC5/I2C_1_MASTER.c **** *  by the included ISR in byte by byte mode.
 160:.\Generated_Source\PSoC5/I2C_1_MASTER.c **** *
 161:.\Generated_Source\PSoC5/I2C_1_MASTER.c **** * Parameters:
 162:.\Generated_Source\PSoC5/I2C_1_MASTER.c **** *  slaveAddr: 7-bit slave address.
 163:.\Generated_Source\PSoC5/I2C_1_MASTER.c **** *  xferData:  Pointer to buffer where to put data from slave.
 164:.\Generated_Source\PSoC5/I2C_1_MASTER.c **** *  cnt:       Size of buffer to read.
 165:.\Generated_Source\PSoC5/I2C_1_MASTER.c **** *  mode:      Transfer mode defines: start or restart condition generation at
 166:.\Generated_Source\PSoC5/I2C_1_MASTER.c **** *             begin of the transfer and complete the transfer or halt before
 167:.\Generated_Source\PSoC5/I2C_1_MASTER.c **** *             generating a stop.
 168:.\Generated_Source\PSoC5/I2C_1_MASTER.c **** *
ARM GAS  C:\Users\acer\AppData\Local\Temp\ccJ7mpj2.s 			page 7


 169:.\Generated_Source\PSoC5/I2C_1_MASTER.c **** * Return:
 170:.\Generated_Source\PSoC5/I2C_1_MASTER.c **** *  Status error - Zero means no errors.
 171:.\Generated_Source\PSoC5/I2C_1_MASTER.c **** *
 172:.\Generated_Source\PSoC5/I2C_1_MASTER.c **** * Side Effects:
 173:.\Generated_Source\PSoC5/I2C_1_MASTER.c **** *  The included ISR will start a transfer after start or restart condition is
 174:.\Generated_Source\PSoC5/I2C_1_MASTER.c **** *  generated.
 175:.\Generated_Source\PSoC5/I2C_1_MASTER.c **** *
 176:.\Generated_Source\PSoC5/I2C_1_MASTER.c **** * Global variables:
 177:.\Generated_Source\PSoC5/I2C_1_MASTER.c **** *  I2C_1_mstrStatus  - The global variable used to store a current
 178:.\Generated_Source\PSoC5/I2C_1_MASTER.c **** *                                 status of the I2C Master.
 179:.\Generated_Source\PSoC5/I2C_1_MASTER.c **** *  I2C_1_state       - The global variable used to store a current
 180:.\Generated_Source\PSoC5/I2C_1_MASTER.c **** *                                 state of the software FSM.
 181:.\Generated_Source\PSoC5/I2C_1_MASTER.c **** *  I2C_1_mstrControl - The global variable used to control the master
 182:.\Generated_Source\PSoC5/I2C_1_MASTER.c **** *                                 end of a transaction with or without
 183:.\Generated_Source\PSoC5/I2C_1_MASTER.c **** *                                 Stop generation.
 184:.\Generated_Source\PSoC5/I2C_1_MASTER.c **** *  I2C_1_mstrRdBufPtr - The global variable used to store a pointer
 185:.\Generated_Source\PSoC5/I2C_1_MASTER.c **** *                                  to the master write buffer.
 186:.\Generated_Source\PSoC5/I2C_1_MASTER.c **** *  I2C_1_mstrRdBufIndex - The global variable  used to store a
 187:.\Generated_Source\PSoC5/I2C_1_MASTER.c **** *                                    current index within the master
 188:.\Generated_Source\PSoC5/I2C_1_MASTER.c **** *                                    write buffer.
 189:.\Generated_Source\PSoC5/I2C_1_MASTER.c **** *  I2C_1_mstrRdBufSize - The global variable used to store a master
 190:.\Generated_Source\PSoC5/I2C_1_MASTER.c **** *                                   write buffer size.
 191:.\Generated_Source\PSoC5/I2C_1_MASTER.c **** *
 192:.\Generated_Source\PSoC5/I2C_1_MASTER.c **** * Reentrant:
 193:.\Generated_Source\PSoC5/I2C_1_MASTER.c **** *  No.
 194:.\Generated_Source\PSoC5/I2C_1_MASTER.c **** *
 195:.\Generated_Source\PSoC5/I2C_1_MASTER.c **** *******************************************************************************/
 196:.\Generated_Source\PSoC5/I2C_1_MASTER.c **** uint8 I2C_1_MasterReadBuf(uint8 slaveAddress, uint8 * rdData, uint8 cnt, uint8 mode)
 197:.\Generated_Source\PSoC5/I2C_1_MASTER.c ****       
 198:.\Generated_Source\PSoC5/I2C_1_MASTER.c **** {
 165              		.loc 1 198 0
 166              		.cfi_startproc
 167              		@ args = 0, pretend = 0, frame = 0
 168              		@ frame_needed = 0, uses_anonymous_args = 0
 169              	.LVL13:
 170 0000 70B5     		push	{r4, r5, r6, lr}
 171              		.cfi_def_cfa_offset 16
 172              		.cfi_offset 4, -16
 173              		.cfi_offset 5, -12
 174              		.cfi_offset 6, -8
 175              		.cfi_offset 14, -4
 199:.\Generated_Source\PSoC5/I2C_1_MASTER.c ****     uint8 errStatus;
 200:.\Generated_Source\PSoC5/I2C_1_MASTER.c **** 
 201:.\Generated_Source\PSoC5/I2C_1_MASTER.c ****     errStatus = I2C_1_MSTR_NOT_READY;
 202:.\Generated_Source\PSoC5/I2C_1_MASTER.c **** 
 203:.\Generated_Source\PSoC5/I2C_1_MASTER.c ****     if(NULL != rdData)
 176              		.loc 1 203 0
 177 0002 B1B1     		cbz	r1, .L30
 204:.\Generated_Source\PSoC5/I2C_1_MASTER.c ****     {
 205:.\Generated_Source\PSoC5/I2C_1_MASTER.c ****         /* Check I2C state to allow transfer: valid states are IDLE or HALT */
 206:.\Generated_Source\PSoC5/I2C_1_MASTER.c ****         if(I2C_1_SM_IDLE == I2C_1_state)
 178              		.loc 1 206 0
 179 0004 1F4C     		ldr	r4, .L38
 180 0006 2578     		ldrb	r5, [r4]	@ zero_extendqisi2
 181 0008 102D     		cmp	r5, #16
 182 000a 05D1     		bne	.L23
 207:.\Generated_Source\PSoC5/I2C_1_MASTER.c ****         {
ARM GAS  C:\Users\acer\AppData\Local\Temp\ccJ7mpj2.s 			page 8


 208:.\Generated_Source\PSoC5/I2C_1_MASTER.c ****             /* Master is ready to transaction: check if bus is free */
 209:.\Generated_Source\PSoC5/I2C_1_MASTER.c ****             if(I2C_1_CHECK_BUS_FREE(I2C_1_MCSR_REG))
 183              		.loc 1 209 0
 184 000c 1E4D     		ldr	r5, .L38+4
 185 000e 2D78     		ldrb	r5, [r5]	@ zero_extendqisi2
 186 0010 2D07     		lsls	r5, r5, #28
 187 0012 10D5     		bpl	.L24
 210:.\Generated_Source\PSoC5/I2C_1_MASTER.c ****             {
 211:.\Generated_Source\PSoC5/I2C_1_MASTER.c ****                 errStatus = I2C_1_MSTR_NO_ERROR;
 212:.\Generated_Source\PSoC5/I2C_1_MASTER.c ****             }
 213:.\Generated_Source\PSoC5/I2C_1_MASTER.c ****             else
 214:.\Generated_Source\PSoC5/I2C_1_MASTER.c ****             {
 215:.\Generated_Source\PSoC5/I2C_1_MASTER.c ****                 errStatus = I2C_1_MSTR_BUS_BUSY;
 188              		.loc 1 215 0
 189 0014 0120     		movs	r0, #1
 190              	.LVL14:
 191 0016 70BD     		pop	{r4, r5, r6, pc}
 192              	.LVL15:
 193              	.L23:
 216:.\Generated_Source\PSoC5/I2C_1_MASTER.c ****             }
 217:.\Generated_Source\PSoC5/I2C_1_MASTER.c ****         }
 218:.\Generated_Source\PSoC5/I2C_1_MASTER.c ****         else if(I2C_1_SM_MSTR_HALT == I2C_1_state)
 194              		.loc 1 218 0
 195 0018 2578     		ldrb	r5, [r4]	@ zero_extendqisi2
 196 001a 602D     		cmp	r5, #96
 197 001c 09D1     		bne	.L30
 198              	.LVL16:
 219:.\Generated_Source\PSoC5/I2C_1_MASTER.c ****         {
 220:.\Generated_Source\PSoC5/I2C_1_MASTER.c ****             /* Master is ready and waiting for ReStart */
 221:.\Generated_Source\PSoC5/I2C_1_MASTER.c ****             errStatus = I2C_1_MSTR_NO_ERROR;
 222:.\Generated_Source\PSoC5/I2C_1_MASTER.c **** 
 223:.\Generated_Source\PSoC5/I2C_1_MASTER.c ****             I2C_1_ClearPendingInt();
 199              		.loc 1 223 0
 200 001e 1B4D     		ldr	r5, .L38+8
 201 0020 4FF40046 		mov	r6, #32768
 202 0024 2E60     		str	r6, [r5]
 224:.\Generated_Source\PSoC5/I2C_1_MASTER.c ****             I2C_1_mstrStatus &= (uint8) ~I2C_1_MSTAT_XFER_HALT;
 203              		.loc 1 224 0
 204 0026 1A4E     		ldr	r6, .L38+12
 205 0028 3578     		ldrb	r5, [r6]	@ zero_extendqisi2
 206 002a 05F0F705 		and	r5, r5, #247
 207 002e 3570     		strb	r5, [r6]
 208 0030 01E0     		b	.L24
 209              	.LVL17:
 210              	.L30:
 201:.\Generated_Source\PSoC5/I2C_1_MASTER.c **** 
 211              		.loc 1 201 0
 212 0032 0220     		movs	r0, #2
 213              	.LVL18:
 214 0034 70BD     		pop	{r4, r5, r6, pc}
 215              	.LVL19:
 216              	.L24:
 225:.\Generated_Source\PSoC5/I2C_1_MASTER.c ****         }
 226:.\Generated_Source\PSoC5/I2C_1_MASTER.c ****         else
 227:.\Generated_Source\PSoC5/I2C_1_MASTER.c ****         {
 228:.\Generated_Source\PSoC5/I2C_1_MASTER.c ****             /* errStatus = I2C_1_MSTR_NOT_READY was set before */
 229:.\Generated_Source\PSoC5/I2C_1_MASTER.c ****         }
ARM GAS  C:\Users\acer\AppData\Local\Temp\ccJ7mpj2.s 			page 9


 230:.\Generated_Source\PSoC5/I2C_1_MASTER.c **** 
 231:.\Generated_Source\PSoC5/I2C_1_MASTER.c ****         if(I2C_1_MSTR_NO_ERROR == errStatus)
 232:.\Generated_Source\PSoC5/I2C_1_MASTER.c ****         {
 233:.\Generated_Source\PSoC5/I2C_1_MASTER.c ****             /* Set state to start write transaction */
 234:.\Generated_Source\PSoC5/I2C_1_MASTER.c ****             I2C_1_state = I2C_1_SM_MSTR_RD_ADDR;
 217              		.loc 1 234 0
 218 0036 4925     		movs	r5, #73
 219 0038 2570     		strb	r5, [r4]
 235:.\Generated_Source\PSoC5/I2C_1_MASTER.c **** 
 236:.\Generated_Source\PSoC5/I2C_1_MASTER.c ****             /* Prepare read buffer */
 237:.\Generated_Source\PSoC5/I2C_1_MASTER.c ****             I2C_1_mstrRdBufIndex  = 0u;
 220              		.loc 1 237 0
 221 003a 164C     		ldr	r4, .L38+16
 222 003c 0025     		movs	r5, #0
 223 003e 2570     		strb	r5, [r4]
 238:.\Generated_Source\PSoC5/I2C_1_MASTER.c ****             I2C_1_mstrRdBufSize   = cnt;
 224              		.loc 1 238 0
 225 0040 154C     		ldr	r4, .L38+20
 239:.\Generated_Source\PSoC5/I2C_1_MASTER.c ****             I2C_1_mstrRdBufPtr    = (volatile uint8 *) rdData;
 240:.\Generated_Source\PSoC5/I2C_1_MASTER.c **** 
 241:.\Generated_Source\PSoC5/I2C_1_MASTER.c ****             /* Set end of transaction flag: Stop or Halt (following ReStart) */
 242:.\Generated_Source\PSoC5/I2C_1_MASTER.c ****             I2C_1_mstrControl = mode;
 243:.\Generated_Source\PSoC5/I2C_1_MASTER.c **** 
 244:.\Generated_Source\PSoC5/I2C_1_MASTER.c ****             /* Clear read status history */
 245:.\Generated_Source\PSoC5/I2C_1_MASTER.c ****             I2C_1_mstrStatus &= (uint8) ~I2C_1_MSTAT_RD_CMPLT;
 246:.\Generated_Source\PSoC5/I2C_1_MASTER.c **** 
 247:.\Generated_Source\PSoC5/I2C_1_MASTER.c ****             /* Hardware actions: write address and generate Start or ReStart */
 248:.\Generated_Source\PSoC5/I2C_1_MASTER.c ****             I2C_1_DATA_REG = ((uint8) (slaveAddress << I2C_1_SLAVE_ADDR_SHIFT) |
 226              		.loc 1 248 0
 227 0042 4000     		lsls	r0, r0, #1
 228              	.LVL20:
 238:.\Generated_Source\PSoC5/I2C_1_MASTER.c ****             I2C_1_mstrRdBufSize   = cnt;
 229              		.loc 1 238 0
 230 0044 2270     		strb	r2, [r4]
 239:.\Generated_Source\PSoC5/I2C_1_MASTER.c ****             I2C_1_mstrRdBufPtr    = (volatile uint8 *) rdData;
 231              		.loc 1 239 0
 232 0046 154A     		ldr	r2, .L38+24
 233              	.LVL21:
 234              		.loc 1 248 0
 235 0048 40F00100 		orr	r0, r0, #1
 239:.\Generated_Source\PSoC5/I2C_1_MASTER.c ****             I2C_1_mstrRdBufPtr    = (volatile uint8 *) rdData;
 236              		.loc 1 239 0
 237 004c 1160     		str	r1, [r2]
 242:.\Generated_Source\PSoC5/I2C_1_MASTER.c **** 
 238              		.loc 1 242 0
 239 004e 144A     		ldr	r2, .L38+28
 245:.\Generated_Source\PSoC5/I2C_1_MASTER.c **** 
 240              		.loc 1 245 0
 241 0050 0F49     		ldr	r1, .L38+12
 242              	.LVL22:
 242:.\Generated_Source\PSoC5/I2C_1_MASTER.c **** 
 243              		.loc 1 242 0
 244 0052 1370     		strb	r3, [r2]
 245              	.LVL23:
 245:.\Generated_Source\PSoC5/I2C_1_MASTER.c **** 
 246              		.loc 1 245 0
 247 0054 0A78     		ldrb	r2, [r1]	@ zero_extendqisi2
ARM GAS  C:\Users\acer\AppData\Local\Temp\ccJ7mpj2.s 			page 10


 248              		.loc 1 248 0
 249 0056 C0B2     		uxtb	r0, r0
 245:.\Generated_Source\PSoC5/I2C_1_MASTER.c **** 
 250              		.loc 1 245 0
 251 0058 02F0FE02 		and	r2, r2, #254
 252 005c 0A70     		strb	r2, [r1]
 253              		.loc 1 248 0
 254 005e 114A     		ldr	r2, .L38+32
 249:.\Generated_Source\PSoC5/I2C_1_MASTER.c ****                                                   I2C_1_READ_FLAG);
 250:.\Generated_Source\PSoC5/I2C_1_MASTER.c **** 
 251:.\Generated_Source\PSoC5/I2C_1_MASTER.c ****             if(I2C_1_CHECK_RESTART(mode))
 255              		.loc 1 251 0
 256 0060 13F0010F 		tst	r3, #1
 248:.\Generated_Source\PSoC5/I2C_1_MASTER.c ****                                                   I2C_1_READ_FLAG);
 257              		.loc 1 248 0
 258 0064 1070     		strb	r0, [r2]
 259              	.LVL24:
 260 0066 084B     		ldr	r3, .L38+4
 261              	.LVL25:
 262              		.loc 1 251 0
 263 0068 04D0     		beq	.L37
 252:.\Generated_Source\PSoC5/I2C_1_MASTER.c ****             {
 253:.\Generated_Source\PSoC5/I2C_1_MASTER.c ****                 I2C_1_GENERATE_RESTART;
 264              		.loc 1 253 0
 265 006a 1222     		movs	r2, #18
 266 006c 1A70     		strb	r2, [r3]
 267 006e 0422     		movs	r2, #4
 268 0070 0D4B     		ldr	r3, .L38+36
 269 0072 00E0     		b	.L36
 270              	.L37:
 254:.\Generated_Source\PSoC5/I2C_1_MASTER.c ****             }
 255:.\Generated_Source\PSoC5/I2C_1_MASTER.c ****             else
 256:.\Generated_Source\PSoC5/I2C_1_MASTER.c ****             {
 257:.\Generated_Source\PSoC5/I2C_1_MASTER.c ****                 I2C_1_GENERATE_START;
 271              		.loc 1 257 0
 272 0074 0122     		movs	r2, #1
 273              	.L36:
 274 0076 1A70     		strb	r2, [r3]
 258:.\Generated_Source\PSoC5/I2C_1_MASTER.c ****             }
 259:.\Generated_Source\PSoC5/I2C_1_MASTER.c **** 
 260:.\Generated_Source\PSoC5/I2C_1_MASTER.c ****             /* Enable interrupt to complete transfer */
 261:.\Generated_Source\PSoC5/I2C_1_MASTER.c ****             I2C_1_EnableInt();
 275              		.loc 1 261 0
 276 0078 0C4B     		ldr	r3, .L38+40
 277 007a 4FF40042 		mov	r2, #32768
 278 007e 1A60     		str	r2, [r3]
 279 0080 0020     		movs	r0, #0
 280 0082 70BD     		pop	{r4, r5, r6, pc}
 281              	.L39:
 282              		.align	2
 283              	.L38:
 284 0084 00000000 		.word	I2C_1_state
 285 0088 D9490040 		.word	1073760729
 286 008c 80E200E0 		.word	-536812928
 287 0090 00000000 		.word	I2C_1_mstrStatus
 288 0094 00000000 		.word	I2C_1_mstrRdBufIndex
 289 0098 00000000 		.word	I2C_1_mstrRdBufSize
ARM GAS  C:\Users\acer\AppData\Local\Temp\ccJ7mpj2.s 			page 11


 290 009c 00000000 		.word	I2C_1_mstrRdBufPtr
 291 00a0 00000000 		.word	I2C_1_mstrControl
 292 00a4 D8490040 		.word	1073760728
 293 00a8 D7490040 		.word	1073760727
 294 00ac 00E100E0 		.word	-536813312
 295              		.cfi_endproc
 296              	.LFE1:
 297              		.size	I2C_1_MasterReadBuf, .-I2C_1_MasterReadBuf
 298              		.section	.text.I2C_1_MasterSendStart,"ax",%progbits
 299              		.align	1
 300              		.global	I2C_1_MasterSendStart
 301              		.thumb
 302              		.thumb_func
 303              		.type	I2C_1_MasterSendStart, %function
 304              	I2C_1_MasterSendStart:
 305              	.LFB2:
 262:.\Generated_Source\PSoC5/I2C_1_MASTER.c ****         }
 263:.\Generated_Source\PSoC5/I2C_1_MASTER.c ****     }
 264:.\Generated_Source\PSoC5/I2C_1_MASTER.c **** 
 265:.\Generated_Source\PSoC5/I2C_1_MASTER.c ****     return(errStatus);
 266:.\Generated_Source\PSoC5/I2C_1_MASTER.c **** }
 267:.\Generated_Source\PSoC5/I2C_1_MASTER.c **** 
 268:.\Generated_Source\PSoC5/I2C_1_MASTER.c **** 
 269:.\Generated_Source\PSoC5/I2C_1_MASTER.c **** /*******************************************************************************
 270:.\Generated_Source\PSoC5/I2C_1_MASTER.c **** * Function Name: I2C_1_MasterSendStart
 271:.\Generated_Source\PSoC5/I2C_1_MASTER.c **** ********************************************************************************
 272:.\Generated_Source\PSoC5/I2C_1_MASTER.c **** *
 273:.\Generated_Source\PSoC5/I2C_1_MASTER.c **** * Summary:
 274:.\Generated_Source\PSoC5/I2C_1_MASTER.c **** *  Generates Start condition and sends slave address with read/write bit.
 275:.\Generated_Source\PSoC5/I2C_1_MASTER.c **** *
 276:.\Generated_Source\PSoC5/I2C_1_MASTER.c **** * Parameters:
 277:.\Generated_Source\PSoC5/I2C_1_MASTER.c **** *  slaveAddress:  7-bit slave address.
 278:.\Generated_Source\PSoC5/I2C_1_MASTER.c **** *  R_nW:          Zero, send write command, non-zero send read command.
 279:.\Generated_Source\PSoC5/I2C_1_MASTER.c **** *
 280:.\Generated_Source\PSoC5/I2C_1_MASTER.c **** * Return:
 281:.\Generated_Source\PSoC5/I2C_1_MASTER.c **** *  Status error - Zero means no errors.
 282:.\Generated_Source\PSoC5/I2C_1_MASTER.c **** *
 283:.\Generated_Source\PSoC5/I2C_1_MASTER.c **** * Side Effects:
 284:.\Generated_Source\PSoC5/I2C_1_MASTER.c **** *  This function is entered without a "byte complete" bit set in the I2C_CSR
 285:.\Generated_Source\PSoC5/I2C_1_MASTER.c **** *  register. It does not exit until it is set.
 286:.\Generated_Source\PSoC5/I2C_1_MASTER.c **** *
 287:.\Generated_Source\PSoC5/I2C_1_MASTER.c **** * Global variables:
 288:.\Generated_Source\PSoC5/I2C_1_MASTER.c **** *  I2C_1_state - The global variable used to store a current state of
 289:.\Generated_Source\PSoC5/I2C_1_MASTER.c **** *                           the software FSM.
 290:.\Generated_Source\PSoC5/I2C_1_MASTER.c **** *
 291:.\Generated_Source\PSoC5/I2C_1_MASTER.c **** * Reentrant:
 292:.\Generated_Source\PSoC5/I2C_1_MASTER.c **** *  No.
 293:.\Generated_Source\PSoC5/I2C_1_MASTER.c **** *
 294:.\Generated_Source\PSoC5/I2C_1_MASTER.c **** *******************************************************************************/
 295:.\Generated_Source\PSoC5/I2C_1_MASTER.c **** uint8 I2C_1_MasterSendStart(uint8 slaveAddress, uint8 R_nW)
 296:.\Generated_Source\PSoC5/I2C_1_MASTER.c ****       
 297:.\Generated_Source\PSoC5/I2C_1_MASTER.c **** {
 306              		.loc 1 297 0
 307              		.cfi_startproc
 308              		@ args = 0, pretend = 0, frame = 0
 309              		@ frame_needed = 0, uses_anonymous_args = 0
 310              	.LVL26:
ARM GAS  C:\Users\acer\AppData\Local\Temp\ccJ7mpj2.s 			page 12


 311 0000 30B5     		push	{r4, r5, lr}
 312              		.cfi_def_cfa_offset 12
 313              		.cfi_offset 4, -12
 314              		.cfi_offset 5, -8
 315              		.cfi_offset 14, -4
 298:.\Generated_Source\PSoC5/I2C_1_MASTER.c ****     uint8 errStatus;
 299:.\Generated_Source\PSoC5/I2C_1_MASTER.c **** 
 300:.\Generated_Source\PSoC5/I2C_1_MASTER.c ****     errStatus = I2C_1_MSTR_NOT_READY;
 301:.\Generated_Source\PSoC5/I2C_1_MASTER.c **** 
 302:.\Generated_Source\PSoC5/I2C_1_MASTER.c ****     /* If IDLE, check if bus is free */
 303:.\Generated_Source\PSoC5/I2C_1_MASTER.c ****     if(I2C_1_SM_IDLE == I2C_1_state)
 316              		.loc 1 303 0
 317 0002 164B     		ldr	r3, .L51
 318 0004 1A78     		ldrb	r2, [r3]	@ zero_extendqisi2
 319 0006 102A     		cmp	r2, #16
 320 0008 21D1     		bne	.L45
 304:.\Generated_Source\PSoC5/I2C_1_MASTER.c ****     {
 305:.\Generated_Source\PSoC5/I2C_1_MASTER.c ****         /* If bus is free, generate Start condition */
 306:.\Generated_Source\PSoC5/I2C_1_MASTER.c ****         if(I2C_1_CHECK_BUS_FREE(I2C_1_MCSR_REG))
 321              		.loc 1 306 0
 322 000a 154A     		ldr	r2, .L51+4
 323 000c 1478     		ldrb	r4, [r2]	@ zero_extendqisi2
 324 000e 2407     		lsls	r4, r4, #28
 325 0010 1FD4     		bmi	.L46
 307:.\Generated_Source\PSoC5/I2C_1_MASTER.c ****         {
 308:.\Generated_Source\PSoC5/I2C_1_MASTER.c ****             /* Disable interrupt for manual master operation */
 309:.\Generated_Source\PSoC5/I2C_1_MASTER.c ****             I2C_1_DisableInt();
 326              		.loc 1 309 0
 327 0012 144C     		ldr	r4, .L51+8
 328 0014 4FF40045 		mov	r5, #32768
 310:.\Generated_Source\PSoC5/I2C_1_MASTER.c **** 
 311:.\Generated_Source\PSoC5/I2C_1_MASTER.c ****             /* Set address and read/write flag */
 312:.\Generated_Source\PSoC5/I2C_1_MASTER.c ****             slaveAddress = (uint8) (slaveAddress << I2C_1_SLAVE_ADDR_SHIFT);
 329              		.loc 1 312 0
 330 0018 4000     		lsls	r0, r0, #1
 331              	.LVL27:
 309:.\Generated_Source\PSoC5/I2C_1_MASTER.c **** 
 332              		.loc 1 309 0
 333 001a 2560     		str	r5, [r4]
 334              		.loc 1 312 0
 335 001c C0B2     		uxtb	r0, r0
 336              	.LVL28:
 313:.\Generated_Source\PSoC5/I2C_1_MASTER.c ****             if(0u != R_nW)
 337              		.loc 1 313 0
 338 001e 19B1     		cbz	r1, .L42
 314:.\Generated_Source\PSoC5/I2C_1_MASTER.c ****             {
 315:.\Generated_Source\PSoC5/I2C_1_MASTER.c ****                 slaveAddress |= I2C_1_READ_FLAG;
 339              		.loc 1 315 0
 340 0020 40F00100 		orr	r0, r0, #1
 341              	.LVL29:
 316:.\Generated_Source\PSoC5/I2C_1_MASTER.c ****                 I2C_1_state = I2C_1_SM_MSTR_RD_ADDR;
 342              		.loc 1 316 0
 343 0024 4921     		movs	r1, #73
 344              	.LVL30:
 345 0026 00E0     		b	.L50
 346              	.LVL31:
 347              	.L42:
ARM GAS  C:\Users\acer\AppData\Local\Temp\ccJ7mpj2.s 			page 13


 317:.\Generated_Source\PSoC5/I2C_1_MASTER.c ****             }
 318:.\Generated_Source\PSoC5/I2C_1_MASTER.c ****             else
 319:.\Generated_Source\PSoC5/I2C_1_MASTER.c ****             {
 320:.\Generated_Source\PSoC5/I2C_1_MASTER.c ****                 I2C_1_state = I2C_1_SM_MSTR_WR_ADDR;
 348              		.loc 1 320 0
 349 0028 4521     		movs	r1, #69
 350              	.LVL32:
 351              	.L50:
 352 002a 1970     		strb	r1, [r3]
 321:.\Generated_Source\PSoC5/I2C_1_MASTER.c ****             }
 322:.\Generated_Source\PSoC5/I2C_1_MASTER.c **** 
 323:.\Generated_Source\PSoC5/I2C_1_MASTER.c ****             /* Hardware actions: write address and generate Start */
 324:.\Generated_Source\PSoC5/I2C_1_MASTER.c ****             I2C_1_DATA_REG = slaveAddress;
 353              		.loc 1 324 0
 354 002c 0E49     		ldr	r1, .L51+12
 355 002e 0870     		strb	r0, [r1]
 325:.\Generated_Source\PSoC5/I2C_1_MASTER.c ****             I2C_1_GENERATE_START_MANUAL;
 356              		.loc 1 325 0
 357 0030 0121     		movs	r1, #1
 358 0032 1170     		strb	r1, [r2]
 359              	.L44:
 326:.\Generated_Source\PSoC5/I2C_1_MASTER.c **** 
 327:.\Generated_Source\PSoC5/I2C_1_MASTER.c ****             /* Wait until address is transferred */
 328:.\Generated_Source\PSoC5/I2C_1_MASTER.c ****             while(I2C_1_WAIT_BYTE_COMPLETE(I2C_1_CSR_REG))
 360              		.loc 1 328 0 discriminator 1
 361 0034 0D4A     		ldr	r2, .L51+16
 362 0036 1178     		ldrb	r1, [r2]	@ zero_extendqisi2
 363 0038 C907     		lsls	r1, r1, #31
 364 003a FBD5     		bpl	.L44
 329:.\Generated_Source\PSoC5/I2C_1_MASTER.c ****             {
 330:.\Generated_Source\PSoC5/I2C_1_MASTER.c ****             }
 331:.\Generated_Source\PSoC5/I2C_1_MASTER.c **** 
 332:.\Generated_Source\PSoC5/I2C_1_MASTER.c ****         #if(I2C_1_MODE_MULTI_MASTER_SLAVE_ENABLED)
 333:.\Generated_Source\PSoC5/I2C_1_MASTER.c ****             if(I2C_1_CHECK_START_GEN(I2C_1_MCSR_REG))
 334:.\Generated_Source\PSoC5/I2C_1_MASTER.c ****             {
 335:.\Generated_Source\PSoC5/I2C_1_MASTER.c ****                 I2C_1_CLEAR_START_GEN;
 336:.\Generated_Source\PSoC5/I2C_1_MASTER.c **** 
 337:.\Generated_Source\PSoC5/I2C_1_MASTER.c ****                 /* Start condition was not generated: reset FSM to IDLE */
 338:.\Generated_Source\PSoC5/I2C_1_MASTER.c ****                 I2C_1_state = I2C_1_SM_IDLE;
 339:.\Generated_Source\PSoC5/I2C_1_MASTER.c ****                 errStatus = I2C_1_MSTR_ERR_ABORT_START_GEN;
 340:.\Generated_Source\PSoC5/I2C_1_MASTER.c ****             }
 341:.\Generated_Source\PSoC5/I2C_1_MASTER.c ****             else
 342:.\Generated_Source\PSoC5/I2C_1_MASTER.c ****         #endif /* (I2C_1_MODE_MULTI_MASTER_SLAVE_ENABLED) */
 343:.\Generated_Source\PSoC5/I2C_1_MASTER.c **** 
 344:.\Generated_Source\PSoC5/I2C_1_MASTER.c ****         #if(I2C_1_MODE_MULTI_MASTER_ENABLED)
 345:.\Generated_Source\PSoC5/I2C_1_MASTER.c ****             if(I2C_1_CHECK_LOST_ARB(I2C_1_CSR_REG))
 346:.\Generated_Source\PSoC5/I2C_1_MASTER.c ****             {
 347:.\Generated_Source\PSoC5/I2C_1_MASTER.c ****                 I2C_1_BUS_RELEASE_MANUAL;
 348:.\Generated_Source\PSoC5/I2C_1_MASTER.c **** 
 349:.\Generated_Source\PSoC5/I2C_1_MASTER.c ****                 /* Master lost arbitrage: reset FSM to IDLE */
 350:.\Generated_Source\PSoC5/I2C_1_MASTER.c ****                 I2C_1_state = I2C_1_SM_IDLE;
 351:.\Generated_Source\PSoC5/I2C_1_MASTER.c ****                 errStatus = I2C_1_MSTR_ERR_ARB_LOST;
 352:.\Generated_Source\PSoC5/I2C_1_MASTER.c ****             }
 353:.\Generated_Source\PSoC5/I2C_1_MASTER.c ****             else
 354:.\Generated_Source\PSoC5/I2C_1_MASTER.c ****         #endif /* (I2C_1_MODE_MULTI_MASTER_ENABLED) */
 355:.\Generated_Source\PSoC5/I2C_1_MASTER.c **** 
 356:.\Generated_Source\PSoC5/I2C_1_MASTER.c ****             if(I2C_1_CHECK_ADDR_NAK(I2C_1_CSR_REG))
ARM GAS  C:\Users\acer\AppData\Local\Temp\ccJ7mpj2.s 			page 14


 365              		.loc 1 356 0
 366 003c 1278     		ldrb	r2, [r2]	@ zero_extendqisi2
 367 003e 02F00A02 		and	r2, r2, #10
 368 0042 0A2A     		cmp	r2, #10
 369 0044 07D1     		bne	.L47
 357:.\Generated_Source\PSoC5/I2C_1_MASTER.c ****             {
 358:.\Generated_Source\PSoC5/I2C_1_MASTER.c ****                 /* Address has been NACKed: reset FSM to IDLE */
 359:.\Generated_Source\PSoC5/I2C_1_MASTER.c ****                 I2C_1_state = I2C_1_SM_IDLE;
 370              		.loc 1 359 0
 371 0046 1022     		movs	r2, #16
 372 0048 1A70     		strb	r2, [r3]
 373              	.LVL33:
 360:.\Generated_Source\PSoC5/I2C_1_MASTER.c ****                 errStatus = I2C_1_MSTR_ERR_LB_NAK;
 374              		.loc 1 360 0
 375 004a 0320     		movs	r0, #3
 376              	.LVL34:
 377 004c 30BD     		pop	{r4, r5, pc}
 378              	.LVL35:
 379              	.L45:
 300:.\Generated_Source\PSoC5/I2C_1_MASTER.c **** 
 380              		.loc 1 300 0
 381 004e 0220     		movs	r0, #2
 382              	.LVL36:
 383 0050 30BD     		pop	{r4, r5, pc}
 384              	.LVL37:
 385              	.L46:
 361:.\Generated_Source\PSoC5/I2C_1_MASTER.c ****             }
 362:.\Generated_Source\PSoC5/I2C_1_MASTER.c ****             else
 363:.\Generated_Source\PSoC5/I2C_1_MASTER.c ****             {
 364:.\Generated_Source\PSoC5/I2C_1_MASTER.c ****                 /* Start was sent without errors */
 365:.\Generated_Source\PSoC5/I2C_1_MASTER.c ****                 errStatus = I2C_1_MSTR_NO_ERROR;
 366:.\Generated_Source\PSoC5/I2C_1_MASTER.c ****             }
 367:.\Generated_Source\PSoC5/I2C_1_MASTER.c ****         }
 368:.\Generated_Source\PSoC5/I2C_1_MASTER.c ****         else
 369:.\Generated_Source\PSoC5/I2C_1_MASTER.c ****         {
 370:.\Generated_Source\PSoC5/I2C_1_MASTER.c ****             errStatus = I2C_1_MSTR_BUS_BUSY;
 386              		.loc 1 370 0
 387 0052 0120     		movs	r0, #1
 388              	.LVL38:
 389 0054 30BD     		pop	{r4, r5, pc}
 390              	.LVL39:
 391              	.L47:
 365:.\Generated_Source\PSoC5/I2C_1_MASTER.c ****             }
 392              		.loc 1 365 0
 393 0056 0020     		movs	r0, #0
 394              	.LVL40:
 371:.\Generated_Source\PSoC5/I2C_1_MASTER.c ****         }
 372:.\Generated_Source\PSoC5/I2C_1_MASTER.c ****     }
 373:.\Generated_Source\PSoC5/I2C_1_MASTER.c **** 
 374:.\Generated_Source\PSoC5/I2C_1_MASTER.c ****     return(errStatus);
 375:.\Generated_Source\PSoC5/I2C_1_MASTER.c **** }
 395              		.loc 1 375 0
 396 0058 30BD     		pop	{r4, r5, pc}
 397              	.L52:
 398 005a 00BF     		.align	2
 399              	.L51:
 400 005c 00000000 		.word	I2C_1_state
ARM GAS  C:\Users\acer\AppData\Local\Temp\ccJ7mpj2.s 			page 15


 401 0060 D9490040 		.word	1073760729
 402 0064 80E100E0 		.word	-536813184
 403 0068 D8490040 		.word	1073760728
 404 006c D7490040 		.word	1073760727
 405              		.cfi_endproc
 406              	.LFE2:
 407              		.size	I2C_1_MasterSendStart, .-I2C_1_MasterSendStart
 408              		.section	.text.I2C_1_MasterSendRestart,"ax",%progbits
 409              		.align	1
 410              		.global	I2C_1_MasterSendRestart
 411              		.thumb
 412              		.thumb_func
 413              		.type	I2C_1_MasterSendRestart, %function
 414              	I2C_1_MasterSendRestart:
 415              	.LFB3:
 376:.\Generated_Source\PSoC5/I2C_1_MASTER.c **** 
 377:.\Generated_Source\PSoC5/I2C_1_MASTER.c **** 
 378:.\Generated_Source\PSoC5/I2C_1_MASTER.c **** /*******************************************************************************
 379:.\Generated_Source\PSoC5/I2C_1_MASTER.c **** * Function Name: I2C_1_MasterSendRestart
 380:.\Generated_Source\PSoC5/I2C_1_MASTER.c **** ********************************************************************************
 381:.\Generated_Source\PSoC5/I2C_1_MASTER.c **** *
 382:.\Generated_Source\PSoC5/I2C_1_MASTER.c **** * Summary:
 383:.\Generated_Source\PSoC5/I2C_1_MASTER.c **** *  Generates ReStart condition and sends slave address with read/write bit.
 384:.\Generated_Source\PSoC5/I2C_1_MASTER.c **** *
 385:.\Generated_Source\PSoC5/I2C_1_MASTER.c **** * Parameters:
 386:.\Generated_Source\PSoC5/I2C_1_MASTER.c **** *  slaveAddress:  7-bit slave address.
 387:.\Generated_Source\PSoC5/I2C_1_MASTER.c **** *  R_nW:          Zero, send write command, non-zero send read command.
 388:.\Generated_Source\PSoC5/I2C_1_MASTER.c **** *
 389:.\Generated_Source\PSoC5/I2C_1_MASTER.c **** * Return:
 390:.\Generated_Source\PSoC5/I2C_1_MASTER.c **** *  Status error - Zero means no errors.
 391:.\Generated_Source\PSoC5/I2C_1_MASTER.c **** *
 392:.\Generated_Source\PSoC5/I2C_1_MASTER.c **** * Side Effects:
 393:.\Generated_Source\PSoC5/I2C_1_MASTER.c **** *  This function is entered without a "byte complete" bit set in the I2C_CSR
 394:.\Generated_Source\PSoC5/I2C_1_MASTER.c **** *  register. It does not exit until it is set.
 395:.\Generated_Source\PSoC5/I2C_1_MASTER.c **** *
 396:.\Generated_Source\PSoC5/I2C_1_MASTER.c **** * Global variables:
 397:.\Generated_Source\PSoC5/I2C_1_MASTER.c **** *  I2C_1_state - The global variable used to store a current state of
 398:.\Generated_Source\PSoC5/I2C_1_MASTER.c **** *                           the software FSM.
 399:.\Generated_Source\PSoC5/I2C_1_MASTER.c **** *
 400:.\Generated_Source\PSoC5/I2C_1_MASTER.c **** * Reentrant:
 401:.\Generated_Source\PSoC5/I2C_1_MASTER.c **** *  No.
 402:.\Generated_Source\PSoC5/I2C_1_MASTER.c **** *
 403:.\Generated_Source\PSoC5/I2C_1_MASTER.c **** *******************************************************************************/
 404:.\Generated_Source\PSoC5/I2C_1_MASTER.c **** uint8 I2C_1_MasterSendRestart(uint8 slaveAddress, uint8 R_nW)
 405:.\Generated_Source\PSoC5/I2C_1_MASTER.c ****       
 406:.\Generated_Source\PSoC5/I2C_1_MASTER.c **** {
 416              		.loc 1 406 0
 417              		.cfi_startproc
 418              		@ args = 0, pretend = 0, frame = 0
 419              		@ frame_needed = 0, uses_anonymous_args = 0
 420              		@ link register save eliminated.
 421              	.LVL41:
 407:.\Generated_Source\PSoC5/I2C_1_MASTER.c ****     uint8 errStatus;
 408:.\Generated_Source\PSoC5/I2C_1_MASTER.c **** 
 409:.\Generated_Source\PSoC5/I2C_1_MASTER.c ****     errStatus = I2C_1_MSTR_NOT_READY;
 410:.\Generated_Source\PSoC5/I2C_1_MASTER.c **** 
 411:.\Generated_Source\PSoC5/I2C_1_MASTER.c ****     /* Check if START condition was generated */
ARM GAS  C:\Users\acer\AppData\Local\Temp\ccJ7mpj2.s 			page 16


 412:.\Generated_Source\PSoC5/I2C_1_MASTER.c ****     if(I2C_1_CHECK_MASTER_MODE(I2C_1_MCSR_REG))
 422              		.loc 1 412 0
 423 0000 124B     		ldr	r3, .L63
 424 0002 1A78     		ldrb	r2, [r3]	@ zero_extendqisi2
 425 0004 5207     		lsls	r2, r2, #29
 426 0006 1DD5     		bpl	.L58
 413:.\Generated_Source\PSoC5/I2C_1_MASTER.c ****     {
 414:.\Generated_Source\PSoC5/I2C_1_MASTER.c ****         /* Set address and read/write flag */
 415:.\Generated_Source\PSoC5/I2C_1_MASTER.c ****         slaveAddress = (uint8) (slaveAddress << I2C_1_SLAVE_ADDR_SHIFT);
 427              		.loc 1 415 0
 428 0008 4000     		lsls	r0, r0, #1
 429              	.LVL42:
 430 000a C0B2     		uxtb	r0, r0
 431              	.LVL43:
 432 000c 104A     		ldr	r2, .L63+4
 416:.\Generated_Source\PSoC5/I2C_1_MASTER.c ****         if(0u != R_nW)
 433              		.loc 1 416 0
 434 000e 19B1     		cbz	r1, .L55
 417:.\Generated_Source\PSoC5/I2C_1_MASTER.c ****         {
 418:.\Generated_Source\PSoC5/I2C_1_MASTER.c ****             slaveAddress |= I2C_1_READ_FLAG;
 435              		.loc 1 418 0
 436 0010 40F00100 		orr	r0, r0, #1
 437              	.LVL44:
 419:.\Generated_Source\PSoC5/I2C_1_MASTER.c ****             I2C_1_state = I2C_1_SM_MSTR_RD_ADDR;
 438              		.loc 1 419 0
 439 0014 4921     		movs	r1, #73
 440              	.LVL45:
 441 0016 00E0     		b	.L62
 442              	.LVL46:
 443              	.L55:
 420:.\Generated_Source\PSoC5/I2C_1_MASTER.c ****         }
 421:.\Generated_Source\PSoC5/I2C_1_MASTER.c ****         else
 422:.\Generated_Source\PSoC5/I2C_1_MASTER.c ****         {
 423:.\Generated_Source\PSoC5/I2C_1_MASTER.c ****             I2C_1_state = I2C_1_SM_MSTR_WR_ADDR;
 444              		.loc 1 423 0
 445 0018 4521     		movs	r1, #69
 446              	.LVL47:
 447              	.L62:
 448 001a 1170     		strb	r1, [r2]
 424:.\Generated_Source\PSoC5/I2C_1_MASTER.c ****         }
 425:.\Generated_Source\PSoC5/I2C_1_MASTER.c **** 
 426:.\Generated_Source\PSoC5/I2C_1_MASTER.c ****         /* Hardware actions: write address and generate ReStart */
 427:.\Generated_Source\PSoC5/I2C_1_MASTER.c ****         I2C_1_DATA_REG = slaveAddress;
 449              		.loc 1 427 0
 450 001c 0D49     		ldr	r1, .L63+8
 451 001e 0870     		strb	r0, [r1]
 428:.\Generated_Source\PSoC5/I2C_1_MASTER.c ****         I2C_1_GENERATE_RESTART_MANUAL;
 452              		.loc 1 428 0
 453 0020 1221     		movs	r1, #18
 454 0022 1970     		strb	r1, [r3]
 455 0024 0C4B     		ldr	r3, .L63+12
 456 0026 0421     		movs	r1, #4
 457 0028 1970     		strb	r1, [r3]
 458              	.L57:
 429:.\Generated_Source\PSoC5/I2C_1_MASTER.c **** 
 430:.\Generated_Source\PSoC5/I2C_1_MASTER.c ****         /* Wait until address has been transferred */
 431:.\Generated_Source\PSoC5/I2C_1_MASTER.c ****         while(I2C_1_WAIT_BYTE_COMPLETE(I2C_1_CSR_REG))
ARM GAS  C:\Users\acer\AppData\Local\Temp\ccJ7mpj2.s 			page 17


 459              		.loc 1 431 0 discriminator 1
 460 002a 1978     		ldrb	r1, [r3]	@ zero_extendqisi2
 461 002c C907     		lsls	r1, r1, #31
 462 002e FCD5     		bpl	.L57
 432:.\Generated_Source\PSoC5/I2C_1_MASTER.c ****         {
 433:.\Generated_Source\PSoC5/I2C_1_MASTER.c ****         }
 434:.\Generated_Source\PSoC5/I2C_1_MASTER.c **** 
 435:.\Generated_Source\PSoC5/I2C_1_MASTER.c ****     #if(I2C_1_MODE_MULTI_MASTER_ENABLED)
 436:.\Generated_Source\PSoC5/I2C_1_MASTER.c ****         if(I2C_1_CHECK_LOST_ARB(I2C_1_CSR_REG))
 437:.\Generated_Source\PSoC5/I2C_1_MASTER.c ****         {
 438:.\Generated_Source\PSoC5/I2C_1_MASTER.c ****             I2C_1_BUS_RELEASE_MANUAL;
 439:.\Generated_Source\PSoC5/I2C_1_MASTER.c **** 
 440:.\Generated_Source\PSoC5/I2C_1_MASTER.c ****             /* Master lost arbitrage: reset FSM to IDLE */
 441:.\Generated_Source\PSoC5/I2C_1_MASTER.c ****             I2C_1_state = I2C_1_SM_IDLE;
 442:.\Generated_Source\PSoC5/I2C_1_MASTER.c ****             errStatus = I2C_1_MSTR_ERR_ARB_LOST;
 443:.\Generated_Source\PSoC5/I2C_1_MASTER.c ****         }
 444:.\Generated_Source\PSoC5/I2C_1_MASTER.c ****         else
 445:.\Generated_Source\PSoC5/I2C_1_MASTER.c ****     #endif /* (I2C_1_MODE_MULTI_MASTER_ENABLED) */
 446:.\Generated_Source\PSoC5/I2C_1_MASTER.c **** 
 447:.\Generated_Source\PSoC5/I2C_1_MASTER.c ****         if(I2C_1_CHECK_ADDR_NAK(I2C_1_CSR_REG))
 463              		.loc 1 447 0
 464 0030 094B     		ldr	r3, .L63+12
 465 0032 1B78     		ldrb	r3, [r3]	@ zero_extendqisi2
 466 0034 03F00A03 		and	r3, r3, #10
 467 0038 0A2B     		cmp	r3, #10
 468 003a 05D1     		bne	.L59
 448:.\Generated_Source\PSoC5/I2C_1_MASTER.c ****         {
 449:.\Generated_Source\PSoC5/I2C_1_MASTER.c ****             /* Address has been NACKed: reset FSM to IDLE */
 450:.\Generated_Source\PSoC5/I2C_1_MASTER.c ****             I2C_1_state = I2C_1_SM_IDLE;
 469              		.loc 1 450 0
 470 003c 1023     		movs	r3, #16
 471 003e 1370     		strb	r3, [r2]
 472              	.LVL48:
 451:.\Generated_Source\PSoC5/I2C_1_MASTER.c ****             errStatus = I2C_1_MSTR_ERR_LB_NAK;
 473              		.loc 1 451 0
 474 0040 0320     		movs	r0, #3
 475              	.LVL49:
 476 0042 7047     		bx	lr
 477              	.LVL50:
 478              	.L58:
 409:.\Generated_Source\PSoC5/I2C_1_MASTER.c **** 
 479              		.loc 1 409 0
 480 0044 0220     		movs	r0, #2
 481              	.LVL51:
 482 0046 7047     		bx	lr
 483              	.LVL52:
 484              	.L59:
 452:.\Generated_Source\PSoC5/I2C_1_MASTER.c ****         }
 453:.\Generated_Source\PSoC5/I2C_1_MASTER.c ****         else
 454:.\Generated_Source\PSoC5/I2C_1_MASTER.c ****         {
 455:.\Generated_Source\PSoC5/I2C_1_MASTER.c ****             /* ReStart was sent without errors */
 456:.\Generated_Source\PSoC5/I2C_1_MASTER.c ****             errStatus = I2C_1_MSTR_NO_ERROR;
 485              		.loc 1 456 0
 486 0048 0020     		movs	r0, #0
 487              	.LVL53:
 457:.\Generated_Source\PSoC5/I2C_1_MASTER.c ****         }
 458:.\Generated_Source\PSoC5/I2C_1_MASTER.c ****     }
ARM GAS  C:\Users\acer\AppData\Local\Temp\ccJ7mpj2.s 			page 18


 459:.\Generated_Source\PSoC5/I2C_1_MASTER.c **** 
 460:.\Generated_Source\PSoC5/I2C_1_MASTER.c ****     return(errStatus);
 461:.\Generated_Source\PSoC5/I2C_1_MASTER.c **** }
 488              		.loc 1 461 0
 489 004a 7047     		bx	lr
 490              	.L64:
 491              		.align	2
 492              	.L63:
 493 004c D9490040 		.word	1073760729
 494 0050 00000000 		.word	I2C_1_state
 495 0054 D8490040 		.word	1073760728
 496 0058 D7490040 		.word	1073760727
 497              		.cfi_endproc
 498              	.LFE3:
 499              		.size	I2C_1_MasterSendRestart, .-I2C_1_MasterSendRestart
 500              		.section	.text.I2C_1_MasterSendStop,"ax",%progbits
 501              		.align	1
 502              		.global	I2C_1_MasterSendStop
 503              		.thumb
 504              		.thumb_func
 505              		.type	I2C_1_MasterSendStop, %function
 506              	I2C_1_MasterSendStop:
 507              	.LFB4:
 462:.\Generated_Source\PSoC5/I2C_1_MASTER.c **** 
 463:.\Generated_Source\PSoC5/I2C_1_MASTER.c **** 
 464:.\Generated_Source\PSoC5/I2C_1_MASTER.c **** /*******************************************************************************
 465:.\Generated_Source\PSoC5/I2C_1_MASTER.c **** * Function Name: I2C_1_MasterSendStop
 466:.\Generated_Source\PSoC5/I2C_1_MASTER.c **** ********************************************************************************
 467:.\Generated_Source\PSoC5/I2C_1_MASTER.c **** *
 468:.\Generated_Source\PSoC5/I2C_1_MASTER.c **** * Summary:
 469:.\Generated_Source\PSoC5/I2C_1_MASTER.c **** *  Generates I2C Stop condition on bus. Function do nothing if Start or Restart
 470:.\Generated_Source\PSoC5/I2C_1_MASTER.c **** *  condition was failed before call this function.
 471:.\Generated_Source\PSoC5/I2C_1_MASTER.c **** *
 472:.\Generated_Source\PSoC5/I2C_1_MASTER.c **** * Parameters:
 473:.\Generated_Source\PSoC5/I2C_1_MASTER.c **** *  None.
 474:.\Generated_Source\PSoC5/I2C_1_MASTER.c **** *
 475:.\Generated_Source\PSoC5/I2C_1_MASTER.c **** * Return:
 476:.\Generated_Source\PSoC5/I2C_1_MASTER.c **** *  Status error - Zero means no errors.
 477:.\Generated_Source\PSoC5/I2C_1_MASTER.c **** *
 478:.\Generated_Source\PSoC5/I2C_1_MASTER.c **** * Side Effects:
 479:.\Generated_Source\PSoC5/I2C_1_MASTER.c **** *  Stop generation is required to complete the transaction.
 480:.\Generated_Source\PSoC5/I2C_1_MASTER.c **** *  This function does not wait until a Stop condition is generated.
 481:.\Generated_Source\PSoC5/I2C_1_MASTER.c **** *
 482:.\Generated_Source\PSoC5/I2C_1_MASTER.c **** * Global variables:
 483:.\Generated_Source\PSoC5/I2C_1_MASTER.c **** *  I2C_1_state - The global variable used to store a current state of
 484:.\Generated_Source\PSoC5/I2C_1_MASTER.c **** *                           the software FSM.
 485:.\Generated_Source\PSoC5/I2C_1_MASTER.c **** *
 486:.\Generated_Source\PSoC5/I2C_1_MASTER.c **** * Reentrant:
 487:.\Generated_Source\PSoC5/I2C_1_MASTER.c **** *  No.
 488:.\Generated_Source\PSoC5/I2C_1_MASTER.c **** *
 489:.\Generated_Source\PSoC5/I2C_1_MASTER.c **** *******************************************************************************/
 490:.\Generated_Source\PSoC5/I2C_1_MASTER.c **** uint8 I2C_1_MasterSendStop(void) 
 491:.\Generated_Source\PSoC5/I2C_1_MASTER.c **** {
 508              		.loc 1 491 0
 509              		.cfi_startproc
 510              		@ args = 0, pretend = 0, frame = 0
 511              		@ frame_needed = 0, uses_anonymous_args = 0
ARM GAS  C:\Users\acer\AppData\Local\Temp\ccJ7mpj2.s 			page 19


 512              		@ link register save eliminated.
 513              	.LVL54:
 492:.\Generated_Source\PSoC5/I2C_1_MASTER.c ****     uint8 errStatus;
 493:.\Generated_Source\PSoC5/I2C_1_MASTER.c **** 
 494:.\Generated_Source\PSoC5/I2C_1_MASTER.c ****     errStatus = I2C_1_MSTR_NOT_READY;
 495:.\Generated_Source\PSoC5/I2C_1_MASTER.c **** 
 496:.\Generated_Source\PSoC5/I2C_1_MASTER.c ****     /* Check if master is active on bus */
 497:.\Generated_Source\PSoC5/I2C_1_MASTER.c ****     if(I2C_1_CHECK_MASTER_MODE(I2C_1_MCSR_REG))
 514              		.loc 1 497 0
 515 0000 094B     		ldr	r3, .L71
 516 0002 1A78     		ldrb	r2, [r3]	@ zero_extendqisi2
 517 0004 5207     		lsls	r2, r2, #29
 518 0006 0CD5     		bpl	.L68
 498:.\Generated_Source\PSoC5/I2C_1_MASTER.c ****     {
 499:.\Generated_Source\PSoC5/I2C_1_MASTER.c ****         I2C_1_GENERATE_STOP_MANUAL;
 519              		.loc 1 499 0
 520 0008 1022     		movs	r2, #16
 521 000a 1A70     		strb	r2, [r3]
 522 000c 0421     		movs	r1, #4
 523 000e 023B     		subs	r3, r3, #2
 524 0010 1970     		strb	r1, [r3]
 500:.\Generated_Source\PSoC5/I2C_1_MASTER.c ****         I2C_1_state = I2C_1_SM_IDLE;
 525              		.loc 1 500 0
 526 0012 0649     		ldr	r1, .L71+4
 527 0014 0A70     		strb	r2, [r1]
 528              	.L67:
 501:.\Generated_Source\PSoC5/I2C_1_MASTER.c **** 
 502:.\Generated_Source\PSoC5/I2C_1_MASTER.c ****         /* Wait until stop has been generated */
 503:.\Generated_Source\PSoC5/I2C_1_MASTER.c ****         while(I2C_1_WAIT_STOP_COMPLETE(I2C_1_CSR_REG))
 529              		.loc 1 503 0 discriminator 1
 530 0016 1A78     		ldrb	r2, [r3]	@ zero_extendqisi2
 531 0018 12F0210F 		tst	r2, #33
 532 001c FBD0     		beq	.L67
 504:.\Generated_Source\PSoC5/I2C_1_MASTER.c ****         {
 505:.\Generated_Source\PSoC5/I2C_1_MASTER.c ****         }
 506:.\Generated_Source\PSoC5/I2C_1_MASTER.c **** 
 507:.\Generated_Source\PSoC5/I2C_1_MASTER.c ****         errStatus = I2C_1_MSTR_NO_ERROR;
 533              		.loc 1 507 0
 534 001e 0020     		movs	r0, #0
 535 0020 7047     		bx	lr
 536              	.L68:
 494:.\Generated_Source\PSoC5/I2C_1_MASTER.c **** 
 537              		.loc 1 494 0
 538 0022 0220     		movs	r0, #2
 539              	.LVL55:
 508:.\Generated_Source\PSoC5/I2C_1_MASTER.c **** 
 509:.\Generated_Source\PSoC5/I2C_1_MASTER.c ****     #if(I2C_1_MODE_MULTI_MASTER_ENABLED)
 510:.\Generated_Source\PSoC5/I2C_1_MASTER.c ****         if(I2C_1_CHECK_LOST_ARB(I2C_1_CSR_REG))
 511:.\Generated_Source\PSoC5/I2C_1_MASTER.c ****         {
 512:.\Generated_Source\PSoC5/I2C_1_MASTER.c ****             I2C_1_BUS_RELEASE_MANUAL;
 513:.\Generated_Source\PSoC5/I2C_1_MASTER.c **** 
 514:.\Generated_Source\PSoC5/I2C_1_MASTER.c ****             /* NACK was generated by instead Stop */
 515:.\Generated_Source\PSoC5/I2C_1_MASTER.c ****             errStatus = I2C_1_MSTR_ERR_ARB_LOST;
 516:.\Generated_Source\PSoC5/I2C_1_MASTER.c ****         }
 517:.\Generated_Source\PSoC5/I2C_1_MASTER.c ****     #endif /* (I2C_1_MODE_MULTI_MASTER_ENABLED) */
 518:.\Generated_Source\PSoC5/I2C_1_MASTER.c ****     }
 519:.\Generated_Source\PSoC5/I2C_1_MASTER.c **** 
ARM GAS  C:\Users\acer\AppData\Local\Temp\ccJ7mpj2.s 			page 20


 520:.\Generated_Source\PSoC5/I2C_1_MASTER.c ****     return(errStatus);
 521:.\Generated_Source\PSoC5/I2C_1_MASTER.c **** }
 540              		.loc 1 521 0
 541 0024 7047     		bx	lr
 542              	.L72:
 543 0026 00BF     		.align	2
 544              	.L71:
 545 0028 D9490040 		.word	1073760729
 546 002c 00000000 		.word	I2C_1_state
 547              		.cfi_endproc
 548              	.LFE4:
 549              		.size	I2C_1_MasterSendStop, .-I2C_1_MasterSendStop
 550              		.section	.text.I2C_1_MasterWriteByte,"ax",%progbits
 551              		.align	1
 552              		.global	I2C_1_MasterWriteByte
 553              		.thumb
 554              		.thumb_func
 555              		.type	I2C_1_MasterWriteByte, %function
 556              	I2C_1_MasterWriteByte:
 557              	.LFB5:
 522:.\Generated_Source\PSoC5/I2C_1_MASTER.c **** 
 523:.\Generated_Source\PSoC5/I2C_1_MASTER.c **** 
 524:.\Generated_Source\PSoC5/I2C_1_MASTER.c **** /*******************************************************************************
 525:.\Generated_Source\PSoC5/I2C_1_MASTER.c **** * Function Name: I2C_1_MasterWriteByte
 526:.\Generated_Source\PSoC5/I2C_1_MASTER.c **** ********************************************************************************
 527:.\Generated_Source\PSoC5/I2C_1_MASTER.c **** *
 528:.\Generated_Source\PSoC5/I2C_1_MASTER.c **** * Summary:
 529:.\Generated_Source\PSoC5/I2C_1_MASTER.c **** *  Sends one byte to a slave. A valid Start or ReStart condition must be
 530:.\Generated_Source\PSoC5/I2C_1_MASTER.c **** *  generated before this call this function. Function do nothing if Start or
 531:.\Generated_Source\PSoC5/I2C_1_MASTER.c **** *  Restart condition was failed before call this function.
 532:.\Generated_Source\PSoC5/I2C_1_MASTER.c **** *
 533:.\Generated_Source\PSoC5/I2C_1_MASTER.c **** * Parameters:
 534:.\Generated_Source\PSoC5/I2C_1_MASTER.c **** *  data:  The data byte to send to the slave.
 535:.\Generated_Source\PSoC5/I2C_1_MASTER.c **** *
 536:.\Generated_Source\PSoC5/I2C_1_MASTER.c **** * Return:
 537:.\Generated_Source\PSoC5/I2C_1_MASTER.c **** *  Status error - Zero means no errors.
 538:.\Generated_Source\PSoC5/I2C_1_MASTER.c **** *
 539:.\Generated_Source\PSoC5/I2C_1_MASTER.c **** * Side Effects:
 540:.\Generated_Source\PSoC5/I2C_1_MASTER.c **** *  This function is entered without a "byte complete" bit set in the I2C_CSR
 541:.\Generated_Source\PSoC5/I2C_1_MASTER.c **** *  register. It does not exit until it is set.
 542:.\Generated_Source\PSoC5/I2C_1_MASTER.c **** *
 543:.\Generated_Source\PSoC5/I2C_1_MASTER.c **** * Global variables:
 544:.\Generated_Source\PSoC5/I2C_1_MASTER.c **** *  I2C_1_state - The global variable used to store a current state of
 545:.\Generated_Source\PSoC5/I2C_1_MASTER.c **** *                           the software FSM.
 546:.\Generated_Source\PSoC5/I2C_1_MASTER.c **** *
 547:.\Generated_Source\PSoC5/I2C_1_MASTER.c **** *******************************************************************************/
 548:.\Generated_Source\PSoC5/I2C_1_MASTER.c **** uint8 I2C_1_MasterWriteByte(uint8 theByte) 
 549:.\Generated_Source\PSoC5/I2C_1_MASTER.c **** {
 558              		.loc 1 549 0
 559              		.cfi_startproc
 560              		@ args = 0, pretend = 0, frame = 0
 561              		@ frame_needed = 0, uses_anonymous_args = 0
 562              		@ link register save eliminated.
 563              	.LVL56:
 550:.\Generated_Source\PSoC5/I2C_1_MASTER.c ****     uint8 errStatus;
 551:.\Generated_Source\PSoC5/I2C_1_MASTER.c **** 
 552:.\Generated_Source\PSoC5/I2C_1_MASTER.c ****     errStatus = I2C_1_MSTR_NOT_READY;
ARM GAS  C:\Users\acer\AppData\Local\Temp\ccJ7mpj2.s 			page 21


 553:.\Generated_Source\PSoC5/I2C_1_MASTER.c **** 
 554:.\Generated_Source\PSoC5/I2C_1_MASTER.c ****     /* Check if START condition was generated */
 555:.\Generated_Source\PSoC5/I2C_1_MASTER.c ****     if(I2C_1_CHECK_MASTER_MODE(I2C_1_MCSR_REG))
 564              		.loc 1 555 0
 565 0000 0E4B     		ldr	r3, .L80
 566 0002 1B78     		ldrb	r3, [r3]	@ zero_extendqisi2
 567 0004 5B07     		lsls	r3, r3, #29
 568 0006 16D5     		bpl	.L77
 556:.\Generated_Source\PSoC5/I2C_1_MASTER.c ****     {
 557:.\Generated_Source\PSoC5/I2C_1_MASTER.c ****         I2C_1_DATA_REG = theByte;   /* Write DATA register */
 569              		.loc 1 557 0
 570 0008 0D4B     		ldr	r3, .L80+4
 558:.\Generated_Source\PSoC5/I2C_1_MASTER.c ****         I2C_1_TRANSMIT_DATA_MANUAL; /* Set transmit mode   */
 571              		.loc 1 558 0
 572 000a 0E4A     		ldr	r2, .L80+8
 557:.\Generated_Source\PSoC5/I2C_1_MASTER.c ****         I2C_1_TRANSMIT_DATA_MANUAL; /* Set transmit mode   */
 573              		.loc 1 557 0
 574 000c 1870     		strb	r0, [r3]
 575              		.loc 1 558 0
 576 000e 0423     		movs	r3, #4
 577 0010 1370     		strb	r3, [r2]
 559:.\Generated_Source\PSoC5/I2C_1_MASTER.c ****         I2C_1_state = I2C_1_SM_MSTR_WR_DATA;
 578              		.loc 1 559 0
 579 0012 0D4B     		ldr	r3, .L80+12
 580 0014 4621     		movs	r1, #70
 581 0016 1970     		strb	r1, [r3]
 582              	.L75:
 560:.\Generated_Source\PSoC5/I2C_1_MASTER.c **** 
 561:.\Generated_Source\PSoC5/I2C_1_MASTER.c ****         /* Wait until data byte has been transmitted */
 562:.\Generated_Source\PSoC5/I2C_1_MASTER.c ****         while(I2C_1_WAIT_BYTE_COMPLETE(I2C_1_CSR_REG))
 583              		.loc 1 562 0 discriminator 1
 584 0018 1178     		ldrb	r1, [r2]	@ zero_extendqisi2
 585 001a C907     		lsls	r1, r1, #31
 586 001c FCD5     		bpl	.L75
 563:.\Generated_Source\PSoC5/I2C_1_MASTER.c ****         {
 564:.\Generated_Source\PSoC5/I2C_1_MASTER.c ****         }
 565:.\Generated_Source\PSoC5/I2C_1_MASTER.c **** 
 566:.\Generated_Source\PSoC5/I2C_1_MASTER.c ****     #if(I2C_1_MODE_MULTI_MASTER_ENABLED)
 567:.\Generated_Source\PSoC5/I2C_1_MASTER.c ****         if(I2C_1_CHECK_LOST_ARB(I2C_1_CSR_REG))
 568:.\Generated_Source\PSoC5/I2C_1_MASTER.c ****         {
 569:.\Generated_Source\PSoC5/I2C_1_MASTER.c ****             I2C_1_BUS_RELEASE_MANUAL;
 570:.\Generated_Source\PSoC5/I2C_1_MASTER.c **** 
 571:.\Generated_Source\PSoC5/I2C_1_MASTER.c ****             /* Master lost arbitrage: reset FSM to IDLE */
 572:.\Generated_Source\PSoC5/I2C_1_MASTER.c ****             I2C_1_state = I2C_1_SM_IDLE;
 573:.\Generated_Source\PSoC5/I2C_1_MASTER.c ****             errStatus = I2C_1_MSTR_ERR_ARB_LOST;
 574:.\Generated_Source\PSoC5/I2C_1_MASTER.c ****         }
 575:.\Generated_Source\PSoC5/I2C_1_MASTER.c ****         /* Check LRB bit */
 576:.\Generated_Source\PSoC5/I2C_1_MASTER.c ****         else
 577:.\Generated_Source\PSoC5/I2C_1_MASTER.c ****     #endif /* (I2C_1_MODE_MULTI_MASTER_ENABLED) */
 578:.\Generated_Source\PSoC5/I2C_1_MASTER.c **** 
 579:.\Generated_Source\PSoC5/I2C_1_MASTER.c ****         if(I2C_1_CHECK_DATA_ACK(I2C_1_CSR_REG))
 587              		.loc 1 579 0
 588 001e 094A     		ldr	r2, .L80+8
 589 0020 6021     		movs	r1, #96
 590 0022 1278     		ldrb	r2, [r2]	@ zero_extendqisi2
 580:.\Generated_Source\PSoC5/I2C_1_MASTER.c ****         {
 581:.\Generated_Source\PSoC5/I2C_1_MASTER.c ****             I2C_1_state = I2C_1_SM_MSTR_HALT;
ARM GAS  C:\Users\acer\AppData\Local\Temp\ccJ7mpj2.s 			page 22


 591              		.loc 1 581 0
 592 0024 1970     		strb	r1, [r3]
 579:.\Generated_Source\PSoC5/I2C_1_MASTER.c ****         {
 593              		.loc 1 579 0
 594 0026 02F00202 		and	r2, r2, #2
 595 002a 02F0FF00 		and	r0, r2, #255
 596              	.LVL57:
 597 002e 02B9     		cbnz	r2, .L76
 598              	.LVL58:
 599 0030 7047     		bx	lr
 600              	.LVL59:
 601              	.L76:
 582:.\Generated_Source\PSoC5/I2C_1_MASTER.c ****             errStatus = I2C_1_MSTR_NO_ERROR;
 583:.\Generated_Source\PSoC5/I2C_1_MASTER.c ****         }
 584:.\Generated_Source\PSoC5/I2C_1_MASTER.c ****         else
 585:.\Generated_Source\PSoC5/I2C_1_MASTER.c ****         {
 586:.\Generated_Source\PSoC5/I2C_1_MASTER.c ****             I2C_1_state = I2C_1_SM_MSTR_HALT;
 587:.\Generated_Source\PSoC5/I2C_1_MASTER.c ****             errStatus = I2C_1_MSTR_ERR_LB_NAK;
 602              		.loc 1 587 0
 603 0032 0320     		movs	r0, #3
 604 0034 7047     		bx	lr
 605              	.LVL60:
 606              	.L77:
 552:.\Generated_Source\PSoC5/I2C_1_MASTER.c **** 
 607              		.loc 1 552 0
 608 0036 0220     		movs	r0, #2
 609              	.LVL61:
 588:.\Generated_Source\PSoC5/I2C_1_MASTER.c ****         }
 589:.\Generated_Source\PSoC5/I2C_1_MASTER.c ****     }
 590:.\Generated_Source\PSoC5/I2C_1_MASTER.c **** 
 591:.\Generated_Source\PSoC5/I2C_1_MASTER.c ****     return(errStatus);
 592:.\Generated_Source\PSoC5/I2C_1_MASTER.c **** }
 610              		.loc 1 592 0
 611 0038 7047     		bx	lr
 612              	.L81:
 613 003a 00BF     		.align	2
 614              	.L80:
 615 003c D9490040 		.word	1073760729
 616 0040 D8490040 		.word	1073760728
 617 0044 D7490040 		.word	1073760727
 618 0048 00000000 		.word	I2C_1_state
 619              		.cfi_endproc
 620              	.LFE5:
 621              		.size	I2C_1_MasterWriteByte, .-I2C_1_MasterWriteByte
 622              		.section	.text.I2C_1_MasterReadByte,"ax",%progbits
 623              		.align	1
 624              		.global	I2C_1_MasterReadByte
 625              		.thumb
 626              		.thumb_func
 627              		.type	I2C_1_MasterReadByte, %function
 628              	I2C_1_MasterReadByte:
 629              	.LFB6:
 593:.\Generated_Source\PSoC5/I2C_1_MASTER.c **** 
 594:.\Generated_Source\PSoC5/I2C_1_MASTER.c **** 
 595:.\Generated_Source\PSoC5/I2C_1_MASTER.c **** /*******************************************************************************
 596:.\Generated_Source\PSoC5/I2C_1_MASTER.c **** * Function Name: I2C_1_MasterReadByte
 597:.\Generated_Source\PSoC5/I2C_1_MASTER.c **** ********************************************************************************
ARM GAS  C:\Users\acer\AppData\Local\Temp\ccJ7mpj2.s 			page 23


 598:.\Generated_Source\PSoC5/I2C_1_MASTER.c **** *
 599:.\Generated_Source\PSoC5/I2C_1_MASTER.c **** * Summary:
 600:.\Generated_Source\PSoC5/I2C_1_MASTER.c **** *  Reads one byte from a slave and ACK or NACK the transfer. A valid Start or
 601:.\Generated_Source\PSoC5/I2C_1_MASTER.c **** *  ReStart condition must be generated before this call this function. Function
 602:.\Generated_Source\PSoC5/I2C_1_MASTER.c **** *  do nothing if Start or Restart condition was failed before call this
 603:.\Generated_Source\PSoC5/I2C_1_MASTER.c **** *  function.
 604:.\Generated_Source\PSoC5/I2C_1_MASTER.c **** *
 605:.\Generated_Source\PSoC5/I2C_1_MASTER.c **** * Parameters:
 606:.\Generated_Source\PSoC5/I2C_1_MASTER.c **** *  acknNack:  Zero, response with NACK, if non-zero response with ACK.
 607:.\Generated_Source\PSoC5/I2C_1_MASTER.c **** *
 608:.\Generated_Source\PSoC5/I2C_1_MASTER.c **** * Return:
 609:.\Generated_Source\PSoC5/I2C_1_MASTER.c **** *  Byte read from slave.
 610:.\Generated_Source\PSoC5/I2C_1_MASTER.c **** *
 611:.\Generated_Source\PSoC5/I2C_1_MASTER.c **** * Side Effects:
 612:.\Generated_Source\PSoC5/I2C_1_MASTER.c **** *  This function is entered without a "byte complete" bit set in the I2C_CSR
 613:.\Generated_Source\PSoC5/I2C_1_MASTER.c **** *  register. It does not exit until it is set.
 614:.\Generated_Source\PSoC5/I2C_1_MASTER.c **** *
 615:.\Generated_Source\PSoC5/I2C_1_MASTER.c **** * Global variables:
 616:.\Generated_Source\PSoC5/I2C_1_MASTER.c **** *  I2C_1_state - The global variable used to store a current
 617:.\Generated_Source\PSoC5/I2C_1_MASTER.c **** *                           state of the software FSM.
 618:.\Generated_Source\PSoC5/I2C_1_MASTER.c **** *
 619:.\Generated_Source\PSoC5/I2C_1_MASTER.c **** * Reentrant:
 620:.\Generated_Source\PSoC5/I2C_1_MASTER.c **** *  No.
 621:.\Generated_Source\PSoC5/I2C_1_MASTER.c **** *
 622:.\Generated_Source\PSoC5/I2C_1_MASTER.c **** *******************************************************************************/
 623:.\Generated_Source\PSoC5/I2C_1_MASTER.c **** uint8 I2C_1_MasterReadByte(uint8 acknNak) 
 624:.\Generated_Source\PSoC5/I2C_1_MASTER.c **** {
 630              		.loc 1 624 0
 631              		.cfi_startproc
 632              		@ args = 0, pretend = 0, frame = 0
 633              		@ frame_needed = 0, uses_anonymous_args = 0
 634              		@ link register save eliminated.
 635              	.LVL62:
 625:.\Generated_Source\PSoC5/I2C_1_MASTER.c ****     uint8 theByte;
 626:.\Generated_Source\PSoC5/I2C_1_MASTER.c **** 
 627:.\Generated_Source\PSoC5/I2C_1_MASTER.c ****     theByte = 0u;
 628:.\Generated_Source\PSoC5/I2C_1_MASTER.c **** 
 629:.\Generated_Source\PSoC5/I2C_1_MASTER.c ****     /* Check if START condition was generated */
 630:.\Generated_Source\PSoC5/I2C_1_MASTER.c ****     if(I2C_1_CHECK_MASTER_MODE(I2C_1_MCSR_REG))
 636              		.loc 1 630 0
 637 0000 104B     		ldr	r3, .L90
 624:.\Generated_Source\PSoC5/I2C_1_MASTER.c ****     uint8 theByte;
 638              		.loc 1 624 0
 639 0002 0146     		mov	r1, r0
 640              		.loc 1 630 0
 641 0004 1A78     		ldrb	r2, [r3]	@ zero_extendqisi2
 642 0006 02F00402 		and	r2, r2, #4
 643 000a 02F0FF03 		and	r3, r2, #255
 644 000e B2B1     		cbz	r2, .L87
 631:.\Generated_Source\PSoC5/I2C_1_MASTER.c ****     {
 632:.\Generated_Source\PSoC5/I2C_1_MASTER.c ****         /* When address phase needs to release bus and receive byte,
 633:.\Generated_Source\PSoC5/I2C_1_MASTER.c ****         * then decide ACK or NACK
 634:.\Generated_Source\PSoC5/I2C_1_MASTER.c ****         */
 635:.\Generated_Source\PSoC5/I2C_1_MASTER.c ****         if(I2C_1_SM_MSTR_RD_ADDR == I2C_1_state)
 645              		.loc 1 635 0
 646 0010 0D4A     		ldr	r2, .L90+4
 647 0012 1378     		ldrb	r3, [r2]	@ zero_extendqisi2
ARM GAS  C:\Users\acer\AppData\Local\Temp\ccJ7mpj2.s 			page 24


 648 0014 492B     		cmp	r3, #73
 649 0016 0D4B     		ldr	r3, .L90+8
 636:.\Generated_Source\PSoC5/I2C_1_MASTER.c ****         {
 637:.\Generated_Source\PSoC5/I2C_1_MASTER.c ****             I2C_1_READY_TO_READ_MANUAL;
 650              		.loc 1 637 0
 651 0018 01BF     		itttt	eq
 652 001a 0020     		moveq	r0, #0
 653              	.LVL63:
 654 001c 1870     		strbeq	r0, [r3]
 638:.\Generated_Source\PSoC5/I2C_1_MASTER.c ****             I2C_1_state = I2C_1_SM_MSTR_RD_DATA;
 655              		.loc 1 638 0
 656 001e 4A20     		moveq	r0, #74
 657 0020 1070     		strbeq	r0, [r2]
 658              	.L85:
 639:.\Generated_Source\PSoC5/I2C_1_MASTER.c ****         }
 640:.\Generated_Source\PSoC5/I2C_1_MASTER.c **** 
 641:.\Generated_Source\PSoC5/I2C_1_MASTER.c ****         /* Wait until data byte has been received */
 642:.\Generated_Source\PSoC5/I2C_1_MASTER.c ****         while(I2C_1_WAIT_BYTE_COMPLETE(I2C_1_CSR_REG))
 659              		.loc 1 642 0 discriminator 1
 660 0022 1878     		ldrb	r0, [r3]	@ zero_extendqisi2
 661 0024 C007     		lsls	r0, r0, #31
 662 0026 FCD5     		bpl	.L85
 643:.\Generated_Source\PSoC5/I2C_1_MASTER.c ****         {
 644:.\Generated_Source\PSoC5/I2C_1_MASTER.c ****         }
 645:.\Generated_Source\PSoC5/I2C_1_MASTER.c **** 
 646:.\Generated_Source\PSoC5/I2C_1_MASTER.c ****         theByte = I2C_1_DATA_REG;
 663              		.loc 1 646 0
 664 0028 094B     		ldr	r3, .L90+12
 665 002a 1B78     		ldrb	r3, [r3]	@ zero_extendqisi2
 666 002c D8B2     		uxtb	r0, r3
 667              	.LVL64:
 647:.\Generated_Source\PSoC5/I2C_1_MASTER.c **** 
 648:.\Generated_Source\PSoC5/I2C_1_MASTER.c ****         /* Command ACK to receive next byte and continue transfer.
 649:.\Generated_Source\PSoC5/I2C_1_MASTER.c ****         *  Do nothing for NACK. The NACK will be generated by
 650:.\Generated_Source\PSoC5/I2C_1_MASTER.c ****         *  Stop or ReStart routine.
 651:.\Generated_Source\PSoC5/I2C_1_MASTER.c ****         */
 652:.\Generated_Source\PSoC5/I2C_1_MASTER.c ****         if(acknNak != 0u) /* Generate ACK */
 668              		.loc 1 652 0
 669 002e 19B1     		cbz	r1, .L86
 653:.\Generated_Source\PSoC5/I2C_1_MASTER.c ****         {
 654:.\Generated_Source\PSoC5/I2C_1_MASTER.c ****             I2C_1_ACK_AND_RECEIVE_MANUAL;
 670              		.loc 1 654 0
 671 0030 064B     		ldr	r3, .L90+8
 672 0032 1022     		movs	r2, #16
 673 0034 1A70     		strb	r2, [r3]
 674 0036 7047     		bx	lr
 675              	.L86:
 655:.\Generated_Source\PSoC5/I2C_1_MASTER.c ****         }
 656:.\Generated_Source\PSoC5/I2C_1_MASTER.c ****         else              /* Do nothing for the follwong NACK */
 657:.\Generated_Source\PSoC5/I2C_1_MASTER.c ****         {
 658:.\Generated_Source\PSoC5/I2C_1_MASTER.c ****             I2C_1_state = I2C_1_SM_MSTR_HALT;
 676              		.loc 1 658 0
 677 0038 6023     		movs	r3, #96
 678 003a 1370     		strb	r3, [r2]
 679 003c 7047     		bx	lr
 680              	.LVL65:
 681              	.L87:
ARM GAS  C:\Users\acer\AppData\Local\Temp\ccJ7mpj2.s 			page 25


 627:.\Generated_Source\PSoC5/I2C_1_MASTER.c **** 
 682              		.loc 1 627 0
 683 003e 1846     		mov	r0, r3
 684              	.LVL66:
 659:.\Generated_Source\PSoC5/I2C_1_MASTER.c ****         }
 660:.\Generated_Source\PSoC5/I2C_1_MASTER.c ****     }
 661:.\Generated_Source\PSoC5/I2C_1_MASTER.c **** 
 662:.\Generated_Source\PSoC5/I2C_1_MASTER.c ****     return(theByte);
 663:.\Generated_Source\PSoC5/I2C_1_MASTER.c **** }
 685              		.loc 1 663 0
 686 0040 7047     		bx	lr
 687              	.L91:
 688 0042 00BF     		.align	2
 689              	.L90:
 690 0044 D9490040 		.word	1073760729
 691 0048 00000000 		.word	I2C_1_state
 692 004c D7490040 		.word	1073760727
 693 0050 D8490040 		.word	1073760728
 694              		.cfi_endproc
 695              	.LFE6:
 696              		.size	I2C_1_MasterReadByte, .-I2C_1_MasterReadByte
 697              		.section	.text.I2C_1_MasterStatus,"ax",%progbits
 698              		.align	1
 699              		.global	I2C_1_MasterStatus
 700              		.thumb
 701              		.thumb_func
 702              		.type	I2C_1_MasterStatus, %function
 703              	I2C_1_MasterStatus:
 704              	.LFB7:
 664:.\Generated_Source\PSoC5/I2C_1_MASTER.c **** 
 665:.\Generated_Source\PSoC5/I2C_1_MASTER.c **** 
 666:.\Generated_Source\PSoC5/I2C_1_MASTER.c **** /*******************************************************************************
 667:.\Generated_Source\PSoC5/I2C_1_MASTER.c **** * Function Name: I2C_1_MasterStatus
 668:.\Generated_Source\PSoC5/I2C_1_MASTER.c **** ********************************************************************************
 669:.\Generated_Source\PSoC5/I2C_1_MASTER.c **** *
 670:.\Generated_Source\PSoC5/I2C_1_MASTER.c **** * Summary:
 671:.\Generated_Source\PSoC5/I2C_1_MASTER.c **** *  Returns the master's communication status.
 672:.\Generated_Source\PSoC5/I2C_1_MASTER.c **** *
 673:.\Generated_Source\PSoC5/I2C_1_MASTER.c **** * Parameters:
 674:.\Generated_Source\PSoC5/I2C_1_MASTER.c **** *  None.
 675:.\Generated_Source\PSoC5/I2C_1_MASTER.c **** *
 676:.\Generated_Source\PSoC5/I2C_1_MASTER.c **** * Return:
 677:.\Generated_Source\PSoC5/I2C_1_MASTER.c **** *  Current status of I2C master.
 678:.\Generated_Source\PSoC5/I2C_1_MASTER.c **** *
 679:.\Generated_Source\PSoC5/I2C_1_MASTER.c **** * Global variables:
 680:.\Generated_Source\PSoC5/I2C_1_MASTER.c **** *  I2C_1_mstrStatus - The global variable used to store a current
 681:.\Generated_Source\PSoC5/I2C_1_MASTER.c **** *                                status of the I2C Master.
 682:.\Generated_Source\PSoC5/I2C_1_MASTER.c **** *
 683:.\Generated_Source\PSoC5/I2C_1_MASTER.c **** *******************************************************************************/
 684:.\Generated_Source\PSoC5/I2C_1_MASTER.c **** uint8 I2C_1_MasterStatus(void) 
 685:.\Generated_Source\PSoC5/I2C_1_MASTER.c **** {
 705              		.loc 1 685 0
 706              		.cfi_startproc
 707              		@ args = 0, pretend = 0, frame = 0
 708              		@ frame_needed = 0, uses_anonymous_args = 0
 709              		@ link register save eliminated.
 686:.\Generated_Source\PSoC5/I2C_1_MASTER.c ****     uint8 status;
ARM GAS  C:\Users\acer\AppData\Local\Temp\ccJ7mpj2.s 			page 26


 687:.\Generated_Source\PSoC5/I2C_1_MASTER.c **** 
 688:.\Generated_Source\PSoC5/I2C_1_MASTER.c ****     I2C_1_DisableInt(); /* Lock from interrupt */
 710              		.loc 1 688 0
 711 0000 074A     		ldr	r2, .L97
 712 0002 4FF40043 		mov	r3, #32768
 713 0006 1360     		str	r3, [r2]
 689:.\Generated_Source\PSoC5/I2C_1_MASTER.c **** 
 690:.\Generated_Source\PSoC5/I2C_1_MASTER.c ****     /* Read master status */
 691:.\Generated_Source\PSoC5/I2C_1_MASTER.c ****     status = I2C_1_mstrStatus;
 714              		.loc 1 691 0
 715 0008 064A     		ldr	r2, .L97+4
 716 000a 1078     		ldrb	r0, [r2]	@ zero_extendqisi2
 692:.\Generated_Source\PSoC5/I2C_1_MASTER.c **** 
 693:.\Generated_Source\PSoC5/I2C_1_MASTER.c ****     if (I2C_1_CHECK_SM_MASTER)
 717              		.loc 1 693 0
 718 000c 064A     		ldr	r2, .L97+8
 691:.\Generated_Source\PSoC5/I2C_1_MASTER.c **** 
 719              		.loc 1 691 0
 720 000e C0B2     		uxtb	r0, r0
 721              	.LVL67:
 722              		.loc 1 693 0
 723 0010 1278     		ldrb	r2, [r2]	@ zero_extendqisi2
 724 0012 5206     		lsls	r2, r2, #25
 694:.\Generated_Source\PSoC5/I2C_1_MASTER.c ****     {
 695:.\Generated_Source\PSoC5/I2C_1_MASTER.c ****         /* Set transfer in progress flag in status */
 696:.\Generated_Source\PSoC5/I2C_1_MASTER.c ****         status |= I2C_1_MSTAT_XFER_INP;
 697:.\Generated_Source\PSoC5/I2C_1_MASTER.c ****     }
 698:.\Generated_Source\PSoC5/I2C_1_MASTER.c **** 
 699:.\Generated_Source\PSoC5/I2C_1_MASTER.c ****     I2C_1_EnableInt(); /* Release lock */
 725              		.loc 1 699 0
 726 0014 054A     		ldr	r2, .L97+12
 696:.\Generated_Source\PSoC5/I2C_1_MASTER.c ****     }
 727              		.loc 1 696 0
 728 0016 48BF     		it	mi
 729 0018 40F00400 		orrmi	r0, r0, #4
 730              	.LVL68:
 731              		.loc 1 699 0
 732 001c 1360     		str	r3, [r2]
 700:.\Generated_Source\PSoC5/I2C_1_MASTER.c **** 
 701:.\Generated_Source\PSoC5/I2C_1_MASTER.c ****     return (status);
 702:.\Generated_Source\PSoC5/I2C_1_MASTER.c **** }
 733              		.loc 1 702 0
 734 001e 7047     		bx	lr
 735              	.L98:
 736              		.align	2
 737              	.L97:
 738 0020 80E100E0 		.word	-536813184
 739 0024 00000000 		.word	I2C_1_mstrStatus
 740 0028 00000000 		.word	I2C_1_state
 741 002c 00E100E0 		.word	-536813312
 742              		.cfi_endproc
 743              	.LFE7:
 744              		.size	I2C_1_MasterStatus, .-I2C_1_MasterStatus
 745              		.section	.text.I2C_1_MasterClearStatus,"ax",%progbits
 746              		.align	1
 747              		.global	I2C_1_MasterClearStatus
 748              		.thumb
ARM GAS  C:\Users\acer\AppData\Local\Temp\ccJ7mpj2.s 			page 27


 749              		.thumb_func
 750              		.type	I2C_1_MasterClearStatus, %function
 751              	I2C_1_MasterClearStatus:
 752              	.LFB8:
 703:.\Generated_Source\PSoC5/I2C_1_MASTER.c **** 
 704:.\Generated_Source\PSoC5/I2C_1_MASTER.c **** 
 705:.\Generated_Source\PSoC5/I2C_1_MASTER.c **** /*******************************************************************************
 706:.\Generated_Source\PSoC5/I2C_1_MASTER.c **** * Function Name: I2C_1_MasterClearStatus
 707:.\Generated_Source\PSoC5/I2C_1_MASTER.c **** ********************************************************************************
 708:.\Generated_Source\PSoC5/I2C_1_MASTER.c **** *
 709:.\Generated_Source\PSoC5/I2C_1_MASTER.c **** * Summary:
 710:.\Generated_Source\PSoC5/I2C_1_MASTER.c **** *  Clears all status flags and returns the master status.
 711:.\Generated_Source\PSoC5/I2C_1_MASTER.c **** *
 712:.\Generated_Source\PSoC5/I2C_1_MASTER.c **** * Parameters:
 713:.\Generated_Source\PSoC5/I2C_1_MASTER.c **** *  None.
 714:.\Generated_Source\PSoC5/I2C_1_MASTER.c **** *
 715:.\Generated_Source\PSoC5/I2C_1_MASTER.c **** * Return:
 716:.\Generated_Source\PSoC5/I2C_1_MASTER.c **** *  Current status of I2C master.
 717:.\Generated_Source\PSoC5/I2C_1_MASTER.c **** *
 718:.\Generated_Source\PSoC5/I2C_1_MASTER.c **** * Global variables:
 719:.\Generated_Source\PSoC5/I2C_1_MASTER.c **** *  I2C_1_mstrStatus - The global variable used to store a current
 720:.\Generated_Source\PSoC5/I2C_1_MASTER.c **** *                                status of the I2C Master.
 721:.\Generated_Source\PSoC5/I2C_1_MASTER.c **** *
 722:.\Generated_Source\PSoC5/I2C_1_MASTER.c **** * Reentrant:
 723:.\Generated_Source\PSoC5/I2C_1_MASTER.c **** *  No.
 724:.\Generated_Source\PSoC5/I2C_1_MASTER.c **** *
 725:.\Generated_Source\PSoC5/I2C_1_MASTER.c **** *******************************************************************************/
 726:.\Generated_Source\PSoC5/I2C_1_MASTER.c **** uint8 I2C_1_MasterClearStatus(void) 
 727:.\Generated_Source\PSoC5/I2C_1_MASTER.c **** {
 753              		.loc 1 727 0
 754              		.cfi_startproc
 755              		@ args = 0, pretend = 0, frame = 0
 756              		@ frame_needed = 0, uses_anonymous_args = 0
 757              		@ link register save eliminated.
 728:.\Generated_Source\PSoC5/I2C_1_MASTER.c ****     uint8 status;
 729:.\Generated_Source\PSoC5/I2C_1_MASTER.c **** 
 730:.\Generated_Source\PSoC5/I2C_1_MASTER.c ****     I2C_1_DisableInt(); /* Lock from interrupt */
 758              		.loc 1 730 0
 759 0000 054A     		ldr	r2, .L100
 760 0002 4FF40043 		mov	r3, #32768
 761 0006 1360     		str	r3, [r2]
 731:.\Generated_Source\PSoC5/I2C_1_MASTER.c **** 
 732:.\Generated_Source\PSoC5/I2C_1_MASTER.c ****     /* Read and clear master status */
 733:.\Generated_Source\PSoC5/I2C_1_MASTER.c ****     status = I2C_1_mstrStatus;
 762              		.loc 1 733 0
 763 0008 044A     		ldr	r2, .L100+4
 734:.\Generated_Source\PSoC5/I2C_1_MASTER.c ****     I2C_1_mstrStatus = I2C_1_MSTAT_CLEAR;
 764              		.loc 1 734 0
 765 000a 0021     		movs	r1, #0
 733:.\Generated_Source\PSoC5/I2C_1_MASTER.c ****     I2C_1_mstrStatus = I2C_1_MSTAT_CLEAR;
 766              		.loc 1 733 0
 767 000c 1078     		ldrb	r0, [r2]	@ zero_extendqisi2
 768              	.LVL69:
 769              		.loc 1 734 0
 770 000e 1170     		strb	r1, [r2]
 735:.\Generated_Source\PSoC5/I2C_1_MASTER.c **** 
 736:.\Generated_Source\PSoC5/I2C_1_MASTER.c ****     I2C_1_EnableInt(); /* Release lock */
ARM GAS  C:\Users\acer\AppData\Local\Temp\ccJ7mpj2.s 			page 28


 771              		.loc 1 736 0
 772 0010 034A     		ldr	r2, .L100+8
 773 0012 1360     		str	r3, [r2]
 737:.\Generated_Source\PSoC5/I2C_1_MASTER.c **** 
 738:.\Generated_Source\PSoC5/I2C_1_MASTER.c ****     return (status);
 739:.\Generated_Source\PSoC5/I2C_1_MASTER.c **** }
 774              		.loc 1 739 0
 775 0014 7047     		bx	lr
 776              	.L101:
 777 0016 00BF     		.align	2
 778              	.L100:
 779 0018 80E100E0 		.word	-536813184
 780 001c 00000000 		.word	I2C_1_mstrStatus
 781 0020 00E100E0 		.word	-536813312
 782              		.cfi_endproc
 783              	.LFE8:
 784              		.size	I2C_1_MasterClearStatus, .-I2C_1_MasterClearStatus
 785              		.section	.text.I2C_1_MasterGetReadBufSize,"ax",%progbits
 786              		.align	1
 787              		.global	I2C_1_MasterGetReadBufSize
 788              		.thumb
 789              		.thumb_func
 790              		.type	I2C_1_MasterGetReadBufSize, %function
 791              	I2C_1_MasterGetReadBufSize:
 792              	.LFB9:
 740:.\Generated_Source\PSoC5/I2C_1_MASTER.c **** 
 741:.\Generated_Source\PSoC5/I2C_1_MASTER.c **** 
 742:.\Generated_Source\PSoC5/I2C_1_MASTER.c **** /*******************************************************************************
 743:.\Generated_Source\PSoC5/I2C_1_MASTER.c **** * Function Name: I2C_1_MasterGetReadBufSize
 744:.\Generated_Source\PSoC5/I2C_1_MASTER.c **** ********************************************************************************
 745:.\Generated_Source\PSoC5/I2C_1_MASTER.c **** *
 746:.\Generated_Source\PSoC5/I2C_1_MASTER.c **** * Summary:
 747:.\Generated_Source\PSoC5/I2C_1_MASTER.c **** *  Returns the amount of bytes that has been transferred with an
 748:.\Generated_Source\PSoC5/I2C_1_MASTER.c **** *  I2C_MasterReadBuf command.
 749:.\Generated_Source\PSoC5/I2C_1_MASTER.c **** *
 750:.\Generated_Source\PSoC5/I2C_1_MASTER.c **** * Parameters:
 751:.\Generated_Source\PSoC5/I2C_1_MASTER.c **** *  None.
 752:.\Generated_Source\PSoC5/I2C_1_MASTER.c **** *
 753:.\Generated_Source\PSoC5/I2C_1_MASTER.c **** * Return:
 754:.\Generated_Source\PSoC5/I2C_1_MASTER.c **** *  Byte count of transfer. If the transfer is not yet complete, it will return
 755:.\Generated_Source\PSoC5/I2C_1_MASTER.c **** *  the byte count transferred so far.
 756:.\Generated_Source\PSoC5/I2C_1_MASTER.c **** *
 757:.\Generated_Source\PSoC5/I2C_1_MASTER.c **** * Global variables:
 758:.\Generated_Source\PSoC5/I2C_1_MASTER.c **** *  I2C_1_mstrRdBufIndex - The global variable stores current index
 759:.\Generated_Source\PSoC5/I2C_1_MASTER.c **** *                                    within the master read buffer.
 760:.\Generated_Source\PSoC5/I2C_1_MASTER.c **** *
 761:.\Generated_Source\PSoC5/I2C_1_MASTER.c **** *******************************************************************************/
 762:.\Generated_Source\PSoC5/I2C_1_MASTER.c **** uint8 I2C_1_MasterGetReadBufSize(void) 
 763:.\Generated_Source\PSoC5/I2C_1_MASTER.c **** {
 793              		.loc 1 763 0
 794              		.cfi_startproc
 795              		@ args = 0, pretend = 0, frame = 0
 796              		@ frame_needed = 0, uses_anonymous_args = 0
 797              		@ link register save eliminated.
 764:.\Generated_Source\PSoC5/I2C_1_MASTER.c ****     return (I2C_1_mstrRdBufIndex);
 798              		.loc 1 764 0
 799 0000 014B     		ldr	r3, .L103
ARM GAS  C:\Users\acer\AppData\Local\Temp\ccJ7mpj2.s 			page 29


 800 0002 1878     		ldrb	r0, [r3]	@ zero_extendqisi2
 765:.\Generated_Source\PSoC5/I2C_1_MASTER.c **** }
 801              		.loc 1 765 0
 802 0004 7047     		bx	lr
 803              	.L104:
 804 0006 00BF     		.align	2
 805              	.L103:
 806 0008 00000000 		.word	I2C_1_mstrRdBufIndex
 807              		.cfi_endproc
 808              	.LFE9:
 809              		.size	I2C_1_MasterGetReadBufSize, .-I2C_1_MasterGetReadBufSize
 810              		.section	.text.I2C_1_MasterGetWriteBufSize,"ax",%progbits
 811              		.align	1
 812              		.global	I2C_1_MasterGetWriteBufSize
 813              		.thumb
 814              		.thumb_func
 815              		.type	I2C_1_MasterGetWriteBufSize, %function
 816              	I2C_1_MasterGetWriteBufSize:
 817              	.LFB10:
 766:.\Generated_Source\PSoC5/I2C_1_MASTER.c **** 
 767:.\Generated_Source\PSoC5/I2C_1_MASTER.c **** 
 768:.\Generated_Source\PSoC5/I2C_1_MASTER.c **** /*******************************************************************************
 769:.\Generated_Source\PSoC5/I2C_1_MASTER.c **** * Function Name: I2C_1_MasterGetWriteBufSize
 770:.\Generated_Source\PSoC5/I2C_1_MASTER.c **** ********************************************************************************
 771:.\Generated_Source\PSoC5/I2C_1_MASTER.c **** *
 772:.\Generated_Source\PSoC5/I2C_1_MASTER.c **** * Summary:
 773:.\Generated_Source\PSoC5/I2C_1_MASTER.c **** *  Returns the amount of bytes that has been transferred with an
 774:.\Generated_Source\PSoC5/I2C_1_MASTER.c **** *  I2C_MasterWriteBuf command.
 775:.\Generated_Source\PSoC5/I2C_1_MASTER.c **** *
 776:.\Generated_Source\PSoC5/I2C_1_MASTER.c **** * Parameters:
 777:.\Generated_Source\PSoC5/I2C_1_MASTER.c **** *  None.
 778:.\Generated_Source\PSoC5/I2C_1_MASTER.c **** *
 779:.\Generated_Source\PSoC5/I2C_1_MASTER.c **** * Return:
 780:.\Generated_Source\PSoC5/I2C_1_MASTER.c **** *  Byte count of transfer. If the transfer is not yet complete, it will return
 781:.\Generated_Source\PSoC5/I2C_1_MASTER.c **** *  the byte count transferred so far.
 782:.\Generated_Source\PSoC5/I2C_1_MASTER.c **** *
 783:.\Generated_Source\PSoC5/I2C_1_MASTER.c **** * Global variables:
 784:.\Generated_Source\PSoC5/I2C_1_MASTER.c **** *  I2C_1_mstrWrBufIndex -  The global variable used to stores current
 785:.\Generated_Source\PSoC5/I2C_1_MASTER.c **** *                                     index within master write buffer.
 786:.\Generated_Source\PSoC5/I2C_1_MASTER.c **** *
 787:.\Generated_Source\PSoC5/I2C_1_MASTER.c **** *******************************************************************************/
 788:.\Generated_Source\PSoC5/I2C_1_MASTER.c **** uint8 I2C_1_MasterGetWriteBufSize(void) 
 789:.\Generated_Source\PSoC5/I2C_1_MASTER.c **** {
 818              		.loc 1 789 0
 819              		.cfi_startproc
 820              		@ args = 0, pretend = 0, frame = 0
 821              		@ frame_needed = 0, uses_anonymous_args = 0
 822              		@ link register save eliminated.
 790:.\Generated_Source\PSoC5/I2C_1_MASTER.c ****     return (I2C_1_mstrWrBufIndex);
 823              		.loc 1 790 0
 824 0000 014B     		ldr	r3, .L106
 825 0002 1878     		ldrb	r0, [r3]	@ zero_extendqisi2
 791:.\Generated_Source\PSoC5/I2C_1_MASTER.c **** }
 826              		.loc 1 791 0
 827 0004 7047     		bx	lr
 828              	.L107:
 829 0006 00BF     		.align	2
ARM GAS  C:\Users\acer\AppData\Local\Temp\ccJ7mpj2.s 			page 30


 830              	.L106:
 831 0008 00000000 		.word	I2C_1_mstrWrBufIndex
 832              		.cfi_endproc
 833              	.LFE10:
 834              		.size	I2C_1_MasterGetWriteBufSize, .-I2C_1_MasterGetWriteBufSize
 835              		.section	.text.I2C_1_MasterClearReadBuf,"ax",%progbits
 836              		.align	1
 837              		.global	I2C_1_MasterClearReadBuf
 838              		.thumb
 839              		.thumb_func
 840              		.type	I2C_1_MasterClearReadBuf, %function
 841              	I2C_1_MasterClearReadBuf:
 842              	.LFB11:
 792:.\Generated_Source\PSoC5/I2C_1_MASTER.c **** 
 793:.\Generated_Source\PSoC5/I2C_1_MASTER.c **** 
 794:.\Generated_Source\PSoC5/I2C_1_MASTER.c **** /*******************************************************************************
 795:.\Generated_Source\PSoC5/I2C_1_MASTER.c **** * Function Name: I2C_1_MasterClearReadBuf
 796:.\Generated_Source\PSoC5/I2C_1_MASTER.c **** ********************************************************************************
 797:.\Generated_Source\PSoC5/I2C_1_MASTER.c **** *
 798:.\Generated_Source\PSoC5/I2C_1_MASTER.c **** * Summary:
 799:.\Generated_Source\PSoC5/I2C_1_MASTER.c **** *  Resets the read buffer pointer back to the first byte in the buffer.
 800:.\Generated_Source\PSoC5/I2C_1_MASTER.c **** *
 801:.\Generated_Source\PSoC5/I2C_1_MASTER.c **** * Parameters:
 802:.\Generated_Source\PSoC5/I2C_1_MASTER.c **** *  None.
 803:.\Generated_Source\PSoC5/I2C_1_MASTER.c **** *
 804:.\Generated_Source\PSoC5/I2C_1_MASTER.c **** * Return:
 805:.\Generated_Source\PSoC5/I2C_1_MASTER.c **** *  None.
 806:.\Generated_Source\PSoC5/I2C_1_MASTER.c **** *
 807:.\Generated_Source\PSoC5/I2C_1_MASTER.c **** * Global variables:
 808:.\Generated_Source\PSoC5/I2C_1_MASTER.c **** *  I2C_1_mstrRdBufIndex - The global variable used to stores current
 809:.\Generated_Source\PSoC5/I2C_1_MASTER.c **** *                                    index within master read buffer.
 810:.\Generated_Source\PSoC5/I2C_1_MASTER.c **** *  I2C_1_mstrStatus - The global variable used to store a current
 811:.\Generated_Source\PSoC5/I2C_1_MASTER.c **** *                                status of the I2C Master.
 812:.\Generated_Source\PSoC5/I2C_1_MASTER.c **** *
 813:.\Generated_Source\PSoC5/I2C_1_MASTER.c **** * Reentrant:
 814:.\Generated_Source\PSoC5/I2C_1_MASTER.c **** *  No.
 815:.\Generated_Source\PSoC5/I2C_1_MASTER.c **** *
 816:.\Generated_Source\PSoC5/I2C_1_MASTER.c **** *******************************************************************************/
 817:.\Generated_Source\PSoC5/I2C_1_MASTER.c **** void I2C_1_MasterClearReadBuf(void) 
 818:.\Generated_Source\PSoC5/I2C_1_MASTER.c **** {
 843              		.loc 1 818 0
 844              		.cfi_startproc
 845              		@ args = 0, pretend = 0, frame = 0
 846              		@ frame_needed = 0, uses_anonymous_args = 0
 847              		@ link register save eliminated.
 819:.\Generated_Source\PSoC5/I2C_1_MASTER.c ****     I2C_1_DisableInt(); /* Lock from interrupt */
 848              		.loc 1 819 0
 849 0000 074B     		ldr	r3, .L109
 850 0002 4FF40042 		mov	r2, #32768
 851 0006 1A60     		str	r2, [r3]
 820:.\Generated_Source\PSoC5/I2C_1_MASTER.c **** 
 821:.\Generated_Source\PSoC5/I2C_1_MASTER.c ****     I2C_1_mstrRdBufIndex = 0u;
 852              		.loc 1 821 0
 853 0008 064B     		ldr	r3, .L109+4
 854 000a 0021     		movs	r1, #0
 855 000c 1970     		strb	r1, [r3]
 822:.\Generated_Source\PSoC5/I2C_1_MASTER.c ****     I2C_1_mstrStatus    &= (uint8) ~I2C_1_MSTAT_RD_CMPLT;
ARM GAS  C:\Users\acer\AppData\Local\Temp\ccJ7mpj2.s 			page 31


 856              		.loc 1 822 0
 857 000e 0649     		ldr	r1, .L109+8
 858 0010 0B78     		ldrb	r3, [r1]	@ zero_extendqisi2
 859 0012 03F0FE03 		and	r3, r3, #254
 860 0016 0B70     		strb	r3, [r1]
 823:.\Generated_Source\PSoC5/I2C_1_MASTER.c **** 
 824:.\Generated_Source\PSoC5/I2C_1_MASTER.c ****     I2C_1_EnableInt(); /* Release lock */
 861              		.loc 1 824 0
 862 0018 044B     		ldr	r3, .L109+12
 863 001a 1A60     		str	r2, [r3]
 864 001c 7047     		bx	lr
 865              	.L110:
 866 001e 00BF     		.align	2
 867              	.L109:
 868 0020 80E100E0 		.word	-536813184
 869 0024 00000000 		.word	I2C_1_mstrRdBufIndex
 870 0028 00000000 		.word	I2C_1_mstrStatus
 871 002c 00E100E0 		.word	-536813312
 872              		.cfi_endproc
 873              	.LFE11:
 874              		.size	I2C_1_MasterClearReadBuf, .-I2C_1_MasterClearReadBuf
 875              		.section	.text.I2C_1_MasterClearWriteBuf,"ax",%progbits
 876              		.align	1
 877              		.global	I2C_1_MasterClearWriteBuf
 878              		.thumb
 879              		.thumb_func
 880              		.type	I2C_1_MasterClearWriteBuf, %function
 881              	I2C_1_MasterClearWriteBuf:
 882              	.LFB12:
 825:.\Generated_Source\PSoC5/I2C_1_MASTER.c **** }
 826:.\Generated_Source\PSoC5/I2C_1_MASTER.c **** 
 827:.\Generated_Source\PSoC5/I2C_1_MASTER.c **** 
 828:.\Generated_Source\PSoC5/I2C_1_MASTER.c **** /*******************************************************************************
 829:.\Generated_Source\PSoC5/I2C_1_MASTER.c **** * Function Name: I2C_1_MasterClearWriteBuf
 830:.\Generated_Source\PSoC5/I2C_1_MASTER.c **** ********************************************************************************
 831:.\Generated_Source\PSoC5/I2C_1_MASTER.c **** *
 832:.\Generated_Source\PSoC5/I2C_1_MASTER.c **** * Summary:
 833:.\Generated_Source\PSoC5/I2C_1_MASTER.c **** *  Resets the write buffer pointer back to the first byte in the buffer.
 834:.\Generated_Source\PSoC5/I2C_1_MASTER.c **** *
 835:.\Generated_Source\PSoC5/I2C_1_MASTER.c **** * Parameters:
 836:.\Generated_Source\PSoC5/I2C_1_MASTER.c **** *  None.
 837:.\Generated_Source\PSoC5/I2C_1_MASTER.c **** *
 838:.\Generated_Source\PSoC5/I2C_1_MASTER.c **** * Return:
 839:.\Generated_Source\PSoC5/I2C_1_MASTER.c **** *  None.
 840:.\Generated_Source\PSoC5/I2C_1_MASTER.c **** *
 841:.\Generated_Source\PSoC5/I2C_1_MASTER.c **** * Global variables:
 842:.\Generated_Source\PSoC5/I2C_1_MASTER.c **** *  I2C_1_mstrRdBufIndex - The global variable used to stote current
 843:.\Generated_Source\PSoC5/I2C_1_MASTER.c **** *                                    index within master read buffer.
 844:.\Generated_Source\PSoC5/I2C_1_MASTER.c **** *  I2C_1_mstrStatus - The global variable used to store a current
 845:.\Generated_Source\PSoC5/I2C_1_MASTER.c **** *                                status of the I2C Master.
 846:.\Generated_Source\PSoC5/I2C_1_MASTER.c **** *
 847:.\Generated_Source\PSoC5/I2C_1_MASTER.c **** * Reentrant:
 848:.\Generated_Source\PSoC5/I2C_1_MASTER.c **** *  No.
 849:.\Generated_Source\PSoC5/I2C_1_MASTER.c **** *
 850:.\Generated_Source\PSoC5/I2C_1_MASTER.c **** *******************************************************************************/
 851:.\Generated_Source\PSoC5/I2C_1_MASTER.c **** void I2C_1_MasterClearWriteBuf(void) 
 852:.\Generated_Source\PSoC5/I2C_1_MASTER.c **** {
ARM GAS  C:\Users\acer\AppData\Local\Temp\ccJ7mpj2.s 			page 32


 883              		.loc 1 852 0
 884              		.cfi_startproc
 885              		@ args = 0, pretend = 0, frame = 0
 886              		@ frame_needed = 0, uses_anonymous_args = 0
 887              		@ link register save eliminated.
 853:.\Generated_Source\PSoC5/I2C_1_MASTER.c ****     I2C_1_DisableInt(); /* Lock from interrupt */
 888              		.loc 1 853 0
 889 0000 074B     		ldr	r3, .L112
 890 0002 4FF40042 		mov	r2, #32768
 891 0006 1A60     		str	r2, [r3]
 854:.\Generated_Source\PSoC5/I2C_1_MASTER.c **** 
 855:.\Generated_Source\PSoC5/I2C_1_MASTER.c ****     I2C_1_mstrWrBufIndex = 0u;
 892              		.loc 1 855 0
 893 0008 064B     		ldr	r3, .L112+4
 894 000a 0021     		movs	r1, #0
 895 000c 1970     		strb	r1, [r3]
 856:.\Generated_Source\PSoC5/I2C_1_MASTER.c ****     I2C_1_mstrStatus    &= (uint8) ~I2C_1_MSTAT_WR_CMPLT;
 896              		.loc 1 856 0
 897 000e 0649     		ldr	r1, .L112+8
 898 0010 0B78     		ldrb	r3, [r1]	@ zero_extendqisi2
 899 0012 03F0FD03 		and	r3, r3, #253
 900 0016 0B70     		strb	r3, [r1]
 857:.\Generated_Source\PSoC5/I2C_1_MASTER.c **** 
 858:.\Generated_Source\PSoC5/I2C_1_MASTER.c ****     I2C_1_EnableInt(); /* Release lock */
 901              		.loc 1 858 0
 902 0018 044B     		ldr	r3, .L112+12
 903 001a 1A60     		str	r2, [r3]
 904 001c 7047     		bx	lr
 905              	.L113:
 906 001e 00BF     		.align	2
 907              	.L112:
 908 0020 80E100E0 		.word	-536813184
 909 0024 00000000 		.word	I2C_1_mstrWrBufIndex
 910 0028 00000000 		.word	I2C_1_mstrStatus
 911 002c 00E100E0 		.word	-536813312
 912              		.cfi_endproc
 913              	.LFE12:
 914              		.size	I2C_1_MasterClearWriteBuf, .-I2C_1_MasterClearWriteBuf
 915              		.comm	I2C_1_mstrWrBufIndex,1,1
 916              		.comm	I2C_1_mstrWrBufSize,1,1
 917              		.comm	I2C_1_mstrWrBufPtr,4,4
 918              		.comm	I2C_1_mstrRdBufIndex,1,1
 919              		.comm	I2C_1_mstrRdBufSize,1,1
 920              		.comm	I2C_1_mstrRdBufPtr,4,4
 921              		.comm	I2C_1_mstrControl,1,1
 922              		.comm	I2C_1_mstrStatus,1,1
 923              		.text
 924              	.Letext0:
 925              		.file 2 ".\\Generated_Source\\PSoC5\\cytypes.h"
 926              		.file 3 ".\\Generated_Source\\PSoC5\\I2C_1_PVT.h"