ARM GAS  C:\Users\acer\AppData\Local\Temp\ccmxYZNb.s 			page 1


   1              		.syntax unified
   2              		.cpu cortex-m3
   3              		.fpu softvfp
   4              		.eabi_attribute 20, 1
   5              		.eabi_attribute 21, 1
   6              		.eabi_attribute 23, 3
   7              		.eabi_attribute 24, 1
   8              		.eabi_attribute 25, 1
   9              		.eabi_attribute 26, 1
  10              		.eabi_attribute 30, 4
  11              		.eabi_attribute 34, 1
  12              		.eabi_attribute 18, 4
  13              		.thumb
  14              		.file	"imu_i2c.c"
  15              		.text
  16              	.Ltext0:
  17              		.cfi_sections	.debug_frame
  18              		.section	.text.I2C_Mgr,"ax",%progbits
  19              		.align	1
  20              		.global	I2C_Mgr
  21              		.thumb
  22              		.thumb_func
  23              		.type	I2C_Mgr, %function
  24              	I2C_Mgr:
  25              	.LFB0:
  26              		.file 1 ".\\imu_i2c.c"
   1:.\imu_i2c.c   **** /* ========================================
   2:.\imu_i2c.c   ****  *
   3:.\imu_i2c.c   ****  * Copyright YOUR COMPANY, THE YEAR
   4:.\imu_i2c.c   ****  * All Rights Reserved
   5:.\imu_i2c.c   ****  * UNPUBLISHED, LICENSED SOFTWARE.
   6:.\imu_i2c.c   ****  *
   7:.\imu_i2c.c   ****  * CONFIDENTIAL AND PROPRIETARY INFORMATION
   8:.\imu_i2c.c   ****  * WHICH IS THE PROPERTY OF your company.
   9:.\imu_i2c.c   ****  *
  10:.\imu_i2c.c   ****  * ========================================
  11:.\imu_i2c.c   **** */
  12:.\imu_i2c.c   **** 
  13:.\imu_i2c.c   **** // read example @ http://www.lucidarme.me/?p=5057
  14:.\imu_i2c.c   **** #include "I2C_1.h"
  15:.\imu_i2c.c   **** #include "common.h"
  16:.\imu_i2c.c   **** 
  17:.\imu_i2c.c   **** //PressureVal     resolution in 1 pascal / bit
  18:.\imu_i2c.c   **** // TemperatureVal resolution is 0.1 deg c /bit
  19:.\imu_i2c.c   **** // AltitudeVal     0.01 m resolution
  20:.\imu_i2c.c   ****    
  21:.\imu_i2c.c   **** #if(IMU_SENSOR==ENABLE)
  22:.\imu_i2c.c   **** #include <math.h>    
  23:.\imu_i2c.c   **** #include "imu_i2c.h"
  24:.\imu_i2c.c   **** 
  25:.\imu_i2c.c   **** // I2C manager variables
  26:.\imu_i2c.c   **** volatile uint8 stI2CMgr;
  27:.\imu_i2c.c   **** static _UBYTE rx_Slv_add,temp_rx_slv_reg,rx_Slv_dta_lnt; // taperory value for rx function of i2c 
  28:.\imu_i2c.c   **** _UBYTE *rx_rd_data_ptr;
  29:.\imu_i2c.c   **** 
  30:.\imu_i2c.c   **** // IMU variables
  31:.\imu_i2c.c   **** _UINT8 Gyro_Temp_Acc_Read_Data[14]; // stores real time acc, die temp,gyro values receved from i2c
ARM GAS  C:\Users\acer\AppData\Local\Temp\ccmxYZNb.s 			page 2


  32:.\imu_i2c.c   **** _SINT32 OutBuffer[3] = {0,0,0}; // stores integrated gro values
  33:.\imu_i2c.c   **** _SINT16 InBuffer[3] = {0,0,0};  // stores temperory gyro data 
  34:.\imu_i2c.c   **** 
  35:.\imu_i2c.c   **** // manger states
  36:.\imu_i2c.c   **** _UINT8 st_IMU;  // keeps status of initialisation state machine
  37:.\imu_i2c.c   **** _UINT8 st_Read; // store state machine value 
  38:.\imu_i2c.c   **** 
  39:.\imu_i2c.c   **** // gyro globles
  40:.\imu_i2c.c   ****  MPU9250_TypeDef MPU9250_Offset={0,0,0};  // stores ofset perameter for 3 axis of gyro
  41:.\imu_i2c.c   ****  MPU9250_AvgTypeDef MPU9250_Filter_Gyro[3],MPU9250_Filter_Acc[3],MPU9250_Filter_Mag[3];  // buffer 
  42:.\imu_i2c.c   **** _SINT16 gyro[3];
  43:.\imu_i2c.c   **** 
  44:.\imu_i2c.c   **** //magneto
  45:.\imu_i2c.c   **** MPU9250_TypeDef_Off MPU9250_Magn_Offset={0,0,0};
  46:.\imu_i2c.c   **** _UINT8 Mag_Read_Data[7]; // stores magcompas data received and error status
  47:.\imu_i2c.c   ****     
  48:.\imu_i2c.c   **** // complex function variable for angle calculation
  49:.\imu_i2c.c   ****  volatile float q0, q1, q2, q3; 
  50:.\imu_i2c.c   **** 
  51:.\imu_i2c.c   **** // final values of interest
  52:.\imu_i2c.c   **** float MotionVal[9];    // contains final gyro acc,mag values
  53:.\imu_i2c.c   **** float angles[3];       // contains final pich yow roll
  54:.\imu_i2c.c   **** 
  55:.\imu_i2c.c   **** // pressure sensor fglobles
  56:.\imu_i2c.c   **** _SINT32 Pressure0 = MSLP; // pressure at sea level 
  57:.\imu_i2c.c   **** _SINT32 PressureVal, TemperatureVal, AltitudeVal; // stores final values of all
  58:.\imu_i2c.c   **** _UINT8 Alt_Read_Data[2][3]; // stores temperature data [0][] and pressure data [1][]
  59:.\imu_i2c.c   **** _SINT16 AC1, AC2, AC3, B1, B2, MB, MC, MD, _oss;  
  60:.\imu_i2c.c   **** _UINT16 AC4, AC5, AC6;
  61:.\imu_i2c.c   **** _SINT32 B5, UT, UP;
  62:.\imu_i2c.c   **** 
  63:.\imu_i2c.c   **** _UINT8 calc_count,calc_count2; // keeps counter value while calculating average
  64:.\imu_i2c.c   **** const uint8 test_1 =0xD0;  // test register value for pressure sensor, on read shuld give data 0x55
  65:.\imu_i2c.c   **** 
  66:.\imu_i2c.c   **** void I2C_Mgr(void) // 1ms task
  67:.\imu_i2c.c   **** {
  27              		.loc 1 67 0
  28              		.cfi_startproc
  29              		@ args = 0, pretend = 0, frame = 0
  30              		@ frame_needed = 0, uses_anonymous_args = 0
  31 0000 38B5     		push	{r3, r4, r5, lr}
  32              		.cfi_def_cfa_offset 16
  33              		.cfi_offset 3, -16
  34              		.cfi_offset 4, -12
  35              		.cfi_offset 5, -8
  36              		.cfi_offset 14, -4
  68:.\imu_i2c.c   ****     static uint8 i2c_timeout;
  69:.\imu_i2c.c   ****     switch(stI2CMgr)
  37              		.loc 1 69 0
  38 0002 224C     		ldr	r4, .L24
  39 0004 2378     		ldrb	r3, [r4]	@ zero_extendqisi2
  40 0006 013B     		subs	r3, r3, #1
  41 0008 042B     		cmp	r3, #4
  42 000a 3BD8     		bhi	.L2
  43 000c DFE803F0 		tbb	[pc, r3]
  44              	.L4:
  45 0010 03       		.byte	(.L3-.L4)/2
ARM GAS  C:\Users\acer\AppData\Local\Temp\ccmxYZNb.s 			page 3


  46 0011 28       		.byte	(.L5-.L4)/2
  47 0012 0E       		.byte	(.L6-.L4)/2
  48 0013 28       		.byte	(.L5-.L4)/2
  49 0014 3C       		.byte	(.L1-.L4)/2
  50 0015 00       		.p2align 1
  51              	.L3:
  70:.\imu_i2c.c   ****     {
  71:.\imu_i2c.c   ****         case WAIT_FOR_TX: 
  72:.\imu_i2c.c   ****         if(0u != (I2C_1_MasterStatus() & I2C_1_MSTAT_WR_CMPLT))
  52              		.loc 1 72 0
  53 0016 FFF7FEFF 		bl	I2C_1_MasterStatus
  54              	.LVL0:
  55 001a 10F0020F 		tst	r0, #2
  56 001e 1C4A     		ldr	r2, .L24+4
  57 0020 24D1     		bne	.L15
  73:.\imu_i2c.c   ****         {
  74:.\imu_i2c.c   ****             stI2CMgr=IDLE;
  75:.\imu_i2c.c   ****             i2c_timeout=0;
  76:.\imu_i2c.c   ****         }
  77:.\imu_i2c.c   ****         else  // exception handling
  78:.\imu_i2c.c   ****         {
  79:.\imu_i2c.c   ****            i2c_timeout++;
  58              		.loc 1 79 0
  59 0022 1378     		ldrb	r3, [r2]	@ zero_extendqisi2
  60 0024 0133     		adds	r3, r3, #1
  61 0026 DBB2     		uxtb	r3, r3
  62 0028 1370     		strb	r3, [r2]
  63 002a 15E0     		b	.L21
  64              	.L6:
  80:.\imu_i2c.c   ****            if(i2c_timeout>MAX_WR_WAIT)
  81:.\imu_i2c.c   ****            {
  82:.\imu_i2c.c   ****             stI2CMgr=Tx_ERR;
  83:.\imu_i2c.c   ****            }
  84:.\imu_i2c.c   ****         }
  85:.\imu_i2c.c   ****         break;
  86:.\imu_i2c.c   ****         case START_RECEIVE_SEQ_WR_REG:
  87:.\imu_i2c.c   ****                 if(0u != (I2C_1_MasterStatus() & I2C_1_MSTAT_WR_CMPLT))
  65              		.loc 1 87 0
  66 002c FFF7FEFF 		bl	I2C_1_MasterStatus
  67              	.LVL1:
  68 0030 10F0020F 		tst	r0, #2
  69 0034 164D     		ldr	r5, .L24+4
  70 0036 0BD0     		beq	.L11
  88:.\imu_i2c.c   ****                 {
  89:.\imu_i2c.c   ****                     // I2C_1_MasterClearStatus();
  90:.\imu_i2c.c   ****                     I2C_1_MasterReadBuf(rx_Slv_add, rx_rd_data_ptr, rx_Slv_dta_lnt, I2C_1_MODE_REPE
  71              		.loc 1 90 0
  72 0038 164B     		ldr	r3, .L24+8
  73 003a 6878     		ldrb	r0, [r5, #1]	@ zero_extendqisi2
  74 003c 1968     		ldr	r1, [r3]
  75 003e AA78     		ldrb	r2, [r5, #2]	@ zero_extendqisi2
  76 0040 0123     		movs	r3, #1
  77 0042 FFF7FEFF 		bl	I2C_1_MasterReadBuf
  78              	.LVL2:
  91:.\imu_i2c.c   ****                 
  92:.\imu_i2c.c   ****                     stI2CMgr=START_RECEIVE_SEQ_RD_DATA;
  79              		.loc 1 92 0
ARM GAS  C:\Users\acer\AppData\Local\Temp\ccmxYZNb.s 			page 4


  80 0046 0423     		movs	r3, #4
  81 0048 2370     		strb	r3, [r4]
  93:.\imu_i2c.c   ****                     i2c_timeout=0;
  82              		.loc 1 93 0
  83 004a 0023     		movs	r3, #0
  84 004c 2B70     		strb	r3, [r5]
  85 004e 38BD     		pop	{r3, r4, r5, pc}
  86              	.L11:
  94:.\imu_i2c.c   ****                 }
  95:.\imu_i2c.c   ****                 else  // exception handling
  96:.\imu_i2c.c   ****                 {
  97:.\imu_i2c.c   ****                    i2c_timeout++;
  87              		.loc 1 97 0
  88 0050 2B78     		ldrb	r3, [r5]	@ zero_extendqisi2
  89 0052 0133     		adds	r3, r3, #1
  90 0054 DBB2     		uxtb	r3, r3
  91 0056 2B70     		strb	r3, [r5]
  92              	.L21:
  98:.\imu_i2c.c   ****                    if(i2c_timeout>MAX_WR_WAIT)
  93              		.loc 1 98 0
  94 0058 052B     		cmp	r3, #5
  95 005a 15D9     		bls	.L1
  99:.\imu_i2c.c   ****                    {
 100:.\imu_i2c.c   ****                         stI2CMgr=Tx_ERR;
  96              		.loc 1 100 0
  97 005c 0523     		movs	r3, #5
  98 005e 12E0     		b	.L16
  99              	.L5:
 101:.\imu_i2c.c   ****                    }
 102:.\imu_i2c.c   ****                 }
 103:.\imu_i2c.c   ****                 
 104:.\imu_i2c.c   ****         break;
 105:.\imu_i2c.c   ****         case START_RECEIVE_SEQ_RD_DATA:
 106:.\imu_i2c.c   ****              if(0u != (I2C_1_MasterStatus() & I2C_1_MSTAT_RD_CMPLT))
 107:.\imu_i2c.c   ****             {
 108:.\imu_i2c.c   ****               stI2CMgr=IDLE;
 109:.\imu_i2c.c   ****               i2c_timeout=0;
 110:.\imu_i2c.c   ****             }
 111:.\imu_i2c.c   ****             else  // exception handling
 112:.\imu_i2c.c   ****             {
 113:.\imu_i2c.c   ****                i2c_timeout++;
 114:.\imu_i2c.c   ****                if(i2c_timeout>MAX_RD_WAIT)
 115:.\imu_i2c.c   ****                {
 116:.\imu_i2c.c   ****                 stI2CMgr=IDLE;
 117:.\imu_i2c.c   ****                }  
 118:.\imu_i2c.c   ****             }
 119:.\imu_i2c.c   ****         break;
 120:.\imu_i2c.c   ****         case WAIT_FOR_RX:
 121:.\imu_i2c.c   ****         if(0u != (I2C_1_MasterStatus() & I2C_1_MSTAT_RD_CMPLT))
 100              		.loc 1 121 0
 101 0060 FFF7FEFF 		bl	I2C_1_MasterStatus
 102              	.LVL3:
 103 0064 10F00100 		ands	r0, r0, #1
 104 0068 094A     		ldr	r2, .L24+4
 105 006a 03D0     		beq	.L14
 106              	.L15:
 122:.\imu_i2c.c   ****         {
ARM GAS  C:\Users\acer\AppData\Local\Temp\ccmxYZNb.s 			page 5


 123:.\imu_i2c.c   ****           stI2CMgr=IDLE;
 107              		.loc 1 123 0
 108 006c 0023     		movs	r3, #0
 109 006e 2370     		strb	r3, [r4]
 124:.\imu_i2c.c   ****           i2c_timeout=0;
 110              		.loc 1 124 0
 111 0070 1370     		strb	r3, [r2]
 112 0072 38BD     		pop	{r3, r4, r5, pc}
 113              	.L14:
 125:.\imu_i2c.c   ****         }
 126:.\imu_i2c.c   ****         else  // exception handling
 127:.\imu_i2c.c   ****         {
 128:.\imu_i2c.c   ****            i2c_timeout++;
 114              		.loc 1 128 0
 115 0074 1378     		ldrb	r3, [r2]	@ zero_extendqisi2
 116 0076 0133     		adds	r3, r3, #1
 117 0078 DBB2     		uxtb	r3, r3
 129:.\imu_i2c.c   ****            if(i2c_timeout>MAX_RD_WAIT)
 118              		.loc 1 129 0
 119 007a 052B     		cmp	r3, #5
 128:.\imu_i2c.c   ****            if(i2c_timeout>MAX_RD_WAIT)
 120              		.loc 1 128 0
 121 007c 1370     		strb	r3, [r2]
 122              		.loc 1 129 0
 123 007e 03D9     		bls	.L1
 130:.\imu_i2c.c   ****            {
 131:.\imu_i2c.c   ****             stI2CMgr=IDLE;
 124              		.loc 1 131 0
 125 0080 2070     		strb	r0, [r4]
 126 0082 38BD     		pop	{r3, r4, r5, pc}
 127              	.L2:
 132:.\imu_i2c.c   ****            }  
 133:.\imu_i2c.c   ****         }
 134:.\imu_i2c.c   ****         break;
 135:.\imu_i2c.c   ****         case Tx_ERR: break;
 136:.\imu_i2c.c   ****         case IDLE:
 137:.\imu_i2c.c   ****         default: stI2CMgr=IDLE;break;
 128              		.loc 1 137 0
 129 0084 0023     		movs	r3, #0
 130              	.L16:
 131 0086 2370     		strb	r3, [r4]
 132              	.L1:
 133 0088 38BD     		pop	{r3, r4, r5, pc}
 134              	.L25:
 135 008a 00BF     		.align	2
 136              	.L24:
 137 008c 00000000 		.word	stI2CMgr
 138 0090 00000000 		.word	.LANCHOR0
 139 0094 00000000 		.word	rx_rd_data_ptr
 140              		.cfi_endproc
 141              	.LFE0:
 142              		.size	I2C_Mgr, .-I2C_Mgr
 143              		.section	.text.I2C_WRITE,"ax",%progbits
 144              		.align	1
 145              		.global	I2C_WRITE
 146              		.thumb
 147              		.thumb_func
ARM GAS  C:\Users\acer\AppData\Local\Temp\ccmxYZNb.s 			page 6


 148              		.type	I2C_WRITE, %function
 149              	I2C_WRITE:
 150              	.LFB1:
 138:.\imu_i2c.c   ****     }
 139:.\imu_i2c.c   ****     
 140:.\imu_i2c.c   **** }
 141:.\imu_i2c.c   **** _UBYTE I2C_WRITE(_UINT8 SaveAdress,_UINT8 *wrData, _UINT8 Data_length) // sends bytes to slave
 142:.\imu_i2c.c   **** {
 151              		.loc 1 142 0
 152              		.cfi_startproc
 153              		@ args = 0, pretend = 0, frame = 0
 154              		@ frame_needed = 0, uses_anonymous_args = 0
 155              	.LVL4:
 156 0000 2DE9F041 		push	{r4, r5, r6, r7, r8, lr}
 157              		.cfi_def_cfa_offset 24
 158              		.cfi_offset 4, -24
 159              		.cfi_offset 5, -20
 160              		.cfi_offset 6, -16
 161              		.cfi_offset 7, -12
 162              		.cfi_offset 8, -8
 163              		.cfi_offset 14, -4
 143:.\imu_i2c.c   ****     if(stI2CMgr==IDLE)
 164              		.loc 1 143 0
 165 0004 0B4C     		ldr	r4, .L29
 142:.\imu_i2c.c   ****     if(stI2CMgr==IDLE)
 166              		.loc 1 142 0
 167 0006 8046     		mov	r8, r0
 168              		.loc 1 143 0
 169 0008 2078     		ldrb	r0, [r4]	@ zero_extendqisi2
 170              	.LVL5:
 142:.\imu_i2c.c   ****     if(stI2CMgr==IDLE)
 171              		.loc 1 142 0
 172 000a 0F46     		mov	r7, r1
 173 000c 1646     		mov	r6, r2
 174              		.loc 1 143 0
 175 000e 00F0FF05 		and	r5, r0, #255
 176 0012 58B9     		cbnz	r0, .L28
 177              	.LVL6:
 178              	.LBB4:
 179              	.LBB5:
 144:.\imu_i2c.c   ****     {
 145:.\imu_i2c.c   ****       I2C_1_MasterClearStatus(); /* Clear any previous status */
 180              		.loc 1 145 0
 181 0014 FFF7FEFF 		bl	I2C_1_MasterClearStatus
 182              	.LVL7:
 146:.\imu_i2c.c   ****       I2C_1_MasterWriteBuf(SaveAdress,wrData, Data_length, I2C_1_MODE_COMPLETE_XFER);
 183              		.loc 1 146 0
 184 0018 4046     		mov	r0, r8
 185 001a 3946     		mov	r1, r7
 186 001c 3246     		mov	r2, r6
 187 001e 2B46     		mov	r3, r5
 188 0020 FFF7FEFF 		bl	I2C_1_MasterWriteBuf
 189              	.LVL8:
 147:.\imu_i2c.c   ****       stI2CMgr=WAIT_FOR_TX;    
 190              		.loc 1 147 0
 191 0024 0120     		movs	r0, #1
 192 0026 2070     		strb	r0, [r4]
ARM GAS  C:\Users\acer\AppData\Local\Temp\ccmxYZNb.s 			page 7


 193 0028 BDE8F081 		pop	{r4, r5, r6, r7, r8, pc}
 194              	.LVL9:
 195              	.L28:
 196              	.LBE5:
 197              	.LBE4:
 148:.\imu_i2c.c   **** 	  return(1);
 149:.\imu_i2c.c   ****     }
 150:.\imu_i2c.c   **** 	else
 151:.\imu_i2c.c   **** 	{
 152:.\imu_i2c.c   **** 	  
 153:.\imu_i2c.c   ****         return(0);
 198              		.loc 1 153 0
 199 002c 0020     		movs	r0, #0
 154:.\imu_i2c.c   **** 	}
 155:.\imu_i2c.c   **** }
 200              		.loc 1 155 0
 201 002e BDE8F081 		pop	{r4, r5, r6, r7, r8, pc}
 202              	.L30:
 203 0032 00BF     		.align	2
 204              	.L29:
 205 0034 00000000 		.word	stI2CMgr
 206              		.cfi_endproc
 207              	.LFE1:
 208              		.size	I2C_WRITE, .-I2C_WRITE
 209              		.section	.text.I2C_READ,"ax",%progbits
 210              		.align	1
 211              		.global	I2C_READ
 212              		.thumb
 213              		.thumb_func
 214              		.type	I2C_READ, %function
 215              	I2C_READ:
 216              	.LFB2:
 156:.\imu_i2c.c   **** 
 157:.\imu_i2c.c   **** 
 158:.\imu_i2c.c   **** _UBYTE I2C_READ(_UINT8 SaveAdress,_UINT8 SaveReg,_UINT8 *rdData, _UINT8 Data_length) // sends bytes
 159:.\imu_i2c.c   **** {
 217              		.loc 1 159 0
 218              		.cfi_startproc
 219              		@ args = 0, pretend = 0, frame = 0
 220              		@ frame_needed = 0, uses_anonymous_args = 0
 221              	.LVL10:
 222 0000 2DE9F042 		push	{r4, r5, r6, r7, r9, lr}
 223              		.cfi_def_cfa_offset 24
 224              		.cfi_offset 4, -24
 225              		.cfi_offset 5, -20
 226              		.cfi_offset 6, -16
 227              		.cfi_offset 7, -12
 228              		.cfi_offset 9, -8
 229              		.cfi_offset 14, -4
 160:.\imu_i2c.c   ****   
 161:.\imu_i2c.c   ****     
 162:.\imu_i2c.c   ****     if(stI2CMgr==IDLE)
 230              		.loc 1 162 0
 231 0004 0E4D     		ldr	r5, .L34
 159:.\imu_i2c.c   ****   
 232              		.loc 1 159 0
 233 0006 1F46     		mov	r7, r3
ARM GAS  C:\Users\acer\AppData\Local\Temp\ccmxYZNb.s 			page 8


 234              		.loc 1 162 0
 235 0008 2B78     		ldrb	r3, [r5]	@ zero_extendqisi2
 236              	.LVL11:
 159:.\imu_i2c.c   ****   
 237              		.loc 1 159 0
 238 000a 0646     		mov	r6, r0
 239 000c 8946     		mov	r9, r1
 240 000e 1446     		mov	r4, r2
 241              		.loc 1 162 0
 242 0010 9BB9     		cbnz	r3, .L33
 243              	.LVL12:
 244              	.LBB8:
 245              	.LBB9:
 163:.\imu_i2c.c   ****     {
 164:.\imu_i2c.c   ****       I2C_1_MasterClearStatus(); /* Clear any previous status */
 246              		.loc 1 164 0
 247 0012 FFF7FEFF 		bl	I2C_1_MasterClearStatus
 248              	.LVL13:
 165:.\imu_i2c.c   ****       temp_rx_slv_reg=SaveReg;
 249              		.loc 1 165 0
 250 0016 0B49     		ldr	r1, .L34+4
 166:.\imu_i2c.c   ****       rx_Slv_add=SaveAdress;
 167:.\imu_i2c.c   ****       rx_rd_data_ptr=rdData;  
 251              		.loc 1 167 0
 252 0018 0B4B     		ldr	r3, .L34+8
 165:.\imu_i2c.c   ****       temp_rx_slv_reg=SaveReg;
 253              		.loc 1 165 0
 254 001a 81F80390 		strb	r9, [r1, #3]
 166:.\imu_i2c.c   ****       rx_Slv_add=SaveAdress;
 255              		.loc 1 166 0
 256 001e 4E70     		strb	r6, [r1, #1]
 257              		.loc 1 167 0
 258 0020 1C60     		str	r4, [r3]
 168:.\imu_i2c.c   ****       rx_Slv_dta_lnt=Data_length;
 259              		.loc 1 168 0
 260 0022 8F70     		strb	r7, [r1, #2]
 169:.\imu_i2c.c   ****       // select the register to be read
 170:.\imu_i2c.c   ****       I2C_1_MasterWriteBuf(SaveAdress,&temp_rx_slv_reg, 1, I2C_1_MODE_NO_STOP);   
 261              		.loc 1 170 0
 262 0024 3046     		mov	r0, r6
 263 0026 0331     		adds	r1, r1, #3
 264 0028 0122     		movs	r2, #1
 265 002a 0223     		movs	r3, #2
 266 002c FFF7FEFF 		bl	I2C_1_MasterWriteBuf
 267              	.LVL14:
 171:.\imu_i2c.c   ****       // read the alue afr acc  
 172:.\imu_i2c.c   ****       stI2CMgr=START_RECEIVE_SEQ_WR_REG;
 268              		.loc 1 172 0
 269 0030 0323     		movs	r3, #3
 270 0032 2B70     		strb	r3, [r5]
 271 0034 0120     		movs	r0, #1
 272 0036 BDE8F082 		pop	{r4, r5, r6, r7, r9, pc}
 273              	.LVL15:
 274              	.L33:
 275              	.LBE9:
 276              	.LBE8:
 173:.\imu_i2c.c   ****     
ARM GAS  C:\Users\acer\AppData\Local\Temp\ccmxYZNb.s 			page 9


 174:.\imu_i2c.c   ****       return(1);
 175:.\imu_i2c.c   **** 	}
 176:.\imu_i2c.c   **** 	else
 177:.\imu_i2c.c   **** 	{
 178:.\imu_i2c.c   **** 	  return(0);
 277              		.loc 1 178 0
 278 003a 0020     		movs	r0, #0
 279              	.LVL16:
 179:.\imu_i2c.c   **** 	}
 180:.\imu_i2c.c   **** }
 280              		.loc 1 180 0
 281 003c BDE8F082 		pop	{r4, r5, r6, r7, r9, pc}
 282              	.L35:
 283              		.align	2
 284              	.L34:
 285 0040 00000000 		.word	stI2CMgr
 286 0044 00000000 		.word	.LANCHOR0
 287 0048 00000000 		.word	rx_rd_data_ptr
 288              		.cfi_endproc
 289              	.LFE2:
 290              		.size	I2C_READ, .-I2C_READ
 291              		.section	.text.MPU9250_CalAvgValue,"ax",%progbits
 292              		.align	1
 293              		.global	MPU9250_CalAvgValue
 294              		.thumb
 295              		.thumb_func
 296              		.type	MPU9250_CalAvgValue, %function
 297              	MPU9250_CalAvgValue:
 298              	.LFB5:
 181:.\imu_i2c.c   **** 
 182:.\imu_i2c.c   **** 
 183:.\imu_i2c.c   **** void MPU9250_Init(void) // should be called when os is running 50 ms task
 184:.\imu_i2c.c   **** {
 185:.\imu_i2c.c   ****     
 186:.\imu_i2c.c   ****     static _SINT32	TempGx = 0, TempGy = 0, TempGz = 0; // stores added gyrovalue for avraging purpo
 187:.\imu_i2c.c   **** 	
 188:.\imu_i2c.c   ****     // pressure sensor variables
 189:.\imu_i2c.c   ****     static _UINT8 Pres_Read_data[22]; // stores temporory pressure sensor data
 190:.\imu_i2c.c   ****     static _SINT32 Sum = 0;
 191:.\imu_i2c.c   ****    // static _UINT8 reg_count; // stores count vaue for rx register read
 192:.\imu_i2c.c   ****    // float Temp = 0.0f;
 193:.\imu_i2c.c   ****     
 194:.\imu_i2c.c   ****     _UINT8 i;  // for for loop purpose
 195:.\imu_i2c.c   ****    
 196:.\imu_i2c.c   ****     static _UBYTE Gyro_Temp_Check_Data;  
 197:.\imu_i2c.c   **** 	switch(st_IMU)
 198:.\imu_i2c.c   **** 	{
 199:.\imu_i2c.c   **** 		case IMU_INIT:	// below case configures gyro and accelrometer
 200:.\imu_i2c.c   **** 					    if(I2C_WRITE(GYRO_ADDRESS, &Gyro_Calib_Data[calc_count][0], 2))  // send first 10 bytes fo
 201:.\imu_i2c.c   **** 						{
 202:.\imu_i2c.c   **** 						    calc_count++;
 203:.\imu_i2c.c   ****                             
 204:.\imu_i2c.c   ****                             if(calc_count>=6)
 205:.\imu_i2c.c   ****                             {
 206:.\imu_i2c.c   ****                                // st_IMU=IMU_INIT_CHECK; 
 207:.\imu_i2c.c   ****                                 st_IMU=IMU_INIT_CHECK;
 208:.\imu_i2c.c   ****                                 calc_count=0;
ARM GAS  C:\Users\acer\AppData\Local\Temp\ccmxYZNb.s 			page 10


 209:.\imu_i2c.c   ****                             }
 210:.\imu_i2c.c   **** 						}	
 211:.\imu_i2c.c   ****                         // configur 20mhz as internal oscillator
 212:.\imu_i2c.c   ****                         // gyro, accelro resolutions
 213:.\imu_i2c.c   ****                        	break;
 214:.\imu_i2c.c   ****                         
 215:.\imu_i2c.c   ****         case IMU_INIT_CHECK: 
 216:.\imu_i2c.c   ****                            // check last write data   
 217:.\imu_i2c.c   ****                            if(I2C_READ(GYRO_ADDRESS,0x37,&Gyro_Temp_Check_Data,1))  // read all gyr
 218:.\imu_i2c.c   **** 						   { 
 219:.\imu_i2c.c   ****                              st_IMU=IMU_CALIB_READ;    
 220:.\imu_i2c.c   ****                            }
 221:.\imu_i2c.c   **** 						   break;                       
 222:.\imu_i2c.c   ****                         case IMU_CALIB_READ:/*
 223:.\imu_i2c.c   ****                         if(I2C_READ(GYRO_ADDRESS,Gyro_Temp_Acc_Reg[calc_count2+8],&Gyro_Temp_Acc_Re
 224:.\imu_i2c.c   **** 						   { 
 225:.\imu_i2c.c   ****                                  if(Gyro_Temp_Check_Data==BYPASS_EN)// config check ok, by reading 
 226:.\imu_i2c.c   ****                                  {
 227:.\imu_i2c.c   ****                                     calc_count2++;
 228:.\imu_i2c.c   ****                                     if(calc_count2>=3)
 229:.\imu_i2c.c   ****                                     {
 230:.\imu_i2c.c   ****                                         st_IMU=IMU_CALIB_CALC;   
 231:.\imu_i2c.c   ****                                         calc_count2=0;
 232:.\imu_i2c.c   ****                                         //  DiagMgr.ErrSt= clear IMU error bit
 233:.\imu_i2c.c   ****                                     }
 234:.\imu_i2c.c   ****                                  }                                
 235:.\imu_i2c.c   ****                                  else
 236:.\imu_i2c.c   ****                                  {
 237:.\imu_i2c.c   ****                                     st_IMU=IMU_INIT;
 238:.\imu_i2c.c   ****                                    //  DiagMgr.ErrSt= set IMU error bit
 239:.\imu_i2c.c   ****                                  }                           
 240:.\imu_i2c.c   ****                             }*/
 241:.\imu_i2c.c   ****                            
 242:.\imu_i2c.c   ****                            if(I2C_READ(GYRO_ADDRESS,Gyro_Temp_Acc_Reg[0],&Gyro_Temp_Acc_Read_Data[0
 243:.\imu_i2c.c   **** 						   { 
 244:.\imu_i2c.c   ****                              st_IMU=IMU_CALIB_CALC;   
 245:.\imu_i2c.c   ****                             // to read temperature from raw value = =( temperature + 12412.0) / 340
 246:.\imu_i2c.c   ****                            }
 247:.\imu_i2c.c   **** 						    break;
 248:.\imu_i2c.c   **** 		case IMU_CALIB_CALC: 
 249:.\imu_i2c.c   **** 							// read 32 gyro readings 
 250:.\imu_i2c.c   **** 						    // add them all and find average              
 251:.\imu_i2c.c   **** 							
 252:.\imu_i2c.c   ****                             if(stI2CMgr==IDLE)	 // if reading data is completed by I2C
 253:.\imu_i2c.c   ****                             { 
 254:.\imu_i2c.c   ****                                 InBuffer[0]=(Gyro_Temp_Acc_Read_Data[8]<<8)|Gyro_Temp_Acc_Read_Data
 255:.\imu_i2c.c   **** 								InBuffer[1]=(Gyro_Temp_Acc_Read_Data[10]<<8)|Gyro_Temp_Acc_Read_Data[11];
 256:.\imu_i2c.c   **** 								InBuffer[2]=(Gyro_Temp_Acc_Read_Data[12]<<8)|Gyro_Temp_Acc_Read_Data[13];
 257:.\imu_i2c.c   **** 								
 258:.\imu_i2c.c   ****                                 for(i = 0; i < 3; i ++)	
 259:.\imu_i2c.c   **** 								{
 260:.\imu_i2c.c   **** 								   MPU9250_CalAvgValue(&MPU9250_Filter_Gyro[i].Index, MPU9250_Filter_Gyro[i].AvgBuffer, InB
 261:.\imu_i2c.c   **** 								}
 262:.\imu_i2c.c   ****                                 
 263:.\imu_i2c.c   ****                                 gyro[0] = *(OutBuffer + 0) - MPU9250_Offset.X;
 264:.\imu_i2c.c   **** 								gyro[1] = *(OutBuffer + 1) - MPU9250_Offset.Y;
 265:.\imu_i2c.c   **** 								gyro[2] = *(OutBuffer + 2) - MPU9250_Offset.Z;
ARM GAS  C:\Users\acer\AppData\Local\Temp\ccmxYZNb.s 			page 11


 266:.\imu_i2c.c   **** 						        
 267:.\imu_i2c.c   **** 								TempGx += gyro[0];
 268:.\imu_i2c.c   **** 								TempGy += gyro[1];
 269:.\imu_i2c.c   **** 								TempGz += gyro[2];
 270:.\imu_i2c.c   **** 						        
 271:.\imu_i2c.c   **** 								// do this 32 times
 272:.\imu_i2c.c   **** 							    if(calc_count<31)
 273:.\imu_i2c.c   **** 								{
 274:.\imu_i2c.c   **** 								  st_IMU=IMU_CALIB_READ;
 275:.\imu_i2c.c   **** 								  calc_count++;
 276:.\imu_i2c.c   **** 								}
 277:.\imu_i2c.c   **** 								else
 278:.\imu_i2c.c   **** 								{
 279:.\imu_i2c.c   **** 									calc_count=0;
 280:.\imu_i2c.c   ****                                     // TODO: check the gyro offset value
 281:.\imu_i2c.c   ****                                     // take average of all readings 
 282:.\imu_i2c.c   ****         		                    MPU9250_Offset.X = TempGx >> 5;   // note : they are row offset value
 283:.\imu_i2c.c   ****         		                    MPU9250_Offset.Y = TempGy >> 5;
 284:.\imu_i2c.c   ****         		                    MPU9250_Offset.Z = TempGz >> 5;
 285:.\imu_i2c.c   ****         		
 286:.\imu_i2c.c   ****         		                    st_IMU=IMU_MAG;
 287:.\imu_i2c.c   **** 								}
 288:.\imu_i2c.c   **** 								
 289:.\imu_i2c.c   **** 							}
 290:.\imu_i2c.c   **** 							break;
 291:.\imu_i2c.c   **** 	    case IMU_MAG:
 292:.\imu_i2c.c   **** 					  if(I2C_WRITE(MAG_ADDRESS, &Mag_Calib_Data[0][0],2))   // select 14-bit output , Single measu
 293:.\imu_i2c.c   **** 					  {
 294:.\imu_i2c.c   **** 						
 295:.\imu_i2c.c   ****         		             st_IMU=READ_MAG;      
 296:.\imu_i2c.c   **** 					  }
 297:.\imu_i2c.c   **** 					 break; //MAG_ADDRESS,0x0A,0x01
 298:.\imu_i2c.c   ****                     
 299:.\imu_i2c.c   ****         		case READ_MAG: 
 300:.\imu_i2c.c   **** 					if(I2C_READ(MAG_ADDRESS,Mag_Reg[0], &Mag_Read_Data[0], 7))  // read all gyro values in Mag_Rea
 301:.\imu_i2c.c   **** 					{				
 302:.\imu_i2c.c   ****                          st_IMU=CALC_MAG;  
 303:.\imu_i2c.c   **** 					}
 304:.\imu_i2c.c   **** 					break;
 305:.\imu_i2c.c   ****                     
 306:.\imu_i2c.c   **** 				case CALC_MAG: 
 307:.\imu_i2c.c   **** 					if(stI2CMgr==IDLE)	             
 308:.\imu_i2c.c   **** 					   {
 309:.\imu_i2c.c   **** 							if(Mag_Read_Data[6] & AK8963_STATUS_2_HOFL_BIT)
 310:.\imu_i2c.c   ****                             {
 311:.\imu_i2c.c   ****                              //Magnetic sensor overflow occurred print   
 312:.\imu_i2c.c   ****                             }
 313:.\imu_i2c.c   ****                             InBuffer[1]=(Mag_Read_Data[1]<<8)|Mag_Read_Data[0];   // byte seq is di
 314:.\imu_i2c.c   **** 							InBuffer[0]=(Mag_Read_Data[3]<<8)|Mag_Read_Data[2];
 315:.\imu_i2c.c   **** 							InBuffer[2]=-((Mag_Read_Data[5]<<8)|Mag_Read_Data[4]);
 316:.\imu_i2c.c   **** 					
 317:.\imu_i2c.c   **** 							 for( i = 0; i < 3; i ++)	
 318:.\imu_i2c.c   **** 							{
 319:.\imu_i2c.c   **** 								MPU9250_CalAvgValue(&MPU9250_Filter_Mag[i].Index, MPU9250_Filter_Mag[i].AvgBuffer, InBuffer
 320:.\imu_i2c.c   **** 							} 
 321:.\imu_i2c.c   ****                             MPU9250_Magn_Offset.X_Off_Err = *(OutBuffer + 0);
 322:.\imu_i2c.c   **** 							MPU9250_Magn_Offset.Y_Off_Err = *(OutBuffer + 1);  // TODO check what it is
ARM GAS  C:\Users\acer\AppData\Local\Temp\ccmxYZNb.s 			page 12


 323:.\imu_i2c.c   **** 							MPU9250_Magn_Offset.Z_Off_Err = *(OutBuffer + 2);
 324:.\imu_i2c.c   ****                             
 325:.\imu_i2c.c   ****                             
 326:.\imu_i2c.c   ****                              _oss = MODE_STANDARD; // initialsie pressure sensor value	 
 327:.\imu_i2c.c   ****                               st_IMU=IMU_PRES;
 328:.\imu_i2c.c   ****                             
 329:.\imu_i2c.c   ****                        }     
 330:.\imu_i2c.c   ****                             break;
 331:.\imu_i2c.c   **** 	    case IMU_PRES: 
 332:.\imu_i2c.c   ****       
 333:.\imu_i2c.c   ****             	// BMP180_ReadCalibrationData
 334:.\imu_i2c.c   ****                 if(I2C_READ(BMP180_ADDR,Pres_Reg[0],&Pres_Read_data[0],22))  // CAL_AC1 to MD see b
 335:.\imu_i2c.c   ****             	{
 336:.\imu_i2c.c   ****                         st_IMU=CALIB_PRES;    
 337:.\imu_i2c.c   ****             	}
 338:.\imu_i2c.c   ****         	break; 
 339:.\imu_i2c.c   ****             
 340:.\imu_i2c.c   ****     case CALIB_PRES:
 341:.\imu_i2c.c   **** 	if(stI2CMgr==IDLE)	
 342:.\imu_i2c.c   ****     {
 343:.\imu_i2c.c   **** 							
 344:.\imu_i2c.c   ****           	AC1 = ((_SINT16)Pres_Read_data[0] <<8 | ((_SINT16)Pres_Read_data[1]));
 345:.\imu_i2c.c   **** 
 346:.\imu_i2c.c   ****           	AC2 = ((_SINT16)Pres_Read_data[2] <<8 | ((_SINT16)Pres_Read_data[3]));
 347:.\imu_i2c.c   ****           	
 348:.\imu_i2c.c   ****           	AC3 = ((_SINT16)Pres_Read_data[4] <<8 | ((_SINT16)Pres_Read_data[5]));
 349:.\imu_i2c.c   ****           	
 350:.\imu_i2c.c   ****           	AC4 = ((_UINT16)Pres_Read_data[6] <<8 | ((_UINT16)Pres_Read_data[7]));
 351:.\imu_i2c.c   ****          
 352:.\imu_i2c.c   ****           	AC5 = ((_UINT16)Pres_Read_data[8] <<8 | ((_UINT16)Pres_Read_data[9]));
 353:.\imu_i2c.c   ****           
 354:.\imu_i2c.c   ****           	AC6 = ((_UINT16)Pres_Read_data[10] <<8 | ((_UINT16)Pres_Read_data[11])); 
 355:.\imu_i2c.c   **** 
 356:.\imu_i2c.c   ****           	B1 = ((_SINT16)Pres_Read_data[12] <<8 | ((_SINT16)Pres_Read_data[13])); 
 357:.\imu_i2c.c   **** 
 358:.\imu_i2c.c   ****           	B2 = ((_SINT16)Pres_Read_data[14] <<8 | ((_SINT16)Pres_Read_data[15])); 
 359:.\imu_i2c.c   ****           	
 360:.\imu_i2c.c   ****           	MB = ((_SINT16)Pres_Read_data[16] <<8 | ((_SINT16)Pres_Read_data[17]));
 361:.\imu_i2c.c   ****          
 362:.\imu_i2c.c   ****           	MC = ((_SINT16)Pres_Read_data[18] <<8 | ((_SINT16)Pres_Read_data[19]));
 363:.\imu_i2c.c   **** 
 364:.\imu_i2c.c   ****           	MD = ((_SINT16)Pres_Read_data[20] <<8 | ((_SINT16)Pres_Read_data[21]));
 365:.\imu_i2c.c   ****             
 366:.\imu_i2c.c   **** 	        st_IMU=SEL_TEMP;
 367:.\imu_i2c.c   **** 	}
 368:.\imu_i2c.c   ****     break;
 369:.\imu_i2c.c   **** 	
 370:.\imu_i2c.c   ****    case SEL_TEMP: 
 371:.\imu_i2c.c   **** 				if(I2C_WRITE(BMP180_ADDR, &Alt_Calib_Data[0][0],2))  // CONTROL,READ_TEMPERATURE 
 372:.\imu_i2c.c   **** 				{
 373:.\imu_i2c.c   **** 						st_IMU=READ_TEMP;
 374:.\imu_i2c.c   **** 				}
 375:.\imu_i2c.c   **** 	break;
 376:.\imu_i2c.c   **** 	case READ_TEMP: 
 377:.\imu_i2c.c   **** 				
 378:.\imu_i2c.c   **** 				if(I2C_READ(BMP180_ADDR,CONTROL_OUTPUT, &Alt_Read_Data[0][0],2))
 379:.\imu_i2c.c   **** 				{
ARM GAS  C:\Users\acer\AppData\Local\Temp\ccmxYZNb.s 			page 13


 380:.\imu_i2c.c   **** 				   // read pressure
 381:.\imu_i2c.c   **** 				   st_IMU=CALC_TEMP;
 382:.\imu_i2c.c   **** 				}
 383:.\imu_i2c.c   **** 					
 384:.\imu_i2c.c   **** 				  break;
 385:.\imu_i2c.c   **** 	case CALC_TEMP:
 386:.\imu_i2c.c   **** 			    if(stI2CMgr==IDLE)	               
 387:.\imu_i2c.c   **** 				   {
 388:.\imu_i2c.c   **** 				     UT = ((_SINT32)Alt_Read_Data[0][0] << 8) + (_SINT32)Alt_Read_Data[0][1]; 
 389:.\imu_i2c.c   **** 				     st_IMU=SEL_PRES;
 390:.\imu_i2c.c   **** 				   }
 391:.\imu_i2c.c   **** 				break;
 392:.\imu_i2c.c   ****     case SEL_PRES:
 393:.\imu_i2c.c   **** 			    //BMP180_WriteReg(CONTROL, READ_PRESSURE + (_oss << 6)); 
 394:.\imu_i2c.c   **** 				if(I2C_WRITE(BMP180_ADDR, &Alt_Calib_Data[1][0],2))  // CONTROL,READ_Pressure 
 395:.\imu_i2c.c   **** 					{
 396:.\imu_i2c.c   **** 							st_IMU=READ_PRES;
 397:.\imu_i2c.c   **** 					}
 398:.\imu_i2c.c   **** 					break;
 399:.\imu_i2c.c   **** 			
 400:.\imu_i2c.c   **** 	case READ_PRES:  // TODO: oos = 3 its high sampling rate and pressure calculation need 70 ms by se
 401:.\imu_i2c.c   **** 				if(I2C_READ(BMP180_ADDR, CONTROL_OUTPUT, &Alt_Read_Data[1][0],3))  // BMP180_ReadReg(CONTROL_OU
 402:.\imu_i2c.c   **** 				{
 403:.\imu_i2c.c   **** 				   // read pressure
 404:.\imu_i2c.c   **** 				   st_IMU=CALC_PRES;
 405:.\imu_i2c.c   **** 				}
 406:.\imu_i2c.c   **** 				break;
 407:.\imu_i2c.c   **** 	case CALC_PRES : 
 408:.\imu_i2c.c   **** 		        if(stI2CMgr==IDLE)	               	   
 409:.\imu_i2c.c   **** 				{
 410:.\imu_i2c.c   **** 				   UP = ((((_SINT32)Alt_Read_Data[1][0] << 16) + ((_SINT32)Alt_Read_Data[1][1] << 8) + ((_SINT3
 411:.\imu_i2c.c   **** 				   
 412:.\imu_i2c.c   ****                    BMP180_CalculateTruePressure(&PressureVal);
 413:.\imu_i2c.c   ****             	   BMP180_CalculateTrueTemperature(&TemperatureVal);
 414:.\imu_i2c.c   **** 				   
 415:.\imu_i2c.c   ****                    if(calc_count<5)
 416:.\imu_i2c.c   ****                    {
 417:.\imu_i2c.c   ****                         
 418:.\imu_i2c.c   ****                         if(calc_count >= 2)
 419:.\imu_i2c.c   **** 		                {
 420:.\imu_i2c.c   **** 			                Sum += PressureVal;
 421:.\imu_i2c.c   **** 		                }
 422:.\imu_i2c.c   ****                         calc_count=calc_count+1;
 423:.\imu_i2c.c   ****                         st_IMU=SEL_TEMP;
 424:.\imu_i2c.c   ****                    }
 425:.\imu_i2c.c   ****                    else
 426:.\imu_i2c.c   ****                    {
 427:.\imu_i2c.c   ****                                 PressureVal= Sum / 3;               
 428:.\imu_i2c.c   ****                     	//Temp = (float)LOCAL_ADS_ALTITUDE / 4433000;
 429:.\imu_i2c.c   ****                     	//Temp = (float)pow((1 - Temp), 5.255f);
 430:.\imu_i2c.c   ****                     	//Pressure0 = (PressureVal - PRESSURE_OFFSET) / Temp;
 431:.\imu_i2c.c   ****                         
 432:.\imu_i2c.c   ****                         Pressure0=PressureVal; // may be solution for relative altitude
 433:.\imu_i2c.c   ****                         q0 = 1.0f;  
 434:.\imu_i2c.c   ****                       	q1 = 0.0f;
 435:.\imu_i2c.c   ****                       	q2 = 0.0f;
 436:.\imu_i2c.c   ****                       	q3 = 0.0f;
ARM GAS  C:\Users\acer\AppData\Local\Temp\ccmxYZNb.s 			page 14


 437:.\imu_i2c.c   ****                         st_IMU=INIT_COMP;
 438:.\imu_i2c.c   ****                         // TODO: remove it from task once initialisation is complete
 439:.\imu_i2c.c   ****                         
 440:.\imu_i2c.c   ****                        calc_count=0;
 441:.\imu_i2c.c   ****                    }
 442:.\imu_i2c.c   ****                 
 443:.\imu_i2c.c   ****                 }
 444:.\imu_i2c.c   ****                 break;
 445:.\imu_i2c.c   ****   
 446:.\imu_i2c.c   ****     case INIT_COMP:
 447:.\imu_i2c.c   ****     case IDLE: 
 448:.\imu_i2c.c   ****     default:break;
 449:.\imu_i2c.c   **** }
 450:.\imu_i2c.c   **** }
 451:.\imu_i2c.c   **** // read from slave
 452:.\imu_i2c.c   **** 
 453:.\imu_i2c.c   **** void Read_From_ALL(void)
 454:.\imu_i2c.c   **** {
 455:.\imu_i2c.c   ****     
 456:.\imu_i2c.c   ****     // accelrometer
 457:.\imu_i2c.c   ****      static _SINT16 accel[3]={0,0,0}; 
 458:.\imu_i2c.c   ****     
 459:.\imu_i2c.c   ****     static _SINT16 magn[3];
 460:.\imu_i2c.c   ****     // pressure sens
 461:.\imu_i2c.c   ****     _SINT32 PVal,AVal, TVal;
 462:.\imu_i2c.c   ****     
 463:.\imu_i2c.c   ****    
 464:.\imu_i2c.c   ****     static BMP180_AvgTypeDef BMP180_Filter[3];
 465:.\imu_i2c.c   **** 	//static _UINT8 reg_count; // stores tx reg counts 
 466:.\imu_i2c.c   ****     
 467:.\imu_i2c.c   ****     _UBYTE i;
 468:.\imu_i2c.c   **** 			switch(st_Read)
 469:.\imu_i2c.c   **** 			{
 470:.\imu_i2c.c   **** 				case READ_GYRO: 
 471:.\imu_i2c.c   **** 					if(I2C_READ(GYRO_ADDRESS,Gyro_Temp_Acc_Reg[0],&Gyro_Temp_Acc_Read_Data[0],14))  // read all gy
 472:.\imu_i2c.c   **** 						   { 
 473:.\imu_i2c.c   ****                              st_Read=CALC_GYRO;   
 474:.\imu_i2c.c   ****                             // to read temperature from raw value = =( temperature + 12412.0) / 340
 475:.\imu_i2c.c   ****                            }
 476:.\imu_i2c.c   ****                     // TODO: check if all sensor on imu can be red in one shot in doc the is image 
 477:.\imu_i2c.c   **** 					break;
 478:.\imu_i2c.c   **** 				case CALC_GYRO: 
 479:.\imu_i2c.c   **** 					if(stI2CMgr==IDLE)              
 480:.\imu_i2c.c   **** 					   {
 481:.\imu_i2c.c   **** 							 // acclro meter calculation
 482:.\imu_i2c.c   ****                             InBuffer[0]=(Gyro_Temp_Acc_Read_Data[0]<<8)|Gyro_Temp_Acc_Read_Data[1];
 483:.\imu_i2c.c   **** 							InBuffer[1]=(Gyro_Temp_Acc_Read_Data[2]<<8)|Gyro_Temp_Acc_Read_Data[3];
 484:.\imu_i2c.c   **** 							InBuffer[2]=(Gyro_Temp_Acc_Read_Data[4]<<8)|Gyro_Temp_Acc_Read_Data[5];
 485:.\imu_i2c.c   **** 					
 486:.\imu_i2c.c   **** 							for( i = 0; i < 3; i ++)	
 487:.\imu_i2c.c   **** 							{
 488:.\imu_i2c.c   **** 								MPU9250_CalAvgValue(&MPU9250_Filter_Acc[i].Index, MPU9250_Filter_Acc[i].AvgBuffer, InBuffer
 489:.\imu_i2c.c   **** 							}
 490:.\imu_i2c.c   ****                            
 491:.\imu_i2c.c   **** 						   accel[0] = *(OutBuffer + 0);
 492:.\imu_i2c.c   **** 						   accel[1] = *(OutBuffer + 1);
 493:.\imu_i2c.c   ****                            accel[2] = *(OutBuffer + 2);
ARM GAS  C:\Users\acer\AppData\Local\Temp\ccmxYZNb.s 			page 15


 494:.\imu_i2c.c   ****                         
 495:.\imu_i2c.c   **** 							
 496:.\imu_i2c.c   **** 							// temperatur read out : its die temeratur so not used
 497:.\imu_i2c.c   ****                             
 498:.\imu_i2c.c   ****                             // gyro meter calculation
 499:.\imu_i2c.c   ****                             InBuffer[0]=(Gyro_Temp_Acc_Read_Data[8]<<8)|Gyro_Temp_Acc_Read_Data[9];
 500:.\imu_i2c.c   **** 							InBuffer[1]=(Gyro_Temp_Acc_Read_Data[10]<<8)|Gyro_Temp_Acc_Read_Data[11];
 501:.\imu_i2c.c   **** 							InBuffer[2]=(Gyro_Temp_Acc_Read_Data[12]<<8)|Gyro_Temp_Acc_Read_Data[13];
 502:.\imu_i2c.c   **** 					        for( i = 0; i < 3; i ++)	
 503:.\imu_i2c.c   ****     						   {
 504:.\imu_i2c.c   ****     							  MPU9250_CalAvgValue(&MPU9250_Filter_Gyro[i].Index, MPU9250_Filter_Gyro[i].AvgBuffer, I
 505:.\imu_i2c.c   ****     						   }
 506:.\imu_i2c.c   ****                         
 507:.\imu_i2c.c   **** 							gyro[0] = *(OutBuffer + 0) - MPU9250_Offset.X;
 508:.\imu_i2c.c   **** 							gyro[1] = *(OutBuffer + 1) - MPU9250_Offset.Y;
 509:.\imu_i2c.c   **** 							gyro[2] = *(OutBuffer + 2) - MPU9250_Offset.Z;
 510:.\imu_i2c.c   ****                             
 511:.\imu_i2c.c   ****                            st_Read=READ_MAG;
 512:.\imu_i2c.c   ****                            
 513:.\imu_i2c.c   **** 						}
 514:.\imu_i2c.c   **** 					 break;
 515:.\imu_i2c.c   ****            
 516:.\imu_i2c.c   **** 				case READ_MAG: 
 517:.\imu_i2c.c   **** 					if(I2C_READ(MAG_ADDRESS,0x00, &Mag_Read_Data[0], 1)) 
 518:.\imu_i2c.c   ****                     //if(I2C_READ(MAG_ADDRESS,Mag_Reg[0], &Mag_Read_Data[0], 7))  // read all gyro 
 519:.\imu_i2c.c   **** 					{				
 520:.\imu_i2c.c   ****                          st_Read=CALC_MAG;  
 521:.\imu_i2c.c   **** 					}
 522:.\imu_i2c.c   **** 					break;
 523:.\imu_i2c.c   **** 				case CALC_MAG: 
 524:.\imu_i2c.c   **** 					if(stI2CMgr==IDLE)	             
 525:.\imu_i2c.c   **** 					   {
 526:.\imu_i2c.c   **** 							if(Mag_Read_Data[6] & AK8963_STATUS_2_HOFL_BIT)
 527:.\imu_i2c.c   ****                             {
 528:.\imu_i2c.c   ****                              //Magnetic sensor overflow occurred print   
 529:.\imu_i2c.c   ****                             }
 530:.\imu_i2c.c   ****                             InBuffer[1]=(Mag_Read_Data[1]<<8)|Mag_Read_Data[0];   // byte seq is di
 531:.\imu_i2c.c   **** 							InBuffer[0]=(Mag_Read_Data[3]<<8)|Mag_Read_Data[2];
 532:.\imu_i2c.c   **** 							InBuffer[2]=-((Mag_Read_Data[5]<<8)|Mag_Read_Data[4]);
 533:.\imu_i2c.c   **** 					
 534:.\imu_i2c.c   **** 							 for( i = 0; i < 3; i ++)	
 535:.\imu_i2c.c   **** 							{
 536:.\imu_i2c.c   **** 								MPU9250_CalAvgValue(&MPU9250_Filter_Mag[i].Index, MPU9250_Filter_Mag[i].AvgBuffer, InBuffer
 537:.\imu_i2c.c   **** 							} 
 538:.\imu_i2c.c   **** 							magn[0] = *(OutBuffer + 0)-MPU9250_Magn_Offset.X_Off_Err;
 539:.\imu_i2c.c   **** 							magn[1] = *(OutBuffer + 1)-MPU9250_Magn_Offset.Y_Off_Err;  // TODO check what it is
 540:.\imu_i2c.c   **** 							magn[2] = *(OutBuffer + 2)-MPU9250_Magn_Offset.Z_Off_Err;
 541:.\imu_i2c.c   **** 							st_Read=SEL_TEMP;
 542:.\imu_i2c.c   **** 						}
 543:.\imu_i2c.c   **** 					  break;
 544:.\imu_i2c.c   **** 			   // altitube measurment sensor
 545:.\imu_i2c.c   **** 			   case SEL_TEMP: ///TODO:  temperature measurment 1 reading per second is enough 
 546:.\imu_i2c.c   **** 					if(I2C_WRITE(BMP180_ADDR, &Alt_Calib_Data[0][0],2))  // CONTROL,READ_TEMPERATURE 
 547:.\imu_i2c.c   **** 					{
 548:.\imu_i2c.c   **** 							st_Read=READ_TEMP;
 549:.\imu_i2c.c   **** 					}
 550:.\imu_i2c.c   **** 					break;
ARM GAS  C:\Users\acer\AppData\Local\Temp\ccmxYZNb.s 			page 16


 551:.\imu_i2c.c   **** 				case READ_TEMP: 
 552:.\imu_i2c.c   ****                    
 553:.\imu_i2c.c   **** 					/*if(I2C_READ(BMP180_ADDR,test_1, &Alt_Read_Data[0][0],1))
 554:.\imu_i2c.c   **** 					{
 555:.\imu_i2c.c   ****                         // read pressure
 556:.\imu_i2c.c   **** 					   st_Read=CALC_TEMP;
 557:.\imu_i2c.c   ****                     }*/
 558:.\imu_i2c.c   ****                     
 559:.\imu_i2c.c   **** 					if(I2C_READ(BMP180_ADDR,CONTROL_OUTPUT, &Alt_Read_Data[0][0],2))
 560:.\imu_i2c.c   **** 					{
 561:.\imu_i2c.c   **** 					   // read pressure
 562:.\imu_i2c.c   **** 					   st_Read=CALC_TEMP;
 563:.\imu_i2c.c   **** 					}
 564:.\imu_i2c.c   **** 						
 565:.\imu_i2c.c   **** 					  break;
 566:.\imu_i2c.c   **** 				case CALC_TEMP:
 567:.\imu_i2c.c   **** 				       if(stI2CMgr==IDLE)	               
 568:.\imu_i2c.c   **** 					   {
 569:.\imu_i2c.c   **** 					     UT = ((_UINT32)Alt_Read_Data[0][0] << 8) + (_UINT32)Alt_Read_Data[0][1]; 
 570:.\imu_i2c.c   **** 					     st_Read=SEL_PRES;
 571:.\imu_i2c.c   **** 					   }
 572:.\imu_i2c.c   **** 					   break;
 573:.\imu_i2c.c   **** 				case SEL_PRES:
 574:.\imu_i2c.c   **** 				                         //BMP180_WriteReg(CONTROL, READ_PRESSURE + (_oss << 6)); 
 575:.\imu_i2c.c   **** 					if(I2C_WRITE(BMP180_ADDR, &Alt_Calib_Data[1][0],2))  // CONTROL,READ_TEMPERATURE 
 576:.\imu_i2c.c   **** 						{
 577:.\imu_i2c.c   **** 								st_Read=READ_PRES;
 578:.\imu_i2c.c   **** 						}
 579:.\imu_i2c.c   **** 						break;
 580:.\imu_i2c.c   **** 				
 581:.\imu_i2c.c   **** 				case READ_PRES:
 582:.\imu_i2c.c   **** 				     
 583:.\imu_i2c.c   **** 					if(I2C_READ(BMP180_ADDR, CONTROL_OUTPUT, &Alt_Read_Data[1][0],3))  // BMP180_ReadReg(CONTROL_O
 584:.\imu_i2c.c   **** 					{
 585:.\imu_i2c.c   **** 					   // read pressure
 586:.\imu_i2c.c   **** 					   st_Read=CALC_PRES;
 587:.\imu_i2c.c   **** 					}
 588:.\imu_i2c.c   **** 					break;
 589:.\imu_i2c.c   **** 				case CALC_PRES : 
 590:.\imu_i2c.c   **** 			        if(stI2CMgr==IDLE)	               
 591:.\imu_i2c.c   **** 					   
 592:.\imu_i2c.c   **** 					{
 593:.\imu_i2c.c   **** 					    UP = (((_UINT32)Alt_Read_Data[1][0] << 16) + ((_UINT32)Alt_Read_Data[1][1] << 8) + ((_UINT
 594:.\imu_i2c.c   **** 					    
 595:.\imu_i2c.c   ****                         BMP180_CalculateTruePressure(&PVal);
 596:.\imu_i2c.c   **** 						BMP180_CalAvgValue(&BMP180_Filter[0].Index, BMP180_Filter[0].AvgBuffer, PVal - PRESSURE_OFFSE
 597:.\imu_i2c.c   **** 
 598:.\imu_i2c.c   **** 						BMP180_CalculateAbsoluteAltitude(&AVal, PVal - PRESSURE_OFFSET);
 599:.\imu_i2c.c   **** 						BMP180_CalAvgValue(&BMP180_Filter[1].Index, BMP180_Filter[1].AvgBuffer, AVal, &AltitudeVal);
 600:.\imu_i2c.c   **** 
 601:.\imu_i2c.c   **** 						BMP180_CalculateTrueTemperature(&TVal);
 602:.\imu_i2c.c   **** 						BMP180_CalAvgValue(&BMP180_Filter[2].Index, BMP180_Filter[2].AvgBuffer, TVal, &TemperatureVal
 603:.\imu_i2c.c   **** 						
 604:.\imu_i2c.c   **** 						// do all angle measurments
 605:.\imu_i2c.c   **** 						MotionVal[0]=gyro[0]/32.8;
 606:.\imu_i2c.c   **** 						MotionVal[1]=gyro[1]/32.8;
 607:.\imu_i2c.c   **** 						MotionVal[2]=gyro[2]/32.8;  // as sensitivity of gyro is selected as 32.8 
ARM GAS  C:\Users\acer\AppData\Local\Temp\ccmxYZNb.s 			page 17


 608:.\imu_i2c.c   ****                         
 609:.\imu_i2c.c   ****                        // rawvalue_16*1000/32767 = deg/sec 
 610:.\imu_i2c.c   ****                         
 611:.\imu_i2c.c   **** 						MotionVal[3]=accel[0];
 612:.\imu_i2c.c   **** 						MotionVal[4]=accel[1];
 613:.\imu_i2c.c   **** 						MotionVal[5]=accel[2];
 614:.\imu_i2c.c   ****                         
 615:.\imu_i2c.c   ****                        // rawvalue_16*2/32767 = g 
 616:.\imu_i2c.c   ****                         
 617:.\imu_i2c.c   **** 						MotionVal[6]=magn[0];
 618:.\imu_i2c.c   **** 						MotionVal[7]=magn[1];
 619:.\imu_i2c.c   **** 						MotionVal[8]=magn[2];
 620:.\imu_i2c.c   **** 						
 621:.\imu_i2c.c   **** 						IMU_AHRSupdate((float)MotionVal[0] * 0.0175, (float)MotionVal[1] * 0.0175, (float)MotionVal[2
 622:.\imu_i2c.c   **** 						(float)MotionVal[3], (float)MotionVal[4], (float)MotionVal[5], (float)MotionVal[6], (float)Mo
 623:.\imu_i2c.c   **** 						
 624:.\imu_i2c.c   **** 						// calculate angles
 625:.\imu_i2c.c   **** 						angles[1] = asin(-2 * q1 * q3 + 2 * q0* q2)* 57.3; // pitch
 626:.\imu_i2c.c   **** 						angles[2] = atan2(2 * q2 * q3 + 2 * q0 * q1, -2 * q1 * q1 - 2 * q2* q2 + 1)* 57.3; // roll
 627:.\imu_i2c.c   **** 						angles[0] = atan2(-2 * q1 * q2 - 2 * q0 * q3, 2 * q2 * q2 + 2 * q3 * q3 - 1) * 57.3;   
 628:.\imu_i2c.c   **** 						
 629:.\imu_i2c.c   ****                         // repet the process
 630:.\imu_i2c.c   ****                         st_Read=READ_GYRO;
 631:.\imu_i2c.c   **** 
 632:.\imu_i2c.c   **** 					}
 633:.\imu_i2c.c   **** 	
 634:.\imu_i2c.c   ****   	
 635:.\imu_i2c.c   **** 				break;
 636:.\imu_i2c.c   ****              case IDLE:
 637:.\imu_i2c.c   ****              default : break;      
 638:.\imu_i2c.c   **** 			}						
 639:.\imu_i2c.c   **** }
 640:.\imu_i2c.c   ****   
 641:.\imu_i2c.c   **** /**
 642:.\imu_i2c.c   ****   * @brief  Digital filter
 643:.\imu_i2c.c   ****   * @param *pIndex:
 644:.\imu_i2c.c   ****   * @param *pAvgBuffer:
 645:.\imu_i2c.c   ****   * @param InVal:
 646:.\imu_i2c.c   ****   * @param pOutVal:
 647:.\imu_i2c.c   ****   *
 648:.\imu_i2c.c   ****   * @retval None
 649:.\imu_i2c.c   ****   *               
 650:.\imu_i2c.c   ****   */
 651:.\imu_i2c.c   **** void MPU9250_CalAvgValue(_UINT8 *pIndex, _SINT16 *pAvgBuffer, _SINT16 InVal, _SINT32 *pOutVal)
 652:.\imu_i2c.c   **** {	
 299              		.loc 1 652 0
 300              		.cfi_startproc
 301              		@ args = 0, pretend = 0, frame = 0
 302              		@ frame_needed = 0, uses_anonymous_args = 0
 303              	.LVL17:
 304 0000 30B5     		push	{r4, r5, lr}
 305              		.cfi_def_cfa_offset 12
 306              		.cfi_offset 4, -12
 307              		.cfi_offset 5, -8
 308              		.cfi_offset 14, -4
 653:.\imu_i2c.c   **** 	uint8_t i;
 654:.\imu_i2c.c   **** 	
ARM GAS  C:\Users\acer\AppData\Local\Temp\ccmxYZNb.s 			page 18


 655:.\imu_i2c.c   **** 	*(pAvgBuffer + ((*pIndex) ++)) = InVal;
 309              		.loc 1 655 0
 310 0002 0478     		ldrb	r4, [r0]	@ zero_extendqisi2
 311 0004 651C     		adds	r5, r4, #1
 312 0006 0570     		strb	r5, [r0]
 313 0008 21F81420 		strh	r2, [r1, r4, lsl #1]	@ movhi
 656:.\imu_i2c.c   ****     // pAvgBuffer[pIndex[0]]=InVal;
 657:.\imu_i2c.c   ****     // pIndex[0]++;
 658:.\imu_i2c.c   ****     
 659:.\imu_i2c.c   ****   	*pIndex &= 0x07;  // pIndex[0]=pIndex[0] & 0x07;
 314              		.loc 1 659 0
 315 000c 0278     		ldrb	r2, [r0]	@ zero_extendqisi2
 316              	.LVL18:
 317 000e 02F00702 		and	r2, r2, #7
 318 0012 0270     		strb	r2, [r0]
 319              	.LVL19:
 320 0014 881E     		subs	r0, r1, #2
 321              	.LVL20:
 322 0016 0022     		movs	r2, #0
 323 0018 0E31     		adds	r1, r1, #14
 324              	.LVL21:
 325              	.L37:
 660:.\imu_i2c.c   ****   	
 661:.\imu_i2c.c   ****   	*pOutVal = 0;
 662:.\imu_i2c.c   **** 	for(i = 0; i < 8; i ++) 
 663:.\imu_i2c.c   ****   	{
 664:.\imu_i2c.c   ****     	*pOutVal += *(pAvgBuffer + i); ////      pOutVal[0]=pOutVal[0] + pAvgBuffer[i];
 326              		.loc 1 664 0 discriminator 3
 327 001a 30F9024F 		ldrsh	r4, [r0, #2]!
 662:.\imu_i2c.c   ****   	{
 328              		.loc 1 662 0 discriminator 3
 329 001e 8842     		cmp	r0, r1
 330              		.loc 1 664 0 discriminator 3
 331 0020 2244     		add	r2, r2, r4
 662:.\imu_i2c.c   ****   	{
 332              		.loc 1 662 0 discriminator 3
 333 0022 FAD1     		bne	.L37
 665:.\imu_i2c.c   ****         
 666:.\imu_i2c.c   ****   	}
 667:.\imu_i2c.c   ****   	*pOutVal >>= 3; //pOutVal[0]=pOutVal[0] >> 3;
 334              		.loc 1 667 0
 335 0024 D210     		asrs	r2, r2, #3
 336 0026 1A60     		str	r2, [r3]
 337 0028 30BD     		pop	{r4, r5, pc}
 338              		.cfi_endproc
 339              	.LFE5:
 340              		.size	MPU9250_CalAvgValue, .-MPU9250_CalAvgValue
 341              		.global	__aeabi_fmul
 342              		.global	__aeabi_fsub
 343              		.section	.text.invSqrt,"ax",%progbits
 344              		.align	1
 345              		.global	invSqrt
 346              		.thumb
 347              		.thumb_func
 348              		.type	invSqrt, %function
 349              	invSqrt:
 350              	.LFB6:
ARM GAS  C:\Users\acer\AppData\Local\Temp\ccmxYZNb.s 			page 19


 668:.\imu_i2c.c   **** }
 669:.\imu_i2c.c   **** // IMU APllication layer
 670:.\imu_i2c.c   **** //_SINT16 accel[3], gyro[3];
 671:.\imu_i2c.c   **** 
 672:.\imu_i2c.c   **** 
 673:.\imu_i2c.c   **** 
 674:.\imu_i2c.c   **** /**
 675:.\imu_i2c.c   ****   * @brief  invSqrt
 676:.\imu_i2c.c   ****   * @param  
 677:.\imu_i2c.c   ****   * @retval 
 678:.\imu_i2c.c   ****   */
 679:.\imu_i2c.c   **** 
 680:.\imu_i2c.c   **** float invSqrt(float x) 
 681:.\imu_i2c.c   **** {
 351              		.loc 1 681 0
 352              		.cfi_startproc
 353              		@ args = 0, pretend = 0, frame = 0
 354              		@ frame_needed = 0, uses_anonymous_args = 0
 355              	.LVL22:
 356 0000 10B5     		push	{r4, lr}
 357              		.cfi_def_cfa_offset 8
 358              		.cfi_offset 4, -8
 359              		.cfi_offset 14, -4
 682:.\imu_i2c.c   **** 	float halfx = 0.5f * x;
 683:.\imu_i2c.c   **** 	float y = x;
 684:.\imu_i2c.c   **** 	
 685:.\imu_i2c.c   **** 	//long i = *(long*)&y;                //get bits for floating value
 686:.\imu_i2c.c   **** 	long i = (union { float f; long l; }) {y} .l;
 687:.\imu_i2c.c   ****     
 688:.\imu_i2c.c   ****     i = 0x5f3759df - (i >> 1);          //gives initial guss you
 689:.\imu_i2c.c   **** 	
 690:.\imu_i2c.c   ****     //y = *(float*)&i;                    //convert bits back to float
 691:.\imu_i2c.c   **** 	y = (union { long l; float f; }) {i} .f;
 360              		.loc 1 691 0
 361 0002 0B4C     		ldr	r4, .L40
 682:.\imu_i2c.c   **** 	float halfx = 0.5f * x;
 362              		.loc 1 682 0
 363 0004 4FF07C51 		mov	r1, #1056964608
 364              		.loc 1 691 0
 365 0008 A4EB6004 		sub	r4, r4, r0, asr #1
 366              	.LVL23:
 682:.\imu_i2c.c   **** 	float halfx = 0.5f * x;
 367              		.loc 1 682 0
 368 000c FFF7FEFF 		bl	__aeabi_fmul
 369              	.LVL24:
 692:.\imu_i2c.c   ****     y = y * (1.5f - (halfx * y * y));   //newtop step, repeating increases accuracy
 370              		.loc 1 692 0
 371 0010 2146     		mov	r1, r4
 372 0012 FFF7FEFF 		bl	__aeabi_fmul
 373              	.LVL25:
 374 0016 2146     		mov	r1, r4
 375 0018 FFF7FEFF 		bl	__aeabi_fmul
 376              	.LVL26:
 377 001c 0146     		mov	r1, r0
 378 001e 4FF07F50 		mov	r0, #1069547520
 379 0022 FFF7FEFF 		bl	__aeabi_fsub
 380              	.LVL27:
ARM GAS  C:\Users\acer\AppData\Local\Temp\ccmxYZNb.s 			page 20


 381 0026 0146     		mov	r1, r0
 382              	.LVL28:
 383 0028 2046     		mov	r0, r4
 384              	.LVL29:
 385 002a FFF7FEFF 		bl	__aeabi_fmul
 386              	.LVL30:
 693:.\imu_i2c.c   **** 	
 694:.\imu_i2c.c   **** 	return y;
 695:.\imu_i2c.c   **** }
 387              		.loc 1 695 0
 388 002e 10BD     		pop	{r4, pc}
 389              	.LVL31:
 390              	.L41:
 391              		.align	2
 392              	.L40:
 393 0030 DF59375F 		.word	1597463007
 394              		.cfi_endproc
 395              	.LFE6:
 396              		.size	invSqrt, .-invSqrt
 397              		.global	__aeabi_fadd
 398              		.global	__aeabi_f2d
 399              		.global	__aeabi_d2f
 400              		.global	__aeabi_dsub
 401              		.global	__aeabi_dmul
 402              		.global	__aeabi_dadd
 403              		.global	__aeabi_fcmpeq
 404              		.section	.text.IMU_AHRSupdate,"ax",%progbits
 405              		.align	1
 406              		.global	IMU_AHRSupdate
 407              		.thumb
 408              		.thumb_func
 409              		.type	IMU_AHRSupdate, %function
 410              	IMU_AHRSupdate:
 411              	.LFB7:
 696:.\imu_i2c.c   **** 
 697:.\imu_i2c.c   **** 
 698:.\imu_i2c.c   **** /**
 699:.\imu_i2c.c   ****   * @brief  Updata attitude and heading 
 700:.\imu_i2c.c   ****   * @param  ax: accelerometer X
 701:.\imu_i2c.c   ****   * @param  ay: accelerometer Y
 702:.\imu_i2c.c   ****   * @param  az: accelerometer Z
 703:.\imu_i2c.c   ****   * @param  gx: gyroscopes X
 704:.\imu_i2c.c   ****   * @param  gy: gyroscopes Y
 705:.\imu_i2c.c   ****   * @param  gz: gyroscopes Z
 706:.\imu_i2c.c   ****   * @param  mx: magnetometer X
 707:.\imu_i2c.c   ****   * @param  my: magnetometer Y
 708:.\imu_i2c.c   ****   * @param  mz: magnetometer Z
 709:.\imu_i2c.c   ****   * @retval None
 710:.\imu_i2c.c   ****   */
 711:.\imu_i2c.c   **** void IMU_AHRSupdate(float gx, float gy, float gz, float ax, float ay, float az, float mx, float my,
 712:.\imu_i2c.c   **** {
 412              		.loc 1 712 0
 413              		.cfi_startproc
 414              		@ args = 20, pretend = 0, frame = 96
 415              		@ frame_needed = 0, uses_anonymous_args = 0
 416              	.LVL32:
 417 0000 2DE9F04F 		push	{r4, r5, r6, r7, r8, r9, r10, fp, lr}
ARM GAS  C:\Users\acer\AppData\Local\Temp\ccmxYZNb.s 			page 21


 418              		.cfi_def_cfa_offset 36
 419              		.cfi_offset 4, -36
 420              		.cfi_offset 5, -32
 421              		.cfi_offset 6, -28
 422              		.cfi_offset 7, -24
 423              		.cfi_offset 8, -20
 424              		.cfi_offset 9, -16
 425              		.cfi_offset 10, -12
 426              		.cfi_offset 11, -8
 427              		.cfi_offset 14, -4
 713:.\imu_i2c.c   **** 	float norm;
 714:.\imu_i2c.c   **** 	float hx, hy, hz, bx, bz;
 715:.\imu_i2c.c   **** 	float vx, vy, vz, wx, wy, wz;
 716:.\imu_i2c.c   **** 	float exInt = 0.0, eyInt = 0.0, ezInt = 0.0;
 717:.\imu_i2c.c   **** 	float ex, ey, ez, halfT = 0.024f;
 718:.\imu_i2c.c   **** 
 719:.\imu_i2c.c   **** 	float q0q0 = q0 * q0;
 428              		.loc 1 719 0
 429 0004 DFF8D4B2 		ldr	fp, .L50+8
 712:.\imu_i2c.c   **** 	float norm;
 430              		.loc 1 712 0
 431 0008 99B0     		sub	sp, sp, #100
 432              		.cfi_def_cfa_offset 136
 712:.\imu_i2c.c   **** 	float norm;
 433              		.loc 1 712 0
 434 000a 0190     		str	r0, [sp, #4]	@ float
 435 000c 0291     		str	r1, [sp, #8]	@ float
 436              		.loc 1 719 0
 437 000e DBF80000 		ldr	r0, [fp]	@ float
 438              	.LVL33:
 439 0012 DBF80010 		ldr	r1, [fp]	@ float
 440              	.LVL34:
 712:.\imu_i2c.c   **** 	float norm;
 441              		.loc 1 712 0
 442 0016 0392     		str	r2, [sp, #12]	@ float
 443 0018 0893     		str	r3, [sp, #32]	@ float
 444              		.loc 1 719 0
 445 001a FFF7FEFF 		bl	__aeabi_fmul
 446              	.LVL35:
 720:.\imu_i2c.c   **** 	float q0q1 = q0 * q1;
 447              		.loc 1 720 0
 448 001e DFF8C092 		ldr	r9, .L50+12
 719:.\imu_i2c.c   **** 	float q0q1 = q0 * q1;
 449              		.loc 1 719 0
 450 0022 1590     		str	r0, [sp, #84]	@ float
 451              	.LVL36:
 452              		.loc 1 720 0
 453 0024 DBF80000 		ldr	r0, [fp]	@ float
 454              	.LVL37:
 455 0028 D9F80010 		ldr	r1, [r9]	@ float
 456 002c FFF7FEFF 		bl	__aeabi_fmul
 457              	.LVL38:
 721:.\imu_i2c.c   **** 	float q0q2 = q0 * q2;
 458              		.loc 1 721 0
 459 0030 A84C     		ldr	r4, .L50
 720:.\imu_i2c.c   **** 	float q0q1 = q0 * q1;
 460              		.loc 1 720 0
ARM GAS  C:\Users\acer\AppData\Local\Temp\ccmxYZNb.s 			page 22


 461 0032 0C90     		str	r0, [sp, #48]	@ float
 462              	.LVL39:
 463              		.loc 1 721 0
 464 0034 DBF80000 		ldr	r0, [fp]	@ float
 465              	.LVL40:
 466 0038 2168     		ldr	r1, [r4]	@ float
 467 003a FFF7FEFF 		bl	__aeabi_fmul
 468              	.LVL41:
 722:.\imu_i2c.c   **** 	float q0q3 = q0 * q3;
 469              		.loc 1 722 0
 470 003e A64E     		ldr	r6, .L50+4
 721:.\imu_i2c.c   **** 	float q0q2 = q0 * q2;
 471              		.loc 1 721 0
 472 0040 0A90     		str	r0, [sp, #40]	@ float
 473              	.LVL42:
 474              		.loc 1 722 0
 475 0042 DBF80000 		ldr	r0, [fp]	@ float
 476              	.LVL43:
 477 0046 3168     		ldr	r1, [r6]	@ float
 478 0048 FFF7FEFF 		bl	__aeabi_fmul
 479              	.LVL44:
 480 004c 0F90     		str	r0, [sp, #60]	@ float
 481              	.LVL45:
 723:.\imu_i2c.c   **** 	float q1q1 = q1 * q1;
 482              		.loc 1 723 0
 483 004e D9F80000 		ldr	r0, [r9]	@ float
 484              	.LVL46:
 485 0052 D9F80010 		ldr	r1, [r9]	@ float
 486 0056 FFF7FEFF 		bl	__aeabi_fmul
 487              	.LVL47:
 488 005a 0B90     		str	r0, [sp, #44]	@ float
 489              	.LVL48:
 724:.\imu_i2c.c   **** 	float q1q2 = q1 * q2;
 490              		.loc 1 724 0
 491 005c D9F80000 		ldr	r0, [r9]	@ float
 492              	.LVL49:
 493 0060 2168     		ldr	r1, [r4]	@ float
 494 0062 FFF7FEFF 		bl	__aeabi_fmul
 495              	.LVL50:
 496 0066 8046     		mov	r8, r0
 497              	.LVL51:
 725:.\imu_i2c.c   **** 	float q1q3 = q1 * q3;
 498              		.loc 1 725 0
 499 0068 D9F80000 		ldr	r0, [r9]	@ float
 500              	.LVL52:
 501 006c 3168     		ldr	r1, [r6]	@ float
 502 006e FFF7FEFF 		bl	__aeabi_fmul
 503              	.LVL53:
 504 0072 1090     		str	r0, [sp, #64]	@ float
 505              	.LVL54:
 726:.\imu_i2c.c   **** 	float q2q2 = q2 * q2;   
 506              		.loc 1 726 0
 507 0074 2068     		ldr	r0, [r4]	@ float
 508              	.LVL55:
 509 0076 2168     		ldr	r1, [r4]	@ float
 510 0078 FFF7FEFF 		bl	__aeabi_fmul
 511              	.LVL56:
ARM GAS  C:\Users\acer\AppData\Local\Temp\ccmxYZNb.s 			page 23


 512 007c 0546     		mov	r5, r0
 513              	.LVL57:
 727:.\imu_i2c.c   **** 	float q2q3 = q2 * q3;
 514              		.loc 1 727 0
 515 007e 2068     		ldr	r0, [r4]	@ float
 516              	.LVL58:
 517 0080 3168     		ldr	r1, [r6]	@ float
 518 0082 FFF7FEFF 		bl	__aeabi_fmul
 519              	.LVL59:
 520 0086 0446     		mov	r4, r0
 521              	.LVL60:
 728:.\imu_i2c.c   **** 	float q3q3 = q3 * q3;          
 522              		.loc 1 728 0
 523 0088 3068     		ldr	r0, [r6]	@ float
 524              	.LVL61:
 525 008a 3168     		ldr	r1, [r6]	@ float
 526 008c FFF7FEFF 		bl	__aeabi_fmul
 527              	.LVL62:
 528 0090 0490     		str	r0, [sp, #16]	@ float
 529              	.LVL63:
 729:.\imu_i2c.c   **** 
 730:.\imu_i2c.c   **** 	norm = invSqrt(ax * ax + ay * ay + az * az);       
 530              		.loc 1 730 0
 531 0092 0898     		ldr	r0, [sp, #32]	@ float
 532              	.LVL64:
 533 0094 0146     		mov	r1, r0
 534 0096 FFF7FEFF 		bl	__aeabi_fmul
 535              	.LVL65:
 536 009a 0646     		mov	r6, r0
 537 009c 2298     		ldr	r0, [sp, #136]	@ float
 538 009e 0146     		mov	r1, r0
 539 00a0 FFF7FEFF 		bl	__aeabi_fmul
 540              	.LVL66:
 541 00a4 0146     		mov	r1, r0
 542 00a6 3046     		mov	r0, r6
 543 00a8 FFF7FEFF 		bl	__aeabi_fadd
 544              	.LVL67:
 545 00ac 0646     		mov	r6, r0
 546 00ae 2398     		ldr	r0, [sp, #140]	@ float
 547 00b0 0146     		mov	r1, r0
 548 00b2 FFF7FEFF 		bl	__aeabi_fmul
 549              	.LVL68:
 550 00b6 0146     		mov	r1, r0
 551 00b8 3046     		mov	r0, r6
 552 00ba FFF7FEFF 		bl	__aeabi_fadd
 553              	.LVL69:
 554 00be FFF7FEFF 		bl	invSqrt
 555              	.LVL70:
 556 00c2 8446     		mov	ip, r0
 557              	.LVL71:
 731:.\imu_i2c.c   **** 	ax = ax * norm;
 732:.\imu_i2c.c   **** 	ay = ay * norm;
 558              		.loc 1 732 0
 559 00c4 2298     		ldr	r0, [sp, #136]	@ float
 560              	.LVL72:
 561 00c6 6146     		mov	r1, ip
 562 00c8 CDF814C0 		str	ip, [sp, #20]
ARM GAS  C:\Users\acer\AppData\Local\Temp\ccmxYZNb.s 			page 24


 563 00cc FFF7FEFF 		bl	__aeabi_fmul
 564              	.LVL73:
 733:.\imu_i2c.c   **** 	az = az * norm;
 565              		.loc 1 733 0
 566 00d0 DDF814C0 		ldr	ip, [sp, #20]
 732:.\imu_i2c.c   **** 	az = az * norm;
 567              		.loc 1 732 0
 568 00d4 1190     		str	r0, [sp, #68]	@ float
 569              	.LVL74:
 570              		.loc 1 733 0
 571 00d6 6146     		mov	r1, ip
 572 00d8 2398     		ldr	r0, [sp, #140]	@ float
 573              	.LVL75:
 574 00da CDF85CC0 		str	ip, [sp, #92]
 575 00de FFF7FEFF 		bl	__aeabi_fmul
 576              	.LVL76:
 577 00e2 1290     		str	r0, [sp, #72]	@ float
 578              	.LVL77:
 734:.\imu_i2c.c   **** 
 735:.\imu_i2c.c   **** 	norm = invSqrt(mx * mx + my * my + mz * mz);          
 579              		.loc 1 735 0
 580 00e4 2498     		ldr	r0, [sp, #144]	@ float
 581              	.LVL78:
 582 00e6 0146     		mov	r1, r0
 583 00e8 FFF7FEFF 		bl	__aeabi_fmul
 584              	.LVL79:
 585 00ec 0646     		mov	r6, r0
 586 00ee 2598     		ldr	r0, [sp, #148]	@ float
 587 00f0 0146     		mov	r1, r0
 588 00f2 FFF7FEFF 		bl	__aeabi_fmul
 589              	.LVL80:
 590 00f6 0146     		mov	r1, r0
 591 00f8 3046     		mov	r0, r6
 592 00fa FFF7FEFF 		bl	__aeabi_fadd
 593              	.LVL81:
 594 00fe 0646     		mov	r6, r0
 595 0100 2698     		ldr	r0, [sp, #152]	@ float
 596 0102 0146     		mov	r1, r0
 597 0104 FFF7FEFF 		bl	__aeabi_fmul
 598              	.LVL82:
 599 0108 0146     		mov	r1, r0
 600 010a 3046     		mov	r0, r6
 601 010c FFF7FEFF 		bl	__aeabi_fadd
 602              	.LVL83:
 603 0110 FFF7FEFF 		bl	invSqrt
 604              	.LVL84:
 605 0114 0646     		mov	r6, r0
 606              	.LVL85:
 736:.\imu_i2c.c   **** 	mx = mx * norm;
 607              		.loc 1 736 0
 608 0116 2498     		ldr	r0, [sp, #144]	@ float
 609              	.LVL86:
 610 0118 3146     		mov	r1, r6
 611 011a FFF7FEFF 		bl	__aeabi_fmul
 612              	.LVL87:
 737:.\imu_i2c.c   **** 	my = my * norm;
 613              		.loc 1 737 0
ARM GAS  C:\Users\acer\AppData\Local\Temp\ccmxYZNb.s 			page 25


 614 011e 3146     		mov	r1, r6
 736:.\imu_i2c.c   **** 	mx = mx * norm;
 615              		.loc 1 736 0
 616 0120 0590     		str	r0, [sp, #20]	@ float
 617              	.LVL88:
 618              		.loc 1 737 0
 619 0122 2598     		ldr	r0, [sp, #148]	@ float
 620              	.LVL89:
 621 0124 FFF7FEFF 		bl	__aeabi_fmul
 622              	.LVL90:
 738:.\imu_i2c.c   **** 	mz = mz * norm;
 623              		.loc 1 738 0
 624 0128 3146     		mov	r1, r6
 737:.\imu_i2c.c   **** 	my = my * norm;
 625              		.loc 1 737 0
 626 012a 0690     		str	r0, [sp, #24]	@ float
 627              	.LVL91:
 628              		.loc 1 738 0
 629 012c 2698     		ldr	r0, [sp, #152]	@ float
 630              	.LVL92:
 631 012e FFF7FEFF 		bl	__aeabi_fmul
 632              	.LVL93:
 633 0132 0790     		str	r0, [sp, #28]	@ float
 634              	.LVL94:
 739:.\imu_i2c.c   **** 
 740:.\imu_i2c.c   **** 	// compute reference direction of flux
 741:.\imu_i2c.c   **** 	hx = 2 * mx * (0.5f - q2q2 - q3q3) + 2 * my * (q1q2 - q0q3) + 2 * mz * (q1q3 + q0q2);
 635              		.loc 1 741 0
 636 0134 0598     		ldr	r0, [sp, #20]	@ float
 637              	.LVL95:
 638 0136 0146     		mov	r1, r0
 639 0138 FFF7FEFF 		bl	__aeabi_fadd
 640              	.LVL96:
 641 013c 0E90     		str	r0, [sp, #56]	@ float
 642 013e 0698     		ldr	r0, [sp, #24]	@ float
 643 0140 0146     		mov	r1, r0
 644 0142 FFF7FEFF 		bl	__aeabi_fadd
 645              	.LVL97:
 646 0146 0F99     		ldr	r1, [sp, #60]	@ float
 647 0148 0746     		mov	r7, r0
 648 014a 4046     		mov	r0, r8
 649 014c FFF7FEFF 		bl	__aeabi_fsub
 650              	.LVL98:
 651 0150 1390     		str	r0, [sp, #76]	@ float
 652 0152 0798     		ldr	r0, [sp, #28]	@ float
 653 0154 0146     		mov	r1, r0
 654 0156 FFF7FEFF 		bl	__aeabi_fadd
 655              	.LVL99:
 656 015a 0A99     		ldr	r1, [sp, #40]	@ float
 657 015c 0646     		mov	r6, r0
 658              	.LVL100:
 659 015e 1098     		ldr	r0, [sp, #64]	@ float
 660 0160 FFF7FEFF 		bl	__aeabi_fadd
 661              	.LVL101:
 662 0164 2946     		mov	r1, r5
 663 0166 1490     		str	r0, [sp, #80]	@ float
 664 0168 4FF07C50 		mov	r0, #1056964608
ARM GAS  C:\Users\acer\AppData\Local\Temp\ccmxYZNb.s 			page 26


 665 016c FFF7FEFF 		bl	__aeabi_fsub
 666              	.LVL102:
 667 0170 0499     		ldr	r1, [sp, #16]	@ float
 668 0172 FFF7FEFF 		bl	__aeabi_fsub
 669              	.LVL103:
 670 0176 0146     		mov	r1, r0
 671 0178 0E98     		ldr	r0, [sp, #56]	@ float
 672 017a FFF7FEFF 		bl	__aeabi_fmul
 673              	.LVL104:
 674 017e 1399     		ldr	r1, [sp, #76]	@ float
 675 0180 8246     		mov	r10, r0
 676 0182 3846     		mov	r0, r7
 677 0184 FFF7FEFF 		bl	__aeabi_fmul
 678              	.LVL105:
 679 0188 0146     		mov	r1, r0
 680 018a 5046     		mov	r0, r10
 681 018c FFF7FEFF 		bl	__aeabi_fadd
 682              	.LVL106:
 683 0190 1499     		ldr	r1, [sp, #80]	@ float
 684 0192 8246     		mov	r10, r0
 685 0194 3046     		mov	r0, r6
 686 0196 FFF7FEFF 		bl	__aeabi_fmul
 687              	.LVL107:
 688 019a 0146     		mov	r1, r0
 689 019c 5046     		mov	r0, r10
 690 019e FFF7FEFF 		bl	__aeabi_fadd
 691              	.LVL108:
 742:.\imu_i2c.c   **** 	hy = 2 * mx * (q1q2 + q0q3) + 2 * my * (0.5f - q1q1 - q3q3) + 2 * mz * (q2q3 - q0q1);
 692              		.loc 1 742 0
 693 01a2 0B99     		ldr	r1, [sp, #44]	@ float
 741:.\imu_i2c.c   **** 	hy = 2 * mx * (q1q2 + q0q3) + 2 * my * (0.5f - q1q1 - q3q3) + 2 * mz * (q2q3 - q0q1);
 694              		.loc 1 741 0
 695 01a4 1690     		str	r0, [sp, #88]
 696              	.LVL109:
 697              		.loc 1 742 0
 698 01a6 4FF07C50 		mov	r0, #1056964608
 699 01aa FFF7FEFF 		bl	__aeabi_fsub
 700              	.LVL110:
 701 01ae 0F99     		ldr	r1, [sp, #60]	@ float
 702 01b0 8246     		mov	r10, r0
 703 01b2 4046     		mov	r0, r8
 704 01b4 FFF7FEFF 		bl	__aeabi_fadd
 705              	.LVL111:
 706 01b8 0146     		mov	r1, r0
 707 01ba 0E98     		ldr	r0, [sp, #56]	@ float
 708 01bc FFF7FEFF 		bl	__aeabi_fmul
 709              	.LVL112:
 710 01c0 0499     		ldr	r1, [sp, #16]	@ float
 711 01c2 8046     		mov	r8, r0
 712              	.LVL113:
 713 01c4 5046     		mov	r0, r10
 714 01c6 FFF7FEFF 		bl	__aeabi_fsub
 715              	.LVL114:
 716 01ca 0146     		mov	r1, r0
 717 01cc 3846     		mov	r0, r7
 718 01ce FFF7FEFF 		bl	__aeabi_fmul
 719              	.LVL115:
ARM GAS  C:\Users\acer\AppData\Local\Temp\ccmxYZNb.s 			page 27


 720 01d2 0146     		mov	r1, r0
 721 01d4 4046     		mov	r0, r8
 722 01d6 FFF7FEFF 		bl	__aeabi_fadd
 723              	.LVL116:
 724 01da 0C99     		ldr	r1, [sp, #48]	@ float
 725 01dc 8046     		mov	r8, r0
 726 01de 2046     		mov	r0, r4
 727 01e0 FFF7FEFF 		bl	__aeabi_fsub
 728              	.LVL117:
 729 01e4 0146     		mov	r1, r0
 730 01e6 3046     		mov	r0, r6
 731 01e8 FFF7FEFF 		bl	__aeabi_fmul
 732              	.LVL118:
 733 01ec 0146     		mov	r1, r0
 734 01ee 4046     		mov	r0, r8
 735 01f0 FFF7FEFF 		bl	__aeabi_fadd
 736              	.LVL119:
 743:.\imu_i2c.c   **** 	hz = 2 * mx * (q1q3 - q0q2) + 2 * my * (q2q3 + q0q1) + 2 * mz * (0.5f - q1q1 - q2q2);         
 737              		.loc 1 743 0
 738 01f4 0A99     		ldr	r1, [sp, #40]	@ float
 742:.\imu_i2c.c   **** 	hy = 2 * mx * (q1q2 + q0q3) + 2 * my * (0.5f - q1q1 - q3q3) + 2 * mz * (q2q3 - q0q1);
 739              		.loc 1 742 0
 740 01f6 0F90     		str	r0, [sp, #60]
 741              	.LVL120:
 742              		.loc 1 743 0
 743 01f8 1098     		ldr	r0, [sp, #64]	@ float
 744 01fa FFF7FEFF 		bl	__aeabi_fsub
 745              	.LVL121:
 746 01fe 0C99     		ldr	r1, [sp, #48]	@ float
 747 0200 0A90     		str	r0, [sp, #40]	@ float
 748              	.LVL122:
 749 0202 2046     		mov	r0, r4
 750 0204 FFF7FEFF 		bl	__aeabi_fadd
 751              	.LVL123:
 744:.\imu_i2c.c   **** 	bx = sqrt((hx * hx) + (hy * hy));
 752              		.loc 1 744 0
 753 0208 169A     		ldr	r2, [sp, #88]
 743:.\imu_i2c.c   **** 	hz = 2 * mx * (q1q3 - q0q2) + 2 * my * (q2q3 + q0q1) + 2 * mz * (0.5f - q1q1 - q2q2);         
 754              		.loc 1 743 0
 755 020a 0446     		mov	r4, r0
 756              	.LVL124:
 757              		.loc 1 744 0
 758 020c 1146     		mov	r1, r2
 759 020e 1046     		mov	r0, r2
 760              	.LVL125:
 761 0210 FFF7FEFF 		bl	__aeabi_fmul
 762              	.LVL126:
 763 0214 0F9B     		ldr	r3, [sp, #60]
 764 0216 8046     		mov	r8, r0
 765 0218 1946     		mov	r1, r3
 766 021a 1846     		mov	r0, r3
 767 021c FFF7FEFF 		bl	__aeabi_fmul
 768              	.LVL127:
 769 0220 0146     		mov	r1, r0
 770 0222 4046     		mov	r0, r8
 771 0224 FFF7FEFF 		bl	__aeabi_fadd
 772              	.LVL128:
ARM GAS  C:\Users\acer\AppData\Local\Temp\ccmxYZNb.s 			page 28


 773 0228 FFF7FEFF 		bl	__aeabi_f2d
 774              	.LVL129:
 775 022c FFF7FEFF 		bl	sqrt
 776              	.LVL130:
 777 0230 0246     		mov	r2, r0
 778 0232 0B46     		mov	r3, r1
 745:.\imu_i2c.c   **** 	bz = hz;     
 746:.\imu_i2c.c   **** 
 747:.\imu_i2c.c   **** 	// estimated direction of gravity and flux (v and w)
 748:.\imu_i2c.c   **** 	vx = 2 * (q1q3 - q0q2);
 749:.\imu_i2c.c   **** 	vy = 2 * (q0q1 + q2q3);
 779              		.loc 1 749 0
 780 0234 2046     		mov	r0, r4
 781 0236 2146     		mov	r1, r4
 744:.\imu_i2c.c   **** 	bx = sqrt((hx * hx) + (hy * hy));
 782              		.loc 1 744 0
 783 0238 CDE90C23 		strd	r2, [sp, #48]
 784              	.LVL131:
 785              		.loc 1 749 0
 786 023c FFF7FEFF 		bl	__aeabi_fadd
 787              	.LVL132:
 750:.\imu_i2c.c   **** 	vz = q0q0 - q1q1 - q2q2 + q3q3;
 788              		.loc 1 750 0
 789 0240 0B99     		ldr	r1, [sp, #44]	@ float
 749:.\imu_i2c.c   **** 	vz = q0q0 - q1q1 - q2q2 + q3q3;
 790              		.loc 1 749 0
 791 0242 0F90     		str	r0, [sp, #60]	@ float
 792              	.LVL133:
 793              		.loc 1 750 0
 794 0244 1598     		ldr	r0, [sp, #84]	@ float
 795              	.LVL134:
 796 0246 FFF7FEFF 		bl	__aeabi_fsub
 797              	.LVL135:
 798 024a 2946     		mov	r1, r5
 799 024c FFF7FEFF 		bl	__aeabi_fsub
 800              	.LVL136:
 801 0250 0499     		ldr	r1, [sp, #16]	@ float
 802 0252 FFF7FEFF 		bl	__aeabi_fadd
 803              	.LVL137:
 744:.\imu_i2c.c   **** 	bz = hz;     
 804              		.loc 1 744 0
 805 0256 DDE90C23 		ldrd	r2, [sp, #48]
 806              		.loc 1 750 0
 807 025a 1090     		str	r0, [sp, #64]	@ float
 808              	.LVL138:
 744:.\imu_i2c.c   **** 	bz = hz;     
 809              		.loc 1 744 0
 810 025c 1946     		mov	r1, r3
 811 025e 1046     		mov	r0, r2
 812              	.LVL139:
 813 0260 FFF7FEFF 		bl	__aeabi_d2f
 814              	.LVL140:
 751:.\imu_i2c.c   **** 	wx = 2 * bx * (0.5 - q2q2 - q3q3) + 2 * bz * (q1q3 - q0q2);
 815              		.loc 1 751 0
 816 0264 0146     		mov	r1, r0
 817 0266 FFF7FEFF 		bl	__aeabi_fadd
 818              	.LVL141:
ARM GAS  C:\Users\acer\AppData\Local\Temp\ccmxYZNb.s 			page 29


 819 026a 8046     		mov	r8, r0
 820 026c 2846     		mov	r0, r5
 821 026e FFF7FEFF 		bl	__aeabi_f2d
 822              	.LVL142:
 823 0272 CDE90C01 		strd	r0, [sp, #48]
 824              	.LVL143:
 743:.\imu_i2c.c   **** 	bx = sqrt((hx * hx) + (hy * hy));
 825              		.loc 1 743 0
 826 0276 0E98     		ldr	r0, [sp, #56]	@ float
 827 0278 0A99     		ldr	r1, [sp, #40]	@ float
 828 027a FFF7FEFF 		bl	__aeabi_fmul
 829              	.LVL144:
 830 027e 2146     		mov	r1, r4
 831 0280 0E90     		str	r0, [sp, #56]
 832              	.LVL145:
 833 0282 3846     		mov	r0, r7
 834 0284 FFF7FEFF 		bl	__aeabi_fmul
 835              	.LVL146:
 836 0288 0E9B     		ldr	r3, [sp, #56]
 837 028a 0146     		mov	r1, r0
 838 028c 1846     		mov	r0, r3
 839 028e FFF7FEFF 		bl	__aeabi_fadd
 840              	.LVL147:
 841 0292 2946     		mov	r1, r5
 842 0294 0746     		mov	r7, r0
 843 0296 5046     		mov	r0, r10
 844 0298 FFF7FEFF 		bl	__aeabi_fsub
 845              	.LVL148:
 846 029c 0146     		mov	r1, r0
 847 029e 3046     		mov	r0, r6
 848 02a0 FFF7FEFF 		bl	__aeabi_fmul
 849              	.LVL149:
 850 02a4 0146     		mov	r1, r0
 851 02a6 3846     		mov	r0, r7
 852 02a8 FFF7FEFF 		bl	__aeabi_fadd
 853              	.LVL150:
 854              		.loc 1 751 0
 855 02ac 0146     		mov	r1, r0
 856 02ae FFF7FEFF 		bl	__aeabi_fadd
 857              	.LVL151:
 752:.\imu_i2c.c   **** 	wy = 2 * bx * (q1q2 - q0q3) + 2 * bz * (q0q1 + q2q3);
 858              		.loc 1 752 0
 859 02b2 1399     		ldr	r1, [sp, #76]	@ float
 751:.\imu_i2c.c   **** 	wx = 2 * bx * (0.5 - q2q2 - q3q3) + 2 * bz * (q1q3 - q0q2);
 860              		.loc 1 751 0
 861 02b4 8246     		mov	r10, r0
 862              	.LVL152:
 863              		.loc 1 752 0
 864 02b6 4046     		mov	r0, r8
 865              	.LVL153:
 866 02b8 FFF7FEFF 		bl	__aeabi_fmul
 867              	.LVL154:
 868 02bc 2146     		mov	r1, r4
 869 02be 0546     		mov	r5, r0
 870              	.LVL155:
 871 02c0 5046     		mov	r0, r10
 872 02c2 FFF7FEFF 		bl	__aeabi_fmul
ARM GAS  C:\Users\acer\AppData\Local\Temp\ccmxYZNb.s 			page 30


 873              	.LVL156:
 874 02c6 0146     		mov	r1, r0
 875 02c8 2846     		mov	r0, r5
 876 02ca FFF7FEFF 		bl	__aeabi_fadd
 877              	.LVL157:
 753:.\imu_i2c.c   **** 	wz = 2 * bx * (q0q2 + q1q3) + 2 * bz * (0.5 - q1q1 - q2q2);  
 878              		.loc 1 753 0
 879 02ce 1499     		ldr	r1, [sp, #80]	@ float
 752:.\imu_i2c.c   **** 	wy = 2 * bx * (q1q2 - q0q3) + 2 * bz * (q0q1 + q2q3);
 880              		.loc 1 752 0
 881 02d0 0E90     		str	r0, [sp, #56]	@ float
 882 02d2 07E0     		b	.L51
 883              	.L52:
 884              		.align	2
 885              	.L50:
 886 02d4 00000000 		.word	q2
 887 02d8 00000000 		.word	q3
 888 02dc 00000000 		.word	q0
 889 02e0 00000000 		.word	q1
 890              	.L51:
 891              	.LVL158:
 892              		.loc 1 753 0
 893 02e4 4046     		mov	r0, r8
 894              	.LVL159:
 895 02e6 FFF7FEFF 		bl	__aeabi_fmul
 896              	.LVL160:
 897 02ea FFF7FEFF 		bl	__aeabi_f2d
 898              	.LVL161:
 899 02ee 0646     		mov	r6, r0
 900 02f0 5046     		mov	r0, r10
 901 02f2 0F46     		mov	r7, r1
 902 02f4 FFF7FEFF 		bl	__aeabi_f2d
 903              	.LVL162:
 904 02f8 0446     		mov	r4, r0
 905 02fa 0B98     		ldr	r0, [sp, #44]	@ float
 906 02fc 0D46     		mov	r5, r1
 907 02fe FFF7FEFF 		bl	__aeabi_f2d
 908              	.LVL163:
 909 0302 0246     		mov	r2, r0
 910 0304 0B46     		mov	r3, r1
 911 0306 0020     		movs	r0, #0
 912 0308 B049     		ldr	r1, .L53
 913 030a FFF7FEFF 		bl	__aeabi_dsub
 914              	.LVL164:
 915 030e DDE90C23 		ldrd	r2, [sp, #48]
 916 0312 FFF7FEFF 		bl	__aeabi_dsub
 917              	.LVL165:
 918 0316 0246     		mov	r2, r0
 919 0318 0B46     		mov	r3, r1
 920 031a 2046     		mov	r0, r4
 921 031c 2946     		mov	r1, r5
 922 031e FFF7FEFF 		bl	__aeabi_dmul
 923              	.LVL166:
 924 0322 0246     		mov	r2, r0
 925 0324 0B46     		mov	r3, r1
 926 0326 3046     		mov	r0, r6
 927 0328 3946     		mov	r1, r7
ARM GAS  C:\Users\acer\AppData\Local\Temp\ccmxYZNb.s 			page 31


 928 032a FFF7FEFF 		bl	__aeabi_dadd
 929              	.LVL167:
 930 032e FFF7FEFF 		bl	__aeabi_d2f
 931              	.LVL168:
 754:.\imu_i2c.c   **** 
 755:.\imu_i2c.c   **** 	// error is sum of cross product between reference direction of fields and direction measured by s
 756:.\imu_i2c.c   **** 	ex = (ay * vz - az * vy) + (my * wz - mz * wy);
 932              		.loc 1 756 0
 933 0332 1099     		ldr	r1, [sp, #64]	@ float
 753:.\imu_i2c.c   **** 	wz = 2 * bx * (q0q2 + q1q3) + 2 * bz * (0.5 - q1q1 - q2q2);  
 934              		.loc 1 753 0
 935 0334 0B90     		str	r0, [sp, #44]	@ float
 936              	.LVL169:
 937              		.loc 1 756 0
 938 0336 1198     		ldr	r0, [sp, #68]	@ float
 939              	.LVL170:
 940 0338 FFF7FEFF 		bl	__aeabi_fmul
 941              	.LVL171:
 942 033c 0F99     		ldr	r1, [sp, #60]	@ float
 943 033e 0446     		mov	r4, r0
 944 0340 1298     		ldr	r0, [sp, #72]	@ float
 945 0342 FFF7FEFF 		bl	__aeabi_fmul
 946              	.LVL172:
 947 0346 0146     		mov	r1, r0
 948 0348 2046     		mov	r0, r4
 949 034a FFF7FEFF 		bl	__aeabi_fsub
 950              	.LVL173:
 951 034e 0B99     		ldr	r1, [sp, #44]	@ float
 952 0350 0446     		mov	r4, r0
 953 0352 0698     		ldr	r0, [sp, #24]	@ float
 954 0354 FFF7FEFF 		bl	__aeabi_fmul
 955              	.LVL174:
 956 0358 0E99     		ldr	r1, [sp, #56]	@ float
 957 035a 0546     		mov	r5, r0
 958 035c 0798     		ldr	r0, [sp, #28]	@ float
 959 035e FFF7FEFF 		bl	__aeabi_fmul
 960              	.LVL175:
 961 0362 0146     		mov	r1, r0
 962 0364 2846     		mov	r0, r5
 963 0366 FFF7FEFF 		bl	__aeabi_fsub
 964              	.LVL176:
 965 036a 0146     		mov	r1, r0
 966 036c 2046     		mov	r0, r4
 967 036e FFF7FEFF 		bl	__aeabi_fadd
 968              	.LVL177:
 757:.\imu_i2c.c   **** 	ey = (az * vx - ax * vz) + (mz * wx - mx * wz);
 758:.\imu_i2c.c   **** 	ez = (ax * vy - ay * vx) + (mx * wy - my * wx);
 759:.\imu_i2c.c   **** 
 760:.\imu_i2c.c   **** 	if(ex != 0.0f && ey != 0.0f && ez != 0.0f)
 969              		.loc 1 760 0
 970 0372 0021     		movs	r1, #0
 756:.\imu_i2c.c   **** 	ey = (az * vx - ax * vz) + (mz * wx - mx * wz);
 971              		.loc 1 756 0
 972 0374 1390     		str	r0, [sp, #76]	@ float
 973              	.LVL178:
 974              		.loc 1 760 0
 975 0376 FFF7FEFF 		bl	__aeabi_fcmpeq
ARM GAS  C:\Users\acer\AppData\Local\Temp\ccmxYZNb.s 			page 32


 976              	.LVL179:
 977 037a 5D46     		mov	r5, fp
 978 037c 4C46     		mov	r4, r9
 979 037e 0028     		cmp	r0, #0
 980 0380 40F0C280 		bne	.L43
 731:.\imu_i2c.c   **** 	ay = ay * norm;
 981              		.loc 1 731 0 discriminator 1
 982 0384 DDF85CC0 		ldr	ip, [sp, #92]
 983 0388 0898     		ldr	r0, [sp, #32]	@ float
 984 038a 6146     		mov	r1, ip
 985 038c FFF7FEFF 		bl	__aeabi_fmul
 986              	.LVL180:
 987 0390 0646     		mov	r6, r0
 748:.\imu_i2c.c   **** 	vy = 2 * (q0q1 + q2q3);
 988              		.loc 1 748 0 discriminator 1
 989 0392 0A98     		ldr	r0, [sp, #40]	@ float
 990 0394 0146     		mov	r1, r0
 991 0396 FFF7FEFF 		bl	__aeabi_fadd
 992              	.LVL181:
 993 039a 0746     		mov	r7, r0
 751:.\imu_i2c.c   **** 	wy = 2 * bx * (q1q2 - q0q3) + 2 * bz * (q0q1 + q2q3);
 994              		.loc 1 751 0 discriminator 1
 995 039c 4046     		mov	r0, r8
 996 039e FFF7FEFF 		bl	__aeabi_f2d
 997              	.LVL182:
 998 03a2 DDE90C23 		ldrd	r2, [sp, #48]
 999 03a6 CDE90801 		strd	r0, [sp, #32]
 1000 03aa 0020     		movs	r0, #0
 1001 03ac 8749     		ldr	r1, .L53
 1002 03ae FFF7FEFF 		bl	__aeabi_dsub
 1003              	.LVL183:
 1004 03b2 8046     		mov	r8, r0
 1005              	.LVL184:
 1006 03b4 0498     		ldr	r0, [sp, #16]	@ float
 1007 03b6 8946     		mov	r9, r1
 1008 03b8 FFF7FEFF 		bl	__aeabi_f2d
 1009              	.LVL185:
 1010 03bc 0246     		mov	r2, r0
 1011 03be 0B46     		mov	r3, r1
 1012 03c0 4046     		mov	r0, r8
 1013 03c2 4946     		mov	r1, r9
 1014 03c4 FFF7FEFF 		bl	__aeabi_dsub
 1015              	.LVL186:
 1016 03c8 0246     		mov	r2, r0
 1017 03ca 0B46     		mov	r3, r1
 1018 03cc DDE90801 		ldrd	r0, [sp, #32]
 1019 03d0 FFF7FEFF 		bl	__aeabi_dmul
 1020              	.LVL187:
 1021 03d4 8046     		mov	r8, r0
 1022 03d6 8946     		mov	r9, r1
 1023 03d8 5046     		mov	r0, r10
 1024 03da 0A99     		ldr	r1, [sp, #40]	@ float
 1025 03dc FFF7FEFF 		bl	__aeabi_fmul
 1026              	.LVL188:
 1027 03e0 FFF7FEFF 		bl	__aeabi_f2d
 1028              	.LVL189:
 1029 03e4 0246     		mov	r2, r0
ARM GAS  C:\Users\acer\AppData\Local\Temp\ccmxYZNb.s 			page 33


 1030 03e6 0B46     		mov	r3, r1
 1031 03e8 4046     		mov	r0, r8
 1032 03ea 4946     		mov	r1, r9
 1033 03ec FFF7FEFF 		bl	__aeabi_dadd
 1034              	.LVL190:
 1035 03f0 FFF7FEFF 		bl	__aeabi_d2f
 1036              	.LVL191:
 757:.\imu_i2c.c   **** 	ez = (ax * vy - ay * vx) + (mx * wy - my * wx);
 1037              		.loc 1 757 0 discriminator 1
 1038 03f4 3946     		mov	r1, r7
 751:.\imu_i2c.c   **** 	wy = 2 * bx * (q1q2 - q0q3) + 2 * bz * (q0q1 + q2q3);
 1039              		.loc 1 751 0 discriminator 1
 1040 03f6 8046     		mov	r8, r0
 757:.\imu_i2c.c   **** 	ez = (ax * vy - ay * vx) + (mx * wy - my * wx);
 1041              		.loc 1 757 0 discriminator 1
 1042 03f8 1298     		ldr	r0, [sp, #72]	@ float
 1043 03fa FFF7FEFF 		bl	__aeabi_fmul
 1044              	.LVL192:
 1045 03fe 1099     		ldr	r1, [sp, #64]	@ float
 1046 0400 8146     		mov	r9, r0
 1047 0402 3046     		mov	r0, r6
 1048 0404 FFF7FEFF 		bl	__aeabi_fmul
 1049              	.LVL193:
 1050 0408 0146     		mov	r1, r0
 1051 040a 4846     		mov	r0, r9
 1052 040c FFF7FEFF 		bl	__aeabi_fsub
 1053              	.LVL194:
 1054 0410 4146     		mov	r1, r8
 1055 0412 8146     		mov	r9, r0
 1056 0414 0798     		ldr	r0, [sp, #28]	@ float
 1057 0416 FFF7FEFF 		bl	__aeabi_fmul
 1058              	.LVL195:
 1059 041a 0B99     		ldr	r1, [sp, #44]	@ float
 1060 041c 8246     		mov	r10, r0
 1061 041e 0598     		ldr	r0, [sp, #20]	@ float
 1062 0420 FFF7FEFF 		bl	__aeabi_fmul
 1063              	.LVL196:
 1064 0424 0146     		mov	r1, r0
 1065 0426 5046     		mov	r0, r10
 1066 0428 FFF7FEFF 		bl	__aeabi_fsub
 1067              	.LVL197:
 1068 042c 0146     		mov	r1, r0
 1069 042e 4846     		mov	r0, r9
 1070 0430 FFF7FEFF 		bl	__aeabi_fadd
 1071              	.LVL198:
 1072              		.loc 1 760 0 discriminator 1
 1073 0434 0021     		movs	r1, #0
 757:.\imu_i2c.c   **** 	ez = (ax * vy - ay * vx) + (mx * wy - my * wx);
 1074              		.loc 1 757 0 discriminator 1
 1075 0436 8146     		mov	r9, r0
 1076              		.loc 1 760 0 discriminator 1
 1077 0438 FFF7FEFF 		bl	__aeabi_fcmpeq
 1078              	.LVL199:
 1079 043c 0028     		cmp	r0, #0
 1080 043e 63D1     		bne	.L43
 758:.\imu_i2c.c   **** 
 1081              		.loc 1 758 0 discriminator 2
ARM GAS  C:\Users\acer\AppData\Local\Temp\ccmxYZNb.s 			page 34


 1082 0440 3046     		mov	r0, r6
 1083 0442 0F99     		ldr	r1, [sp, #60]	@ float
 1084 0444 FFF7FEFF 		bl	__aeabi_fmul
 1085              	.LVL200:
 1086 0448 3946     		mov	r1, r7
 1087 044a 0646     		mov	r6, r0
 1088 044c 1198     		ldr	r0, [sp, #68]	@ float
 1089 044e FFF7FEFF 		bl	__aeabi_fmul
 1090              	.LVL201:
 1091 0452 0146     		mov	r1, r0
 1092 0454 3046     		mov	r0, r6
 1093 0456 FFF7FEFF 		bl	__aeabi_fsub
 1094              	.LVL202:
 1095 045a 0E99     		ldr	r1, [sp, #56]	@ float
 1096 045c 0646     		mov	r6, r0
 1097 045e 0598     		ldr	r0, [sp, #20]	@ float
 1098 0460 FFF7FEFF 		bl	__aeabi_fmul
 1099              	.LVL203:
 1100 0464 4146     		mov	r1, r8
 1101 0466 0746     		mov	r7, r0
 1102 0468 0698     		ldr	r0, [sp, #24]	@ float
 1103 046a FFF7FEFF 		bl	__aeabi_fmul
 1104              	.LVL204:
 1105 046e 0146     		mov	r1, r0
 1106 0470 3846     		mov	r0, r7
 1107 0472 FFF7FEFF 		bl	__aeabi_fsub
 1108              	.LVL205:
 1109 0476 0146     		mov	r1, r0
 1110 0478 3046     		mov	r0, r6
 1111 047a FFF7FEFF 		bl	__aeabi_fadd
 1112              	.LVL206:
 1113              		.loc 1 760 0 discriminator 2
 1114 047e 0021     		movs	r1, #0
 758:.\imu_i2c.c   **** 
 1115              		.loc 1 758 0 discriminator 2
 1116 0480 0646     		mov	r6, r0
 1117              		.loc 1 760 0 discriminator 2
 1118 0482 FFF7FEFF 		bl	__aeabi_fcmpeq
 1119              	.LVL207:
 1120 0486 0028     		cmp	r0, #0
 1121 0488 3ED1     		bne	.L43
 1122              	.LVL208:
 761:.\imu_i2c.c   **** 	{
 762:.\imu_i2c.c   **** 		exInt = exInt + ex * Ki * halfT;
 763:.\imu_i2c.c   **** 		eyInt = eyInt + ey * Ki * halfT;	
 764:.\imu_i2c.c   **** 		ezInt = ezInt + ez * Ki * halfT;
 765:.\imu_i2c.c   **** 
 766:.\imu_i2c.c   **** 		gx = gx + Kp * ex + exInt;
 1123              		.loc 1 766 0
 1124 048a 5149     		ldr	r1, .L53+4
 1125 048c 1398     		ldr	r0, [sp, #76]	@ float
 1126 048e FFF7FEFF 		bl	__aeabi_fmul
 1127              	.LVL209:
 1128 0492 0146     		mov	r1, r0
 1129 0494 0198     		ldr	r0, [sp, #4]	@ float
 1130 0496 FFF7FEFF 		bl	__aeabi_fadd
 1131              	.LVL210:
ARM GAS  C:\Users\acer\AppData\Local\Temp\ccmxYZNb.s 			page 35


 762:.\imu_i2c.c   **** 		eyInt = eyInt + ey * Ki * halfT;	
 1132              		.loc 1 762 0
 1133 049a 4E49     		ldr	r1, .L53+8
 1134              		.loc 1 766 0
 1135 049c 0746     		mov	r7, r0
 762:.\imu_i2c.c   **** 		eyInt = eyInt + ey * Ki * halfT;	
 1136              		.loc 1 762 0
 1137 049e 1398     		ldr	r0, [sp, #76]	@ float
 1138 04a0 FFF7FEFF 		bl	__aeabi_fmul
 1139              	.LVL211:
 1140 04a4 0021     		movs	r1, #0
 1141 04a6 FFF7FEFF 		bl	__aeabi_fadd
 1142              	.LVL212:
 1143 04aa 0146     		mov	r1, r0
 1144              		.loc 1 766 0
 1145 04ac 3846     		mov	r0, r7
 1146 04ae FFF7FEFF 		bl	__aeabi_fadd
 1147              	.LVL213:
 767:.\imu_i2c.c   **** 		gy = gy + Kp * ey + eyInt;
 1148              		.loc 1 767 0
 1149 04b2 4749     		ldr	r1, .L53+4
 766:.\imu_i2c.c   **** 		gy = gy + Kp * ey + eyInt;
 1150              		.loc 1 766 0
 1151 04b4 0190     		str	r0, [sp, #4]	@ float
 1152              	.LVL214:
 1153              		.loc 1 767 0
 1154 04b6 4846     		mov	r0, r9
 1155              	.LVL215:
 1156 04b8 FFF7FEFF 		bl	__aeabi_fmul
 1157              	.LVL216:
 1158 04bc 0146     		mov	r1, r0
 1159 04be 0298     		ldr	r0, [sp, #8]	@ float
 1160 04c0 FFF7FEFF 		bl	__aeabi_fadd
 1161              	.LVL217:
 763:.\imu_i2c.c   **** 		ezInt = ezInt + ez * Ki * halfT;
 1162              		.loc 1 763 0
 1163 04c4 4349     		ldr	r1, .L53+8
 1164              		.loc 1 767 0
 1165 04c6 0746     		mov	r7, r0
 763:.\imu_i2c.c   **** 		ezInt = ezInt + ez * Ki * halfT;
 1166              		.loc 1 763 0
 1167 04c8 4846     		mov	r0, r9
 1168 04ca FFF7FEFF 		bl	__aeabi_fmul
 1169              	.LVL218:
 1170 04ce 0021     		movs	r1, #0
 1171 04d0 FFF7FEFF 		bl	__aeabi_fadd
 1172              	.LVL219:
 1173 04d4 0146     		mov	r1, r0
 1174              		.loc 1 767 0
 1175 04d6 3846     		mov	r0, r7
 1176 04d8 FFF7FEFF 		bl	__aeabi_fadd
 1177              	.LVL220:
 768:.\imu_i2c.c   **** 		gz = gz + Kp * ez + ezInt;
 1178              		.loc 1 768 0
 1179 04dc 3C49     		ldr	r1, .L53+4
 767:.\imu_i2c.c   **** 		gz = gz + Kp * ez + ezInt;
 1180              		.loc 1 767 0
ARM GAS  C:\Users\acer\AppData\Local\Temp\ccmxYZNb.s 			page 36


 1181 04de 0290     		str	r0, [sp, #8]	@ float
 1182              	.LVL221:
 1183              		.loc 1 768 0
 1184 04e0 3046     		mov	r0, r6
 1185              	.LVL222:
 1186 04e2 FFF7FEFF 		bl	__aeabi_fmul
 1187              	.LVL223:
 1188 04e6 0146     		mov	r1, r0
 1189 04e8 0398     		ldr	r0, [sp, #12]	@ float
 1190 04ea FFF7FEFF 		bl	__aeabi_fadd
 1191              	.LVL224:
 764:.\imu_i2c.c   **** 
 1192              		.loc 1 764 0
 1193 04ee 3949     		ldr	r1, .L53+8
 1194              		.loc 1 768 0
 1195 04f0 0746     		mov	r7, r0
 764:.\imu_i2c.c   **** 
 1196              		.loc 1 764 0
 1197 04f2 3046     		mov	r0, r6
 1198 04f4 FFF7FEFF 		bl	__aeabi_fmul
 1199              	.LVL225:
 1200 04f8 0021     		movs	r1, #0
 1201 04fa FFF7FEFF 		bl	__aeabi_fadd
 1202              	.LVL226:
 1203 04fe 0146     		mov	r1, r0
 1204              		.loc 1 768 0
 1205 0500 3846     		mov	r0, r7
 1206 0502 FFF7FEFF 		bl	__aeabi_fadd
 1207              	.LVL227:
 1208 0506 0390     		str	r0, [sp, #12]	@ float
 1209              	.LVL228:
 1210              	.L43:
 769:.\imu_i2c.c   **** 	}
 770:.\imu_i2c.c   **** 
 771:.\imu_i2c.c   **** 	q0 = q0 + (-q1 * gx - q2 * gy - q3 * gz) * halfT;
 1211              		.loc 1 771 0
 1212 0508 D5F80080 		ldr	r8, [r5]	@ float
 1213 050c 2068     		ldr	r0, [r4]	@ float
 1214 050e 0199     		ldr	r1, [sp, #4]	@ float
 1215 0510 00F10040 		add	r0, r0, #-2147483648
 1216 0514 FFF7FEFF 		bl	__aeabi_fmul
 1217              	.LVL229:
 1218 0518 2F4F     		ldr	r7, .L53+12
 1219 051a 0299     		ldr	r1, [sp, #8]	@ float
 1220 051c D7F800A0 		ldr	r10, [r7]	@ float
 1221 0520 8346     		mov	fp, r0
 1222 0522 5046     		mov	r0, r10
 1223 0524 FFF7FEFF 		bl	__aeabi_fmul
 1224              	.LVL230:
 1225 0528 0146     		mov	r1, r0
 1226 052a 5846     		mov	r0, fp
 1227 052c FFF7FEFF 		bl	__aeabi_fsub
 1228              	.LVL231:
 1229 0530 2A4E     		ldr	r6, .L53+16
 1230 0532 0399     		ldr	r1, [sp, #12]	@ float
 1231 0534 D6F80090 		ldr	r9, [r6]	@ float
 1232 0538 8246     		mov	r10, r0
ARM GAS  C:\Users\acer\AppData\Local\Temp\ccmxYZNb.s 			page 37


 1233 053a 4846     		mov	r0, r9
 1234 053c FFF7FEFF 		bl	__aeabi_fmul
 1235              	.LVL232:
 1236 0540 0146     		mov	r1, r0
 1237 0542 5046     		mov	r0, r10
 1238 0544 FFF7FEFF 		bl	__aeabi_fsub
 1239              	.LVL233:
 1240 0548 2249     		ldr	r1, .L53+8
 1241 054a FFF7FEFF 		bl	__aeabi_fmul
 1242              	.LVL234:
 1243 054e 0146     		mov	r1, r0
 1244 0550 4046     		mov	r0, r8
 1245 0552 FFF7FEFF 		bl	__aeabi_fadd
 1246              	.LVL235:
 1247 0556 2860     		str	r0, [r5]	@ float
 772:.\imu_i2c.c   **** 	q1 = q1 + (q0 * gx + q2 * gz - q3 * gy) * halfT;
 1248              		.loc 1 772 0
 1249 0558 D4F80080 		ldr	r8, [r4]	@ float
 1250 055c 0199     		ldr	r1, [sp, #4]	@ float
 1251 055e 2868     		ldr	r0, [r5]	@ float
 1252 0560 FFF7FEFF 		bl	__aeabi_fmul
 1253              	.LVL236:
 1254 0564 D7F800B0 		ldr	fp, [r7]	@ float
 1255 0568 0399     		ldr	r1, [sp, #12]	@ float
 1256 056a 8146     		mov	r9, r0
 1257 056c 5846     		mov	r0, fp
 1258 056e FFF7FEFF 		bl	__aeabi_fmul
 1259              	.LVL237:
 1260 0572 0146     		mov	r1, r0
 1261 0574 4846     		mov	r0, r9
 1262 0576 FFF7FEFF 		bl	__aeabi_fadd
 1263              	.LVL238:
 1264 057a D6F800A0 		ldr	r10, [r6]	@ float
 1265 057e 0299     		ldr	r1, [sp, #8]	@ float
 1266 0580 8146     		mov	r9, r0
 1267 0582 5046     		mov	r0, r10
 1268 0584 FFF7FEFF 		bl	__aeabi_fmul
 1269              	.LVL239:
 1270 0588 0146     		mov	r1, r0
 1271 058a 4846     		mov	r0, r9
 1272 058c FFF7FEFF 		bl	__aeabi_fsub
 1273              	.LVL240:
 1274 0590 1049     		ldr	r1, .L53+8
 1275 0592 FFF7FEFF 		bl	__aeabi_fmul
 1276              	.LVL241:
 1277 0596 0146     		mov	r1, r0
 1278 0598 4046     		mov	r0, r8
 1279 059a FFF7FEFF 		bl	__aeabi_fadd
 1280              	.LVL242:
 1281 059e 2060     		str	r0, [r4]	@ float
 773:.\imu_i2c.c   **** 	q2 = q2 + (q0 * gy - q1 * gz + q3 * gx) * halfT;
 1282              		.loc 1 773 0
 1283 05a0 D7F80080 		ldr	r8, [r7]	@ float
 1284 05a4 2868     		ldr	r0, [r5]	@ float
 1285 05a6 D4F800B0 		ldr	fp, [r4]	@ float
 1286 05aa D6F800A0 		ldr	r10, [r6]	@ float
 1287 05ae 0299     		ldr	r1, [sp, #8]	@ float
ARM GAS  C:\Users\acer\AppData\Local\Temp\ccmxYZNb.s 			page 38


 1288 05b0 FFF7FEFF 		bl	__aeabi_fmul
 1289              	.LVL243:
 1290 05b4 0399     		ldr	r1, [sp, #12]	@ float
 1291 05b6 8146     		mov	r9, r0
 1292 05b8 5846     		mov	r0, fp
 1293 05ba FFF7FEFF 		bl	__aeabi_fmul
 1294              	.LVL244:
 1295 05be 0146     		mov	r1, r0
 1296 05c0 4846     		mov	r0, r9
 1297 05c2 FFF7FEFF 		bl	__aeabi_fsub
 1298              	.LVL245:
 1299 05c6 0199     		ldr	r1, [sp, #4]	@ float
 1300 05c8 8146     		mov	r9, r0
 1301 05ca 09E0     		b	.L54
 1302              	.L55:
 1303              		.align	2
 1304              	.L53:
 1305 05cc 0000E03F 		.word	1071644672
 1306 05d0 00009040 		.word	1083179008
 1307 05d4 A69BC43C 		.word	1019517862
 1308 05d8 00000000 		.word	q2
 1309 05dc 00000000 		.word	q3
 1310              	.L54:
 1311 05e0 5046     		mov	r0, r10
 1312 05e2 FFF7FEFF 		bl	__aeabi_fmul
 1313              	.LVL246:
 1314 05e6 0146     		mov	r1, r0
 1315 05e8 4846     		mov	r0, r9
 1316 05ea FFF7FEFF 		bl	__aeabi_fadd
 1317              	.LVL247:
 1318 05ee 3B49     		ldr	r1, .L56
 1319 05f0 FFF7FEFF 		bl	__aeabi_fmul
 1320              	.LVL248:
 1321 05f4 0146     		mov	r1, r0
 1322 05f6 4046     		mov	r0, r8
 1323 05f8 FFF7FEFF 		bl	__aeabi_fadd
 1324              	.LVL249:
 1325 05fc 3860     		str	r0, [r7]	@ float
 774:.\imu_i2c.c   **** 	q3 = q3 + (q0 * gz + q1 * gy - q2 * gx) * halfT;  
 1326              		.loc 1 774 0
 1327 05fe D6F80080 		ldr	r8, [r6]	@ float
 1328 0602 0399     		ldr	r1, [sp, #12]	@ float
 1329 0604 2868     		ldr	r0, [r5]	@ float
 1330 0606 FFF7FEFF 		bl	__aeabi_fmul
 1331              	.LVL250:
 1332 060a D4F800B0 		ldr	fp, [r4]	@ float
 1333 060e 0299     		ldr	r1, [sp, #8]	@ float
 1334 0610 8146     		mov	r9, r0
 1335 0612 5846     		mov	r0, fp
 1336 0614 FFF7FEFF 		bl	__aeabi_fmul
 1337              	.LVL251:
 1338 0618 0146     		mov	r1, r0
 1339 061a 4846     		mov	r0, r9
 1340 061c FFF7FEFF 		bl	__aeabi_fadd
 1341              	.LVL252:
 1342 0620 D7F800A0 		ldr	r10, [r7]	@ float
 1343 0624 0199     		ldr	r1, [sp, #4]	@ float
ARM GAS  C:\Users\acer\AppData\Local\Temp\ccmxYZNb.s 			page 39


 1344 0626 8146     		mov	r9, r0
 1345 0628 5046     		mov	r0, r10
 1346 062a FFF7FEFF 		bl	__aeabi_fmul
 1347              	.LVL253:
 1348 062e 0146     		mov	r1, r0
 1349 0630 4846     		mov	r0, r9
 1350 0632 FFF7FEFF 		bl	__aeabi_fsub
 1351              	.LVL254:
 1352 0636 2949     		ldr	r1, .L56
 1353 0638 FFF7FEFF 		bl	__aeabi_fmul
 1354              	.LVL255:
 1355 063c 0146     		mov	r1, r0
 1356 063e 4046     		mov	r0, r8
 1357 0640 FFF7FEFF 		bl	__aeabi_fadd
 1358              	.LVL256:
 1359 0644 3060     		str	r0, [r6]	@ float
 775:.\imu_i2c.c   **** 
 776:.\imu_i2c.c   **** 	norm = invSqrt(q0 * q0 + q1 * q1 + q2 * q2 + q3 * q3);
 1360              		.loc 1 776 0
 1361 0646 2868     		ldr	r0, [r5]	@ float
 1362 0648 2968     		ldr	r1, [r5]	@ float
 1363 064a D4F800C0 		ldr	ip, [r4]	@ float
 1364 064e 2268     		ldr	r2, [r4]	@ float
 1365 0650 3B68     		ldr	r3, [r7]	@ float
 1366 0652 CDF80CC0 		str	ip, [sp, #12]
 1367              	.LVL257:
 1368 0656 0193     		str	r3, [sp, #4]
 1369              	.LVL258:
 1370 0658 0292     		str	r2, [sp, #8]
 1371              	.LVL259:
 1372 065a D7F800B0 		ldr	fp, [r7]	@ float
 1373 065e FFF7FEFF 		bl	__aeabi_fmul
 1374              	.LVL260:
 1375 0662 DDF80CC0 		ldr	ip, [sp, #12]
 1376 0666 029A     		ldr	r2, [sp, #8]
 1377 0668 8046     		mov	r8, r0
 1378 066a 1146     		mov	r1, r2
 1379 066c 6046     		mov	r0, ip
 1380 066e FFF7FEFF 		bl	__aeabi_fmul
 1381              	.LVL261:
 1382 0672 0146     		mov	r1, r0
 1383 0674 4046     		mov	r0, r8
 1384 0676 FFF7FEFF 		bl	__aeabi_fadd
 1385              	.LVL262:
 1386 067a 019B     		ldr	r3, [sp, #4]
 1387 067c 8046     		mov	r8, r0
 1388 067e 5946     		mov	r1, fp
 1389 0680 1846     		mov	r0, r3
 1390 0682 FFF7FEFF 		bl	__aeabi_fmul
 1391              	.LVL263:
 1392 0686 0146     		mov	r1, r0
 1393 0688 4046     		mov	r0, r8
 1394 068a FFF7FEFF 		bl	__aeabi_fadd
 1395              	.LVL264:
 1396 068e D6F800A0 		ldr	r10, [r6]	@ float
 1397 0692 D6F80090 		ldr	r9, [r6]	@ float
 1398 0696 8046     		mov	r8, r0
ARM GAS  C:\Users\acer\AppData\Local\Temp\ccmxYZNb.s 			page 40


 1399 0698 4946     		mov	r1, r9
 1400 069a 5046     		mov	r0, r10
 1401 069c FFF7FEFF 		bl	__aeabi_fmul
 1402              	.LVL265:
 1403 06a0 0146     		mov	r1, r0
 1404 06a2 4046     		mov	r0, r8
 1405 06a4 FFF7FEFF 		bl	__aeabi_fadd
 1406              	.LVL266:
 1407 06a8 FFF7FEFF 		bl	invSqrt
 1408              	.LVL267:
 1409 06ac 8046     		mov	r8, r0
 1410              	.LVL268:
 777:.\imu_i2c.c   **** 	q0 = q0 * norm;
 1411              		.loc 1 777 0
 1412 06ae 2868     		ldr	r0, [r5]	@ float
 1413              	.LVL269:
 1414 06b0 4146     		mov	r1, r8
 1415 06b2 FFF7FEFF 		bl	__aeabi_fmul
 1416              	.LVL270:
 1417 06b6 2860     		str	r0, [r5]	@ float
 778:.\imu_i2c.c   **** 	q1 = q1 * norm;
 1418              		.loc 1 778 0
 1419 06b8 2068     		ldr	r0, [r4]	@ float
 1420 06ba 4146     		mov	r1, r8
 1421 06bc FFF7FEFF 		bl	__aeabi_fmul
 1422              	.LVL271:
 1423 06c0 2060     		str	r0, [r4]	@ float
 779:.\imu_i2c.c   **** 	q2 = q2 * norm;
 1424              		.loc 1 779 0
 1425 06c2 3868     		ldr	r0, [r7]	@ float
 1426 06c4 4146     		mov	r1, r8
 1427 06c6 FFF7FEFF 		bl	__aeabi_fmul
 1428              	.LVL272:
 1429 06ca 3860     		str	r0, [r7]	@ float
 780:.\imu_i2c.c   **** 	q3 = q3 * norm;
 1430              		.loc 1 780 0
 1431 06cc 3068     		ldr	r0, [r6]	@ float
 1432 06ce 4146     		mov	r1, r8
 1433 06d0 FFF7FEFF 		bl	__aeabi_fmul
 1434              	.LVL273:
 1435 06d4 3060     		str	r0, [r6]	@ float
 781:.\imu_i2c.c   **** }
 1436              		.loc 1 781 0
 1437 06d6 19B0     		add	sp, sp, #100
 1438              		.cfi_def_cfa_offset 36
 1439              		@ sp needed
 1440 06d8 BDE8F08F 		pop	{r4, r5, r6, r7, r8, r9, r10, fp, pc}
 1441              	.LVL274:
 1442              	.L57:
 1443              		.align	2
 1444              	.L56:
 1445 06dc A69BC43C 		.word	1019517862
 1446              		.cfi_endproc
 1447              	.LFE7:
 1448              		.size	IMU_AHRSupdate, .-IMU_AHRSupdate
 1449              		.section	.text.BMP180_CalculateTrueTemperature,"ax",%progbits
 1450              		.align	1
ARM GAS  C:\Users\acer\AppData\Local\Temp\ccmxYZNb.s 			page 41


 1451              		.global	BMP180_CalculateTrueTemperature
 1452              		.thumb
 1453              		.thumb_func
 1454              		.type	BMP180_CalculateTrueTemperature, %function
 1455              	BMP180_CalculateTrueTemperature:
 1456              	.LFB8:
 782:.\imu_i2c.c   **** 
 783:.\imu_i2c.c   **** 
 784:.\imu_i2c.c   **** 
 785:.\imu_i2c.c   **** /**
 786:.\imu_i2c.c   ****   * @brief  Calculate true temperature
 787:.\imu_i2c.c   ****   * @param  *pTrueTemperature: true temperature 
 788:.\imu_i2c.c   ****   * @retval None
 789:.\imu_i2c.c   ****   */
 790:.\imu_i2c.c   **** void BMP180_CalculateTrueTemperature(_SINT32 *pTrueTemperature)
 791:.\imu_i2c.c   **** {
 1457              		.loc 1 791 0
 1458              		.cfi_startproc
 1459              		@ args = 0, pretend = 0, frame = 0
 1460              		@ frame_needed = 0, uses_anonymous_args = 0
 1461              		@ link register save eliminated.
 1462              	.LVL275:
 792:.\imu_i2c.c   **** 	_SINT32 X1, X2;
 793:.\imu_i2c.c   **** 	
 794:.\imu_i2c.c   ****   	X1 = ((UT - AC6) * AC5) >> 15;
 1463              		.loc 1 794 0
 1464 0000 0C4B     		ldr	r3, .L59
 1465 0002 0D4A     		ldr	r2, .L59+4
 1466 0004 1988     		ldrh	r1, [r3]
 1467 0006 0D4B     		ldr	r3, .L59+8
 1468 0008 1288     		ldrh	r2, [r2]
 1469 000a 1B68     		ldr	r3, [r3]
 1470 000c 5B1A     		subs	r3, r3, r1
 1471 000e 5343     		muls	r3, r2, r3
 1472 0010 D913     		asrs	r1, r3, #15
 1473              	.LVL276:
 795:.\imu_i2c.c   ****   	X2 = (MC << 11) / (X1 + MD);
 1474              		.loc 1 795 0
 1475 0012 0B4B     		ldr	r3, .L59+12
 1476              	.LVL277:
 1477 0014 B3F90020 		ldrsh	r2, [r3]
 1478 0018 0A4B     		ldr	r3, .L59+16
 1479              	.LVL278:
 1480 001a D202     		lsls	r2, r2, #11
 1481 001c B3F90030 		ldrsh	r3, [r3]
 1482              	.LVL279:
 1483 0020 0B44     		add	r3, r3, r1
 1484 0022 92FBF3F3 		sdiv	r3, r2, r3
 1485              	.LVL280:
 796:.\imu_i2c.c   ****   	B5 = X1 + X2;
 1486              		.loc 1 796 0
 1487 0026 084A     		ldr	r2, .L59+20
 1488 0028 0B44     		add	r3, r3, r1
 1489              	.LVL281:
 1490 002a 1360     		str	r3, [r2]
 797:.\imu_i2c.c   ****   	*pTrueTemperature = (B5 + 8) >> 4;
 1491              		.loc 1 797 0
ARM GAS  C:\Users\acer\AppData\Local\Temp\ccmxYZNb.s 			page 42


 1492 002c 0833     		adds	r3, r3, #8
 1493 002e 1B11     		asrs	r3, r3, #4
 1494 0030 0360     		str	r3, [r0]
 1495 0032 7047     		bx	lr
 1496              	.L60:
 1497              		.align	2
 1498              	.L59:
 1499 0034 00000000 		.word	AC6
 1500 0038 00000000 		.word	AC5
 1501 003c 00000000 		.word	UT
 1502 0040 00000000 		.word	MC
 1503 0044 00000000 		.word	MD
 1504 0048 00000000 		.word	B5
 1505              		.cfi_endproc
 1506              	.LFE8:
 1507              		.size	BMP180_CalculateTrueTemperature, .-BMP180_CalculateTrueTemperature
 1508              		.section	.text.BMP180_CalculateTruePressure,"ax",%progbits
 1509              		.align	1
 1510              		.global	BMP180_CalculateTruePressure
 1511              		.thumb
 1512              		.thumb_func
 1513              		.type	BMP180_CalculateTruePressure, %function
 1514              	BMP180_CalculateTruePressure:
 1515              	.LFB9:
 798:.\imu_i2c.c   **** }
 799:.\imu_i2c.c   **** /**
 800:.\imu_i2c.c   ****   * @brief  Calculate true pressure
 801:.\imu_i2c.c   ****   * @param  *pTruePressure: true pressure
 802:.\imu_i2c.c   ****   * @retval None
 803:.\imu_i2c.c   ****   */
 804:.\imu_i2c.c   **** void BMP180_CalculateTruePressure(_SINT32 *pTruePressure)
 805:.\imu_i2c.c   **** {
 1516              		.loc 1 805 0
 1517              		.cfi_startproc
 1518              		@ args = 0, pretend = 0, frame = 0
 1519              		@ frame_needed = 0, uses_anonymous_args = 0
 1520              	.LVL282:
 806:.\imu_i2c.c   **** 	_SINT32 X1, X2, X3, B3, B6, P, Temp;
 807:.\imu_i2c.c   **** 	_UINT32  B4, B7;
 808:.\imu_i2c.c   **** 	
 809:.\imu_i2c.c   **** 	B6 = B5 - 4000;             
 1521              		.loc 1 809 0
 1522 0000 284B     		ldr	r3, .L64
 805:.\imu_i2c.c   **** 	_SINT32 X1, X2, X3, B3, B6, P, Temp;
 1523              		.loc 1 805 0
 1524 0002 F0B5     		push	{r4, r5, r6, r7, lr}
 1525              		.cfi_def_cfa_offset 20
 1526              		.cfi_offset 4, -20
 1527              		.cfi_offset 5, -16
 1528              		.cfi_offset 6, -12
 1529              		.cfi_offset 7, -8
 1530              		.cfi_offset 14, -4
 1531              		.loc 1 809 0
 1532 0004 1C68     		ldr	r4, [r3]
 810:.\imu_i2c.c   **** 	X1 = (B2* ((B6 * B6) >> 12)) >> 11;
 811:.\imu_i2c.c   **** 	X2 = AC2 * B6 >> 11;
 812:.\imu_i2c.c   **** 	X3 = X1 + X2;
ARM GAS  C:\Users\acer\AppData\Local\Temp\ccmxYZNb.s 			page 43


 813:.\imu_i2c.c   **** 	Temp = (((_SINT32)AC1 << 2) + X3) << _oss;
 1533              		.loc 1 813 0
 1534 0006 284B     		ldr	r3, .L64+4
 809:.\imu_i2c.c   **** 	X1 = (B2* ((B6 * B6) >> 12)) >> 11;
 1535              		.loc 1 809 0
 1536 0008 A4F57A64 		sub	r4, r4, #4000
 1537              	.LVL283:
 1538              		.loc 1 813 0
 1539 000c B3F90050 		ldrsh	r5, [r3]
 814:.\imu_i2c.c   **** 	B3 = (Temp + 2) >> 2;
 815:.\imu_i2c.c   **** 	X1 = (AC3 * B6) >> 13;
 1540              		.loc 1 815 0
 1541 0010 264B     		ldr	r3, .L64+8
 810:.\imu_i2c.c   **** 	X2 = AC2 * B6 >> 11;
 1542              		.loc 1 810 0
 1543 0012 04FB04F7 		mul	r7, r4, r4
 1544              		.loc 1 815 0
 1545 0016 B3F90030 		ldrsh	r3, [r3]
 810:.\imu_i2c.c   **** 	X2 = AC2 * B6 >> 11;
 1546              		.loc 1 810 0
 1547 001a 3F13     		asrs	r7, r7, #12
 1548              	.LVL284:
 1549              		.loc 1 815 0
 1550 001c 04FB03F2 		mul	r2, r4, r3
 1551              	.LVL285:
 816:.\imu_i2c.c   **** 	X2 = (B1 * (B6 * B6 >> 12)) >> 16;
 1552              		.loc 1 816 0
 1553 0020 234B     		ldr	r3, .L64+12
 1554              	.LVL286:
 1555 0022 B3F90030 		ldrsh	r3, [r3]
 1556              	.LVL287:
 1557 0026 7B43     		muls	r3, r7, r3
 1558              	.LVL288:
 1559 0028 1B14     		asrs	r3, r3, #16
 1560              	.LVL289:
 817:.\imu_i2c.c   **** 	X3 = ((X1 + X2) + 2) >> 2;
 1561              		.loc 1 817 0
 1562 002a 03EB6233 		add	r3, r3, r2, asr #13
 1563              	.LVL290:
 818:.\imu_i2c.c   **** 	B4 = (AC4 * (_UINT32) (X3 + 32768)) >> 15;
 1564              		.loc 1 818 0
 1565 002e 214A     		ldr	r2, .L64+16
 1566              	.LVL291:
 817:.\imu_i2c.c   **** 	X3 = ((X1 + X2) + 2) >> 2;
 1567              		.loc 1 817 0
 1568 0030 0233     		adds	r3, r3, #2
 1569              		.loc 1 818 0
 1570 0032 1688     		ldrh	r6, [r2]
 819:.\imu_i2c.c   **** 	B7 = ((_UINT32)UP - B3) * (50000 >> _oss);
 1571              		.loc 1 819 0
 1572 0034 4CF25032 		movw	r2, #50000
 817:.\imu_i2c.c   **** 	X3 = ((X1 + X2) + 2) >> 2;
 1573              		.loc 1 817 0
 1574 0038 9B10     		asrs	r3, r3, #2
 818:.\imu_i2c.c   **** 	B4 = (AC4 * (_UINT32) (X3 + 32768)) >> 15;
 1575              		.loc 1 818 0
 1576 003a 03F50043 		add	r3, r3, #32768
ARM GAS  C:\Users\acer\AppData\Local\Temp\ccmxYZNb.s 			page 44


 1577 003e 7343     		muls	r3, r6, r3
 1578 0040 DE0B     		lsrs	r6, r3, #15
 1579              	.LVL292:
 813:.\imu_i2c.c   **** 	B3 = (Temp + 2) >> 2;
 1580              		.loc 1 813 0
 1581 0042 1D4B     		ldr	r3, .L64+20
 1582              	.LVL293:
 1583              		.loc 1 819 0
 1584 0044 2A41     		asrs	r2, r2, r5
 813:.\imu_i2c.c   **** 	B3 = (Temp + 2) >> 2;
 1585              		.loc 1 813 0
 1586 0046 B3F90010 		ldrsh	r1, [r3]
 810:.\imu_i2c.c   **** 	X2 = AC2 * B6 >> 11;
 1587              		.loc 1 810 0
 1588 004a 1C4B     		ldr	r3, .L64+24
 1589              	.LVL294:
 1590 004c B3F90030 		ldrsh	r3, [r3]
 1591              	.LVL295:
 1592 0050 5F43     		muls	r7, r3, r7
 1593              	.LVL296:
 811:.\imu_i2c.c   **** 	X3 = X1 + X2;
 1594              		.loc 1 811 0
 1595 0052 1B4B     		ldr	r3, .L64+28
 1596              	.LVL297:
 1597 0054 B3F90030 		ldrsh	r3, [r3]
 1598              	.LVL298:
 1599 0058 5C43     		muls	r4, r3, r4
 1600              	.LVL299:
 1601 005a E412     		asrs	r4, r4, #11
 1602              	.LVL300:
 1603              		.loc 1 819 0
 1604 005c 194B     		ldr	r3, .L64+32
 812:.\imu_i2c.c   **** 	Temp = (((_SINT32)AC1 << 2) + X3) << _oss;
 1605              		.loc 1 812 0
 1606 005e 04EBE724 		add	r4, r4, r7, asr #11
 813:.\imu_i2c.c   **** 	B3 = (Temp + 2) >> 2;
 1607              		.loc 1 813 0
 1608 0062 04EB8101 		add	r1, r4, r1, lsl #2
 1609 0066 A940     		lsls	r1, r1, r5
 1610              		.loc 1 819 0
 1611 0068 1C68     		ldr	r4, [r3]
 814:.\imu_i2c.c   **** 	X1 = (AC3 * B6) >> 13;
 1612              		.loc 1 814 0
 1613 006a 0231     		adds	r1, r1, #2
 1614              		.loc 1 819 0
 1615 006c A4EBA101 		sub	r1, r4, r1, asr #2
 1616              	.LVL301:
 820:.\imu_i2c.c   ****   	if(B7 < 0x80000000)
 1617              		.loc 1 820 0
 1618 0070 4A43     		muls	r2, r1, r2
 1619              	.LVL302:
 821:.\imu_i2c.c   ****   	{
 822:.\imu_i2c.c   ****    		P = (B7 << 1) / B4;
 823:.\imu_i2c.c   ****   	}	
 824:.\imu_i2c.c   ****   	else
 825:.\imu_i2c.c   ****   	{
 826:.\imu_i2c.c   ****   		P = (B7 / B4) << 1;
ARM GAS  C:\Users\acer\AppData\Local\Temp\ccmxYZNb.s 			page 45


 1620              		.loc 1 826 0
 1621 0072 4EBF     		itee	mi
 1622 0074 B2FBF6F3 		udivmi	r3, r2, r6
 822:.\imu_i2c.c   ****   	}	
 1623              		.loc 1 822 0
 1624 0078 5100     		lslpl	r1, r2, #1
 1625 007a B1FBF6F3 		udivpl	r3, r1, r6
 827:.\imu_i2c.c   ****   	}
 828:.\imu_i2c.c   **** 
 829:.\imu_i2c.c   **** 	X1 = (P >> 8) * (P >> 8);
 830:.\imu_i2c.c   **** 	X1 = (X1 * 3038) >> 16;
 1626              		.loc 1 830 0
 1627 007e 40F6DE31 		movw	r1, #3038
 826:.\imu_i2c.c   ****   	}
 1628              		.loc 1 826 0
 1629 0082 48BF     		it	mi
 1630 0084 5B00     		lslmi	r3, r3, #1
 1631              	.LVL303:
 829:.\imu_i2c.c   **** 	X1 = (X1 * 3038) >> 16;
 1632              		.loc 1 829 0
 1633 0086 1A12     		asrs	r2, r3, #8
 1634              	.LVL304:
 1635 0088 5243     		muls	r2, r2, r2
 1636              	.LVL305:
 1637              		.loc 1 830 0
 1638 008a 4A43     		muls	r2, r1, r2
 1639              	.LVL306:
 831:.\imu_i2c.c   **** 	X2 = (-7357 * P) >> 16;
 1640              		.loc 1 831 0
 1641 008c 0E49     		ldr	r1, .L64+36
 1642 008e 5943     		muls	r1, r3, r1
 1643 0090 0914     		asrs	r1, r1, #16
 1644              	.LVL307:
 832:.\imu_i2c.c   **** 	
 833:.\imu_i2c.c   ****   	*pTruePressure = P + ((X1 + X2 + 3791) >> 4);
 1645              		.loc 1 833 0
 1646 0092 01EB2242 		add	r2, r1, r2, asr #16
 1647              	.LVL308:
 1648 0096 02F6CF62 		addw	r2, r2, #3791
 1649 009a 03EB2213 		add	r3, r3, r2, asr #4
 1650              	.LVL309:
 1651 009e 0360     		str	r3, [r0]
 1652              	.LVL310:
 1653 00a0 F0BD     		pop	{r4, r5, r6, r7, pc}
 1654              	.LVL311:
 1655              	.L65:
 1656 00a2 00BF     		.align	2
 1657              	.L64:
 1658 00a4 00000000 		.word	B5
 1659 00a8 00000000 		.word	_oss
 1660 00ac 00000000 		.word	AC3
 1661 00b0 00000000 		.word	B1
 1662 00b4 00000000 		.word	AC4
 1663 00b8 00000000 		.word	AC1
 1664 00bc 00000000 		.word	B2
 1665 00c0 00000000 		.word	AC2
 1666 00c4 00000000 		.word	UP
ARM GAS  C:\Users\acer\AppData\Local\Temp\ccmxYZNb.s 			page 46


 1667 00c8 43E3FFFF 		.word	-7357
 1668              		.cfi_endproc
 1669              	.LFE9:
 1670              		.size	BMP180_CalculateTruePressure, .-BMP180_CalculateTruePressure
 1671              		.section	.text.MPU9250_Init,"ax",%progbits
 1672              		.align	1
 1673              		.global	MPU9250_Init
 1674              		.thumb
 1675              		.thumb_func
 1676              		.type	MPU9250_Init, %function
 1677              	MPU9250_Init:
 1678              	.LFB3:
 184:.\imu_i2c.c   ****     
 1679              		.loc 1 184 0
 1680              		.cfi_startproc
 1681              		@ args = 0, pretend = 0, frame = 0
 1682              		@ frame_needed = 0, uses_anonymous_args = 0
 1683 0000 F8B5     		push	{r3, r4, r5, r6, r7, lr}
 1684              		.cfi_def_cfa_offset 24
 1685              		.cfi_offset 3, -24
 1686              		.cfi_offset 4, -20
 1687              		.cfi_offset 5, -16
 1688              		.cfi_offset 6, -12
 1689              		.cfi_offset 7, -8
 1690              		.cfi_offset 14, -4
 197:.\imu_i2c.c   **** 	{
 1691              		.loc 1 197 0
 1692 0002 AF4D     		ldr	r5, .L118
 1693 0004 2B78     		ldrb	r3, [r5]	@ zero_extendqisi2
 1694 0006 013B     		subs	r3, r3, #1
 1695 0008 112B     		cmp	r3, #17
 1696 000a 00F20C82 		bhi	.L66
 1697 000e DFE813F0 		tbh	[pc, r3, lsl #1]
 1698              	.L69:
 1699 0012 3500     		.2byte	(.L68-.L69)/2
 1700 0014 4100     		.2byte	(.L70-.L69)/2
 1701 0016 0A02     		.2byte	(.L66-.L69)/2
 1702 0018 EC00     		.2byte	(.L71-.L69)/2
 1703 001a F700     		.2byte	(.L72-.L69)/2
 1704 001c 1200     		.2byte	(.L73-.L69)/2
 1705 001e 0A02     		.2byte	(.L66-.L69)/2
 1706 0020 9101     		.2byte	(.L74-.L69)/2
 1707 0022 9A01     		.2byte	(.L75-.L69)/2
 1708 0024 A401     		.2byte	(.L76-.L69)/2
 1709 0026 B101     		.2byte	(.L77-.L69)/2
 1710 0028 BA01     		.2byte	(.L78-.L69)/2
 1711 002a C401     		.2byte	(.L79-.L69)/2
 1712 002c 0A02     		.2byte	(.L66-.L69)/2
 1713 002e 9E00     		.2byte	(.L80-.L69)/2
 1714 0030 2A00     		.2byte	(.L81-.L69)/2
 1715 0032 A800     		.2byte	(.L82-.L69)/2
 1716 0034 B300     		.2byte	(.L83-.L69)/2
 1717              		.p2align 1
 1718              	.L73:
 200:.\imu_i2c.c   **** 						{
 1719              		.loc 1 200 0
 1720 0036 A34C     		ldr	r4, .L118+4
ARM GAS  C:\Users\acer\AppData\Local\Temp\ccmxYZNb.s 			page 47


 1721 0038 A34B     		ldr	r3, .L118+8
 1722 003a 2178     		ldrb	r1, [r4]	@ zero_extendqisi2
 1723 003c 6820     		movs	r0, #104
 1724 003e 03EB4101 		add	r1, r3, r1, lsl #1
 1725 0042 0222     		movs	r2, #2
 1726 0044 FFF7FEFF 		bl	I2C_WRITE
 1727              	.LVL312:
 1728 0048 0028     		cmp	r0, #0
 1729 004a 00F0EC81 		beq	.L66
 202:.\imu_i2c.c   ****                             
 1730              		.loc 1 202 0
 1731 004e 2378     		ldrb	r3, [r4]	@ zero_extendqisi2
 1732 0050 0133     		adds	r3, r3, #1
 1733 0052 DBB2     		uxtb	r3, r3
 204:.\imu_i2c.c   ****                             {
 1734              		.loc 1 204 0
 1735 0054 052B     		cmp	r3, #5
 202:.\imu_i2c.c   ****                             
 1736              		.loc 1 202 0
 1737 0056 2370     		strb	r3, [r4]
 204:.\imu_i2c.c   ****                             {
 1738              		.loc 1 204 0
 1739 0058 40F2E581 		bls	.L66
 207:.\imu_i2c.c   ****                                 calc_count=0;
 1740              		.loc 1 207 0
 1741 005c 1023     		movs	r3, #16
 1742 005e 2B70     		strb	r3, [r5]
 208:.\imu_i2c.c   ****                             }
 1743              		.loc 1 208 0
 1744 0060 0023     		movs	r3, #0
 1745 0062 2370     		strb	r3, [r4]
 1746 0064 F8BD     		pop	{r3, r4, r5, r6, r7, pc}
 1747              	.L81:
 217:.\imu_i2c.c   **** 						   { 
 1748              		.loc 1 217 0
 1749 0066 6820     		movs	r0, #104
 1750 0068 3721     		movs	r1, #55
 1751 006a 984A     		ldr	r2, .L118+12
 1752 006c 0123     		movs	r3, #1
 1753 006e FFF7FEFF 		bl	I2C_READ
 1754              	.LVL313:
 1755 0072 0028     		cmp	r0, #0
 1756 0074 00F0D781 		beq	.L66
 219:.\imu_i2c.c   ****                            }
 1757              		.loc 1 219 0
 1758 0078 0123     		movs	r3, #1
 1759 007a BCE1     		b	.L116
 1760              	.L68:
 242:.\imu_i2c.c   **** 						   { 
 1761              		.loc 1 242 0
 1762 007c 924B     		ldr	r3, .L118+8
 1763 007e 6820     		movs	r0, #104
 1764 0080 997B     		ldrb	r1, [r3, #14]	@ zero_extendqisi2
 1765 0082 934A     		ldr	r2, .L118+16
 1766 0084 0E23     		movs	r3, #14
 1767 0086 FFF7FEFF 		bl	I2C_READ
 1768              	.LVL314:
ARM GAS  C:\Users\acer\AppData\Local\Temp\ccmxYZNb.s 			page 48


 1769 008a 0028     		cmp	r0, #0
 1770 008c 00F0CB81 		beq	.L66
 244:.\imu_i2c.c   ****                             // to read temperature from raw value = =( temperature + 12412.0) / 340
 1771              		.loc 1 244 0
 1772 0090 0223     		movs	r3, #2
 1773 0092 B0E1     		b	.L116
 1774              	.L70:
 252:.\imu_i2c.c   ****                             { 
 1775              		.loc 1 252 0
 1776 0094 8F4B     		ldr	r3, .L118+20
 1777 0096 1B78     		ldrb	r3, [r3]	@ zero_extendqisi2
 1778 0098 03F0FF06 		and	r6, r3, #255
 1779 009c 002B     		cmp	r3, #0
 1780 009e 40F0C281 		bne	.L66
 254:.\imu_i2c.c   **** 								InBuffer[1]=(Gyro_Temp_Acc_Read_Data[10]<<8)|Gyro_Temp_Acc_Read_Data[11];
 1781              		.loc 1 254 0
 1782 00a2 8B4B     		ldr	r3, .L118+16
 1783 00a4 8C4C     		ldr	r4, .L118+24
 1784 00a6 197A     		ldrb	r1, [r3, #8]	@ zero_extendqisi2
 1785 00a8 5A7A     		ldrb	r2, [r3, #9]	@ zero_extendqisi2
 255:.\imu_i2c.c   **** 								InBuffer[2]=(Gyro_Temp_Acc_Read_Data[12]<<8)|Gyro_Temp_Acc_Read_Data[13];
 1786              		.loc 1 255 0
 1787 00aa 987A     		ldrb	r0, [r3, #10]	@ zero_extendqisi2
 254:.\imu_i2c.c   **** 								InBuffer[1]=(Gyro_Temp_Acc_Read_Data[10]<<8)|Gyro_Temp_Acc_Read_Data[11];
 1788              		.loc 1 254 0
 1789 00ac 42EA0122 		orr	r2, r2, r1, lsl #8
 255:.\imu_i2c.c   **** 								InBuffer[2]=(Gyro_Temp_Acc_Read_Data[12]<<8)|Gyro_Temp_Acc_Read_Data[13];
 1790              		.loc 1 255 0
 1791 00b0 D97A     		ldrb	r1, [r3, #11]	@ zero_extendqisi2
 254:.\imu_i2c.c   **** 								InBuffer[1]=(Gyro_Temp_Acc_Read_Data[10]<<8)|Gyro_Temp_Acc_Read_Data[11];
 1792              		.loc 1 254 0
 1793 00b2 E280     		strh	r2, [r4, #6]	@ movhi
 255:.\imu_i2c.c   **** 								InBuffer[2]=(Gyro_Temp_Acc_Read_Data[12]<<8)|Gyro_Temp_Acc_Read_Data[13];
 1794              		.loc 1 255 0
 1795 00b4 41EA0021 		orr	r1, r1, r0, lsl #8
 1796 00b8 2181     		strh	r1, [r4, #8]	@ movhi
 256:.\imu_i2c.c   **** 								
 1797              		.loc 1 256 0
 1798 00ba 197B     		ldrb	r1, [r3, #12]	@ zero_extendqisi2
 1799 00bc 5B7B     		ldrb	r3, [r3, #13]	@ zero_extendqisi2
 260:.\imu_i2c.c   **** 								}
 1800              		.loc 1 260 0
 1801 00be 8748     		ldr	r0, .L118+28
 256:.\imu_i2c.c   **** 								
 1802              		.loc 1 256 0
 1803 00c0 43EA0123 		orr	r3, r3, r1, lsl #8
 1804 00c4 6381     		strh	r3, [r4, #10]	@ movhi
 1805              	.LVL315:
 260:.\imu_i2c.c   **** 								}
 1806              		.loc 1 260 0
 1807 00c6 811C     		adds	r1, r0, #2
 1808 00c8 12B2     		sxth	r2, r2
 1809 00ca 04F10C03 		add	r3, r4, #12
 1810 00ce FFF7FEFF 		bl	MPU9250_CalAvgValue
 1811              	.LVL316:
 1812 00d2 8348     		ldr	r0, .L118+32
 1813 00d4 B4F90820 		ldrsh	r2, [r4, #8]
ARM GAS  C:\Users\acer\AppData\Local\Temp\ccmxYZNb.s 			page 49


 1814 00d8 811C     		adds	r1, r0, #2
 1815 00da 04F11003 		add	r3, r4, #16
 1816 00de FFF7FEFF 		bl	MPU9250_CalAvgValue
 1817              	.LVL317:
 1818 00e2 8048     		ldr	r0, .L118+36
 1819 00e4 B4F90A20 		ldrsh	r2, [r4, #10]
 1820 00e8 811C     		adds	r1, r0, #2
 1821 00ea 04F11403 		add	r3, r4, #20
 1822 00ee FFF7FEFF 		bl	MPU9250_CalAvgValue
 1823              	.LVL318:
 263:.\imu_i2c.c   **** 								gyro[1] = *(OutBuffer + 1) - MPU9250_Offset.Y;
 1824              		.loc 1 263 0
 1825 00f2 E368     		ldr	r3, [r4, #12]
 1826 00f4 218B     		ldrh	r1, [r4, #24]
 264:.\imu_i2c.c   **** 								gyro[2] = *(OutBuffer + 2) - MPU9250_Offset.Z;
 1827              		.loc 1 264 0
 1828 00f6 628B     		ldrh	r2, [r4, #26]
 263:.\imu_i2c.c   **** 								gyro[1] = *(OutBuffer + 1) - MPU9250_Offset.Y;
 1829              		.loc 1 263 0
 1830 00f8 591A     		subs	r1, r3, r1
 264:.\imu_i2c.c   **** 								gyro[2] = *(OutBuffer + 2) - MPU9250_Offset.Z;
 1831              		.loc 1 264 0
 1832 00fa 2369     		ldr	r3, [r4, #16]
 265:.\imu_i2c.c   **** 						        
 1833              		.loc 1 265 0
 1834 00fc A78B     		ldrh	r7, [r4, #28]
 264:.\imu_i2c.c   **** 								gyro[2] = *(OutBuffer + 2) - MPU9250_Offset.Z;
 1835              		.loc 1 264 0
 1836 00fe 9A1A     		subs	r2, r3, r2
 265:.\imu_i2c.c   **** 						        
 1837              		.loc 1 265 0
 1838 0100 6369     		ldr	r3, [r4, #20]
 263:.\imu_i2c.c   **** 								gyro[1] = *(OutBuffer + 1) - MPU9250_Offset.Y;
 1839              		.loc 1 263 0
 1840 0102 7948     		ldr	r0, .L118+40
 265:.\imu_i2c.c   **** 						        
 1841              		.loc 1 265 0
 1842 0104 DB1B     		subs	r3, r3, r7
 263:.\imu_i2c.c   **** 								gyro[1] = *(OutBuffer + 1) - MPU9250_Offset.Y;
 1843              		.loc 1 263 0
 1844 0106 89B2     		uxth	r1, r1
 264:.\imu_i2c.c   **** 								gyro[2] = *(OutBuffer + 2) - MPU9250_Offset.Z;
 1845              		.loc 1 264 0
 1846 0108 92B2     		uxth	r2, r2
 265:.\imu_i2c.c   **** 						        
 1847              		.loc 1 265 0
 1848 010a 9BB2     		uxth	r3, r3
 263:.\imu_i2c.c   **** 								gyro[1] = *(OutBuffer + 1) - MPU9250_Offset.Y;
 1849              		.loc 1 263 0
 1850 010c 0180     		strh	r1, [r0]	@ movhi
 264:.\imu_i2c.c   **** 								gyro[2] = *(OutBuffer + 2) - MPU9250_Offset.Z;
 1851              		.loc 1 264 0
 1852 010e 4280     		strh	r2, [r0, #2]	@ movhi
 265:.\imu_i2c.c   **** 						        
 1853              		.loc 1 265 0
 1854 0110 8380     		strh	r3, [r0, #4]	@ movhi
 267:.\imu_i2c.c   **** 								TempGy += gyro[1];
ARM GAS  C:\Users\acer\AppData\Local\Temp\ccmxYZNb.s 			page 50


 1855              		.loc 1 267 0
 1856 0112 206A     		ldr	r0, [r4, #32]
 1857 0114 09B2     		sxth	r1, r1
 1858 0116 0144     		add	r1, r1, r0
 268:.\imu_i2c.c   **** 								TempGz += gyro[2];
 1859              		.loc 1 268 0
 1860 0118 606A     		ldr	r0, [r4, #36]
 1861 011a 12B2     		sxth	r2, r2
 1862 011c 0244     		add	r2, r2, r0
 272:.\imu_i2c.c   **** 								{
 1863              		.loc 1 272 0
 1864 011e 694F     		ldr	r7, .L118+4
 269:.\imu_i2c.c   **** 						        
 1865              		.loc 1 269 0
 1866 0120 A06A     		ldr	r0, [r4, #40]
 1867 0122 1BB2     		sxth	r3, r3
 1868 0124 0344     		add	r3, r3, r0
 272:.\imu_i2c.c   **** 								{
 1869              		.loc 1 272 0
 1870 0126 3878     		ldrb	r0, [r7]	@ zero_extendqisi2
 267:.\imu_i2c.c   **** 								TempGy += gyro[1];
 1871              		.loc 1 267 0
 1872 0128 2162     		str	r1, [r4, #32]
 272:.\imu_i2c.c   **** 								{
 1873              		.loc 1 272 0
 1874 012a 1E28     		cmp	r0, #30
 268:.\imu_i2c.c   **** 								TempGz += gyro[2];
 1875              		.loc 1 268 0
 1876 012c 6262     		str	r2, [r4, #36]
 269:.\imu_i2c.c   **** 						        
 1877              		.loc 1 269 0
 1878 012e A362     		str	r3, [r4, #40]
 272:.\imu_i2c.c   **** 								{
 1879              		.loc 1 272 0
 1880 0130 04D8     		bhi	.L86
 274:.\imu_i2c.c   **** 								  calc_count++;
 1881              		.loc 1 274 0
 1882 0132 0123     		movs	r3, #1
 275:.\imu_i2c.c   **** 								}
 1883              		.loc 1 275 0
 1884 0134 1844     		add	r0, r0, r3
 274:.\imu_i2c.c   **** 								  calc_count++;
 1885              		.loc 1 274 0
 1886 0136 2B70     		strb	r3, [r5]
 275:.\imu_i2c.c   **** 								}
 1887              		.loc 1 275 0
 1888 0138 3870     		strb	r0, [r7]
 1889 013a F8BD     		pop	{r3, r4, r5, r6, r7, pc}
 1890              	.L86:
 284:.\imu_i2c.c   ****         		
 1891              		.loc 1 284 0
 1892 013c 5B11     		asrs	r3, r3, #5
 282:.\imu_i2c.c   ****         		                    MPU9250_Offset.Y = TempGy >> 5;
 1893              		.loc 1 282 0
 1894 013e 4911     		asrs	r1, r1, #5
 283:.\imu_i2c.c   ****         		                    MPU9250_Offset.Z = TempGz >> 5;
 1895              		.loc 1 283 0
ARM GAS  C:\Users\acer\AppData\Local\Temp\ccmxYZNb.s 			page 51


 1896 0140 5211     		asrs	r2, r2, #5
 284:.\imu_i2c.c   ****         		
 1897              		.loc 1 284 0
 1898 0142 A383     		strh	r3, [r4, #28]	@ movhi
 279:.\imu_i2c.c   ****                                     // TODO: check the gyro offset value
 1899              		.loc 1 279 0
 1900 0144 3E70     		strb	r6, [r7]
 282:.\imu_i2c.c   ****         		                    MPU9250_Offset.Y = TempGy >> 5;
 1901              		.loc 1 282 0
 1902 0146 2183     		strh	r1, [r4, #24]	@ movhi
 283:.\imu_i2c.c   ****         		                    MPU9250_Offset.Z = TempGz >> 5;
 1903              		.loc 1 283 0
 1904 0148 6283     		strh	r2, [r4, #26]	@ movhi
 286:.\imu_i2c.c   **** 								}
 1905              		.loc 1 286 0
 1906 014a 0F23     		movs	r3, #15
 1907 014c 53E1     		b	.L116
 1908              	.LVL319:
 1909              	.L80:
 292:.\imu_i2c.c   **** 					  {
 1910              		.loc 1 292 0
 1911 014e 0C20     		movs	r0, #12
 1912 0150 6649     		ldr	r1, .L118+44
 1913 0152 0222     		movs	r2, #2
 1914 0154 FFF7FEFF 		bl	I2C_WRITE
 1915              	.LVL320:
 1916 0158 0028     		cmp	r0, #0
 1917 015a 00F06481 		beq	.L66
 295:.\imu_i2c.c   **** 					  }
 1918              		.loc 1 295 0
 1919 015e 1123     		movs	r3, #17
 1920 0160 49E1     		b	.L116
 1921              	.L82:
 300:.\imu_i2c.c   **** 					{				
 1922              		.loc 1 300 0
 1923 0162 0C20     		movs	r0, #12
 1924 0164 0321     		movs	r1, #3
 1925 0166 624A     		ldr	r2, .L118+48
 1926 0168 0723     		movs	r3, #7
 1927 016a FFF7FEFF 		bl	I2C_READ
 1928              	.LVL321:
 1929 016e 0028     		cmp	r0, #0
 1930 0170 00F05981 		beq	.L66
 302:.\imu_i2c.c   **** 					}
 1931              		.loc 1 302 0
 1932 0174 1223     		movs	r3, #18
 1933 0176 3EE1     		b	.L116
 1934              	.L83:
 307:.\imu_i2c.c   **** 					   {
 1935              		.loc 1 307 0
 1936 0178 564B     		ldr	r3, .L118+20
 1937 017a 1B78     		ldrb	r3, [r3]	@ zero_extendqisi2
 1938 017c 002B     		cmp	r3, #0
 1939 017e 40F05281 		bne	.L66
 313:.\imu_i2c.c   **** 							InBuffer[0]=(Mag_Read_Data[3]<<8)|Mag_Read_Data[2];
 1940              		.loc 1 313 0
 1941 0182 5B4B     		ldr	r3, .L118+48
ARM GAS  C:\Users\acer\AppData\Local\Temp\ccmxYZNb.s 			page 52


 1942 0184 544C     		ldr	r4, .L118+24
 1943 0186 5978     		ldrb	r1, [r3, #1]	@ zero_extendqisi2
 1944 0188 1A78     		ldrb	r2, [r3]	@ zero_extendqisi2
 319:.\imu_i2c.c   **** 							} 
 1945              		.loc 1 319 0
 1946 018a 5A48     		ldr	r0, .L118+52
 313:.\imu_i2c.c   **** 							InBuffer[0]=(Mag_Read_Data[3]<<8)|Mag_Read_Data[2];
 1947              		.loc 1 313 0
 1948 018c 42EA0122 		orr	r2, r2, r1, lsl #8
 1949 0190 2281     		strh	r2, [r4, #8]	@ movhi
 314:.\imu_i2c.c   **** 							InBuffer[2]=-((Mag_Read_Data[5]<<8)|Mag_Read_Data[4]);
 1950              		.loc 1 314 0
 1951 0192 D978     		ldrb	r1, [r3, #3]	@ zero_extendqisi2
 1952 0194 9A78     		ldrb	r2, [r3, #2]	@ zero_extendqisi2
 1953 0196 42EA0122 		orr	r2, r2, r1, lsl #8
 315:.\imu_i2c.c   **** 					
 1954              		.loc 1 315 0
 1955 019a 5979     		ldrb	r1, [r3, #5]	@ zero_extendqisi2
 1956 019c 1B79     		ldrb	r3, [r3, #4]	@ zero_extendqisi2
 314:.\imu_i2c.c   **** 							InBuffer[2]=-((Mag_Read_Data[5]<<8)|Mag_Read_Data[4]);
 1957              		.loc 1 314 0
 1958 019e E280     		strh	r2, [r4, #6]	@ movhi
 315:.\imu_i2c.c   **** 					
 1959              		.loc 1 315 0
 1960 01a0 43EA0123 		orr	r3, r3, r1, lsl #8
 1961 01a4 5B42     		negs	r3, r3
 319:.\imu_i2c.c   **** 							} 
 1962              		.loc 1 319 0
 1963 01a6 811C     		adds	r1, r0, #2
 315:.\imu_i2c.c   **** 					
 1964              		.loc 1 315 0
 1965 01a8 6381     		strh	r3, [r4, #10]	@ movhi
 1966              	.LVL322:
 319:.\imu_i2c.c   **** 							} 
 1967              		.loc 1 319 0
 1968 01aa 12B2     		sxth	r2, r2
 1969 01ac 04F10C03 		add	r3, r4, #12
 1970 01b0 FFF7FEFF 		bl	MPU9250_CalAvgValue
 1971              	.LVL323:
 1972 01b4 5048     		ldr	r0, .L118+56
 1973 01b6 B4F90820 		ldrsh	r2, [r4, #8]
 1974 01ba 811C     		adds	r1, r0, #2
 1975 01bc 04F11003 		add	r3, r4, #16
 1976 01c0 FFF7FEFF 		bl	MPU9250_CalAvgValue
 1977              	.LVL324:
 1978 01c4 4D48     		ldr	r0, .L118+60
 1979 01c6 B4F90A20 		ldrsh	r2, [r4, #10]
 1980 01ca 04F11403 		add	r3, r4, #20
 1981 01ce 811C     		adds	r1, r0, #2
 1982 01d0 FFF7FEFF 		bl	MPU9250_CalAvgValue
 1983              	.LVL325:
 321:.\imu_i2c.c   **** 							MPU9250_Magn_Offset.Y_Off_Err = *(OutBuffer + 1);  // TODO check what it is
 1984              		.loc 1 321 0
 1985 01d4 E368     		ldr	r3, [r4, #12]
 326:.\imu_i2c.c   ****                               st_IMU=IMU_PRES;
 1986              		.loc 1 326 0
 1987 01d6 0122     		movs	r2, #1
ARM GAS  C:\Users\acer\AppData\Local\Temp\ccmxYZNb.s 			page 53


 321:.\imu_i2c.c   **** 							MPU9250_Magn_Offset.Y_Off_Err = *(OutBuffer + 1);  // TODO check what it is
 1988              		.loc 1 321 0
 1989 01d8 A385     		strh	r3, [r4, #44]	@ movhi
 322:.\imu_i2c.c   **** 							MPU9250_Magn_Offset.Z_Off_Err = *(OutBuffer + 2);
 1990              		.loc 1 322 0
 1991 01da 2369     		ldr	r3, [r4, #16]
 1992 01dc E385     		strh	r3, [r4, #46]	@ movhi
 323:.\imu_i2c.c   ****                             
 1993              		.loc 1 323 0
 1994 01de 6369     		ldr	r3, [r4, #20]
 1995 01e0 2386     		strh	r3, [r4, #48]	@ movhi
 326:.\imu_i2c.c   ****                               st_IMU=IMU_PRES;
 1996              		.loc 1 326 0
 1997 01e2 474B     		ldr	r3, .L118+64
 1998 01e4 1A80     		strh	r2, [r3]	@ movhi
 327:.\imu_i2c.c   ****                             
 1999              		.loc 1 327 0
 2000 01e6 0423     		movs	r3, #4
 2001 01e8 05E1     		b	.L116
 2002              	.LVL326:
 2003              	.L71:
 334:.\imu_i2c.c   ****             	{
 2004              		.loc 1 334 0
 2005 01ea 7720     		movs	r0, #119
 2006 01ec AA21     		movs	r1, #170
 2007 01ee 454A     		ldr	r2, .L118+68
 2008 01f0 1623     		movs	r3, #22
 2009 01f2 FFF7FEFF 		bl	I2C_READ
 2010              	.LVL327:
 2011 01f6 0028     		cmp	r0, #0
 2012 01f8 00F01581 		beq	.L66
 336:.\imu_i2c.c   ****             	}
 2013              		.loc 1 336 0
 2014 01fc 0523     		movs	r3, #5
 2015 01fe FAE0     		b	.L116
 2016              	.L72:
 341:.\imu_i2c.c   ****     {
 2017              		.loc 1 341 0
 2018 0200 344B     		ldr	r3, .L118+20
 2019 0202 1B78     		ldrb	r3, [r3]	@ zero_extendqisi2
 2020 0204 002B     		cmp	r3, #0
 2021 0206 40F00E81 		bne	.L66
 344:.\imu_i2c.c   **** 
 2022              		.loc 1 344 0
 2023 020a 334B     		ldr	r3, .L118+24
 2024 020c 93F83210 		ldrb	r1, [r3, #50]	@ zero_extendqisi2
 2025 0210 93F83320 		ldrb	r2, [r3, #51]	@ zero_extendqisi2
 2026 0214 42EA0122 		orr	r2, r2, r1, lsl #8
 2027 0218 3B49     		ldr	r1, .L118+72
 2028 021a 0A80     		strh	r2, [r1]	@ movhi
 346:.\imu_i2c.c   ****           	
 2029              		.loc 1 346 0
 2030 021c 93F83410 		ldrb	r1, [r3, #52]	@ zero_extendqisi2
 2031 0220 93F83520 		ldrb	r2, [r3, #53]	@ zero_extendqisi2
 2032 0224 42EA0122 		orr	r2, r2, r1, lsl #8
 2033 0228 3849     		ldr	r1, .L118+76
 2034 022a 0A80     		strh	r2, [r1]	@ movhi
ARM GAS  C:\Users\acer\AppData\Local\Temp\ccmxYZNb.s 			page 54


 348:.\imu_i2c.c   ****           	
 2035              		.loc 1 348 0
 2036 022c 93F83610 		ldrb	r1, [r3, #54]	@ zero_extendqisi2
 2037 0230 93F83720 		ldrb	r2, [r3, #55]	@ zero_extendqisi2
 2038 0234 42EA0122 		orr	r2, r2, r1, lsl #8
 2039 0238 3549     		ldr	r1, .L118+80
 2040 023a 0A80     		strh	r2, [r1]	@ movhi
 350:.\imu_i2c.c   ****          
 2041              		.loc 1 350 0
 2042 023c 93F83810 		ldrb	r1, [r3, #56]	@ zero_extendqisi2
 2043 0240 93F83920 		ldrb	r2, [r3, #57]	@ zero_extendqisi2
 2044 0244 42EA0122 		orr	r2, r2, r1, lsl #8
 2045 0248 3249     		ldr	r1, .L118+84
 2046 024a 0A80     		strh	r2, [r1]	@ movhi
 352:.\imu_i2c.c   ****           
 2047              		.loc 1 352 0
 2048 024c 93F83A10 		ldrb	r1, [r3, #58]	@ zero_extendqisi2
 2049 0250 93F83B20 		ldrb	r2, [r3, #59]	@ zero_extendqisi2
 2050 0254 42EA0122 		orr	r2, r2, r1, lsl #8
 2051 0258 2F49     		ldr	r1, .L118+88
 2052 025a 0A80     		strh	r2, [r1]	@ movhi
 354:.\imu_i2c.c   **** 
 2053              		.loc 1 354 0
 2054 025c 93F83C10 		ldrb	r1, [r3, #60]	@ zero_extendqisi2
 2055 0260 93F83D20 		ldrb	r2, [r3, #61]	@ zero_extendqisi2
 2056 0264 42EA0122 		orr	r2, r2, r1, lsl #8
 2057 0268 2C49     		ldr	r1, .L118+92
 2058 026a 0A80     		strh	r2, [r1]	@ movhi
 356:.\imu_i2c.c   **** 
 2059              		.loc 1 356 0
 2060 026c 93F83E10 		ldrb	r1, [r3, #62]	@ zero_extendqisi2
 2061 0270 93F83F20 		ldrb	r2, [r3, #63]	@ zero_extendqisi2
 2062 0274 42EA0122 		orr	r2, r2, r1, lsl #8
 2063 0278 2949     		ldr	r1, .L118+96
 2064 027a 0A80     		strh	r2, [r1]	@ movhi
 358:.\imu_i2c.c   ****           	
 2065              		.loc 1 358 0
 2066 027c 93F84010 		ldrb	r1, [r3, #64]	@ zero_extendqisi2
 2067 0280 93F84120 		ldrb	r2, [r3, #65]	@ zero_extendqisi2
 2068 0284 42EA0122 		orr	r2, r2, r1, lsl #8
 2069 0288 2649     		ldr	r1, .L118+100
 2070 028a 0A80     		strh	r2, [r1]	@ movhi
 360:.\imu_i2c.c   ****          
 2071              		.loc 1 360 0
 2072 028c 93F84210 		ldrb	r1, [r3, #66]	@ zero_extendqisi2
 2073 0290 93F84320 		ldrb	r2, [r3, #67]	@ zero_extendqisi2
 2074 0294 42EA0122 		orr	r2, r2, r1, lsl #8
 2075 0298 2349     		ldr	r1, .L118+104
 2076 029a 0A80     		strh	r2, [r1]	@ movhi
 362:.\imu_i2c.c   **** 
 2077              		.loc 1 362 0
 2078 029c 93F84410 		ldrb	r1, [r3, #68]	@ zero_extendqisi2
 2079 02a0 93F84520 		ldrb	r2, [r3, #69]	@ zero_extendqisi2
 2080 02a4 42EA0122 		orr	r2, r2, r1, lsl #8
 2081 02a8 2049     		ldr	r1, .L118+108
 2082 02aa 0A80     		strh	r2, [r1]	@ movhi
 364:.\imu_i2c.c   ****             
ARM GAS  C:\Users\acer\AppData\Local\Temp\ccmxYZNb.s 			page 55


 2083              		.loc 1 364 0
 2084 02ac 93F84620 		ldrb	r2, [r3, #70]	@ zero_extendqisi2
 2085 02b0 93F84730 		ldrb	r3, [r3, #71]	@ zero_extendqisi2
 2086 02b4 43EA0223 		orr	r3, r3, r2, lsl #8
 2087 02b8 1D4A     		ldr	r2, .L118+112
 2088 02ba 1380     		strh	r3, [r2]	@ movhi
 2089 02bc 9AE0     		b	.L117
 2090              	.L119:
 2091 02be 00BF     		.align	2
 2092              	.L118:
 2093 02c0 00000000 		.word	st_IMU
 2094 02c4 00000000 		.word	calc_count
 2095 02c8 00000000 		.word	.LANCHOR1
 2096 02cc 04000000 		.word	.LANCHOR0+4
 2097 02d0 00000000 		.word	Gyro_Temp_Acc_Read_Data
 2098 02d4 00000000 		.word	stI2CMgr
 2099 02d8 00000000 		.word	.LANCHOR0
 2100 02dc 00000000 		.word	MPU9250_Filter_Gyro
 2101 02e0 12000000 		.word	MPU9250_Filter_Gyro+18
 2102 02e4 24000000 		.word	MPU9250_Filter_Gyro+36
 2103 02e8 00000000 		.word	gyro
 2104 02ec 1C000000 		.word	.LANCHOR1+28
 2105 02f0 00000000 		.word	Mag_Read_Data
 2106 02f4 00000000 		.word	MPU9250_Filter_Mag
 2107 02f8 12000000 		.word	MPU9250_Filter_Mag+18
 2108 02fc 24000000 		.word	MPU9250_Filter_Mag+36
 2109 0300 00000000 		.word	_oss
 2110 0304 32000000 		.word	.LANCHOR0+50
 2111 0308 00000000 		.word	AC1
 2112 030c 00000000 		.word	AC2
 2113 0310 00000000 		.word	AC3
 2114 0314 00000000 		.word	AC4
 2115 0318 00000000 		.word	AC5
 2116 031c 00000000 		.word	AC6
 2117 0320 00000000 		.word	B1
 2118 0324 00000000 		.word	B2
 2119 0328 00000000 		.word	MB
 2120 032c 00000000 		.word	MC
 2121 0330 00000000 		.word	MD
 2122              	.L74:
 371:.\imu_i2c.c   **** 				{
 2123              		.loc 1 371 0
 2124 0334 7720     		movs	r0, #119
 2125 0336 3C49     		ldr	r1, .L120
 2126 0338 0222     		movs	r2, #2
 2127 033a FFF7FEFF 		bl	I2C_WRITE
 2128              	.LVL328:
 2129 033e 0028     		cmp	r0, #0
 2130 0340 71D0     		beq	.L66
 373:.\imu_i2c.c   **** 				}
 2131              		.loc 1 373 0
 2132 0342 0923     		movs	r3, #9
 2133 0344 57E0     		b	.L116
 2134              	.L75:
 378:.\imu_i2c.c   **** 				{
 2135              		.loc 1 378 0
 2136 0346 7720     		movs	r0, #119
ARM GAS  C:\Users\acer\AppData\Local\Temp\ccmxYZNb.s 			page 56


 2137 0348 F621     		movs	r1, #246
 2138 034a 384A     		ldr	r2, .L120+4
 2139 034c 0223     		movs	r3, #2
 2140 034e FFF7FEFF 		bl	I2C_READ
 2141              	.LVL329:
 2142 0352 0028     		cmp	r0, #0
 2143 0354 67D0     		beq	.L66
 381:.\imu_i2c.c   **** 				}
 2144              		.loc 1 381 0
 2145 0356 0A23     		movs	r3, #10
 2146 0358 4DE0     		b	.L116
 2147              	.L76:
 386:.\imu_i2c.c   **** 				   {
 2148              		.loc 1 386 0
 2149 035a 354B     		ldr	r3, .L120+8
 2150 035c 1B78     		ldrb	r3, [r3]	@ zero_extendqisi2
 2151 035e 002B     		cmp	r3, #0
 2152 0360 61D1     		bne	.L66
 388:.\imu_i2c.c   **** 				     st_IMU=SEL_PRES;
 2153              		.loc 1 388 0
 2154 0362 324A     		ldr	r2, .L120+4
 2155 0364 1178     		ldrb	r1, [r2]	@ zero_extendqisi2
 2156 0366 5378     		ldrb	r3, [r2, #1]	@ zero_extendqisi2
 2157 0368 324A     		ldr	r2, .L120+12
 2158 036a 03EB0123 		add	r3, r3, r1, lsl #8
 2159 036e 1360     		str	r3, [r2]
 389:.\imu_i2c.c   **** 				   }
 2160              		.loc 1 389 0
 2161 0370 0B23     		movs	r3, #11
 2162 0372 40E0     		b	.L116
 2163              	.L77:
 394:.\imu_i2c.c   **** 					{
 2164              		.loc 1 394 0
 2165 0374 7720     		movs	r0, #119
 2166 0376 3049     		ldr	r1, .L120+16
 2167 0378 0222     		movs	r2, #2
 2168 037a FFF7FEFF 		bl	I2C_WRITE
 2169              	.LVL330:
 2170 037e 0028     		cmp	r0, #0
 2171 0380 51D0     		beq	.L66
 396:.\imu_i2c.c   **** 					}
 2172              		.loc 1 396 0
 2173 0382 0C23     		movs	r3, #12
 2174 0384 37E0     		b	.L116
 2175              	.L78:
 401:.\imu_i2c.c   **** 				{
 2176              		.loc 1 401 0
 2177 0386 7720     		movs	r0, #119
 2178 0388 F621     		movs	r1, #246
 2179 038a 2C4A     		ldr	r2, .L120+20
 2180 038c 0323     		movs	r3, #3
 2181 038e FFF7FEFF 		bl	I2C_READ
 2182              	.LVL331:
 2183 0392 0028     		cmp	r0, #0
 2184 0394 47D0     		beq	.L66
 404:.\imu_i2c.c   **** 				}
 2185              		.loc 1 404 0
ARM GAS  C:\Users\acer\AppData\Local\Temp\ccmxYZNb.s 			page 57


 2186 0396 0D23     		movs	r3, #13
 2187 0398 2DE0     		b	.L116
 2188              	.L79:
 408:.\imu_i2c.c   **** 				{
 2189              		.loc 1 408 0
 2190 039a 254B     		ldr	r3, .L120+8
 2191 039c 1B78     		ldrb	r3, [r3]	@ zero_extendqisi2
 2192 039e 03F0FF04 		and	r4, r3, #255
 2193 03a2 002B     		cmp	r3, #0
 2194 03a4 3FD1     		bne	.L66
 410:.\imu_i2c.c   **** 				   
 2195              		.loc 1 410 0
 2196 03a6 214A     		ldr	r2, .L120+4
 412:.\imu_i2c.c   ****             	   BMP180_CalculateTrueTemperature(&TemperatureVal);
 2197              		.loc 1 412 0
 2198 03a8 254E     		ldr	r6, .L120+24
 410:.\imu_i2c.c   **** 				   
 2199              		.loc 1 410 0
 2200 03aa 1379     		ldrb	r3, [r2, #4]	@ zero_extendqisi2
 2201 03ac D178     		ldrb	r1, [r2, #3]	@ zero_extendqisi2
 2202 03ae 1B02     		lsls	r3, r3, #8
 2203 03b0 5279     		ldrb	r2, [r2, #5]	@ zero_extendqisi2
 2204 03b2 03EB0143 		add	r3, r3, r1, lsl #16
 2205 03b6 1344     		add	r3, r3, r2
 2206 03b8 224A     		ldr	r2, .L120+28
 412:.\imu_i2c.c   ****             	   BMP180_CalculateTrueTemperature(&TemperatureVal);
 2207              		.loc 1 412 0
 2208 03ba 3046     		mov	r0, r6
 410:.\imu_i2c.c   **** 				   
 2209              		.loc 1 410 0
 2210 03bc B2F90020 		ldrsh	r2, [r2]
 2211 03c0 C2F10802 		rsb	r2, r2, #8
 2212 03c4 1341     		asrs	r3, r3, r2
 2213 03c6 204A     		ldr	r2, .L120+32
 2214 03c8 1360     		str	r3, [r2]
 412:.\imu_i2c.c   ****             	   BMP180_CalculateTrueTemperature(&TemperatureVal);
 2215              		.loc 1 412 0
 2216 03ca FFF7FEFF 		bl	BMP180_CalculateTruePressure
 2217              	.LVL332:
 413:.\imu_i2c.c   **** 				   
 2218              		.loc 1 413 0
 2219 03ce 1F48     		ldr	r0, .L120+36
 2220 03d0 FFF7FEFF 		bl	BMP180_CalculateTrueTemperature
 2221              	.LVL333:
 415:.\imu_i2c.c   ****                    {
 2222              		.loc 1 415 0
 2223 03d4 1E4A     		ldr	r2, .L120+40
 2224 03d6 1378     		ldrb	r3, [r2]	@ zero_extendqisi2
 2225 03d8 1046     		mov	r0, r2
 2226 03da 042B     		cmp	r3, #4
 2227 03dc 0DD8     		bhi	.L87
 418:.\imu_i2c.c   **** 		                {
 2228              		.loc 1 418 0
 2229 03de 012B     		cmp	r3, #1
 420:.\imu_i2c.c   **** 		                }
 2230              		.loc 1 420 0
 2231 03e0 82BF     		ittt	hi
ARM GAS  C:\Users\acer\AppData\Local\Temp\ccmxYZNb.s 			page 58


 2232 03e2 1C49     		ldrhi	r1, .L120+44
 2233 03e4 3268     		ldrhi	r2, [r6]
 2234 03e6 8C6C     		ldrhi	r4, [r1, #72]
 422:.\imu_i2c.c   ****                         st_IMU=SEL_TEMP;
 2235              		.loc 1 422 0
 2236 03e8 03F10103 		add	r3, r3, #1
 420:.\imu_i2c.c   **** 		                }
 2237              		.loc 1 420 0
 2238 03ec 84BF     		itt	hi
 2239 03ee 1219     		addhi	r2, r2, r4
 2240 03f0 8A64     		strhi	r2, [r1, #72]
 422:.\imu_i2c.c   ****                         st_IMU=SEL_TEMP;
 2241              		.loc 1 422 0
 2242 03f2 0370     		strb	r3, [r0]
 2243              	.L117:
 423:.\imu_i2c.c   ****                    }
 2244              		.loc 1 423 0
 2245 03f4 0823     		movs	r3, #8
 2246              	.L116:
 2247 03f6 2B70     		strb	r3, [r5]
 2248 03f8 F8BD     		pop	{r3, r4, r5, r6, r7, pc}
 2249              	.L87:
 427:.\imu_i2c.c   ****                     	//Temp = (float)LOCAL_ADS_ALTITUDE / 4433000;
 2250              		.loc 1 427 0
 2251 03fa 164B     		ldr	r3, .L120+44
 2252 03fc 0321     		movs	r1, #3
 2253 03fe 9B6C     		ldr	r3, [r3, #72]
 440:.\imu_i2c.c   ****                    }
 2254              		.loc 1 440 0
 2255 0400 1470     		strb	r4, [r2]
 427:.\imu_i2c.c   ****                     	//Temp = (float)LOCAL_ADS_ALTITUDE / 4433000;
 2256              		.loc 1 427 0
 2257 0402 93FBF1F3 		sdiv	r3, r3, r1
 432:.\imu_i2c.c   ****                         q0 = 1.0f;  
 2258              		.loc 1 432 0
 2259 0406 1449     		ldr	r1, .L120+48
 427:.\imu_i2c.c   ****                     	//Temp = (float)LOCAL_ADS_ALTITUDE / 4433000;
 2260              		.loc 1 427 0
 2261 0408 3360     		str	r3, [r6]
 432:.\imu_i2c.c   ****                         q0 = 1.0f;  
 2262              		.loc 1 432 0
 2263 040a 8B62     		str	r3, [r1, #40]
 433:.\imu_i2c.c   ****                       	q1 = 0.0f;
 2264              		.loc 1 433 0
 2265 040c 134B     		ldr	r3, .L120+52
 2266 040e 4FF07E51 		mov	r1, #1065353216
 2267 0412 1960     		str	r1, [r3]	@ float
 434:.\imu_i2c.c   ****                       	q2 = 0.0f;
 2268              		.loc 1 434 0
 2269 0414 1249     		ldr	r1, .L120+56
 2270 0416 0023     		movs	r3, #0
 2271 0418 0B60     		str	r3, [r1]	@ float
 435:.\imu_i2c.c   ****                       	q3 = 0.0f;
 2272              		.loc 1 435 0
 2273 041a 1249     		ldr	r1, .L120+60
 2274 041c 0B60     		str	r3, [r1]	@ float
 436:.\imu_i2c.c   ****                         st_IMU=INIT_COMP;
ARM GAS  C:\Users\acer\AppData\Local\Temp\ccmxYZNb.s 			page 59


 2275              		.loc 1 436 0
 2276 041e 1249     		ldr	r1, .L120+64
 2277 0420 0B60     		str	r3, [r1]	@ float
 437:.\imu_i2c.c   ****                         // TODO: remove it from task once initialisation is complete
 2278              		.loc 1 437 0
 2279 0422 0723     		movs	r3, #7
 2280 0424 2B70     		strb	r3, [r5]
 2281              	.L66:
 2282 0426 F8BD     		pop	{r3, r4, r5, r6, r7, pc}
 2283              	.L121:
 2284              		.align	2
 2285              	.L120:
 2286 0428 24000000 		.word	.LANCHOR1+36
 2287 042c 00000000 		.word	Alt_Read_Data
 2288 0430 00000000 		.word	stI2CMgr
 2289 0434 00000000 		.word	UT
 2290 0438 26000000 		.word	.LANCHOR1+38
 2291 043c 03000000 		.word	Alt_Read_Data+3
 2292 0440 00000000 		.word	PressureVal
 2293 0444 00000000 		.word	_oss
 2294 0448 00000000 		.word	UP
 2295 044c 00000000 		.word	TemperatureVal
 2296 0450 00000000 		.word	calc_count
 2297 0454 00000000 		.word	.LANCHOR0
 2298 0458 00000000 		.word	.LANCHOR1
 2299 045c 00000000 		.word	q0
 2300 0460 00000000 		.word	q1
 2301 0464 00000000 		.word	q2
 2302 0468 00000000 		.word	q3
 2303              		.cfi_endproc
 2304              	.LFE3:
 2305              		.size	MPU9250_Init, .-MPU9250_Init
 2306              		.global	__aeabi_i2f
 2307              		.global	__aeabi_fdiv
 2308              		.global	__aeabi_d2iz
 2309              		.section	.text.BMP180_CalculateAbsoluteAltitude,"ax",%progbits
 2310              		.align	1
 2311              		.global	BMP180_CalculateAbsoluteAltitude
 2312              		.thumb
 2313              		.thumb_func
 2314              		.type	BMP180_CalculateAbsoluteAltitude, %function
 2315              	BMP180_CalculateAbsoluteAltitude:
 2316              	.LFB10:
 834:.\imu_i2c.c   **** }
 835:.\imu_i2c.c   **** 
 836:.\imu_i2c.c   **** 
 837:.\imu_i2c.c   **** 
 838:.\imu_i2c.c   **** 
 839:.\imu_i2c.c   **** 
 840:.\imu_i2c.c   **** 
 841:.\imu_i2c.c   **** /** 
 842:.\imu_i2c.c   ****   * @brief  Calculating absolute altitude
 843:.\imu_i2c.c   ****   * @param  *pAltitude: absolute altitude
 844:.\imu_i2c.c   ****   * @param  PressureVal: the pressure at the absolute altitude
 845:.\imu_i2c.c   ****   * @retval None
 846:.\imu_i2c.c   ****   */
 847:.\imu_i2c.c   **** void BMP180_CalculateAbsoluteAltitude(_SINT32 *pAltitude, _SINT32 PressureVal)
ARM GAS  C:\Users\acer\AppData\Local\Temp\ccmxYZNb.s 			page 60


 848:.\imu_i2c.c   **** {
 2317              		.loc 1 848 0
 2318              		.cfi_startproc
 2319              		@ args = 0, pretend = 0, frame = 0
 2320              		@ frame_needed = 0, uses_anonymous_args = 0
 2321              	.LVL334:
 2322 0000 38B5     		push	{r3, r4, r5, lr}
 2323              		.cfi_def_cfa_offset 16
 2324              		.cfi_offset 3, -16
 2325              		.cfi_offset 4, -12
 2326              		.cfi_offset 5, -8
 2327              		.cfi_offset 14, -4
 2328              		.loc 1 848 0
 2329 0002 0446     		mov	r4, r0
 849:.\imu_i2c.c   **** 	*pAltitude = 4433000 * (1.0f - pow((PressureVal / (float)Pressure0), 0.1903f)); 
 2330              		.loc 1 849 0
 2331 0004 0846     		mov	r0, r1
 2332              	.LVL335:
 2333 0006 FFF7FEFF 		bl	__aeabi_i2f
 2334              	.LVL336:
 2335 000a 134B     		ldr	r3, .L123+16
 2336 000c 0546     		mov	r5, r0
 2337 000e 986A     		ldr	r0, [r3, #40]
 2338 0010 FFF7FEFF 		bl	__aeabi_i2f
 2339              	.LVL337:
 2340 0014 0146     		mov	r1, r0
 2341 0016 2846     		mov	r0, r5
 2342 0018 FFF7FEFF 		bl	__aeabi_fdiv
 2343              	.LVL338:
 2344 001c FFF7FEFF 		bl	__aeabi_f2d
 2345              	.LVL339:
 2346 0020 09A3     		adr	r3, .L123
 2347 0022 D3E90023 		ldrd	r2, [r3]
 2348 0026 FFF7FEFF 		bl	pow
 2349              	.LVL340:
 2350 002a 0246     		mov	r2, r0
 2351 002c 0B46     		mov	r3, r1
 2352 002e 0020     		movs	r0, #0
 2353 0030 0A49     		ldr	r1, .L123+20
 2354 0032 FFF7FEFF 		bl	__aeabi_dsub
 2355              	.LVL341:
 2356 0036 06A3     		adr	r3, .L123+8
 2357 0038 D3E90023 		ldrd	r2, [r3]
 2358 003c FFF7FEFF 		bl	__aeabi_dmul
 2359              	.LVL342:
 2360 0040 FFF7FEFF 		bl	__aeabi_d2iz
 2361              	.LVL343:
 2362 0044 2060     		str	r0, [r4]
 2363 0046 38BD     		pop	{r3, r4, r5, pc}
 2364              	.LVL344:
 2365              	.L124:
 2366              		.align	3
 2367              	.L123:
 2368 0048 00000020 		.word	536870912
 2369 004c C05BC83F 		.word	1070095296
 2370 0050 00000000 		.word	0
 2371 0054 1AE95041 		.word	1095821594
ARM GAS  C:\Users\acer\AppData\Local\Temp\ccmxYZNb.s 			page 61


 2372 0058 00000000 		.word	.LANCHOR1
 2373 005c 0000F03F 		.word	1072693248
 2374              		.cfi_endproc
 2375              	.LFE10:
 2376              		.size	BMP180_CalculateAbsoluteAltitude, .-BMP180_CalculateAbsoluteAltitude
 2377              		.section	.text.BMP180_CalAvgValue,"ax",%progbits
 2378              		.align	1
 2379              		.global	BMP180_CalAvgValue
 2380              		.thumb
 2381              		.thumb_func
 2382              		.type	BMP180_CalAvgValue, %function
 2383              	BMP180_CalAvgValue:
 2384              	.LFB11:
 850:.\imu_i2c.c   **** }
 851:.\imu_i2c.c   **** 
 852:.\imu_i2c.c   **** 
 853:.\imu_i2c.c   **** /**
 854:.\imu_i2c.c   ****   * @brief  Digital filter
 855:.\imu_i2c.c   ****   * @param *pIndex:
 856:.\imu_i2c.c   ****   * @param *pAvgBuffer:
 857:.\imu_i2c.c   ****   * @param InVal:
 858:.\imu_i2c.c   ****   * @param pOutVal:
 859:.\imu_i2c.c   ****   *
 860:.\imu_i2c.c   ****   * @retval None
 861:.\imu_i2c.c   ****   *               
 862:.\imu_i2c.c   ****   */
 863:.\imu_i2c.c   **** void BMP180_CalAvgValue(_UINT8 *pIndex, _SINT32 *pAvgBuffer, _SINT32 InVal, _SINT32 *pOutVal)
 864:.\imu_i2c.c   **** {	
 2385              		.loc 1 864 0
 2386              		.cfi_startproc
 2387              		@ args = 0, pretend = 0, frame = 0
 2388              		@ frame_needed = 0, uses_anonymous_args = 0
 2389              	.LVL345:
 2390 0000 30B5     		push	{r4, r5, lr}
 2391              		.cfi_def_cfa_offset 12
 2392              		.cfi_offset 4, -12
 2393              		.cfi_offset 5, -8
 2394              		.cfi_offset 14, -4
 865:.\imu_i2c.c   **** 	uint8_t i;
 866:.\imu_i2c.c   **** 	
 867:.\imu_i2c.c   ****   	*(pAvgBuffer + ((*pIndex) ++)) = InVal;
 2395              		.loc 1 867 0
 2396 0002 0478     		ldrb	r4, [r0]	@ zero_extendqisi2
 2397 0004 651C     		adds	r5, r4, #1
 2398 0006 0570     		strb	r5, [r0]
 2399 0008 41F82420 		str	r2, [r1, r4, lsl #2]
 868:.\imu_i2c.c   ****   	*pIndex &= 0x07;
 2400              		.loc 1 868 0
 2401 000c 0278     		ldrb	r2, [r0]	@ zero_extendqisi2
 2402              	.LVL346:
 2403 000e 02F00702 		and	r2, r2, #7
 2404 0012 0270     		strb	r2, [r0]
 2405              	.LVL347:
 869:.\imu_i2c.c   ****   	
 870:.\imu_i2c.c   ****   	*pOutVal = 0;
 2406              		.loc 1 870 0
 2407 0014 0022     		movs	r2, #0
ARM GAS  C:\Users\acer\AppData\Local\Temp\ccmxYZNb.s 			page 62


 2408 0016 081F     		subs	r0, r1, #4
 2409              	.LVL348:
 2410 0018 1A60     		str	r2, [r3]
 2411              	.LVL349:
 2412 001a 1C31     		adds	r1, r1, #28
 2413              	.LVL350:
 2414              	.L126:
 871:.\imu_i2c.c   **** 	for(i = 0; i < 8; i ++) 
 872:.\imu_i2c.c   ****   	{
 873:.\imu_i2c.c   ****     	*pOutVal += *(pAvgBuffer + i);
 2415              		.loc 1 873 0 discriminator 3
 2416 001c 50F8042F 		ldr	r2, [r0, #4]!
 2417 0020 1C68     		ldr	r4, [r3]
 871:.\imu_i2c.c   **** 	for(i = 0; i < 8; i ++) 
 2418              		.loc 1 871 0 discriminator 3
 2419 0022 8842     		cmp	r0, r1
 2420              		.loc 1 873 0 discriminator 3
 2421 0024 2244     		add	r2, r2, r4
 2422 0026 1A60     		str	r2, [r3]
 871:.\imu_i2c.c   **** 	for(i = 0; i < 8; i ++) 
 2423              		.loc 1 871 0 discriminator 3
 2424 0028 F8D1     		bne	.L126
 874:.\imu_i2c.c   ****   	}
 875:.\imu_i2c.c   ****   	*pOutVal >>= 3;
 2425              		.loc 1 875 0
 2426 002a D210     		asrs	r2, r2, #3
 2427 002c 1A60     		str	r2, [r3]
 2428 002e 30BD     		pop	{r4, r5, pc}
 2429              		.cfi_endproc
 2430              	.LFE11:
 2431              		.size	BMP180_CalAvgValue, .-BMP180_CalAvgValue
 2432              		.global	__aeabi_i2d
 2433              		.global	__aeabi_ddiv
 2434              		.section	.text.Read_From_ALL,"ax",%progbits
 2435              		.align	1
 2436              		.global	Read_From_ALL
 2437              		.thumb
 2438              		.thumb_func
 2439              		.type	Read_From_ALL, %function
 2440              	Read_From_ALL:
 2441              	.LFB4:
 454:.\imu_i2c.c   ****     
 2442              		.loc 1 454 0
 2443              		.cfi_startproc
 2444              		@ args = 0, pretend = 0, frame = 32
 2445              		@ frame_needed = 0, uses_anonymous_args = 0
 2446 0000 2DE9F04F 		push	{r4, r5, r6, r7, r8, r9, r10, fp, lr}
 2447              		.cfi_def_cfa_offset 36
 2448              		.cfi_offset 4, -36
 2449              		.cfi_offset 5, -32
 2450              		.cfi_offset 6, -28
 2451              		.cfi_offset 7, -24
 2452              		.cfi_offset 8, -20
 2453              		.cfi_offset 9, -16
 2454              		.cfi_offset 10, -12
 2455              		.cfi_offset 11, -8
 2456              		.cfi_offset 14, -4
ARM GAS  C:\Users\acer\AppData\Local\Temp\ccmxYZNb.s 			page 63


 468:.\imu_i2c.c   **** 			{
 2457              		.loc 1 468 0
 2458 0004 8A4D     		ldr	r5, .L159
 454:.\imu_i2c.c   ****     
 2459              		.loc 1 454 0
 2460 0006 8FB0     		sub	sp, sp, #60
 2461              		.cfi_def_cfa_offset 96
 468:.\imu_i2c.c   **** 			{
 2462              		.loc 1 468 0
 2463 0008 2B78     		ldrb	r3, [r5]	@ zero_extendqisi2
 2464 000a 013B     		subs	r3, r3, #1
 2465 000c 112B     		cmp	r3, #17
 2466 000e 00F2EE82 		bhi	.L128
 2467 0012 DFE813F0 		tbh	[pc, r3, lsl #1]
 2468              	.L131:
 2469 0016 1E00     		.2byte	(.L130-.L131)/2
 2470 0018 EC02     		.2byte	(.L128-.L131)/2
 2471 001a EC02     		.2byte	(.L128-.L131)/2
 2472 001c EC02     		.2byte	(.L128-.L131)/2
 2473 001e EC02     		.2byte	(.L128-.L131)/2
 2474 0020 EC02     		.2byte	(.L128-.L131)/2
 2475 0022 EC02     		.2byte	(.L128-.L131)/2
 2476 0024 D400     		.2byte	(.L132-.L131)/2
 2477 0026 DE00     		.2byte	(.L133-.L131)/2
 2478 0028 E900     		.2byte	(.L134-.L131)/2
 2479 002a F700     		.2byte	(.L135-.L131)/2
 2480 002c 0101     		.2byte	(.L136-.L131)/2
 2481 002e 3701     		.2byte	(.L137-.L131)/2
 2482 0030 1200     		.2byte	(.L138-.L131)/2
 2483 0032 EC02     		.2byte	(.L128-.L131)/2
 2484 0034 EC02     		.2byte	(.L128-.L131)/2
 2485 0036 8A00     		.2byte	(.L139-.L131)/2
 2486 0038 9500     		.2byte	(.L140-.L131)/2
 2487              		.p2align 1
 2488              	.L138:
 471:.\imu_i2c.c   **** 						   { 
 2489              		.loc 1 471 0
 2490 003a 7E4B     		ldr	r3, .L159+4
 2491 003c 6820     		movs	r0, #104
 2492 003e 997B     		ldrb	r1, [r3, #14]	@ zero_extendqisi2
 2493 0040 7D4A     		ldr	r2, .L159+8
 2494 0042 0E23     		movs	r3, #14
 2495 0044 FFF7FEFF 		bl	I2C_READ
 2496              	.LVL351:
 2497 0048 0028     		cmp	r0, #0
 2498 004a 00F0D082 		beq	.L128
 473:.\imu_i2c.c   ****                             // to read temperature from raw value = =( temperature + 12412.0) / 340
 2499              		.loc 1 473 0
 2500 004e 0123     		movs	r3, #1
 2501 0050 69E0     		b	.L158
 2502              	.L130:
 479:.\imu_i2c.c   **** 					   {
 2503              		.loc 1 479 0
 2504 0052 7A4B     		ldr	r3, .L159+12
 2505 0054 1B78     		ldrb	r3, [r3]	@ zero_extendqisi2
 2506 0056 002B     		cmp	r3, #0
 2507 0058 40F0C982 		bne	.L128
ARM GAS  C:\Users\acer\AppData\Local\Temp\ccmxYZNb.s 			page 64


 482:.\imu_i2c.c   **** 							InBuffer[1]=(Gyro_Temp_Acc_Read_Data[2]<<8)|Gyro_Temp_Acc_Read_Data[3];
 2508              		.loc 1 482 0
 2509 005c 764E     		ldr	r6, .L159+8
 2510 005e 784C     		ldr	r4, .L159+16
 2511 0060 7378     		ldrb	r3, [r6, #1]	@ zero_extendqisi2
 2512 0062 3278     		ldrb	r2, [r6]	@ zero_extendqisi2
 483:.\imu_i2c.c   **** 							InBuffer[2]=(Gyro_Temp_Acc_Read_Data[4]<<8)|Gyro_Temp_Acc_Read_Data[5];
 2513              		.loc 1 483 0
 2514 0064 B178     		ldrb	r1, [r6, #2]	@ zero_extendqisi2
 482:.\imu_i2c.c   **** 							InBuffer[1]=(Gyro_Temp_Acc_Read_Data[2]<<8)|Gyro_Temp_Acc_Read_Data[3];
 2515              		.loc 1 482 0
 2516 0066 43EA0222 		orr	r2, r3, r2, lsl #8
 483:.\imu_i2c.c   **** 							InBuffer[2]=(Gyro_Temp_Acc_Read_Data[4]<<8)|Gyro_Temp_Acc_Read_Data[5];
 2517              		.loc 1 483 0
 2518 006a F378     		ldrb	r3, [r6, #3]	@ zero_extendqisi2
 488:.\imu_i2c.c   **** 							}
 2519              		.loc 1 488 0
 2520 006c 7548     		ldr	r0, .L159+20
 483:.\imu_i2c.c   **** 							InBuffer[2]=(Gyro_Temp_Acc_Read_Data[4]<<8)|Gyro_Temp_Acc_Read_Data[5];
 2521              		.loc 1 483 0
 2522 006e 43EA0123 		orr	r3, r3, r1, lsl #8
 2523 0072 2381     		strh	r3, [r4, #8]	@ movhi
 484:.\imu_i2c.c   **** 					
 2524              		.loc 1 484 0
 2525 0074 3179     		ldrb	r1, [r6, #4]	@ zero_extendqisi2
 2526 0076 7379     		ldrb	r3, [r6, #5]	@ zero_extendqisi2
 482:.\imu_i2c.c   **** 							InBuffer[1]=(Gyro_Temp_Acc_Read_Data[2]<<8)|Gyro_Temp_Acc_Read_Data[3];
 2527              		.loc 1 482 0
 2528 0078 E280     		strh	r2, [r4, #6]	@ movhi
 484:.\imu_i2c.c   **** 					
 2529              		.loc 1 484 0
 2530 007a 43EA0123 		orr	r3, r3, r1, lsl #8
 2531 007e 6381     		strh	r3, [r4, #10]	@ movhi
 2532              	.LVL352:
 488:.\imu_i2c.c   **** 							}
 2533              		.loc 1 488 0
 2534 0080 811C     		adds	r1, r0, #2
 2535 0082 12B2     		sxth	r2, r2
 2536 0084 04F10C03 		add	r3, r4, #12
 2537 0088 FFF7FEFF 		bl	MPU9250_CalAvgValue
 2538              	.LVL353:
 2539 008c 6E48     		ldr	r0, .L159+24
 2540 008e B4F90820 		ldrsh	r2, [r4, #8]
 2541 0092 811C     		adds	r1, r0, #2
 2542 0094 04F11003 		add	r3, r4, #16
 2543 0098 FFF7FEFF 		bl	MPU9250_CalAvgValue
 2544              	.LVL354:
 2545 009c 6B48     		ldr	r0, .L159+28
 2546 009e B4F90A20 		ldrsh	r2, [r4, #10]
 2547 00a2 811C     		adds	r1, r0, #2
 2548 00a4 04F11403 		add	r3, r4, #20
 2549 00a8 FFF7FEFF 		bl	MPU9250_CalAvgValue
 2550              	.LVL355:
 491:.\imu_i2c.c   **** 						   accel[1] = *(OutBuffer + 1);
 2551              		.loc 1 491 0
 2552 00ac E368     		ldr	r3, [r4, #12]
 499:.\imu_i2c.c   **** 							InBuffer[1]=(Gyro_Temp_Acc_Read_Data[10]<<8)|Gyro_Temp_Acc_Read_Data[11];
ARM GAS  C:\Users\acer\AppData\Local\Temp\ccmxYZNb.s 			page 65


 2553              		.loc 1 499 0
 2554 00ae 327A     		ldrb	r2, [r6, #8]	@ zero_extendqisi2
 491:.\imu_i2c.c   **** 						   accel[1] = *(OutBuffer + 1);
 2555              		.loc 1 491 0
 2556 00b0 A4F84C30 		strh	r3, [r4, #76]	@ movhi
 492:.\imu_i2c.c   ****                            accel[2] = *(OutBuffer + 2);
 2557              		.loc 1 492 0
 2558 00b4 2369     		ldr	r3, [r4, #16]
 500:.\imu_i2c.c   **** 							InBuffer[2]=(Gyro_Temp_Acc_Read_Data[12]<<8)|Gyro_Temp_Acc_Read_Data[13];
 2559              		.loc 1 500 0
 2560 00b6 B17A     		ldrb	r1, [r6, #10]	@ zero_extendqisi2
 492:.\imu_i2c.c   ****                            accel[2] = *(OutBuffer + 2);
 2561              		.loc 1 492 0
 2562 00b8 A4F84E30 		strh	r3, [r4, #78]	@ movhi
 493:.\imu_i2c.c   ****                         
 2563              		.loc 1 493 0
 2564 00bc 6369     		ldr	r3, [r4, #20]
 504:.\imu_i2c.c   ****     						   }
 2565              		.loc 1 504 0
 2566 00be 6448     		ldr	r0, .L159+32
 493:.\imu_i2c.c   ****                         
 2567              		.loc 1 493 0
 2568 00c0 A4F85030 		strh	r3, [r4, #80]	@ movhi
 499:.\imu_i2c.c   **** 							InBuffer[1]=(Gyro_Temp_Acc_Read_Data[10]<<8)|Gyro_Temp_Acc_Read_Data[11];
 2569              		.loc 1 499 0
 2570 00c4 737A     		ldrb	r3, [r6, #9]	@ zero_extendqisi2
 2571 00c6 43EA0222 		orr	r2, r3, r2, lsl #8
 500:.\imu_i2c.c   **** 							InBuffer[2]=(Gyro_Temp_Acc_Read_Data[12]<<8)|Gyro_Temp_Acc_Read_Data[13];
 2572              		.loc 1 500 0
 2573 00ca F37A     		ldrb	r3, [r6, #11]	@ zero_extendqisi2
 499:.\imu_i2c.c   **** 							InBuffer[1]=(Gyro_Temp_Acc_Read_Data[10]<<8)|Gyro_Temp_Acc_Read_Data[11];
 2574              		.loc 1 499 0
 2575 00cc E280     		strh	r2, [r4, #6]	@ movhi
 500:.\imu_i2c.c   **** 							InBuffer[2]=(Gyro_Temp_Acc_Read_Data[12]<<8)|Gyro_Temp_Acc_Read_Data[13];
 2576              		.loc 1 500 0
 2577 00ce 43EA0123 		orr	r3, r3, r1, lsl #8
 2578 00d2 2381     		strh	r3, [r4, #8]	@ movhi
 501:.\imu_i2c.c   **** 					        for( i = 0; i < 3; i ++)	
 2579              		.loc 1 501 0
 2580 00d4 317B     		ldrb	r1, [r6, #12]	@ zero_extendqisi2
 2581 00d6 737B     		ldrb	r3, [r6, #13]	@ zero_extendqisi2
 504:.\imu_i2c.c   ****     						   }
 2582              		.loc 1 504 0
 2583 00d8 12B2     		sxth	r2, r2
 501:.\imu_i2c.c   **** 					        for( i = 0; i < 3; i ++)	
 2584              		.loc 1 501 0
 2585 00da 43EA0123 		orr	r3, r3, r1, lsl #8
 2586 00de 6381     		strh	r3, [r4, #10]	@ movhi
 2587              	.LVL356:
 504:.\imu_i2c.c   ****     						   }
 2588              		.loc 1 504 0
 2589 00e0 811C     		adds	r1, r0, #2
 2590 00e2 04F10C03 		add	r3, r4, #12
 2591 00e6 FFF7FEFF 		bl	MPU9250_CalAvgValue
 2592              	.LVL357:
 2593 00ea 5A48     		ldr	r0, .L159+36
 2594 00ec B4F90820 		ldrsh	r2, [r4, #8]
ARM GAS  C:\Users\acer\AppData\Local\Temp\ccmxYZNb.s 			page 66


 2595 00f0 811C     		adds	r1, r0, #2
 2596 00f2 04F11003 		add	r3, r4, #16
 2597 00f6 FFF7FEFF 		bl	MPU9250_CalAvgValue
 2598              	.LVL358:
 2599 00fa 5748     		ldr	r0, .L159+40
 2600 00fc B4F90A20 		ldrsh	r2, [r4, #10]
 2601 0100 811C     		adds	r1, r0, #2
 2602 0102 04F11403 		add	r3, r4, #20
 2603 0106 FFF7FEFF 		bl	MPU9250_CalAvgValue
 2604              	.LVL359:
 507:.\imu_i2c.c   **** 							gyro[1] = *(OutBuffer + 1) - MPU9250_Offset.Y;
 2605              		.loc 1 507 0
 2606 010a 218B     		ldrh	r1, [r4, #24]
 2607 010c E268     		ldr	r2, [r4, #12]
 2608 010e 534B     		ldr	r3, .L159+44
 2609 0110 521A     		subs	r2, r2, r1
 2610 0112 1A80     		strh	r2, [r3]	@ movhi
 508:.\imu_i2c.c   **** 							gyro[2] = *(OutBuffer + 2) - MPU9250_Offset.Z;
 2611              		.loc 1 508 0
 2612 0114 618B     		ldrh	r1, [r4, #26]
 2613 0116 2269     		ldr	r2, [r4, #16]
 2614 0118 521A     		subs	r2, r2, r1
 2615 011a 5A80     		strh	r2, [r3, #2]	@ movhi
 509:.\imu_i2c.c   ****                             
 2616              		.loc 1 509 0
 2617 011c A18B     		ldrh	r1, [r4, #28]
 2618 011e 6269     		ldr	r2, [r4, #20]
 2619 0120 521A     		subs	r2, r2, r1
 2620 0122 9A80     		strh	r2, [r3, #4]	@ movhi
 511:.\imu_i2c.c   ****                            
 2621              		.loc 1 511 0
 2622 0124 1123     		movs	r3, #17
 2623              	.LVL360:
 2624              	.L158:
 2625 0126 2B70     		strb	r3, [r5]
 2626 0128 61E2     		b	.L128
 2627              	.L139:
 517:.\imu_i2c.c   ****                     //if(I2C_READ(MAG_ADDRESS,Mag_Reg[0], &Mag_Read_Data[0], 7))  // read all gyro 
 2628              		.loc 1 517 0
 2629 012a 0C20     		movs	r0, #12
 2630 012c 0021     		movs	r1, #0
 2631 012e 4C4A     		ldr	r2, .L159+48
 2632 0130 0123     		movs	r3, #1
 2633 0132 FFF7FEFF 		bl	I2C_READ
 2634              	.LVL361:
 2635 0136 0028     		cmp	r0, #0
 2636 0138 00F05982 		beq	.L128
 520:.\imu_i2c.c   **** 					}
 2637              		.loc 1 520 0
 2638 013c 1223     		movs	r3, #18
 2639 013e F2E7     		b	.L158
 2640              	.L140:
 524:.\imu_i2c.c   **** 					   {
 2641              		.loc 1 524 0
 2642 0140 3E4B     		ldr	r3, .L159+12
 2643 0142 1B78     		ldrb	r3, [r3]	@ zero_extendqisi2
 2644 0144 002B     		cmp	r3, #0
ARM GAS  C:\Users\acer\AppData\Local\Temp\ccmxYZNb.s 			page 67


 2645 0146 40F05282 		bne	.L128
 530:.\imu_i2c.c   **** 							InBuffer[0]=(Mag_Read_Data[3]<<8)|Mag_Read_Data[2];
 2646              		.loc 1 530 0
 2647 014a 454B     		ldr	r3, .L159+48
 2648 014c 3C4C     		ldr	r4, .L159+16
 2649 014e 5978     		ldrb	r1, [r3, #1]	@ zero_extendqisi2
 2650 0150 1A78     		ldrb	r2, [r3]	@ zero_extendqisi2
 536:.\imu_i2c.c   **** 							} 
 2651              		.loc 1 536 0
 2652 0152 4448     		ldr	r0, .L159+52
 530:.\imu_i2c.c   **** 							InBuffer[0]=(Mag_Read_Data[3]<<8)|Mag_Read_Data[2];
 2653              		.loc 1 530 0
 2654 0154 42EA0122 		orr	r2, r2, r1, lsl #8
 2655 0158 2281     		strh	r2, [r4, #8]	@ movhi
 531:.\imu_i2c.c   **** 							InBuffer[2]=-((Mag_Read_Data[5]<<8)|Mag_Read_Data[4]);
 2656              		.loc 1 531 0
 2657 015a D978     		ldrb	r1, [r3, #3]	@ zero_extendqisi2
 2658 015c 9A78     		ldrb	r2, [r3, #2]	@ zero_extendqisi2
 2659 015e 42EA0122 		orr	r2, r2, r1, lsl #8
 532:.\imu_i2c.c   **** 					
 2660              		.loc 1 532 0
 2661 0162 5979     		ldrb	r1, [r3, #5]	@ zero_extendqisi2
 2662 0164 1B79     		ldrb	r3, [r3, #4]	@ zero_extendqisi2
 531:.\imu_i2c.c   **** 							InBuffer[2]=-((Mag_Read_Data[5]<<8)|Mag_Read_Data[4]);
 2663              		.loc 1 531 0
 2664 0166 E280     		strh	r2, [r4, #6]	@ movhi
 532:.\imu_i2c.c   **** 					
 2665              		.loc 1 532 0
 2666 0168 43EA0123 		orr	r3, r3, r1, lsl #8
 2667 016c 5B42     		negs	r3, r3
 536:.\imu_i2c.c   **** 							} 
 2668              		.loc 1 536 0
 2669 016e 811C     		adds	r1, r0, #2
 532:.\imu_i2c.c   **** 					
 2670              		.loc 1 532 0
 2671 0170 6381     		strh	r3, [r4, #10]	@ movhi
 2672              	.LVL362:
 536:.\imu_i2c.c   **** 							} 
 2673              		.loc 1 536 0
 2674 0172 12B2     		sxth	r2, r2
 2675 0174 04F10C03 		add	r3, r4, #12
 2676 0178 FFF7FEFF 		bl	MPU9250_CalAvgValue
 2677              	.LVL363:
 2678 017c 3A48     		ldr	r0, .L159+56
 2679 017e B4F90820 		ldrsh	r2, [r4, #8]
 2680 0182 811C     		adds	r1, r0, #2
 2681 0184 04F11003 		add	r3, r4, #16
 2682 0188 FFF7FEFF 		bl	MPU9250_CalAvgValue
 2683              	.LVL364:
 2684 018c 3748     		ldr	r0, .L159+60
 2685 018e B4F90A20 		ldrsh	r2, [r4, #10]
 2686 0192 04F11403 		add	r3, r4, #20
 2687 0196 811C     		adds	r1, r0, #2
 2688 0198 FFF7FEFF 		bl	MPU9250_CalAvgValue
 2689              	.LVL365:
 538:.\imu_i2c.c   **** 							magn[1] = *(OutBuffer + 1)-MPU9250_Magn_Offset.Y_Off_Err;  // TODO check what it is
 2690              		.loc 1 538 0
ARM GAS  C:\Users\acer\AppData\Local\Temp\ccmxYZNb.s 			page 68


 2691 019c A28D     		ldrh	r2, [r4, #44]
 2692 019e E368     		ldr	r3, [r4, #12]
 2693 01a0 9B1A     		subs	r3, r3, r2
 2694 01a2 A4F85230 		strh	r3, [r4, #82]	@ movhi
 539:.\imu_i2c.c   **** 							magn[2] = *(OutBuffer + 2)-MPU9250_Magn_Offset.Z_Off_Err;
 2695              		.loc 1 539 0
 2696 01a6 E28D     		ldrh	r2, [r4, #46]
 2697 01a8 2369     		ldr	r3, [r4, #16]
 2698 01aa 9B1A     		subs	r3, r3, r2
 2699 01ac A4F85430 		strh	r3, [r4, #84]	@ movhi
 540:.\imu_i2c.c   **** 							st_Read=SEL_TEMP;
 2700              		.loc 1 540 0
 2701 01b0 228E     		ldrh	r2, [r4, #48]
 2702 01b2 6369     		ldr	r3, [r4, #20]
 2703 01b4 9B1A     		subs	r3, r3, r2
 2704 01b6 A4F85630 		strh	r3, [r4, #86]	@ movhi
 541:.\imu_i2c.c   **** 						}
 2705              		.loc 1 541 0
 2706 01ba 0823     		movs	r3, #8
 2707 01bc B3E7     		b	.L158
 2708              	.LVL366:
 2709              	.L132:
 546:.\imu_i2c.c   **** 					{
 2710              		.loc 1 546 0
 2711 01be 7720     		movs	r0, #119
 2712 01c0 2B49     		ldr	r1, .L159+64
 2713 01c2 0222     		movs	r2, #2
 2714 01c4 FFF7FEFF 		bl	I2C_WRITE
 2715              	.LVL367:
 2716 01c8 0028     		cmp	r0, #0
 2717 01ca 00F01082 		beq	.L128
 548:.\imu_i2c.c   **** 					}
 2718              		.loc 1 548 0
 2719 01ce 0923     		movs	r3, #9
 2720 01d0 A9E7     		b	.L158
 2721              	.L133:
 559:.\imu_i2c.c   **** 					{
 2722              		.loc 1 559 0
 2723 01d2 7720     		movs	r0, #119
 2724 01d4 F621     		movs	r1, #246
 2725 01d6 274A     		ldr	r2, .L159+68
 2726 01d8 0223     		movs	r3, #2
 2727 01da FFF7FEFF 		bl	I2C_READ
 2728              	.LVL368:
 2729 01de 0028     		cmp	r0, #0
 2730 01e0 00F00582 		beq	.L128
 562:.\imu_i2c.c   **** 					}
 2731              		.loc 1 562 0
 2732 01e4 0A23     		movs	r3, #10
 2733 01e6 9EE7     		b	.L158
 2734              	.L134:
 567:.\imu_i2c.c   **** 					   {
 2735              		.loc 1 567 0
 2736 01e8 144B     		ldr	r3, .L159+12
 2737 01ea 1B78     		ldrb	r3, [r3]	@ zero_extendqisi2
 2738 01ec 002B     		cmp	r3, #0
 2739 01ee 40F0FE81 		bne	.L128
ARM GAS  C:\Users\acer\AppData\Local\Temp\ccmxYZNb.s 			page 69


 569:.\imu_i2c.c   **** 					     st_Read=SEL_PRES;
 2740              		.loc 1 569 0
 2741 01f2 204A     		ldr	r2, .L159+68
 2742 01f4 1178     		ldrb	r1, [r2]	@ zero_extendqisi2
 2743 01f6 5378     		ldrb	r3, [r2, #1]	@ zero_extendqisi2
 2744 01f8 1F4A     		ldr	r2, .L159+72
 2745 01fa 03EB0123 		add	r3, r3, r1, lsl #8
 2746 01fe 1360     		str	r3, [r2]
 570:.\imu_i2c.c   **** 					   }
 2747              		.loc 1 570 0
 2748 0200 0B23     		movs	r3, #11
 2749 0202 90E7     		b	.L158
 2750              	.L135:
 575:.\imu_i2c.c   **** 						{
 2751              		.loc 1 575 0
 2752 0204 7720     		movs	r0, #119
 2753 0206 1D49     		ldr	r1, .L159+76
 2754 0208 0222     		movs	r2, #2
 2755 020a FFF7FEFF 		bl	I2C_WRITE
 2756              	.LVL369:
 2757 020e 0028     		cmp	r0, #0
 2758 0210 00F0ED81 		beq	.L128
 577:.\imu_i2c.c   **** 						}
 2759              		.loc 1 577 0
 2760 0214 0C23     		movs	r3, #12
 2761 0216 86E7     		b	.L158
 2762              	.L136:
 583:.\imu_i2c.c   **** 					{
 2763              		.loc 1 583 0
 2764 0218 7720     		movs	r0, #119
 2765 021a F621     		movs	r1, #246
 2766 021c 184A     		ldr	r2, .L159+80
 2767 021e 0323     		movs	r3, #3
 2768 0220 FFF7FEFF 		bl	I2C_READ
 2769              	.LVL370:
 2770 0224 0028     		cmp	r0, #0
 2771 0226 00F0E281 		beq	.L128
 586:.\imu_i2c.c   **** 					}
 2772              		.loc 1 586 0
 2773 022a 0D23     		movs	r3, #13
 2774 022c 7BE7     		b	.L158
 2775              	.L160:
 2776 022e 00BF     		.align	2
 2777              	.L159:
 2778 0230 00000000 		.word	st_Read
 2779 0234 00000000 		.word	.LANCHOR1
 2780 0238 00000000 		.word	Gyro_Temp_Acc_Read_Data
 2781 023c 00000000 		.word	stI2CMgr
 2782 0240 00000000 		.word	.LANCHOR0
 2783 0244 00000000 		.word	MPU9250_Filter_Acc
 2784 0248 12000000 		.word	MPU9250_Filter_Acc+18
 2785 024c 24000000 		.word	MPU9250_Filter_Acc+36
 2786 0250 00000000 		.word	MPU9250_Filter_Gyro
 2787 0254 12000000 		.word	MPU9250_Filter_Gyro+18
 2788 0258 24000000 		.word	MPU9250_Filter_Gyro+36
 2789 025c 00000000 		.word	gyro
 2790 0260 00000000 		.word	Mag_Read_Data
ARM GAS  C:\Users\acer\AppData\Local\Temp\ccmxYZNb.s 			page 70


 2791 0264 00000000 		.word	MPU9250_Filter_Mag
 2792 0268 12000000 		.word	MPU9250_Filter_Mag+18
 2793 026c 24000000 		.word	MPU9250_Filter_Mag+36
 2794 0270 24000000 		.word	.LANCHOR1+36
 2795 0274 00000000 		.word	Alt_Read_Data
 2796 0278 00000000 		.word	UT
 2797 027c 26000000 		.word	.LANCHOR1+38
 2798 0280 03000000 		.word	Alt_Read_Data+3
 2799              	.L137:
 590:.\imu_i2c.c   **** 					   
 2800              		.loc 1 590 0
 2801 0284 C04B     		ldr	r3, .L161+24
 2802 0286 1B78     		ldrb	r3, [r3]	@ zero_extendqisi2
 2803 0288 002B     		cmp	r3, #0
 2804 028a 40F0B081 		bne	.L128
 593:.\imu_i2c.c   **** 					    
 2805              		.loc 1 593 0
 2806 028e BF4A     		ldr	r2, .L161+28
 596:.\imu_i2c.c   **** 
 2807              		.loc 1 596 0
 2808 0290 BF4C     		ldr	r4, .L161+32
 593:.\imu_i2c.c   **** 					    
 2809              		.loc 1 593 0
 2810 0292 1379     		ldrb	r3, [r2, #4]	@ zero_extendqisi2
 2811 0294 D178     		ldrb	r1, [r2, #3]	@ zero_extendqisi2
 2812 0296 1B02     		lsls	r3, r3, #8
 2813 0298 5279     		ldrb	r2, [r2, #5]	@ zero_extendqisi2
 2814 029a 03EB0143 		add	r3, r3, r1, lsl #16
 2815 029e 1344     		add	r3, r3, r2
 2816 02a0 BC4A     		ldr	r2, .L161+36
 595:.\imu_i2c.c   **** 						BMP180_CalAvgValue(&BMP180_Filter[0].Index, BMP180_Filter[0].AvgBuffer, PVal - PRESSURE_OFFSE
 2817              		.loc 1 595 0
 2818 02a2 0BA8     		add	r0, sp, #44
 593:.\imu_i2c.c   **** 					    
 2819              		.loc 1 593 0
 2820 02a4 B2F90020 		ldrsh	r2, [r2]
 605:.\imu_i2c.c   **** 						MotionVal[1]=gyro[1]/32.8;
 2821              		.loc 1 605 0
 2822 02a8 BB4E     		ldr	r6, .L161+40
 593:.\imu_i2c.c   **** 					    
 2823              		.loc 1 593 0
 2824 02aa C2F10802 		rsb	r2, r2, #8
 2825 02ae D340     		lsrs	r3, r3, r2
 2826 02b0 BA4A     		ldr	r2, .L161+44
 605:.\imu_i2c.c   **** 						MotionVal[1]=gyro[1]/32.8;
 2827              		.loc 1 605 0
 2828 02b2 BB4D     		ldr	r5, .L161+48
 593:.\imu_i2c.c   **** 					    
 2829              		.loc 1 593 0
 2830 02b4 1360     		str	r3, [r2]
 595:.\imu_i2c.c   **** 						BMP180_CalAvgValue(&BMP180_Filter[0].Index, BMP180_Filter[0].AvgBuffer, PVal - PRESSURE_OFFSE
 2831              		.loc 1 595 0
 2832 02b6 FFF7FEFF 		bl	BMP180_CalculateTruePressure
 2833              	.LVL371:
 596:.\imu_i2c.c   **** 
 2834              		.loc 1 596 0
 2835 02ba 04F15800 		add	r0, r4, #88
ARM GAS  C:\Users\acer\AppData\Local\Temp\ccmxYZNb.s 			page 71


 2836 02be 04F15C01 		add	r1, r4, #92
 2837 02c2 0B9A     		ldr	r2, [sp, #44]
 2838 02c4 B74B     		ldr	r3, .L161+52
 2839 02c6 FFF7FEFF 		bl	BMP180_CalAvgValue
 2840              	.LVL372:
 598:.\imu_i2c.c   **** 						BMP180_CalAvgValue(&BMP180_Filter[1].Index, BMP180_Filter[1].AvgBuffer, AVal, &AltitudeVal);
 2841              		.loc 1 598 0
 2842 02ca 0CA8     		add	r0, sp, #48
 2843 02cc 0B99     		ldr	r1, [sp, #44]
 2844 02ce FFF7FEFF 		bl	BMP180_CalculateAbsoluteAltitude
 2845              	.LVL373:
 599:.\imu_i2c.c   **** 
 2846              		.loc 1 599 0
 2847 02d2 04F18001 		add	r1, r4, #128
 2848 02d6 04F17C00 		add	r0, r4, #124
 2849 02da 0C9A     		ldr	r2, [sp, #48]
 2850 02dc B24B     		ldr	r3, .L161+56
 2851 02de FFF7FEFF 		bl	BMP180_CalAvgValue
 2852              	.LVL374:
 601:.\imu_i2c.c   **** 						BMP180_CalAvgValue(&BMP180_Filter[2].Index, BMP180_Filter[2].AvgBuffer, TVal, &TemperatureVal
 2853              		.loc 1 601 0
 2854 02e2 0DA8     		add	r0, sp, #52
 2855 02e4 FFF7FEFF 		bl	BMP180_CalculateTrueTemperature
 2856              	.LVL375:
 602:.\imu_i2c.c   **** 						
 2857              		.loc 1 602 0
 2858 02e8 04F1A000 		add	r0, r4, #160
 2859 02ec 04F1A401 		add	r1, r4, #164
 2860 02f0 0D9A     		ldr	r2, [sp, #52]
 2861 02f2 AE4B     		ldr	r3, .L161+60
 2862 02f4 FFF7FEFF 		bl	BMP180_CalAvgValue
 2863              	.LVL376:
 605:.\imu_i2c.c   **** 						MotionVal[1]=gyro[1]/32.8;
 2864              		.loc 1 605 0
 2865 02f8 B6F90000 		ldrsh	r0, [r6]
 2866 02fc FFF7FEFF 		bl	__aeabi_i2d
 2867              	.LVL377:
 2868 0300 9BA3     		adr	r3, .L161
 2869 0302 D3E90023 		ldrd	r2, [r3]
 2870 0306 FFF7FEFF 		bl	__aeabi_ddiv
 2871              	.LVL378:
 2872 030a FFF7FEFF 		bl	__aeabi_d2f
 2873              	.LVL379:
 2874 030e 2860     		str	r0, [r5]	@ float
 2875 0310 0790     		str	r0, [sp, #28]
 606:.\imu_i2c.c   **** 						MotionVal[2]=gyro[2]/32.8;  // as sensitivity of gyro is selected as 32.8 
 2876              		.loc 1 606 0
 2877 0312 B6F90200 		ldrsh	r0, [r6, #2]
 2878 0316 FFF7FEFF 		bl	__aeabi_i2d
 2879              	.LVL380:
 2880 031a 95A3     		adr	r3, .L161
 2881 031c D3E90023 		ldrd	r2, [r3]
 2882 0320 FFF7FEFF 		bl	__aeabi_ddiv
 2883              	.LVL381:
 2884 0324 FFF7FEFF 		bl	__aeabi_d2f
 2885              	.LVL382:
 2886 0328 8346     		mov	fp, r0
ARM GAS  C:\Users\acer\AppData\Local\Temp\ccmxYZNb.s 			page 72


 2887 032a 6860     		str	r0, [r5, #4]	@ float
 607:.\imu_i2c.c   ****                         
 2888              		.loc 1 607 0
 2889 032c B6F90400 		ldrsh	r0, [r6, #4]
 2890 0330 FFF7FEFF 		bl	__aeabi_i2d
 2891              	.LVL383:
 2892 0334 8EA3     		adr	r3, .L161
 2893 0336 D3E90023 		ldrd	r2, [r3]
 2894 033a FFF7FEFF 		bl	__aeabi_ddiv
 2895              	.LVL384:
 2896 033e FFF7FEFF 		bl	__aeabi_d2f
 2897              	.LVL385:
 2898 0342 8246     		mov	r10, r0
 2899 0344 A860     		str	r0, [r5, #8]	@ float
 611:.\imu_i2c.c   **** 						MotionVal[4]=accel[1];
 2900              		.loc 1 611 0
 2901 0346 B4F94C00 		ldrsh	r0, [r4, #76]
 2902 034a FFF7FEFF 		bl	__aeabi_i2f
 2903              	.LVL386:
 2904 034e E860     		str	r0, [r5, #12]	@ float
 2905 0350 0690     		str	r0, [sp, #24]	@ float
 612:.\imu_i2c.c   **** 						MotionVal[5]=accel[2];
 2906              		.loc 1 612 0
 2907 0352 B4F94E00 		ldrsh	r0, [r4, #78]
 2908 0356 FFF7FEFF 		bl	__aeabi_i2f
 2909              	.LVL387:
 2910 035a 8146     		mov	r9, r0
 2911 035c 2861     		str	r0, [r5, #16]	@ float
 613:.\imu_i2c.c   ****                         
 2912              		.loc 1 613 0
 2913 035e B4F95000 		ldrsh	r0, [r4, #80]
 2914 0362 FFF7FEFF 		bl	__aeabi_i2f
 2915              	.LVL388:
 2916 0366 8046     		mov	r8, r0
 2917 0368 6861     		str	r0, [r5, #20]	@ float
 617:.\imu_i2c.c   **** 						MotionVal[7]=magn[1];
 2918              		.loc 1 617 0
 2919 036a B4F95200 		ldrsh	r0, [r4, #82]
 2920 036e FFF7FEFF 		bl	__aeabi_i2f
 2921              	.LVL389:
 2922 0372 0746     		mov	r7, r0
 2923 0374 A861     		str	r0, [r5, #24]	@ float
 618:.\imu_i2c.c   **** 						MotionVal[8]=magn[2];
 2924              		.loc 1 618 0
 2925 0376 B4F95400 		ldrsh	r0, [r4, #84]
 2926 037a FFF7FEFF 		bl	__aeabi_i2f
 2927              	.LVL390:
 2928 037e 0646     		mov	r6, r0
 2929 0380 E861     		str	r0, [r5, #28]	@ float
 619:.\imu_i2c.c   **** 						
 2930              		.loc 1 619 0
 2931 0382 B4F95600 		ldrsh	r0, [r4, #86]
 2932 0386 FFF7FEFF 		bl	__aeabi_i2f
 2933              	.LVL391:
 621:.\imu_i2c.c   **** 						(float)MotionVal[3], (float)MotionVal[4], (float)MotionVal[5], (float)MotionVal[6], (float)Mo
 2934              		.loc 1 621 0
 2935 038a DDF81CC0 		ldr	ip, [sp, #28]
ARM GAS  C:\Users\acer\AppData\Local\Temp\ccmxYZNb.s 			page 73


 619:.\imu_i2c.c   **** 						
 2936              		.loc 1 619 0
 2937 038e 0446     		mov	r4, r0
 2938 0390 2862     		str	r0, [r5, #32]	@ float
 621:.\imu_i2c.c   **** 						(float)MotionVal[3], (float)MotionVal[4], (float)MotionVal[5], (float)MotionVal[6], (float)Mo
 2939              		.loc 1 621 0
 2940 0392 6046     		mov	r0, ip
 2941 0394 FFF7FEFF 		bl	__aeabi_f2d
 2942              	.LVL392:
 2943 0398 77A3     		adr	r3, .L161+8
 2944 039a D3E90023 		ldrd	r2, [r3]
 2945 039e FFF7FEFF 		bl	__aeabi_dmul
 2946              	.LVL393:
 2947 03a2 FFF7FEFF 		bl	__aeabi_d2f
 2948              	.LVL394:
 2949 03a6 0546     		mov	r5, r0
 2950 03a8 5846     		mov	r0, fp
 2951 03aa FFF7FEFF 		bl	__aeabi_f2d
 2952              	.LVL395:
 2953 03ae 72A3     		adr	r3, .L161+8
 2954 03b0 D3E90023 		ldrd	r2, [r3]
 2955 03b4 FFF7FEFF 		bl	__aeabi_dmul
 2956              	.LVL396:
 2957 03b8 FFF7FEFF 		bl	__aeabi_d2f
 2958              	.LVL397:
 2959 03bc 8346     		mov	fp, r0
 2960 03be 5046     		mov	r0, r10
 2961 03c0 FFF7FEFF 		bl	__aeabi_f2d
 2962              	.LVL398:
 2963 03c4 6CA3     		adr	r3, .L161+8
 2964 03c6 D3E90023 		ldrd	r2, [r3]
 2965 03ca FFF7FEFF 		bl	__aeabi_dmul
 2966              	.LVL399:
 2967 03ce FFF7FEFF 		bl	__aeabi_d2f
 2968              	.LVL400:
 625:.\imu_i2c.c   **** 						angles[2] = atan2(2 * q2 * q3 + 2 * q0 * q1, -2 * q1 * q1 - 2 * q2* q2 + 1)* 57.3; // roll
 2969              		.loc 1 625 0
 2970 03d2 DFF8ECA1 		ldr	r10, .L161+80
 621:.\imu_i2c.c   **** 						(float)MotionVal[3], (float)MotionVal[4], (float)MotionVal[5], (float)MotionVal[6], (float)Mo
 2971              		.loc 1 621 0
 2972 03d6 0246     		mov	r2, r0
 2973 03d8 2846     		mov	r0, r5
 625:.\imu_i2c.c   **** 						angles[2] = atan2(2 * q2 * q3 + 2 * q0 * q1, -2 * q1 * q1 - 2 * q2* q2 + 1)* 57.3; // roll
 2974              		.loc 1 625 0
 2975 03da 754D     		ldr	r5, .L161+64
 621:.\imu_i2c.c   **** 						(float)MotionVal[3], (float)MotionVal[4], (float)MotionVal[5], (float)MotionVal[6], (float)Mo
 2976              		.loc 1 621 0
 2977 03dc 069B     		ldr	r3, [sp, #24]	@ float
 2978 03de 5946     		mov	r1, fp
 2979 03e0 CDF80090 		str	r9, [sp]	@ float
 2980 03e4 CDF80480 		str	r8, [sp, #4]	@ float
 2981 03e8 0297     		str	r7, [sp, #8]	@ float
 2982 03ea 0396     		str	r6, [sp, #12]	@ float
 2983 03ec 0494     		str	r4, [sp, #16]	@ float
 2984 03ee FFF7FEFF 		bl	IMU_AHRSupdate
 2985              	.LVL401:
 625:.\imu_i2c.c   **** 						angles[2] = atan2(2 * q2 * q3 + 2 * q0 * q1, -2 * q1 * q1 - 2 * q2* q2 + 1)* 57.3; // roll
ARM GAS  C:\Users\acer\AppData\Local\Temp\ccmxYZNb.s 			page 74


 2986              		.loc 1 625 0
 2987 03f2 DAF80000 		ldr	r0, [r10]	@ float
 2988 03f6 2E68     		ldr	r6, [r5]	@ float
 2989 03f8 4FF04041 		mov	r1, #-1073741824
 2990 03fc FFF7FEFF 		bl	__aeabi_fmul
 2991              	.LVL402:
 2992 0400 3146     		mov	r1, r6
 2993 0402 FFF7FEFF 		bl	__aeabi_fmul
 2994              	.LVL403:
 2995 0406 6B4F     		ldr	r7, .L161+68
 2996 0408 6B4C     		ldr	r4, .L161+72
 2997 040a D7F80090 		ldr	r9, [r7]	@ float
 2998 040e D4F80080 		ldr	r8, [r4]	@ float
 2999 0412 0646     		mov	r6, r0
 3000 0414 4946     		mov	r1, r9
 3001 0416 4846     		mov	r0, r9
 3002 0418 FFF7FEFF 		bl	__aeabi_fadd
 3003              	.LVL404:
 3004 041c 4146     		mov	r1, r8
 3005 041e FFF7FEFF 		bl	__aeabi_fmul
 3006              	.LVL405:
 3007 0422 0146     		mov	r1, r0
 3008 0424 3046     		mov	r0, r6
 3009 0426 FFF7FEFF 		bl	__aeabi_fadd
 3010              	.LVL406:
 3011 042a FFF7FEFF 		bl	__aeabi_f2d
 3012              	.LVL407:
 3013 042e FFF7FEFF 		bl	asin
 3014              	.LVL408:
 3015 0432 53A3     		adr	r3, .L161+16
 3016 0434 D3E90023 		ldrd	r2, [r3]
 3017 0438 FFF7FEFF 		bl	__aeabi_dmul
 3018              	.LVL409:
 3019 043c FFF7FEFF 		bl	__aeabi_d2f
 3020              	.LVL410:
 3021 0440 5E4E     		ldr	r6, .L161+76
 3022 0442 7060     		str	r0, [r6, #4]	@ float
 626:.\imu_i2c.c   **** 						angles[0] = atan2(-2 * q1 * q2 - 2 * q0 * q3, 2 * q2 * q2 + 2 * q3 * q3 - 1) * 57.3;   
 3023              		.loc 1 626 0
 3024 0444 2068     		ldr	r0, [r4]	@ float
 3025 0446 D5F80080 		ldr	r8, [r5]	@ float
 3026 044a D7F800C0 		ldr	ip, [r7]	@ float
 3027 044e DAF80090 		ldr	r9, [r10]	@ float
 3028 0452 DAF80020 		ldr	r2, [r10]	@ float
 3029 0456 DAF80030 		ldr	r3, [r10]	@ float
 3030 045a D4F800B0 		ldr	fp, [r4]	@ float
 3031 045e 0793     		str	r3, [sp, #28]
 3032 0460 2368     		ldr	r3, [r4]	@ float
 3033 0462 0146     		mov	r1, r0
 3034 0464 0693     		str	r3, [sp, #24]	@ float
 3035 0466 0892     		str	r2, [sp, #32]
 3036 0468 CDF824C0 		str	ip, [sp, #36]
 3037 046c FFF7FEFF 		bl	__aeabi_fadd
 3038              	.LVL411:
 3039 0470 4146     		mov	r1, r8
 3040 0472 FFF7FEFF 		bl	__aeabi_fmul
 3041              	.LVL412:
ARM GAS  C:\Users\acer\AppData\Local\Temp\ccmxYZNb.s 			page 75


 3042 0476 DDF824C0 		ldr	ip, [sp, #36]
 3043 047a 8046     		mov	r8, r0
 3044 047c 6146     		mov	r1, ip
 3045 047e 6046     		mov	r0, ip
 3046 0480 FFF7FEFF 		bl	__aeabi_fadd
 3047              	.LVL413:
 3048 0484 4946     		mov	r1, r9
 3049 0486 FFF7FEFF 		bl	__aeabi_fmul
 3050              	.LVL414:
 3051 048a 0146     		mov	r1, r0
 3052 048c 4046     		mov	r0, r8
 3053 048e FFF7FEFF 		bl	__aeabi_fadd
 3054              	.LVL415:
 3055 0492 FFF7FEFF 		bl	__aeabi_f2d
 3056              	.LVL416:
 3057 0496 089A     		ldr	r2, [sp, #32]
 3058 0498 8046     		mov	r8, r0
 3059 049a 8946     		mov	r9, r1
 3060 049c 1046     		mov	r0, r2
 3061 049e 4FF04041 		mov	r1, #-1073741824
 3062 04a2 FFF7FEFF 		bl	__aeabi_fmul
 3063              	.LVL417:
 3064 04a6 079B     		ldr	r3, [sp, #28]
 3065 04a8 1946     		mov	r1, r3
 3066 04aa FFF7FEFF 		bl	__aeabi_fmul
 3067              	.LVL418:
 3068 04ae 5946     		mov	r1, fp
 3069 04b0 0790     		str	r0, [sp, #28]
 3070 04b2 5846     		mov	r0, fp
 3071 04b4 FFF7FEFF 		bl	__aeabi_fadd
 3072              	.LVL419:
 3073 04b8 0699     		ldr	r1, [sp, #24]	@ float
 3074 04ba FFF7FEFF 		bl	__aeabi_fmul
 3075              	.LVL420:
 3076 04be 079B     		ldr	r3, [sp, #28]
 3077 04c0 0146     		mov	r1, r0
 3078 04c2 1846     		mov	r0, r3
 3079 04c4 FFF7FEFF 		bl	__aeabi_fsub
 3080              	.LVL421:
 3081 04c8 4FF07E51 		mov	r1, #1065353216
 3082 04cc FFF7FEFF 		bl	__aeabi_fadd
 3083              	.LVL422:
 3084 04d0 FFF7FEFF 		bl	__aeabi_f2d
 3085              	.LVL423:
 3086 04d4 0246     		mov	r2, r0
 3087 04d6 0B46     		mov	r3, r1
 3088 04d8 4046     		mov	r0, r8
 3089 04da 4946     		mov	r1, r9
 3090 04dc FFF7FEFF 		bl	atan2
 3091              	.LVL424:
 3092 04e0 27A3     		adr	r3, .L161+16
 3093 04e2 D3E90023 		ldrd	r2, [r3]
 3094 04e6 FFF7FEFF 		bl	__aeabi_dmul
 3095              	.LVL425:
 3096 04ea FFF7FEFF 		bl	__aeabi_d2f
 3097              	.LVL426:
 3098 04ee B060     		str	r0, [r6, #8]	@ float
ARM GAS  C:\Users\acer\AppData\Local\Temp\ccmxYZNb.s 			page 76


 627:.\imu_i2c.c   **** 						
 3099              		.loc 1 627 0
 3100 04f0 DAF80000 		ldr	r0, [r10]	@ float
 3101 04f4 2268     		ldr	r2, [r4]	@ float
 3102 04f6 3B68     		ldr	r3, [r7]	@ float
 3103 04f8 4FF04041 		mov	r1, #-1073741824
 3104 04fc 0693     		str	r3, [sp, #24]
 3105 04fe 0792     		str	r2, [sp, #28]
 3106 0500 FFF7FEFF 		bl	__aeabi_fmul
 3107              	.LVL427:
 3108 0504 079A     		ldr	r2, [sp, #28]
 3109 0506 D5F800B0 		ldr	fp, [r5]	@ float
 3110 050a 1146     		mov	r1, r2
 3111 050c FFF7FEFF 		bl	__aeabi_fmul
 3112              	.LVL428:
 3113 0510 069B     		ldr	r3, [sp, #24]
 3114 0512 D4F800A0 		ldr	r10, [r4]	@ float
 3115 0516 1946     		mov	r1, r3
 3116 0518 2768     		ldr	r7, [r4]	@ float
 3117 051a 0446     		mov	r4, r0
 3118 051c 1846     		mov	r0, r3
 3119 051e FFF7FEFF 		bl	__aeabi_fadd
 3120              	.LVL429:
 3121 0522 5946     		mov	r1, fp
 3122 0524 FFF7FEFF 		bl	__aeabi_fmul
 3123              	.LVL430:
 3124 0528 0146     		mov	r1, r0
 3125 052a 2046     		mov	r0, r4
 3126 052c FFF7FEFF 		bl	__aeabi_fsub
 3127              	.LVL431:
 3128 0530 FFF7FEFF 		bl	__aeabi_f2d
 3129              	.LVL432:
 3130 0534 D5F80090 		ldr	r9, [r5]	@ float
 3131 0538 0446     		mov	r4, r0
 3132 053a D5F80080 		ldr	r8, [r5]	@ float
 3133 053e 5046     		mov	r0, r10
 3134 0540 0D46     		mov	r5, r1
 3135 0542 5146     		mov	r1, r10
 3136 0544 FFF7FEFF 		bl	__aeabi_fadd
 3137              	.LVL433:
 3138 0548 3946     		mov	r1, r7
 3139 054a FFF7FEFF 		bl	__aeabi_fmul
 3140              	.LVL434:
 3141 054e 4946     		mov	r1, r9
 3142 0550 0746     		mov	r7, r0
 3143 0552 4846     		mov	r0, r9
 3144 0554 FFF7FEFF 		bl	__aeabi_fadd
 3145              	.LVL435:
 3146 0558 4146     		mov	r1, r8
 3147 055a FFF7FEFF 		bl	__aeabi_fmul
 3148              	.LVL436:
 3149 055e 0146     		mov	r1, r0
 3150 0560 3846     		mov	r0, r7
 3151 0562 FFF7FEFF 		bl	__aeabi_fadd
 3152              	.LVL437:
 3153 0566 4FF07E51 		mov	r1, #1065353216
 3154 056a 2BE0     		b	.L162
ARM GAS  C:\Users\acer\AppData\Local\Temp\ccmxYZNb.s 			page 77


 3155              	.L163:
 3156 056c AFF30080 		.align	3
 3157              	.L161:
 3158 0570 66666666 		.word	1717986918
 3159 0574 66664040 		.word	1077962342
 3160 0578 EC51B81E 		.word	515396076
 3161 057c 85EB913F 		.word	1066527621
 3162 0580 66666666 		.word	1717986918
 3163 0584 66A64C40 		.word	1078765158
 3164 0588 00000000 		.word	stI2CMgr
 3165 058c 00000000 		.word	Alt_Read_Data
 3166 0590 00000000 		.word	.LANCHOR0
 3167 0594 00000000 		.word	_oss
 3168 0598 00000000 		.word	gyro
 3169 059c 00000000 		.word	UP
 3170 05a0 00000000 		.word	MotionVal
 3171 05a4 00000000 		.word	PressureVal
 3172 05a8 00000000 		.word	AltitudeVal
 3173 05ac 00000000 		.word	TemperatureVal
 3174 05b0 00000000 		.word	q3
 3175 05b4 00000000 		.word	q0
 3176 05b8 00000000 		.word	q2
 3177 05bc 00000000 		.word	angles
 3178 05c0 00000000 		.word	q1
 3179              	.L162:
 3180 05c4 FFF7FEFF 		bl	__aeabi_fsub
 3181              	.LVL438:
 3182 05c8 FFF7FEFF 		bl	__aeabi_f2d
 3183              	.LVL439:
 3184 05cc 0246     		mov	r2, r0
 3185 05ce 0B46     		mov	r3, r1
 3186 05d0 2046     		mov	r0, r4
 3187 05d2 2946     		mov	r1, r5
 3188 05d4 FFF7FEFF 		bl	atan2
 3189              	.LVL440:
 3190 05d8 07A3     		adr	r3, .L164
 3191 05da D3E90023 		ldrd	r2, [r3]
 3192 05de FFF7FEFF 		bl	__aeabi_dmul
 3193              	.LVL441:
 3194 05e2 FFF7FEFF 		bl	__aeabi_d2f
 3195              	.LVL442:
 630:.\imu_i2c.c   **** 
 3196              		.loc 1 630 0
 3197 05e6 064B     		ldr	r3, .L164+8
 3198 05e8 0E22     		movs	r2, #14
 627:.\imu_i2c.c   **** 						
 3199              		.loc 1 627 0
 3200 05ea 3060     		str	r0, [r6]	@ float
 630:.\imu_i2c.c   **** 
 3201              		.loc 1 630 0
 3202 05ec 1A70     		strb	r2, [r3]
 3203              	.L128:
 639:.\imu_i2c.c   ****   
 3204              		.loc 1 639 0
 3205 05ee 0FB0     		add	sp, sp, #60
 3206              		.cfi_def_cfa_offset 36
 3207              		@ sp needed
ARM GAS  C:\Users\acer\AppData\Local\Temp\ccmxYZNb.s 			page 78


 3208 05f0 BDE8F08F 		pop	{r4, r5, r6, r7, r8, r9, r10, fp, pc}
 3209              	.L165:
 3210 05f4 AFF30080 		.align	3
 3211              	.L164:
 3212 05f8 66666666 		.word	1717986918
 3213 05fc 66A64C40 		.word	1078765158
 3214 0600 00000000 		.word	st_Read
 3215              		.cfi_endproc
 3216              	.LFE4:
 3217              		.size	Read_From_ALL, .-Read_From_ALL
 3218 0604 AFF30080 		.section	.text.IMU_Command,"ax",%progbits
 3219              		.align	1
 3220              		.global	IMU_Command
 3221              		.thumb
 3222              		.thumb_func
 3223              		.type	IMU_Command, %function
 3224              	IMU_Command:
 3225              	.LFB12:
 876:.\imu_i2c.c   **** }
 877:.\imu_i2c.c   **** 
 878:.\imu_i2c.c   **** // API
 879:.\imu_i2c.c   **** void IMU_Command(_UBYTE Command)
 880:.\imu_i2c.c   **** {
 3226              		.loc 1 880 0
 3227              		.cfi_startproc
 3228              		@ args = 0, pretend = 0, frame = 0
 3229              		@ frame_needed = 0, uses_anonymous_args = 0
 3230              		@ link register save eliminated.
 3231              	.LVL443:
 881:.\imu_i2c.c   ****    switch(Command)
 3232              		.loc 1 881 0
 3233 0000 0128     		cmp	r0, #1
 3234 0002 08D0     		beq	.L168
 3235 0004 02D3     		bcc	.L169
 3236 0006 0228     		cmp	r0, #2
 3237 0008 0BD0     		beq	.L170
 3238 000a 7047     		bx	lr
 3239              	.L169:
 882:.\imu_i2c.c   ****    {
 883:.\imu_i2c.c   ****      case IMU_CMD_INIT: 
 884:.\imu_i2c.c   ****      if(st_IMU==IDLE)
 3240              		.loc 1 884 0
 3241 000c 084B     		ldr	r3, .L172
 3242 000e 1A78     		ldrb	r2, [r3]	@ zero_extendqisi2
 3243 0010 62B9     		cbnz	r2, .L166
 885:.\imu_i2c.c   ****      {
 886:.\imu_i2c.c   ****         st_IMU=IMU_INIT;
 3244              		.loc 1 886 0
 3245 0012 0622     		movs	r2, #6
 3246 0014 03E0     		b	.L171
 3247              	.L168:
 887:.\imu_i2c.c   ****      }
 888:.\imu_i2c.c   ****      break;  
 889:.\imu_i2c.c   ****      case IMU_CMD_START:
 890:.\imu_i2c.c   ****      if(st_Read==IDLE)
 3248              		.loc 1 890 0
 3249 0016 074B     		ldr	r3, .L172+4
ARM GAS  C:\Users\acer\AppData\Local\Temp\ccmxYZNb.s 			page 79


 3250 0018 1A78     		ldrb	r2, [r3]	@ zero_extendqisi2
 3251 001a 3AB9     		cbnz	r2, .L166
 891:.\imu_i2c.c   ****      {
 892:.\imu_i2c.c   ****          st_Read= READ_GYRO;
 3252              		.loc 1 892 0
 3253 001c 0E22     		movs	r2, #14
 3254              	.L171:
 3255 001e 1A70     		strb	r2, [r3]
 3256 0020 7047     		bx	lr
 3257              	.L170:
 893:.\imu_i2c.c   ****      }
 894:.\imu_i2c.c   ****      break;
 895:.\imu_i2c.c   ****      case IMU_CMD_STOP:
 896:.\imu_i2c.c   ****          st_Read= IDLE;
 3258              		.loc 1 896 0
 3259 0022 044A     		ldr	r2, .L172+4
 3260 0024 0023     		movs	r3, #0
 3261 0026 1370     		strb	r3, [r2]
 897:.\imu_i2c.c   ****          st_IMU=IDLE;
 3262              		.loc 1 897 0
 3263 0028 014A     		ldr	r2, .L172
 3264 002a 1370     		strb	r3, [r2]
 3265              	.L166:
 3266 002c 7047     		bx	lr
 3267              	.L173:
 3268 002e 00BF     		.align	2
 3269              	.L172:
 3270 0030 00000000 		.word	st_IMU
 3271 0034 00000000 		.word	st_Read
 3272              		.cfi_endproc
 3273              	.LFE12:
 3274              		.size	IMU_Command, .-IMU_Command
 3275              		.section	.text.IMU_Read_St,"ax",%progbits
 3276              		.align	1
 3277              		.global	IMU_Read_St
 3278              		.thumb
 3279              		.thumb_func
 3280              		.type	IMU_Read_St, %function
 3281              	IMU_Read_St:
 3282              	.LFB13:
 898:.\imu_i2c.c   ****      default:
 899:.\imu_i2c.c   ****      break;
 900:.\imu_i2c.c   ****     
 901:.\imu_i2c.c   ****    }
 902:.\imu_i2c.c   **** }
 903:.\imu_i2c.c   **** _UBYTE IMU_Read_St(void)
 904:.\imu_i2c.c   **** {
 3283              		.loc 1 904 0
 3284              		.cfi_startproc
 3285              		@ args = 0, pretend = 0, frame = 0
 3286              		@ frame_needed = 0, uses_anonymous_args = 0
 3287              		@ link register save eliminated.
 905:.\imu_i2c.c   ****     return(st_IMU);
 906:.\imu_i2c.c   **** }
 3288              		.loc 1 906 0
 3289 0000 014B     		ldr	r3, .L175
 3290 0002 1878     		ldrb	r0, [r3]	@ zero_extendqisi2
ARM GAS  C:\Users\acer\AppData\Local\Temp\ccmxYZNb.s 			page 80


 3291 0004 7047     		bx	lr
 3292              	.L176:
 3293 0006 00BF     		.align	2
 3294              	.L175:
 3295 0008 00000000 		.word	st_IMU
 3296              		.cfi_endproc
 3297              	.LFE13:
 3298              		.size	IMU_Read_St, .-IMU_Read_St
 3299              		.global	test_1
 3300              		.comm	calc_count2,1,1
 3301              		.comm	calc_count,1,1
 3302              		.comm	UP,4,4
 3303              		.comm	UT,4,4
 3304              		.comm	B5,4,4
 3305              		.comm	AC6,2,2
 3306              		.comm	AC5,2,2
 3307              		.comm	AC4,2,2
 3308              		.comm	_oss,2,2
 3309              		.comm	MD,2,2
 3310              		.comm	MC,2,2
 3311              		.comm	MB,2,2
 3312              		.comm	B2,2,2
 3313              		.comm	B1,2,2
 3314              		.comm	AC3,2,2
 3315              		.comm	AC2,2,2
 3316              		.comm	AC1,2,2
 3317              		.comm	Alt_Read_Data,6,1
 3318              		.comm	AltitudeVal,4,4
 3319              		.comm	TemperatureVal,4,4
 3320              		.comm	PressureVal,4,4
 3321              		.global	Pressure0
 3322              		.comm	angles,12,4
 3323              		.comm	MotionVal,36,4
 3324              		.comm	q3,4,4
 3325              		.comm	q2,4,4
 3326              		.comm	q1,4,4
 3327              		.comm	q0,4,4
 3328              		.comm	Mag_Read_Data,7,1
 3329              		.global	MPU9250_Magn_Offset
 3330              		.comm	gyro,6,2
 3331              		.comm	MPU9250_Filter_Mag,54,2
 3332              		.comm	MPU9250_Filter_Acc,54,2
 3333              		.comm	MPU9250_Filter_Gyro,54,2
 3334              		.global	MPU9250_Offset
 3335              		.comm	st_Read,1,1
 3336              		.comm	st_IMU,1,1
 3337              		.global	InBuffer
 3338              		.global	OutBuffer
 3339              		.comm	Gyro_Temp_Acc_Read_Data,14,1
 3340              		.comm	rx_rd_data_ptr,4,4
 3341              		.comm	stI2CMgr,1,1
 3342              		.global	Alt_Calib_Data
 3343              		.global	Pres_Reg
 3344              		.global	Mag_Reg
 3345              		.global	Mag_Calib_Data
 3346              		.global	Gyro_Temp_Acc_Reg
 3347              		.global	Gyro_Calib_Data
ARM GAS  C:\Users\acer\AppData\Local\Temp\ccmxYZNb.s 			page 81


 3348              		.section	.rodata
 3349              		.type	test_1, %object
 3350              		.size	test_1, 1
 3351              	test_1:
 3352 0000 D0       		.byte	-48
 3353              		.type	Pres_Reg, %object
 3354              		.size	Pres_Reg, 11
 3355              	Pres_Reg:
 3356 0001 AA       		.byte	-86
 3357 0002 AC       		.byte	-84
 3358 0003 AE       		.byte	-82
 3359 0004 B0       		.byte	-80
 3360 0005 B2       		.byte	-78
 3361 0006 B4       		.byte	-76
 3362 0007 B6       		.byte	-74
 3363 0008 B8       		.byte	-72
 3364 0009 BA       		.byte	-70
 3365 000a BC       		.byte	-68
 3366 000b BE       		.byte	-66
 3367              		.type	Mag_Reg, %object
 3368              		.size	Mag_Reg, 7
 3369              	Mag_Reg:
 3370 000c 03       		.byte	3
 3371 000d 04       		.byte	4
 3372 000e 05       		.byte	5
 3373 000f 06       		.byte	6
 3374 0010 07       		.byte	7
 3375 0011 08       		.byte	8
 3376 0012 09       		.byte	9
 3377              		.data
 3378              		.align	2
 3379              		.set	.LANCHOR1,. + 0
 3380              		.type	Gyro_Calib_Data, %object
 3381              		.size	Gyro_Calib_Data, 14
 3382              	Gyro_Calib_Data:
 3383 0000 19       		.byte	25
 3384 0001 07       		.byte	7
 3385 0002 1A       		.byte	26
 3386 0003 06       		.byte	6
 3387 0004 1B       		.byte	27
 3388 0005 10       		.byte	16
 3389 0006 1C       		.byte	28
 3390 0007 00       		.byte	0
 3391 0008 37       		.byte	55
 3392 0009 02       		.byte	2
 3393 000a 6B       		.byte	107
 3394 000b 00       		.byte	0
 3395 000c 0000     		.space	2
 3396              		.type	Gyro_Temp_Acc_Reg, %object
 3397              		.size	Gyro_Temp_Acc_Reg, 14
 3398              	Gyro_Temp_Acc_Reg:
 3399 000e 3B       		.byte	59
 3400 000f 3C       		.byte	60
 3401 0010 3D       		.byte	61
 3402 0011 3E       		.byte	62
 3403 0012 3F       		.byte	63
 3404 0013 40       		.byte	64
ARM GAS  C:\Users\acer\AppData\Local\Temp\ccmxYZNb.s 			page 82


 3405 0014 41       		.byte	65
 3406 0015 42       		.byte	66
 3407 0016 43       		.byte	67
 3408 0017 44       		.byte	68
 3409 0018 45       		.byte	69
 3410 0019 46       		.byte	70
 3411 001a 47       		.byte	71
 3412 001b 48       		.byte	72
 3413              		.type	Mag_Calib_Data, %object
 3414              		.size	Mag_Calib_Data, 8
 3415              	Mag_Calib_Data:
 3416 001c 0A       		.byte	10
 3417 001d 16       		.byte	22
 3418 001e 00       		.byte	0
 3419 001f 00       		.byte	0
 3420 0020 00       		.byte	0
 3421 0021 00       		.byte	0
 3422 0022 00       		.byte	0
 3423 0023 00       		.byte	0
 3424              		.type	Alt_Calib_Data, %object
 3425              		.size	Alt_Calib_Data, 4
 3426              	Alt_Calib_Data:
 3427 0024 F4       		.byte	-12
 3428 0025 2E       		.byte	46
 3429 0026 F4       		.byte	-12
 3430 0027 74       		.byte	116
 3431              		.type	Pressure0, %object
 3432              		.size	Pressure0, 4
 3433              	Pressure0:
 3434 0028 CD8B0100 		.word	101325
 3435              		.bss
 3436              		.align	2
 3437              		.set	.LANCHOR0,. + 0
 3438              		.type	i2c_timeout.6314, %object
 3439              		.size	i2c_timeout.6314, 1
 3440              	i2c_timeout.6314:
 3441 0000 00       		.space	1
 3442              		.type	rx_Slv_add, %object
 3443              		.size	rx_Slv_add, 1
 3444              	rx_Slv_add:
 3445 0001 00       		.space	1
 3446              		.type	rx_Slv_dta_lnt, %object
 3447              		.size	rx_Slv_dta_lnt, 1
 3448              	rx_Slv_dta_lnt:
 3449 0002 00       		.space	1
 3450              		.type	temp_rx_slv_reg, %object
 3451              		.size	temp_rx_slv_reg, 1
 3452              	temp_rx_slv_reg:
 3453 0003 00       		.space	1
 3454              		.type	Gyro_Temp_Check_Data.6343, %object
 3455              		.size	Gyro_Temp_Check_Data.6343, 1
 3456              	Gyro_Temp_Check_Data.6343:
 3457 0004 00       		.space	1
 3458 0005 00       		.space	1
 3459              		.type	InBuffer, %object
 3460              		.size	InBuffer, 6
 3461              	InBuffer:
ARM GAS  C:\Users\acer\AppData\Local\Temp\ccmxYZNb.s 			page 83


 3462 0006 00000000 		.space	6
 3462      0000
 3463              		.type	OutBuffer, %object
 3464              		.size	OutBuffer, 12
 3465              	OutBuffer:
 3466 000c 00000000 		.space	12
 3466      00000000 
 3466      00000000 
 3467              		.type	MPU9250_Offset, %object
 3468              		.size	MPU9250_Offset, 6
 3469              	MPU9250_Offset:
 3470 0018 00000000 		.space	6
 3470      0000
 3471 001e 0000     		.space	2
 3472              		.type	TempGx.6337, %object
 3473              		.size	TempGx.6337, 4
 3474              	TempGx.6337:
 3475 0020 00000000 		.space	4
 3476              		.type	TempGy.6338, %object
 3477              		.size	TempGy.6338, 4
 3478              	TempGy.6338:
 3479 0024 00000000 		.space	4
 3480              		.type	TempGz.6339, %object
 3481              		.size	TempGz.6339, 4
 3482              	TempGz.6339:
 3483 0028 00000000 		.space	4
 3484              		.type	MPU9250_Magn_Offset, %object
 3485              		.size	MPU9250_Magn_Offset, 6
 3486              	MPU9250_Magn_Offset:
 3487 002c 00000000 		.space	6
 3487      0000
 3488              		.type	Pres_Read_data.6340, %object
 3489              		.size	Pres_Read_data.6340, 22
 3490              	Pres_Read_data.6340:
 3491 0032 00000000 		.space	22
 3491      00000000 
 3491      00000000 
 3491      00000000 
 3491      00000000 
 3492              		.type	Sum.6341, %object
 3493              		.size	Sum.6341, 4
 3494              	Sum.6341:
 3495 0048 00000000 		.space	4
 3496              		.type	accel.6372, %object
 3497              		.size	accel.6372, 6
 3498              	accel.6372:
 3499 004c 00000000 		.space	6
 3499      0000
 3500              		.type	magn.6373, %object
 3501              		.size	magn.6373, 6
 3502              	magn.6373:
 3503 0052 00000000 		.space	6
 3503      0000
 3504              		.type	BMP180_Filter.6377, %object
 3505              		.size	BMP180_Filter.6377, 108
 3506              	BMP180_Filter.6377:
 3507 0058 00000000 		.space	108
ARM GAS  C:\Users\acer\AppData\Local\Temp\ccmxYZNb.s 			page 84


 3507      00000000 
 3507      00000000 
 3507      00000000 
 3507      00000000 
 3508              		.text
 3509              	.Letext0:
 3510              		.file 2 "c:\\program files\\cypress\\psoc creator\\3.3\\psoc creator\\import\\gnu\\arm\\4.9.3\\arm
 3511              		.file 3 "c:\\program files\\cypress\\psoc creator\\3.3\\psoc creator\\import\\gnu\\arm\\4.9.3\\arm
 3512              		.file 4 "Generated_Source\\PSoC5/cytypes.h"
 3513              		.file 5 ".\\type_def.h"
 3514              		.file 6 ".\\imu_i2c.h"
 3515              		.file 7 "Generated_Source\\PSoC5/I2C_1.h"
 3516              		.file 8 "c:\\program files\\cypress\\psoc creator\\3.3\\psoc creator\\import\\gnu\\arm\\4.9.3\\arm
 3517              		.section	.debug_info,"",%progbits
 3518              	.Ldebug_info0:
 3519 0000 DA140000 		.4byte	0x14da
 3520 0004 0400     		.2byte	0x4
 3521 0006 00000000 		.4byte	.Ldebug_abbrev0
 3522 000a 04       		.byte	0x4
 3523 000b 01       		.uleb128 0x1
 3524 000c F3010000 		.4byte	.LASF126
 3525 0010 01       		.byte	0x1
 3526 0011 0D050000 		.4byte	.LASF127
 3527 0015 DB030000 		.4byte	.LASF128
 3528 0019 00000000 		.4byte	.Ldebug_ranges0+0
 3529 001d 00000000 		.4byte	0
 3530 0021 00000000 		.4byte	.Ldebug_line0
 3531 0025 02       		.uleb128 0x2
 3532 0026 04       		.byte	0x4
 3533 0027 04       		.byte	0x4
 3534 0028 DA000000 		.4byte	.LASF0
 3535 002c 02       		.uleb128 0x2
 3536 002d 08       		.byte	0x8
 3537 002e 04       		.byte	0x4
 3538 002f 3C060000 		.4byte	.LASF1
 3539 0033 02       		.uleb128 0x2
 3540 0034 01       		.byte	0x1
 3541 0035 06       		.byte	0x6
 3542 0036 F2050000 		.4byte	.LASF2
 3543 003a 03       		.uleb128 0x3
 3544 003b EB040000 		.4byte	.LASF11
 3545 003f 02       		.byte	0x2
 3546 0040 1D       		.byte	0x1d
 3547 0041 45000000 		.4byte	0x45
 3548 0045 02       		.uleb128 0x2
 3549 0046 01       		.byte	0x1
 3550 0047 08       		.byte	0x8
 3551 0048 8D050000 		.4byte	.LASF3
 3552 004c 02       		.uleb128 0x2
 3553 004d 02       		.byte	0x2
 3554 004e 05       		.byte	0x5
 3555 004f 7A040000 		.4byte	.LASF4
 3556 0053 02       		.uleb128 0x2
 3557 0054 02       		.byte	0x2
 3558 0055 07       		.byte	0x7
 3559 0056 09060000 		.4byte	.LASF5
 3560 005a 02       		.uleb128 0x2
ARM GAS  C:\Users\acer\AppData\Local\Temp\ccmxYZNb.s 			page 85


 3561 005b 04       		.byte	0x4
 3562 005c 05       		.byte	0x5
 3563 005d A6040000 		.4byte	.LASF6
 3564 0061 02       		.uleb128 0x2
 3565 0062 04       		.byte	0x4
 3566 0063 07       		.byte	0x7
 3567 0064 55050000 		.4byte	.LASF7
 3568 0068 02       		.uleb128 0x2
 3569 0069 08       		.byte	0x8
 3570 006a 05       		.byte	0x5
 3571 006b EA020000 		.4byte	.LASF8
 3572 006f 02       		.uleb128 0x2
 3573 0070 08       		.byte	0x8
 3574 0071 07       		.byte	0x7
 3575 0072 08010000 		.4byte	.LASF9
 3576 0076 04       		.uleb128 0x4
 3577 0077 04       		.byte	0x4
 3578 0078 05       		.byte	0x5
 3579 0079 696E7400 		.ascii	"int\000"
 3580 007d 02       		.uleb128 0x2
 3581 007e 04       		.byte	0x4
 3582 007f 07       		.byte	0x7
 3583 0080 42000000 		.4byte	.LASF10
 3584 0084 03       		.uleb128 0x3
 3585 0085 BE020000 		.4byte	.LASF12
 3586 0089 03       		.byte	0x3
 3587 008a 15       		.byte	0x15
 3588 008b 3A000000 		.4byte	0x3a
 3589 008f 03       		.uleb128 0x3
 3590 0090 36060000 		.4byte	.LASF13
 3591 0094 04       		.byte	0x4
 3592 0095 A1       		.byte	0xa1
 3593 0096 45000000 		.4byte	0x45
 3594 009a 02       		.uleb128 0x2
 3595 009b 01       		.byte	0x1
 3596 009c 08       		.byte	0x8
 3597 009d 8D020000 		.4byte	.LASF14
 3598 00a1 02       		.uleb128 0x2
 3599 00a2 04       		.byte	0x4
 3600 00a3 07       		.byte	0x7
 3601 00a4 40050000 		.4byte	.LASF15
 3602 00a8 03       		.uleb128 0x3
 3603 00a9 B6010000 		.4byte	.LASF16
 3604 00ad 05       		.byte	0x5
 3605 00ae 0F       		.byte	0xf
 3606 00af 45000000 		.4byte	0x45
 3607 00b3 03       		.uleb128 0x3
 3608 00b4 6D060000 		.4byte	.LASF17
 3609 00b8 05       		.byte	0x5
 3610 00b9 10       		.byte	0x10
 3611 00ba 45000000 		.4byte	0x45
 3612 00be 03       		.uleb128 0x3
 3613 00bf 68000000 		.4byte	.LASF18
 3614 00c3 05       		.byte	0x5
 3615 00c4 17       		.byte	0x17
 3616 00c5 53000000 		.4byte	0x53
 3617 00c9 03       		.uleb128 0x3
ARM GAS  C:\Users\acer\AppData\Local\Temp\ccmxYZNb.s 			page 86


 3618 00ca BC050000 		.4byte	.LASF19
 3619 00ce 05       		.byte	0x5
 3620 00cf 1A       		.byte	0x1a
 3621 00d0 4C000000 		.4byte	0x4c
 3622 00d4 03       		.uleb128 0x3
 3623 00d5 1F010000 		.4byte	.LASF20
 3624 00d9 05       		.byte	0x5
 3625 00da 1C       		.byte	0x1c
 3626 00db 61000000 		.4byte	0x61
 3627 00df 03       		.uleb128 0x3
 3628 00e0 65060000 		.4byte	.LASF21
 3629 00e4 05       		.byte	0x5
 3630 00e5 1F       		.byte	0x1f
 3631 00e6 5A000000 		.4byte	0x5a
 3632 00ea 02       		.uleb128 0x2
 3633 00eb 08       		.byte	0x8
 3634 00ec 04       		.byte	0x4
 3635 00ed 1D040000 		.4byte	.LASF22
 3636 00f1 05       		.uleb128 0x5
 3637 00f2 06       		.byte	0x6
 3638 00f3 06       		.byte	0x6
 3639 00f4 64       		.byte	0x64
 3640 00f5 18010000 		.4byte	0x118
 3641 00f9 06       		.uleb128 0x6
 3642 00fa 5800     		.ascii	"X\000"
 3643 00fc 06       		.byte	0x6
 3644 00fd 66       		.byte	0x66
 3645 00fe C9000000 		.4byte	0xc9
 3646 0102 00       		.byte	0
 3647 0103 06       		.uleb128 0x6
 3648 0104 5900     		.ascii	"Y\000"
 3649 0106 06       		.byte	0x6
 3650 0107 67       		.byte	0x67
 3651 0108 C9000000 		.4byte	0xc9
 3652 010c 02       		.byte	0x2
 3653 010d 06       		.uleb128 0x6
 3654 010e 5A00     		.ascii	"Z\000"
 3655 0110 06       		.byte	0x6
 3656 0111 68       		.byte	0x68
 3657 0112 C9000000 		.4byte	0xc9
 3658 0116 04       		.byte	0x4
 3659 0117 00       		.byte	0
 3660 0118 03       		.uleb128 0x3
 3661 0119 EA000000 		.4byte	.LASF23
 3662 011d 06       		.byte	0x6
 3663 011e 69       		.byte	0x69
 3664 011f F1000000 		.4byte	0xf1
 3665 0123 05       		.uleb128 0x5
 3666 0124 06       		.byte	0x6
 3667 0125 06       		.byte	0x6
 3668 0126 6B       		.byte	0x6b
 3669 0127 50010000 		.4byte	0x150
 3670 012b 07       		.uleb128 0x7
 3671 012c 2A050000 		.4byte	.LASF24
 3672 0130 06       		.byte	0x6
 3673 0131 6D       		.byte	0x6d
 3674 0132 C9000000 		.4byte	0xc9
ARM GAS  C:\Users\acer\AppData\Local\Temp\ccmxYZNb.s 			page 87


 3675 0136 00       		.byte	0
 3676 0137 07       		.uleb128 0x7
 3677 0138 38000000 		.4byte	.LASF25
 3678 013c 06       		.byte	0x6
 3679 013d 6E       		.byte	0x6e
 3680 013e C9000000 		.4byte	0xc9
 3681 0142 02       		.byte	0x2
 3682 0143 07       		.uleb128 0x7
 3683 0144 C5010000 		.4byte	.LASF26
 3684 0148 06       		.byte	0x6
 3685 0149 6F       		.byte	0x6f
 3686 014a C9000000 		.4byte	0xc9
 3687 014e 04       		.byte	0x4
 3688 014f 00       		.byte	0
 3689 0150 03       		.uleb128 0x3
 3690 0151 CE020000 		.4byte	.LASF27
 3691 0155 06       		.byte	0x6
 3692 0156 70       		.byte	0x70
 3693 0157 23010000 		.4byte	0x123
 3694 015b 05       		.uleb128 0x5
 3695 015c 12       		.byte	0x12
 3696 015d 06       		.byte	0x6
 3697 015e 72       		.byte	0x72
 3698 015f 7C010000 		.4byte	0x17c
 3699 0163 07       		.uleb128 0x7
 3700 0164 ED010000 		.4byte	.LASF28
 3701 0168 06       		.byte	0x6
 3702 0169 74       		.byte	0x74
 3703 016a B3000000 		.4byte	0xb3
 3704 016e 00       		.byte	0
 3705 016f 07       		.uleb128 0x7
 3706 0170 75000000 		.4byte	.LASF29
 3707 0174 06       		.byte	0x6
 3708 0175 75       		.byte	0x75
 3709 0176 7C010000 		.4byte	0x17c
 3710 017a 02       		.byte	0x2
 3711 017b 00       		.byte	0
 3712 017c 08       		.uleb128 0x8
 3713 017d C9000000 		.4byte	0xc9
 3714 0181 8C010000 		.4byte	0x18c
 3715 0185 09       		.uleb128 0x9
 3716 0186 A1000000 		.4byte	0xa1
 3717 018a 07       		.byte	0x7
 3718 018b 00       		.byte	0
 3719 018c 03       		.uleb128 0x3
 3720 018d 23060000 		.4byte	.LASF30
 3721 0191 06       		.byte	0x6
 3722 0192 76       		.byte	0x76
 3723 0193 5B010000 		.4byte	0x15b
 3724 0197 05       		.uleb128 0x5
 3725 0198 24       		.byte	0x24
 3726 0199 06       		.byte	0x6
 3727 019a D8       		.byte	0xd8
 3728 019b B8010000 		.4byte	0x1b8
 3729 019f 07       		.uleb128 0x7
 3730 01a0 ED010000 		.4byte	.LASF28
 3731 01a4 06       		.byte	0x6
ARM GAS  C:\Users\acer\AppData\Local\Temp\ccmxYZNb.s 			page 88


 3732 01a5 DA       		.byte	0xda
 3733 01a6 B3000000 		.4byte	0xb3
 3734 01aa 00       		.byte	0
 3735 01ab 07       		.uleb128 0x7
 3736 01ac 75000000 		.4byte	.LASF29
 3737 01b0 06       		.byte	0x6
 3738 01b1 DB       		.byte	0xdb
 3739 01b2 B8010000 		.4byte	0x1b8
 3740 01b6 04       		.byte	0x4
 3741 01b7 00       		.byte	0
 3742 01b8 08       		.uleb128 0x8
 3743 01b9 DF000000 		.4byte	0xdf
 3744 01bd C8010000 		.4byte	0x1c8
 3745 01c1 09       		.uleb128 0x9
 3746 01c2 A1000000 		.4byte	0xa1
 3747 01c6 07       		.byte	0x7
 3748 01c7 00       		.byte	0
 3749 01c8 03       		.uleb128 0x3
 3750 01c9 29040000 		.4byte	.LASF31
 3751 01cd 06       		.byte	0x6
 3752 01ce DC       		.byte	0xdc
 3753 01cf 97010000 		.4byte	0x197
 3754 01d3 0A       		.uleb128 0xa
 3755 01d4 B2030000 		.4byte	.LASF35
 3756 01d8 01       		.byte	0x1
 3757 01d9 8D       		.byte	0x8d
 3758 01da A8000000 		.4byte	0xa8
 3759 01de 01       		.byte	0x1
 3760 01df 05020000 		.4byte	0x205
 3761 01e3 0B       		.uleb128 0xb
 3762 01e4 D8050000 		.4byte	.LASF32
 3763 01e8 01       		.byte	0x1
 3764 01e9 8D       		.byte	0x8d
 3765 01ea B3000000 		.4byte	0xb3
 3766 01ee 0B       		.uleb128 0xb
 3767 01ef 27010000 		.4byte	.LASF33
 3768 01f3 01       		.byte	0x1
 3769 01f4 8D       		.byte	0x8d
 3770 01f5 05020000 		.4byte	0x205
 3771 01f9 0B       		.uleb128 0xb
 3772 01fa 7B050000 		.4byte	.LASF34
 3773 01fe 01       		.byte	0x1
 3774 01ff 8D       		.byte	0x8d
 3775 0200 B3000000 		.4byte	0xb3
 3776 0204 00       		.byte	0
 3777 0205 0C       		.uleb128 0xc
 3778 0206 04       		.byte	0x4
 3779 0207 B3000000 		.4byte	0xb3
 3780 020b 0A       		.uleb128 0xa
 3781 020c D7010000 		.4byte	.LASF36
 3782 0210 01       		.byte	0x1
 3783 0211 9E       		.byte	0x9e
 3784 0212 A8000000 		.4byte	0xa8
 3785 0216 01       		.byte	0x1
 3786 0217 48020000 		.4byte	0x248
 3787 021b 0B       		.uleb128 0xb
 3788 021c D8050000 		.4byte	.LASF32
ARM GAS  C:\Users\acer\AppData\Local\Temp\ccmxYZNb.s 			page 89


 3789 0220 01       		.byte	0x1
 3790 0221 9E       		.byte	0x9e
 3791 0222 B3000000 		.4byte	0xb3
 3792 0226 0B       		.uleb128 0xb
 3793 0227 AE050000 		.4byte	.LASF37
 3794 022b 01       		.byte	0x1
 3795 022c 9E       		.byte	0x9e
 3796 022d B3000000 		.4byte	0xb3
 3797 0231 0B       		.uleb128 0xb
 3798 0232 22000000 		.4byte	.LASF38
 3799 0236 01       		.byte	0x1
 3800 0237 9E       		.byte	0x9e
 3801 0238 05020000 		.4byte	0x205
 3802 023c 0B       		.uleb128 0xb
 3803 023d 7B050000 		.4byte	.LASF34
 3804 0241 01       		.byte	0x1
 3805 0242 9E       		.byte	0x9e
 3806 0243 B3000000 		.4byte	0xb3
 3807 0247 00       		.byte	0
 3808 0248 0D       		.uleb128 0xd
 3809 0249 CF010000 		.4byte	.LASF39
 3810 024d 01       		.byte	0x1
 3811 024e 42       		.byte	0x42
 3812 024f 00000000 		.4byte	.LFB0
 3813 0253 98000000 		.4byte	.LFE0-.LFB0
 3814 0257 01       		.uleb128 0x1
 3815 0258 9C       		.byte	0x9c
 3816 0259 9D020000 		.4byte	0x29d
 3817 025d 0E       		.uleb128 0xe
 3818 025e 34050000 		.4byte	.LASF45
 3819 0262 01       		.byte	0x1
 3820 0263 44       		.byte	0x44
 3821 0264 45000000 		.4byte	0x45
 3822 0268 05       		.uleb128 0x5
 3823 0269 03       		.byte	0x3
 3824 026a 00000000 		.4byte	i2c_timeout.6314
 3825 026e 0F       		.uleb128 0xf
 3826 026f 1A000000 		.4byte	.LVL0
 3827 0273 1F140000 		.4byte	0x141f
 3828 0277 0F       		.uleb128 0xf
 3829 0278 30000000 		.4byte	.LVL1
 3830 027c 1F140000 		.4byte	0x141f
 3831 0280 10       		.uleb128 0x10
 3832 0281 46000000 		.4byte	.LVL2
 3833 0285 2A140000 		.4byte	0x142a
 3834 0289 93020000 		.4byte	0x293
 3835 028d 11       		.uleb128 0x11
 3836 028e 01       		.uleb128 0x1
 3837 028f 53       		.byte	0x53
 3838 0290 01       		.uleb128 0x1
 3839 0291 31       		.byte	0x31
 3840 0292 00       		.byte	0
 3841 0293 0F       		.uleb128 0xf
 3842 0294 64000000 		.4byte	.LVL3
 3843 0298 1F140000 		.4byte	0x141f
 3844 029c 00       		.byte	0
 3845 029d 12       		.uleb128 0x12
ARM GAS  C:\Users\acer\AppData\Local\Temp\ccmxYZNb.s 			page 90


 3846 029e D3010000 		.4byte	0x1d3
 3847 02a2 00000000 		.4byte	.LFB1
 3848 02a6 38000000 		.4byte	.LFE1-.LFB1
 3849 02aa 01       		.uleb128 0x1
 3850 02ab 9C       		.byte	0x9c
 3851 02ac 1C030000 		.4byte	0x31c
 3852 02b0 13       		.uleb128 0x13
 3853 02b1 E3010000 		.4byte	0x1e3
 3854 02b5 00000000 		.4byte	.LLST0
 3855 02b9 13       		.uleb128 0x13
 3856 02ba EE010000 		.4byte	0x1ee
 3857 02be 21000000 		.4byte	.LLST1
 3858 02c2 13       		.uleb128 0x13
 3859 02c3 F9010000 		.4byte	0x1f9
 3860 02c7 4A000000 		.4byte	.LLST2
 3861 02cb 14       		.uleb128 0x14
 3862 02cc 14000000 		.4byte	.LBB4
 3863 02d0 18000000 		.4byte	.LBE4-.LBB4
 3864 02d4 13       		.uleb128 0x13
 3865 02d5 F9010000 		.4byte	0x1f9
 3866 02d9 76000000 		.4byte	.LLST3
 3867 02dd 13       		.uleb128 0x13
 3868 02de EE010000 		.4byte	0x1ee
 3869 02e2 89000000 		.4byte	.LLST4
 3870 02e6 13       		.uleb128 0x13
 3871 02e7 E3010000 		.4byte	0x1e3
 3872 02eb A7000000 		.4byte	.LLST5
 3873 02ef 0F       		.uleb128 0xf
 3874 02f0 18000000 		.4byte	.LVL7
 3875 02f4 54140000 		.4byte	0x1454
 3876 02f8 15       		.uleb128 0x15
 3877 02f9 24000000 		.4byte	.LVL8
 3878 02fd 5F140000 		.4byte	0x145f
 3879 0301 11       		.uleb128 0x11
 3880 0302 01       		.uleb128 0x1
 3881 0303 53       		.byte	0x53
 3882 0304 02       		.uleb128 0x2
 3883 0305 75       		.byte	0x75
 3884 0306 00       		.sleb128 0
 3885 0307 11       		.uleb128 0x11
 3886 0308 01       		.uleb128 0x1
 3887 0309 52       		.byte	0x52
 3888 030a 02       		.uleb128 0x2
 3889 030b 76       		.byte	0x76
 3890 030c 00       		.sleb128 0
 3891 030d 11       		.uleb128 0x11
 3892 030e 01       		.uleb128 0x1
 3893 030f 51       		.byte	0x51
 3894 0310 02       		.uleb128 0x2
 3895 0311 77       		.byte	0x77
 3896 0312 00       		.sleb128 0
 3897 0313 11       		.uleb128 0x11
 3898 0314 01       		.uleb128 0x1
 3899 0315 50       		.byte	0x50
 3900 0316 02       		.uleb128 0x2
 3901 0317 78       		.byte	0x78
 3902 0318 00       		.sleb128 0
ARM GAS  C:\Users\acer\AppData\Local\Temp\ccmxYZNb.s 			page 91


 3903 0319 00       		.byte	0
 3904 031a 00       		.byte	0
 3905 031b 00       		.byte	0
 3906 031c 12       		.uleb128 0x12
 3907 031d 0B020000 		.4byte	0x20b
 3908 0321 00000000 		.4byte	.LFB2
 3909 0325 4C000000 		.4byte	.LFE2-.LFB2
 3910 0329 01       		.uleb128 0x1
 3911 032a 9C       		.byte	0x9c
 3912 032b AE030000 		.4byte	0x3ae
 3913 032f 13       		.uleb128 0x13
 3914 0330 1B020000 		.4byte	0x21b
 3915 0334 BA000000 		.4byte	.LLST6
 3916 0338 13       		.uleb128 0x13
 3917 0339 26020000 		.4byte	0x226
 3918 033d F4000000 		.4byte	.LLST7
 3919 0341 13       		.uleb128 0x13
 3920 0342 31020000 		.4byte	0x231
 3921 0346 20010000 		.4byte	.LLST8
 3922 034a 13       		.uleb128 0x13
 3923 034b 3C020000 		.4byte	0x23c
 3924 034f 49010000 		.4byte	.LLST9
 3925 0353 14       		.uleb128 0x14
 3926 0354 12000000 		.4byte	.LBB8
 3927 0358 28000000 		.4byte	.LBE8-.LBB8
 3928 035c 13       		.uleb128 0x13
 3929 035d 3C020000 		.4byte	0x23c
 3930 0361 6A010000 		.4byte	.LLST10
 3931 0365 13       		.uleb128 0x13
 3932 0366 31020000 		.4byte	0x231
 3933 036a 7D010000 		.4byte	.LLST11
 3934 036e 13       		.uleb128 0x13
 3935 036f 26020000 		.4byte	0x226
 3936 0373 9B010000 		.4byte	.LLST12
 3937 0377 13       		.uleb128 0x13
 3938 0378 1B020000 		.4byte	0x21b
 3939 037c AE010000 		.4byte	.LLST13
 3940 0380 0F       		.uleb128 0xf
 3941 0381 16000000 		.4byte	.LVL13
 3942 0385 54140000 		.4byte	0x1454
 3943 0389 15       		.uleb128 0x15
 3944 038a 30000000 		.4byte	.LVL14
 3945 038e 5F140000 		.4byte	0x145f
 3946 0392 11       		.uleb128 0x11
 3947 0393 01       		.uleb128 0x1
 3948 0394 53       		.byte	0x53
 3949 0395 01       		.uleb128 0x1
 3950 0396 32       		.byte	0x32
 3951 0397 11       		.uleb128 0x11
 3952 0398 01       		.uleb128 0x1
 3953 0399 52       		.byte	0x52
 3954 039a 01       		.uleb128 0x1
 3955 039b 31       		.byte	0x31
 3956 039c 11       		.uleb128 0x11
 3957 039d 01       		.uleb128 0x1
 3958 039e 51       		.byte	0x51
 3959 039f 05       		.uleb128 0x5
ARM GAS  C:\Users\acer\AppData\Local\Temp\ccmxYZNb.s 			page 92


 3960 03a0 03       		.byte	0x3
 3961 03a1 03000000 		.4byte	.LANCHOR0+3
 3962 03a5 11       		.uleb128 0x11
 3963 03a6 01       		.uleb128 0x1
 3964 03a7 50       		.byte	0x50
 3965 03a8 02       		.uleb128 0x2
 3966 03a9 76       		.byte	0x76
 3967 03aa 00       		.sleb128 0
 3968 03ab 00       		.byte	0
 3969 03ac 00       		.byte	0
 3970 03ad 00       		.byte	0
 3971 03ae 16       		.uleb128 0x16
 3972 03af C4050000 		.4byte	.LASF40
 3973 03b3 01       		.byte	0x1
 3974 03b4 8B02     		.2byte	0x28b
 3975 03b6 00000000 		.4byte	.LFB5
 3976 03ba 2A000000 		.4byte	.LFE5-.LFB5
 3977 03be 01       		.uleb128 0x1
 3978 03bf 9C       		.byte	0x9c
 3979 03c0 11040000 		.4byte	0x411
 3980 03c4 17       		.uleb128 0x17
 3981 03c5 E4040000 		.4byte	.LASF41
 3982 03c9 01       		.byte	0x1
 3983 03ca 8B02     		.2byte	0x28b
 3984 03cc 05020000 		.4byte	0x205
 3985 03d0 C1010000 		.4byte	.LLST14
 3986 03d4 17       		.uleb128 0x17
 3987 03d5 FE050000 		.4byte	.LASF42
 3988 03d9 01       		.byte	0x1
 3989 03da 8B02     		.2byte	0x28b
 3990 03dc 11040000 		.4byte	0x411
 3991 03e0 E2010000 		.4byte	.LLST15
 3992 03e4 17       		.uleb128 0x17
 3993 03e5 8A030000 		.4byte	.LASF43
 3994 03e9 01       		.byte	0x1
 3995 03ea 8B02     		.2byte	0x28b
 3996 03ec C9000000 		.4byte	0xc9
 3997 03f0 02020000 		.4byte	.LLST16
 3998 03f4 18       		.uleb128 0x18
 3999 03f5 C6020000 		.4byte	.LASF44
 4000 03f9 01       		.byte	0x1
 4001 03fa 8B02     		.2byte	0x28b
 4002 03fc 17040000 		.4byte	0x417
 4003 0400 01       		.uleb128 0x1
 4004 0401 53       		.byte	0x53
 4005 0402 19       		.uleb128 0x19
 4006 0403 6900     		.ascii	"i\000"
 4007 0405 01       		.byte	0x1
 4008 0406 8D02     		.2byte	0x28d
 4009 0408 84000000 		.4byte	0x84
 4010 040c 34020000 		.4byte	.LLST17
 4011 0410 00       		.byte	0
 4012 0411 0C       		.uleb128 0xc
 4013 0412 04       		.byte	0x4
 4014 0413 C9000000 		.4byte	0xc9
 4015 0417 0C       		.uleb128 0xc
 4016 0418 04       		.byte	0x4
ARM GAS  C:\Users\acer\AppData\Local\Temp\ccmxYZNb.s 			page 93


 4017 0419 DF000000 		.4byte	0xdf
 4018 041d 1A       		.uleb128 0x1a
 4019 041e E2020000 		.4byte	.LASF129
 4020 0422 01       		.byte	0x1
 4021 0423 A802     		.2byte	0x2a8
 4022 0425 25000000 		.4byte	0x25
 4023 0429 00000000 		.4byte	.LFB6
 4024 042d 34000000 		.4byte	.LFE6-.LFB6
 4025 0431 01       		.uleb128 0x1
 4026 0432 9C       		.byte	0x9c
 4027 0433 72040000 		.4byte	0x472
 4028 0437 1B       		.uleb128 0x1b
 4029 0438 7800     		.ascii	"x\000"
 4030 043a 01       		.byte	0x1
 4031 043b A802     		.2byte	0x2a8
 4032 043d 25000000 		.4byte	0x25
 4033 0441 48020000 		.4byte	.LLST18
 4034 0445 1C       		.uleb128 0x1c
 4035 0446 A0010000 		.4byte	.LASF46
 4036 044a 01       		.byte	0x1
 4037 044b AA02     		.2byte	0x2aa
 4038 044d 25000000 		.4byte	0x25
 4039 0451 6B020000 		.4byte	.LLST19
 4040 0455 19       		.uleb128 0x19
 4041 0456 7900     		.ascii	"y\000"
 4042 0458 01       		.byte	0x1
 4043 0459 AB02     		.2byte	0x2ab
 4044 045b 25000000 		.4byte	0x25
 4045 045f A1020000 		.4byte	.LLST20
 4046 0463 19       		.uleb128 0x19
 4047 0464 6900     		.ascii	"i\000"
 4048 0466 01       		.byte	0x1
 4049 0467 AE02     		.2byte	0x2ae
 4050 0469 5A000000 		.4byte	0x5a
 4051 046d E3020000 		.4byte	.LLST21
 4052 0471 00       		.byte	0
 4053 0472 1D       		.uleb128 0x1d
 4054 0473 69010000 		.4byte	.LASF47
 4055 0477 01       		.byte	0x1
 4056 0478 C702     		.2byte	0x2c7
 4057 047a 00000000 		.4byte	.LFB7
 4058 047e E0060000 		.4byte	.LFE7-.LFB7
 4059 0482 01       		.uleb128 0x1
 4060 0483 9C       		.byte	0x9c
 4061 0484 EF060000 		.4byte	0x6ef
 4062 0488 1B       		.uleb128 0x1b
 4063 0489 677800   		.ascii	"gx\000"
 4064 048c 01       		.byte	0x1
 4065 048d C702     		.2byte	0x2c7
 4066 048f 25000000 		.4byte	0x25
 4067 0493 0B030000 		.4byte	.LLST22
 4068 0497 1B       		.uleb128 0x1b
 4069 0498 677900   		.ascii	"gy\000"
 4070 049b 01       		.byte	0x1
 4071 049c C702     		.2byte	0x2c7
 4072 049e 25000000 		.4byte	0x25
 4073 04a2 43030000 		.4byte	.LLST23
ARM GAS  C:\Users\acer\AppData\Local\Temp\ccmxYZNb.s 			page 94


 4074 04a6 1B       		.uleb128 0x1b
 4075 04a7 677A00   		.ascii	"gz\000"
 4076 04aa 01       		.byte	0x1
 4077 04ab C702     		.2byte	0x2c7
 4078 04ad 25000000 		.4byte	0x25
 4079 04b1 7B030000 		.4byte	.LLST24
 4080 04b5 1B       		.uleb128 0x1b
 4081 04b6 617800   		.ascii	"ax\000"
 4082 04b9 01       		.byte	0x1
 4083 04ba C702     		.2byte	0x2c7
 4084 04bc 25000000 		.4byte	0x25
 4085 04c0 9B030000 		.4byte	.LLST25
 4086 04c4 1B       		.uleb128 0x1b
 4087 04c5 617900   		.ascii	"ay\000"
 4088 04c8 01       		.byte	0x1
 4089 04c9 C702     		.2byte	0x2c7
 4090 04cb 25000000 		.4byte	0x25
 4091 04cf E5030000 		.4byte	.LLST26
 4092 04d3 1B       		.uleb128 0x1b
 4093 04d4 617A00   		.ascii	"az\000"
 4094 04d7 01       		.byte	0x1
 4095 04d8 C702     		.2byte	0x2c7
 4096 04da 25000000 		.4byte	0x25
 4097 04de 1E040000 		.4byte	.LLST27
 4098 04e2 1B       		.uleb128 0x1b
 4099 04e3 6D7800   		.ascii	"mx\000"
 4100 04e6 01       		.byte	0x1
 4101 04e7 C702     		.2byte	0x2c7
 4102 04e9 25000000 		.4byte	0x25
 4103 04ed 55040000 		.4byte	.LLST28
 4104 04f1 1B       		.uleb128 0x1b
 4105 04f2 6D7900   		.ascii	"my\000"
 4106 04f5 01       		.byte	0x1
 4107 04f6 C702     		.2byte	0x2c7
 4108 04f8 25000000 		.4byte	0x25
 4109 04fc 8E040000 		.4byte	.LLST29
 4110 0500 1B       		.uleb128 0x1b
 4111 0501 6D7A00   		.ascii	"mz\000"
 4112 0504 01       		.byte	0x1
 4113 0505 C702     		.2byte	0x2c7
 4114 0507 25000000 		.4byte	0x25
 4115 050b C7040000 		.4byte	.LLST30
 4116 050f 1C       		.uleb128 0x1c
 4117 0510 3B040000 		.4byte	.LASF48
 4118 0514 01       		.byte	0x1
 4119 0515 C902     		.2byte	0x2c9
 4120 0517 25000000 		.4byte	0x25
 4121 051b 00050000 		.4byte	.LLST31
 4122 051f 19       		.uleb128 0x19
 4123 0520 687800   		.ascii	"hx\000"
 4124 0523 01       		.byte	0x1
 4125 0524 CA02     		.2byte	0x2ca
 4126 0526 25000000 		.4byte	0x25
 4127 052a 4A050000 		.4byte	.LLST32
 4128 052e 19       		.uleb128 0x19
 4129 052f 687900   		.ascii	"hy\000"
 4130 0532 01       		.byte	0x1
ARM GAS  C:\Users\acer\AppData\Local\Temp\ccmxYZNb.s 			page 95


 4131 0533 CA02     		.2byte	0x2ca
 4132 0535 25000000 		.4byte	0x25
 4133 0539 6A050000 		.4byte	.LLST33
 4134 053d 19       		.uleb128 0x19
 4135 053e 687A00   		.ascii	"hz\000"
 4136 0541 01       		.byte	0x1
 4137 0542 CA02     		.2byte	0x2ca
 4138 0544 25000000 		.4byte	0x25
 4139 0548 7F050000 		.4byte	.LLST34
 4140 054c 19       		.uleb128 0x19
 4141 054d 627800   		.ascii	"bx\000"
 4142 0550 01       		.byte	0x1
 4143 0551 CA02     		.2byte	0x2ca
 4144 0553 25000000 		.4byte	0x25
 4145 0557 DF050000 		.4byte	.LLST35
 4146 055b 19       		.uleb128 0x19
 4147 055c 627A00   		.ascii	"bz\000"
 4148 055f 01       		.byte	0x1
 4149 0560 CA02     		.2byte	0x2ca
 4150 0562 25000000 		.4byte	0x25
 4151 0566 FA050000 		.4byte	.LLST36
 4152 056a 19       		.uleb128 0x19
 4153 056b 767800   		.ascii	"vx\000"
 4154 056e 01       		.byte	0x1
 4155 056f CB02     		.2byte	0x2cb
 4156 0571 25000000 		.4byte	0x25
 4157 0575 2E060000 		.4byte	.LLST37
 4158 0579 19       		.uleb128 0x19
 4159 057a 767900   		.ascii	"vy\000"
 4160 057d 01       		.byte	0x1
 4161 057e CB02     		.2byte	0x2cb
 4162 0580 25000000 		.4byte	0x25
 4163 0584 66060000 		.4byte	.LLST38
 4164 0588 19       		.uleb128 0x19
 4165 0589 767A00   		.ascii	"vz\000"
 4166 058c 01       		.byte	0x1
 4167 058d CB02     		.2byte	0x2cb
 4168 058f 25000000 		.4byte	0x25
 4169 0593 93060000 		.4byte	.LLST39
 4170 0597 19       		.uleb128 0x19
 4171 0598 777800   		.ascii	"wx\000"
 4172 059b 01       		.byte	0x1
 4173 059c CB02     		.2byte	0x2cb
 4174 059e 25000000 		.4byte	0x25
 4175 05a2 C0060000 		.4byte	.LLST40
 4176 05a6 19       		.uleb128 0x19
 4177 05a7 777900   		.ascii	"wy\000"
 4178 05aa 01       		.byte	0x1
 4179 05ab CB02     		.2byte	0x2cb
 4180 05ad 25000000 		.4byte	0x25
 4181 05b1 3E070000 		.4byte	.LLST41
 4182 05b5 19       		.uleb128 0x19
 4183 05b6 777A00   		.ascii	"wz\000"
 4184 05b9 01       		.byte	0x1
 4185 05ba CB02     		.2byte	0x2cb
 4186 05bc 25000000 		.4byte	0x25
 4187 05c0 6B070000 		.4byte	.LLST42
ARM GAS  C:\Users\acer\AppData\Local\Temp\ccmxYZNb.s 			page 96


 4188 05c4 1C       		.uleb128 0x1c
 4189 05c5 48010000 		.4byte	.LASF49
 4190 05c9 01       		.byte	0x1
 4191 05ca CC02     		.2byte	0x2cc
 4192 05cc 25000000 		.4byte	0x25
 4193 05d0 98070000 		.4byte	.LLST43
 4194 05d4 1C       		.uleb128 0x1c
 4195 05d5 B6050000 		.4byte	.LASF50
 4196 05d9 01       		.byte	0x1
 4197 05da CC02     		.2byte	0x2cc
 4198 05dc 25000000 		.4byte	0x25
 4199 05e0 D0070000 		.4byte	.LLST44
 4200 05e4 1C       		.uleb128 0x1c
 4201 05e5 92020000 		.4byte	.LASF51
 4202 05e9 01       		.byte	0x1
 4203 05ea CC02     		.2byte	0x2cc
 4204 05ec 25000000 		.4byte	0x25
 4205 05f0 06080000 		.4byte	.LLST45
 4206 05f4 19       		.uleb128 0x19
 4207 05f5 657800   		.ascii	"ex\000"
 4208 05f8 01       		.byte	0x1
 4209 05f9 CD02     		.2byte	0x2cd
 4210 05fb 25000000 		.4byte	0x25
 4211 05ff 3C080000 		.4byte	.LLST46
 4212 0603 1E       		.uleb128 0x1e
 4213 0604 657900   		.ascii	"ey\000"
 4214 0607 01       		.byte	0x1
 4215 0608 CD02     		.2byte	0x2cd
 4216 060a 25000000 		.4byte	0x25
 4217 060e 1E       		.uleb128 0x1e
 4218 060f 657A00   		.ascii	"ez\000"
 4219 0612 01       		.byte	0x1
 4220 0613 CD02     		.2byte	0x2cd
 4221 0615 25000000 		.4byte	0x25
 4222 0619 1F       		.uleb128 0x1f
 4223 061a 63010000 		.4byte	.LASF52
 4224 061e 01       		.byte	0x1
 4225 061f CD02     		.2byte	0x2cd
 4226 0621 25000000 		.4byte	0x25
 4227 0625 04       		.byte	0x4
 4228 0626 A69BC43C 		.4byte	0x3cc49ba6
 4229 062a 1C       		.uleb128 0x1c
 4230 062b 2E010000 		.4byte	.LASF53
 4231 062f 01       		.byte	0x1
 4232 0630 CF02     		.2byte	0x2cf
 4233 0632 25000000 		.4byte	0x25
 4234 0636 67080000 		.4byte	.LLST47
 4235 063a 1C       		.uleb128 0x1c
 4236 063b 33010000 		.4byte	.LASF54
 4237 063f 01       		.byte	0x1
 4238 0640 D002     		.2byte	0x2d0
 4239 0642 25000000 		.4byte	0x25
 4240 0646 92080000 		.4byte	.LLST48
 4241 064a 1C       		.uleb128 0x1c
 4242 064b 38010000 		.4byte	.LASF55
 4243 064f 01       		.byte	0x1
 4244 0650 D102     		.2byte	0x2d1
ARM GAS  C:\Users\acer\AppData\Local\Temp\ccmxYZNb.s 			page 97


 4245 0652 25000000 		.4byte	0x25
 4246 0656 B2080000 		.4byte	.LLST49
 4247 065a 1C       		.uleb128 0x1c
 4248 065b 3D010000 		.4byte	.LASF56
 4249 065f 01       		.byte	0x1
 4250 0660 D202     		.2byte	0x2d2
 4251 0662 25000000 		.4byte	0x25
 4252 0666 D2080000 		.4byte	.LLST50
 4253 066a 1C       		.uleb128 0x1c
 4254 066b 45040000 		.4byte	.LASF57
 4255 066f 01       		.byte	0x1
 4256 0670 D302     		.2byte	0x2d3
 4257 0672 25000000 		.4byte	0x25
 4258 0676 F2080000 		.4byte	.LLST51
 4259 067a 1C       		.uleb128 0x1c
 4260 067b 4A040000 		.4byte	.LASF58
 4261 067f 01       		.byte	0x1
 4262 0680 D402     		.2byte	0x2d4
 4263 0682 25000000 		.4byte	0x25
 4264 0686 12090000 		.4byte	.LLST52
 4265 068a 1C       		.uleb128 0x1c
 4266 068b 4F040000 		.4byte	.LASF59
 4267 068f 01       		.byte	0x1
 4268 0690 D502     		.2byte	0x2d5
 4269 0692 25000000 		.4byte	0x25
 4270 0696 30090000 		.4byte	.LLST53
 4271 069a 1C       		.uleb128 0x1c
 4272 069b 29000000 		.4byte	.LASF60
 4273 069f 01       		.byte	0x1
 4274 06a0 D602     		.2byte	0x2d6
 4275 06a2 25000000 		.4byte	0x25
 4276 06a6 50090000 		.4byte	.LLST54
 4277 06aa 1C       		.uleb128 0x1c
 4278 06ab 2E000000 		.4byte	.LASF61
 4279 06af 01       		.byte	0x1
 4280 06b0 D702     		.2byte	0x2d7
 4281 06b2 25000000 		.4byte	0x25
 4282 06b6 6E090000 		.4byte	.LLST55
 4283 06ba 1C       		.uleb128 0x1c
 4284 06bb B9020000 		.4byte	.LASF62
 4285 06bf 01       		.byte	0x1
 4286 06c0 D802     		.2byte	0x2d8
 4287 06c2 25000000 		.4byte	0x25
 4288 06c6 8C090000 		.4byte	.LLST56
 4289 06ca 0F       		.uleb128 0xf
 4290 06cb C2000000 		.4byte	.LVL70
 4291 06cf 1D040000 		.4byte	0x41d
 4292 06d3 0F       		.uleb128 0xf
 4293 06d4 14010000 		.4byte	.LVL84
 4294 06d8 1D040000 		.4byte	0x41d
 4295 06dc 0F       		.uleb128 0xf
 4296 06dd 30020000 		.4byte	.LVL130
 4297 06e1 83140000 		.4byte	0x1483
 4298 06e5 0F       		.uleb128 0xf
 4299 06e6 AC060000 		.4byte	.LVL267
 4300 06ea 1D040000 		.4byte	0x41d
 4301 06ee 00       		.byte	0
ARM GAS  C:\Users\acer\AppData\Local\Temp\ccmxYZNb.s 			page 98


 4302 06ef 16       		.uleb128 0x16
 4303 06f0 F8020000 		.4byte	.LASF63
 4304 06f4 01       		.byte	0x1
 4305 06f5 1603     		.2byte	0x316
 4306 06f7 00000000 		.4byte	.LFB8
 4307 06fb 4C000000 		.4byte	.LFE8-.LFB8
 4308 06ff 01       		.uleb128 0x1
 4309 0700 9C       		.byte	0x9c
 4310 0701 30070000 		.4byte	0x730
 4311 0705 18       		.uleb128 0x18
 4312 0706 19050000 		.4byte	.LASF64
 4313 070a 01       		.byte	0x1
 4314 070b 1603     		.2byte	0x316
 4315 070d 17040000 		.4byte	0x417
 4316 0711 01       		.uleb128 0x1
 4317 0712 50       		.byte	0x50
 4318 0713 20       		.uleb128 0x20
 4319 0714 583100   		.ascii	"X1\000"
 4320 0717 01       		.byte	0x1
 4321 0718 1803     		.2byte	0x318
 4322 071a DF000000 		.4byte	0xdf
 4323 071e 01       		.uleb128 0x1
 4324 071f 51       		.byte	0x51
 4325 0720 19       		.uleb128 0x19
 4326 0721 583200   		.ascii	"X2\000"
 4327 0724 01       		.byte	0x1
 4328 0725 1803     		.2byte	0x318
 4329 0727 DF000000 		.4byte	0xdf
 4330 072b B9090000 		.4byte	.LLST57
 4331 072f 00       		.byte	0
 4332 0730 16       		.uleb128 0x16
 4333 0731 BD000000 		.4byte	.LASF65
 4334 0735 01       		.byte	0x1
 4335 0736 2403     		.2byte	0x324
 4336 0738 00000000 		.4byte	.LFB9
 4337 073c CC000000 		.4byte	.LFE9-.LFB9
 4338 0740 01       		.uleb128 0x1
 4339 0741 9C       		.byte	0x9c
 4340 0742 DC070000 		.4byte	0x7dc
 4341 0746 18       		.uleb128 0x18
 4342 0747 9F000000 		.4byte	.LASF66
 4343 074b 01       		.byte	0x1
 4344 074c 2403     		.2byte	0x324
 4345 074e 17040000 		.4byte	0x417
 4346 0752 01       		.uleb128 0x1
 4347 0753 50       		.byte	0x50
 4348 0754 19       		.uleb128 0x19
 4349 0755 583100   		.ascii	"X1\000"
 4350 0758 01       		.byte	0x1
 4351 0759 2603     		.2byte	0x326
 4352 075b DF000000 		.4byte	0xdf
 4353 075f 8F0A0000 		.4byte	.LLST58
 4354 0763 19       		.uleb128 0x19
 4355 0764 583200   		.ascii	"X2\000"
 4356 0767 01       		.byte	0x1
 4357 0768 2603     		.2byte	0x326
 4358 076a DF000000 		.4byte	0xdf
ARM GAS  C:\Users\acer\AppData\Local\Temp\ccmxYZNb.s 			page 99


 4359 076e 190B0000 		.4byte	.LLST59
 4360 0772 19       		.uleb128 0x19
 4361 0773 583300   		.ascii	"X3\000"
 4362 0776 01       		.byte	0x1
 4363 0777 2603     		.2byte	0x326
 4364 0779 DF000000 		.4byte	0xdf
 4365 077d 060C0000 		.4byte	.LLST60
 4366 0781 19       		.uleb128 0x19
 4367 0782 423300   		.ascii	"B3\000"
 4368 0785 01       		.byte	0x1
 4369 0786 2603     		.2byte	0x326
 4370 0788 DF000000 		.4byte	0xdf
 4371 078c 980D0000 		.4byte	.LLST61
 4372 0790 19       		.uleb128 0x19
 4373 0791 423600   		.ascii	"B6\000"
 4374 0794 01       		.byte	0x1
 4375 0795 2603     		.2byte	0x326
 4376 0797 DF000000 		.4byte	0xdf
 4377 079b D40F0000 		.4byte	.LLST62
 4378 079f 19       		.uleb128 0x19
 4379 07a0 5000     		.ascii	"P\000"
 4380 07a2 01       		.byte	0x1
 4381 07a3 2603     		.2byte	0x326
 4382 07a5 DF000000 		.4byte	0xdf
 4383 07a9 FC0F0000 		.4byte	.LLST63
 4384 07ad 1C       		.uleb128 0x1c
 4385 07ae E0000000 		.4byte	.LASF67
 4386 07b2 01       		.byte	0x1
 4387 07b3 2603     		.2byte	0x326
 4388 07b5 DF000000 		.4byte	0xdf
 4389 07b9 0F100000 		.4byte	.LLST64
 4390 07bd 19       		.uleb128 0x19
 4391 07be 423400   		.ascii	"B4\000"
 4392 07c1 01       		.byte	0x1
 4393 07c2 2703     		.2byte	0x327
 4394 07c4 D4000000 		.4byte	0xd4
 4395 07c8 FC110000 		.4byte	.LLST65
 4396 07cc 19       		.uleb128 0x19
 4397 07cd 423700   		.ascii	"B7\000"
 4398 07d0 01       		.byte	0x1
 4399 07d1 2703     		.2byte	0x327
 4400 07d3 D4000000 		.4byte	0xd4
 4401 07d7 0F120000 		.4byte	.LLST66
 4402 07db 00       		.byte	0
 4403 07dc 0D       		.uleb128 0xd
 4404 07dd E0010000 		.4byte	.LASF68
 4405 07e1 01       		.byte	0x1
 4406 07e2 B7       		.byte	0xb7
 4407 07e3 00000000 		.4byte	.LFB3
 4408 07e7 6C040000 		.4byte	.LFE3-.LFB3
 4409 07eb 01       		.uleb128 0x1
 4410 07ec 9C       		.byte	0x9c
 4411 07ed D60A0000 		.4byte	0xad6
 4412 07f1 0E       		.uleb128 0xe
 4413 07f2 4E010000 		.4byte	.LASF69
 4414 07f6 01       		.byte	0x1
 4415 07f7 BA       		.byte	0xba
ARM GAS  C:\Users\acer\AppData\Local\Temp\ccmxYZNb.s 			page 100


 4416 07f8 DF000000 		.4byte	0xdf
 4417 07fc 05       		.uleb128 0x5
 4418 07fd 03       		.byte	0x3
 4419 07fe 20000000 		.4byte	TempGx.6337
 4420 0802 0E       		.uleb128 0xe
 4421 0803 55010000 		.4byte	.LASF70
 4422 0807 01       		.byte	0x1
 4423 0808 BA       		.byte	0xba
 4424 0809 DF000000 		.4byte	0xdf
 4425 080d 05       		.uleb128 0x5
 4426 080e 03       		.byte	0x3
 4427 080f 24000000 		.4byte	TempGy.6338
 4428 0813 0E       		.uleb128 0xe
 4429 0814 5C010000 		.4byte	.LASF71
 4430 0818 01       		.byte	0x1
 4431 0819 BA       		.byte	0xba
 4432 081a DF000000 		.4byte	0xdf
 4433 081e 05       		.uleb128 0x5
 4434 081f 03       		.byte	0x3
 4435 0820 28000000 		.4byte	TempGz.6339
 4436 0824 0E       		.uleb128 0xe
 4437 0825 6C050000 		.4byte	.LASF72
 4438 0829 01       		.byte	0x1
 4439 082a BD       		.byte	0xbd
 4440 082b D60A0000 		.4byte	0xad6
 4441 082f 05       		.uleb128 0x5
 4442 0830 03       		.byte	0x3
 4443 0831 32000000 		.4byte	Pres_Read_data.6340
 4444 0835 21       		.uleb128 0x21
 4445 0836 53756D00 		.ascii	"Sum\000"
 4446 083a 01       		.byte	0x1
 4447 083b BE       		.byte	0xbe
 4448 083c DF000000 		.4byte	0xdf
 4449 0840 05       		.uleb128 0x5
 4450 0841 03       		.byte	0x3
 4451 0842 48000000 		.4byte	Sum.6341
 4452 0846 22       		.uleb128 0x22
 4453 0847 6900     		.ascii	"i\000"
 4454 0849 01       		.byte	0x1
 4455 084a C2       		.byte	0xc2
 4456 084b B3000000 		.4byte	0xb3
 4457 084f 79120000 		.4byte	.LLST67
 4458 0853 0E       		.uleb128 0xe
 4459 0854 2C030000 		.4byte	.LASF73
 4460 0858 01       		.byte	0x1
 4461 0859 C4       		.byte	0xc4
 4462 085a A8000000 		.4byte	0xa8
 4463 085e 05       		.uleb128 0x5
 4464 085f 03       		.byte	0x3
 4465 0860 04000000 		.4byte	Gyro_Temp_Check_Data.6343
 4466 0864 10       		.uleb128 0x10
 4467 0865 48000000 		.4byte	.LVL312
 4468 0869 D3010000 		.4byte	0x1d3
 4469 086d 7D080000 		.4byte	0x87d
 4470 0871 11       		.uleb128 0x11
 4471 0872 01       		.uleb128 0x1
 4472 0873 52       		.byte	0x52
ARM GAS  C:\Users\acer\AppData\Local\Temp\ccmxYZNb.s 			page 101


 4473 0874 01       		.uleb128 0x1
 4474 0875 32       		.byte	0x32
 4475 0876 11       		.uleb128 0x11
 4476 0877 01       		.uleb128 0x1
 4477 0878 50       		.byte	0x50
 4478 0879 02       		.uleb128 0x2
 4479 087a 08       		.byte	0x8
 4480 087b 68       		.byte	0x68
 4481 087c 00       		.byte	0
 4482 087d 10       		.uleb128 0x10
 4483 087e 72000000 		.4byte	.LVL313
 4484 0882 0B020000 		.4byte	0x20b
 4485 0886 A5080000 		.4byte	0x8a5
 4486 088a 11       		.uleb128 0x11
 4487 088b 01       		.uleb128 0x1
 4488 088c 53       		.byte	0x53
 4489 088d 01       		.uleb128 0x1
 4490 088e 31       		.byte	0x31
 4491 088f 11       		.uleb128 0x11
 4492 0890 01       		.uleb128 0x1
 4493 0891 52       		.byte	0x52
 4494 0892 05       		.uleb128 0x5
 4495 0893 03       		.byte	0x3
 4496 0894 04000000 		.4byte	.LANCHOR0+4
 4497 0898 11       		.uleb128 0x11
 4498 0899 01       		.uleb128 0x1
 4499 089a 51       		.byte	0x51
 4500 089b 02       		.uleb128 0x2
 4501 089c 08       		.byte	0x8
 4502 089d 37       		.byte	0x37
 4503 089e 11       		.uleb128 0x11
 4504 089f 01       		.uleb128 0x1
 4505 08a0 50       		.byte	0x50
 4506 08a1 02       		.uleb128 0x2
 4507 08a2 08       		.byte	0x8
 4508 08a3 68       		.byte	0x68
 4509 08a4 00       		.byte	0
 4510 08a5 10       		.uleb128 0x10
 4511 08a6 8A000000 		.4byte	.LVL314
 4512 08aa 0B020000 		.4byte	0x20b
 4513 08ae C7080000 		.4byte	0x8c7
 4514 08b2 11       		.uleb128 0x11
 4515 08b3 01       		.uleb128 0x1
 4516 08b4 53       		.byte	0x53
 4517 08b5 01       		.uleb128 0x1
 4518 08b6 3E       		.byte	0x3e
 4519 08b7 11       		.uleb128 0x11
 4520 08b8 01       		.uleb128 0x1
 4521 08b9 52       		.byte	0x52
 4522 08ba 05       		.uleb128 0x5
 4523 08bb 03       		.byte	0x3
 4524 08bc 00000000 		.4byte	Gyro_Temp_Acc_Read_Data
 4525 08c0 11       		.uleb128 0x11
 4526 08c1 01       		.uleb128 0x1
 4527 08c2 50       		.byte	0x50
 4528 08c3 02       		.uleb128 0x2
 4529 08c4 08       		.byte	0x8
ARM GAS  C:\Users\acer\AppData\Local\Temp\ccmxYZNb.s 			page 102


 4530 08c5 68       		.byte	0x68
 4531 08c6 00       		.byte	0
 4532 08c7 10       		.uleb128 0x10
 4533 08c8 D2000000 		.4byte	.LVL316
 4534 08cc AE030000 		.4byte	0x3ae
 4535 08d0 ED080000 		.4byte	0x8ed
 4536 08d4 11       		.uleb128 0x11
 4537 08d5 01       		.uleb128 0x1
 4538 08d6 53       		.byte	0x53
 4539 08d7 02       		.uleb128 0x2
 4540 08d8 74       		.byte	0x74
 4541 08d9 0C       		.sleb128 12
 4542 08da 11       		.uleb128 0x11
 4543 08db 01       		.uleb128 0x1
 4544 08dc 51       		.byte	0x51
 4545 08dd 05       		.uleb128 0x5
 4546 08de 03       		.byte	0x3
 4547 08df 02000000 		.4byte	MPU9250_Filter_Gyro+2
 4548 08e3 11       		.uleb128 0x11
 4549 08e4 01       		.uleb128 0x1
 4550 08e5 50       		.byte	0x50
 4551 08e6 05       		.uleb128 0x5
 4552 08e7 03       		.byte	0x3
 4553 08e8 00000000 		.4byte	MPU9250_Filter_Gyro
 4554 08ec 00       		.byte	0
 4555 08ed 10       		.uleb128 0x10
 4556 08ee E2000000 		.4byte	.LVL317
 4557 08f2 AE030000 		.4byte	0x3ae
 4558 08f6 13090000 		.4byte	0x913
 4559 08fa 11       		.uleb128 0x11
 4560 08fb 01       		.uleb128 0x1
 4561 08fc 53       		.byte	0x53
 4562 08fd 02       		.uleb128 0x2
 4563 08fe 74       		.byte	0x74
 4564 08ff 10       		.sleb128 16
 4565 0900 11       		.uleb128 0x11
 4566 0901 01       		.uleb128 0x1
 4567 0902 51       		.byte	0x51
 4568 0903 05       		.uleb128 0x5
 4569 0904 03       		.byte	0x3
 4570 0905 14000000 		.4byte	MPU9250_Filter_Gyro+20
 4571 0909 11       		.uleb128 0x11
 4572 090a 01       		.uleb128 0x1
 4573 090b 50       		.byte	0x50
 4574 090c 05       		.uleb128 0x5
 4575 090d 03       		.byte	0x3
 4576 090e 12000000 		.4byte	MPU9250_Filter_Gyro+18
 4577 0912 00       		.byte	0
 4578 0913 10       		.uleb128 0x10
 4579 0914 F2000000 		.4byte	.LVL318
 4580 0918 AE030000 		.4byte	0x3ae
 4581 091c 39090000 		.4byte	0x939
 4582 0920 11       		.uleb128 0x11
 4583 0921 01       		.uleb128 0x1
 4584 0922 53       		.byte	0x53
 4585 0923 02       		.uleb128 0x2
 4586 0924 74       		.byte	0x74
ARM GAS  C:\Users\acer\AppData\Local\Temp\ccmxYZNb.s 			page 103


 4587 0925 14       		.sleb128 20
 4588 0926 11       		.uleb128 0x11
 4589 0927 01       		.uleb128 0x1
 4590 0928 51       		.byte	0x51
 4591 0929 05       		.uleb128 0x5
 4592 092a 03       		.byte	0x3
 4593 092b 26000000 		.4byte	MPU9250_Filter_Gyro+38
 4594 092f 11       		.uleb128 0x11
 4595 0930 01       		.uleb128 0x1
 4596 0931 50       		.byte	0x50
 4597 0932 05       		.uleb128 0x5
 4598 0933 03       		.byte	0x3
 4599 0934 24000000 		.4byte	MPU9250_Filter_Gyro+36
 4600 0938 00       		.byte	0
 4601 0939 10       		.uleb128 0x10
 4602 093a 58010000 		.4byte	.LVL320
 4603 093e D3010000 		.4byte	0x1d3
 4604 0942 5A090000 		.4byte	0x95a
 4605 0946 11       		.uleb128 0x11
 4606 0947 01       		.uleb128 0x1
 4607 0948 52       		.byte	0x52
 4608 0949 01       		.uleb128 0x1
 4609 094a 32       		.byte	0x32
 4610 094b 11       		.uleb128 0x11
 4611 094c 01       		.uleb128 0x1
 4612 094d 51       		.byte	0x51
 4613 094e 05       		.uleb128 0x5
 4614 094f 03       		.byte	0x3
 4615 0950 1C000000 		.4byte	.LANCHOR1+28
 4616 0954 11       		.uleb128 0x11
 4617 0955 01       		.uleb128 0x1
 4618 0956 50       		.byte	0x50
 4619 0957 01       		.uleb128 0x1
 4620 0958 3C       		.byte	0x3c
 4621 0959 00       		.byte	0
 4622 095a 10       		.uleb128 0x10
 4623 095b 6E010000 		.4byte	.LVL321
 4624 095f 0B020000 		.4byte	0x20b
 4625 0963 80090000 		.4byte	0x980
 4626 0967 11       		.uleb128 0x11
 4627 0968 01       		.uleb128 0x1
 4628 0969 53       		.byte	0x53
 4629 096a 01       		.uleb128 0x1
 4630 096b 37       		.byte	0x37
 4631 096c 11       		.uleb128 0x11
 4632 096d 01       		.uleb128 0x1
 4633 096e 52       		.byte	0x52
 4634 096f 05       		.uleb128 0x5
 4635 0970 03       		.byte	0x3
 4636 0971 00000000 		.4byte	Mag_Read_Data
 4637 0975 11       		.uleb128 0x11
 4638 0976 01       		.uleb128 0x1
 4639 0977 51       		.byte	0x51
 4640 0978 01       		.uleb128 0x1
 4641 0979 33       		.byte	0x33
 4642 097a 11       		.uleb128 0x11
 4643 097b 01       		.uleb128 0x1
ARM GAS  C:\Users\acer\AppData\Local\Temp\ccmxYZNb.s 			page 104


 4644 097c 50       		.byte	0x50
 4645 097d 01       		.uleb128 0x1
 4646 097e 3C       		.byte	0x3c
 4647 097f 00       		.byte	0
 4648 0980 10       		.uleb128 0x10
 4649 0981 B4010000 		.4byte	.LVL323
 4650 0985 AE030000 		.4byte	0x3ae
 4651 0989 A6090000 		.4byte	0x9a6
 4652 098d 11       		.uleb128 0x11
 4653 098e 01       		.uleb128 0x1
 4654 098f 53       		.byte	0x53
 4655 0990 02       		.uleb128 0x2
 4656 0991 74       		.byte	0x74
 4657 0992 0C       		.sleb128 12
 4658 0993 11       		.uleb128 0x11
 4659 0994 01       		.uleb128 0x1
 4660 0995 51       		.byte	0x51
 4661 0996 05       		.uleb128 0x5
 4662 0997 03       		.byte	0x3
 4663 0998 02000000 		.4byte	MPU9250_Filter_Mag+2
 4664 099c 11       		.uleb128 0x11
 4665 099d 01       		.uleb128 0x1
 4666 099e 50       		.byte	0x50
 4667 099f 05       		.uleb128 0x5
 4668 09a0 03       		.byte	0x3
 4669 09a1 00000000 		.4byte	MPU9250_Filter_Mag
 4670 09a5 00       		.byte	0
 4671 09a6 10       		.uleb128 0x10
 4672 09a7 C4010000 		.4byte	.LVL324
 4673 09ab AE030000 		.4byte	0x3ae
 4674 09af CC090000 		.4byte	0x9cc
 4675 09b3 11       		.uleb128 0x11
 4676 09b4 01       		.uleb128 0x1
 4677 09b5 53       		.byte	0x53
 4678 09b6 02       		.uleb128 0x2
 4679 09b7 74       		.byte	0x74
 4680 09b8 10       		.sleb128 16
 4681 09b9 11       		.uleb128 0x11
 4682 09ba 01       		.uleb128 0x1
 4683 09bb 51       		.byte	0x51
 4684 09bc 05       		.uleb128 0x5
 4685 09bd 03       		.byte	0x3
 4686 09be 14000000 		.4byte	MPU9250_Filter_Mag+20
 4687 09c2 11       		.uleb128 0x11
 4688 09c3 01       		.uleb128 0x1
 4689 09c4 50       		.byte	0x50
 4690 09c5 05       		.uleb128 0x5
 4691 09c6 03       		.byte	0x3
 4692 09c7 12000000 		.4byte	MPU9250_Filter_Mag+18
 4693 09cb 00       		.byte	0
 4694 09cc 10       		.uleb128 0x10
 4695 09cd D4010000 		.4byte	.LVL325
 4696 09d1 AE030000 		.4byte	0x3ae
 4697 09d5 F2090000 		.4byte	0x9f2
 4698 09d9 11       		.uleb128 0x11
 4699 09da 01       		.uleb128 0x1
 4700 09db 53       		.byte	0x53
ARM GAS  C:\Users\acer\AppData\Local\Temp\ccmxYZNb.s 			page 105


 4701 09dc 02       		.uleb128 0x2
 4702 09dd 74       		.byte	0x74
 4703 09de 14       		.sleb128 20
 4704 09df 11       		.uleb128 0x11
 4705 09e0 01       		.uleb128 0x1
 4706 09e1 51       		.byte	0x51
 4707 09e2 05       		.uleb128 0x5
 4708 09e3 03       		.byte	0x3
 4709 09e4 26000000 		.4byte	MPU9250_Filter_Mag+38
 4710 09e8 11       		.uleb128 0x11
 4711 09e9 01       		.uleb128 0x1
 4712 09ea 50       		.byte	0x50
 4713 09eb 05       		.uleb128 0x5
 4714 09ec 03       		.byte	0x3
 4715 09ed 24000000 		.4byte	MPU9250_Filter_Mag+36
 4716 09f1 00       		.byte	0
 4717 09f2 10       		.uleb128 0x10
 4718 09f3 F6010000 		.4byte	.LVL327
 4719 09f7 0B020000 		.4byte	0x20b
 4720 09fb 1A0A0000 		.4byte	0xa1a
 4721 09ff 11       		.uleb128 0x11
 4722 0a00 01       		.uleb128 0x1
 4723 0a01 53       		.byte	0x53
 4724 0a02 01       		.uleb128 0x1
 4725 0a03 46       		.byte	0x46
 4726 0a04 11       		.uleb128 0x11
 4727 0a05 01       		.uleb128 0x1
 4728 0a06 52       		.byte	0x52
 4729 0a07 05       		.uleb128 0x5
 4730 0a08 03       		.byte	0x3
 4731 0a09 32000000 		.4byte	.LANCHOR0+50
 4732 0a0d 11       		.uleb128 0x11
 4733 0a0e 01       		.uleb128 0x1
 4734 0a0f 51       		.byte	0x51
 4735 0a10 02       		.uleb128 0x2
 4736 0a11 09       		.byte	0x9
 4737 0a12 AA       		.byte	0xaa
 4738 0a13 11       		.uleb128 0x11
 4739 0a14 01       		.uleb128 0x1
 4740 0a15 50       		.byte	0x50
 4741 0a16 02       		.uleb128 0x2
 4742 0a17 08       		.byte	0x8
 4743 0a18 77       		.byte	0x77
 4744 0a19 00       		.byte	0
 4745 0a1a 10       		.uleb128 0x10
 4746 0a1b 3E030000 		.4byte	.LVL328
 4747 0a1f D3010000 		.4byte	0x1d3
 4748 0a23 3C0A0000 		.4byte	0xa3c
 4749 0a27 11       		.uleb128 0x11
 4750 0a28 01       		.uleb128 0x1
 4751 0a29 52       		.byte	0x52
 4752 0a2a 01       		.uleb128 0x1
 4753 0a2b 32       		.byte	0x32
 4754 0a2c 11       		.uleb128 0x11
 4755 0a2d 01       		.uleb128 0x1
 4756 0a2e 51       		.byte	0x51
 4757 0a2f 05       		.uleb128 0x5
ARM GAS  C:\Users\acer\AppData\Local\Temp\ccmxYZNb.s 			page 106


 4758 0a30 03       		.byte	0x3
 4759 0a31 24000000 		.4byte	.LANCHOR1+36
 4760 0a35 11       		.uleb128 0x11
 4761 0a36 01       		.uleb128 0x1
 4762 0a37 50       		.byte	0x50
 4763 0a38 02       		.uleb128 0x2
 4764 0a39 08       		.byte	0x8
 4765 0a3a 77       		.byte	0x77
 4766 0a3b 00       		.byte	0
 4767 0a3c 10       		.uleb128 0x10
 4768 0a3d 52030000 		.4byte	.LVL329
 4769 0a41 0B020000 		.4byte	0x20b
 4770 0a45 640A0000 		.4byte	0xa64
 4771 0a49 11       		.uleb128 0x11
 4772 0a4a 01       		.uleb128 0x1
 4773 0a4b 53       		.byte	0x53
 4774 0a4c 01       		.uleb128 0x1
 4775 0a4d 32       		.byte	0x32
 4776 0a4e 11       		.uleb128 0x11
 4777 0a4f 01       		.uleb128 0x1
 4778 0a50 52       		.byte	0x52
 4779 0a51 05       		.uleb128 0x5
 4780 0a52 03       		.byte	0x3
 4781 0a53 00000000 		.4byte	Alt_Read_Data
 4782 0a57 11       		.uleb128 0x11
 4783 0a58 01       		.uleb128 0x1
 4784 0a59 51       		.byte	0x51
 4785 0a5a 02       		.uleb128 0x2
 4786 0a5b 09       		.byte	0x9
 4787 0a5c F6       		.byte	0xf6
 4788 0a5d 11       		.uleb128 0x11
 4789 0a5e 01       		.uleb128 0x1
 4790 0a5f 50       		.byte	0x50
 4791 0a60 02       		.uleb128 0x2
 4792 0a61 08       		.byte	0x8
 4793 0a62 77       		.byte	0x77
 4794 0a63 00       		.byte	0
 4795 0a64 10       		.uleb128 0x10
 4796 0a65 7E030000 		.4byte	.LVL330
 4797 0a69 D3010000 		.4byte	0x1d3
 4798 0a6d 860A0000 		.4byte	0xa86
 4799 0a71 11       		.uleb128 0x11
 4800 0a72 01       		.uleb128 0x1
 4801 0a73 52       		.byte	0x52
 4802 0a74 01       		.uleb128 0x1
 4803 0a75 32       		.byte	0x32
 4804 0a76 11       		.uleb128 0x11
 4805 0a77 01       		.uleb128 0x1
 4806 0a78 51       		.byte	0x51
 4807 0a79 05       		.uleb128 0x5
 4808 0a7a 03       		.byte	0x3
 4809 0a7b 26000000 		.4byte	.LANCHOR1+38
 4810 0a7f 11       		.uleb128 0x11
 4811 0a80 01       		.uleb128 0x1
 4812 0a81 50       		.byte	0x50
 4813 0a82 02       		.uleb128 0x2
 4814 0a83 08       		.byte	0x8
ARM GAS  C:\Users\acer\AppData\Local\Temp\ccmxYZNb.s 			page 107


 4815 0a84 77       		.byte	0x77
 4816 0a85 00       		.byte	0
 4817 0a86 10       		.uleb128 0x10
 4818 0a87 92030000 		.4byte	.LVL331
 4819 0a8b 0B020000 		.4byte	0x20b
 4820 0a8f AE0A0000 		.4byte	0xaae
 4821 0a93 11       		.uleb128 0x11
 4822 0a94 01       		.uleb128 0x1
 4823 0a95 53       		.byte	0x53
 4824 0a96 01       		.uleb128 0x1
 4825 0a97 33       		.byte	0x33
 4826 0a98 11       		.uleb128 0x11
 4827 0a99 01       		.uleb128 0x1
 4828 0a9a 52       		.byte	0x52
 4829 0a9b 05       		.uleb128 0x5
 4830 0a9c 03       		.byte	0x3
 4831 0a9d 03000000 		.4byte	Alt_Read_Data+3
 4832 0aa1 11       		.uleb128 0x11
 4833 0aa2 01       		.uleb128 0x1
 4834 0aa3 51       		.byte	0x51
 4835 0aa4 02       		.uleb128 0x2
 4836 0aa5 09       		.byte	0x9
 4837 0aa6 F6       		.byte	0xf6
 4838 0aa7 11       		.uleb128 0x11
 4839 0aa8 01       		.uleb128 0x1
 4840 0aa9 50       		.byte	0x50
 4841 0aaa 02       		.uleb128 0x2
 4842 0aab 08       		.byte	0x8
 4843 0aac 77       		.byte	0x77
 4844 0aad 00       		.byte	0
 4845 0aae 10       		.uleb128 0x10
 4846 0aaf CE030000 		.4byte	.LVL332
 4847 0ab3 30070000 		.4byte	0x730
 4848 0ab7 C20A0000 		.4byte	0xac2
 4849 0abb 11       		.uleb128 0x11
 4850 0abc 01       		.uleb128 0x1
 4851 0abd 50       		.byte	0x50
 4852 0abe 02       		.uleb128 0x2
 4853 0abf 76       		.byte	0x76
 4854 0ac0 00       		.sleb128 0
 4855 0ac1 00       		.byte	0
 4856 0ac2 15       		.uleb128 0x15
 4857 0ac3 D4030000 		.4byte	.LVL333
 4858 0ac7 EF060000 		.4byte	0x6ef
 4859 0acb 11       		.uleb128 0x11
 4860 0acc 01       		.uleb128 0x1
 4861 0acd 50       		.byte	0x50
 4862 0ace 05       		.uleb128 0x5
 4863 0acf 03       		.byte	0x3
 4864 0ad0 00000000 		.4byte	TemperatureVal
 4865 0ad4 00       		.byte	0
 4866 0ad5 00       		.byte	0
 4867 0ad6 08       		.uleb128 0x8
 4868 0ad7 B3000000 		.4byte	0xb3
 4869 0adb E60A0000 		.4byte	0xae6
 4870 0adf 09       		.uleb128 0x9
 4871 0ae0 A1000000 		.4byte	0xa1
ARM GAS  C:\Users\acer\AppData\Local\Temp\ccmxYZNb.s 			page 108


 4872 0ae4 15       		.byte	0x15
 4873 0ae5 00       		.byte	0
 4874 0ae6 1D       		.uleb128 0x1d
 4875 0ae7 4A030000 		.4byte	.LASF74
 4876 0aeb 01       		.byte	0x1
 4877 0aec 4F03     		.2byte	0x34f
 4878 0aee 00000000 		.4byte	.LFB10
 4879 0af2 60000000 		.4byte	.LFE10-.LFB10
 4880 0af6 01       		.uleb128 0x1
 4881 0af7 9C       		.byte	0x9c
 4882 0af8 3B0B0000 		.4byte	0xb3b
 4883 0afc 17       		.uleb128 0x17
 4884 0afd 84040000 		.4byte	.LASF75
 4885 0b01 01       		.byte	0x1
 4886 0b02 4F03     		.2byte	0x34f
 4887 0b04 17040000 		.4byte	0x417
 4888 0b08 E1120000 		.4byte	.LLST68
 4889 0b0c 17       		.uleb128 0x17
 4890 0b0d 49050000 		.4byte	.LASF76
 4891 0b11 01       		.byte	0x1
 4892 0b12 4F03     		.2byte	0x34f
 4893 0b14 DF000000 		.4byte	0xdf
 4894 0b18 0D130000 		.4byte	.LLST69
 4895 0b1c 15       		.uleb128 0x15
 4896 0b1d 2A000000 		.4byte	.LVL340
 4897 0b21 98140000 		.4byte	0x1498
 4898 0b25 11       		.uleb128 0x11
 4899 0b26 06       		.uleb128 0x6
 4900 0b27 52       		.byte	0x52
 4901 0b28 93       		.byte	0x93
 4902 0b29 04       		.uleb128 0x4
 4903 0b2a 53       		.byte	0x53
 4904 0b2b 93       		.byte	0x93
 4905 0b2c 04       		.uleb128 0x4
 4906 0b2d 0B       		.uleb128 0xb
 4907 0b2e F4       		.byte	0xf4
 4908 0b2f 2C       		.uleb128 0x2c
 4909 0b30 08       		.byte	0x8
 4910 0b31 00000020 		.4byte	0x20000000
 4911 0b35 C05BC83F 		.4byte	0x3fc85bc0
 4912 0b39 00       		.byte	0
 4913 0b3a 00       		.byte	0
 4914 0b3b 16       		.uleb128 0x16
 4915 0b3c 74060000 		.4byte	.LASF77
 4916 0b40 01       		.byte	0x1
 4917 0b41 5F03     		.2byte	0x35f
 4918 0b43 00000000 		.4byte	.LFB11
 4919 0b47 30000000 		.4byte	.LFE11-.LFB11
 4920 0b4b 01       		.uleb128 0x1
 4921 0b4c 9C       		.byte	0x9c
 4922 0b4d 9E0B0000 		.4byte	0xb9e
 4923 0b51 17       		.uleb128 0x17
 4924 0b52 E4040000 		.4byte	.LASF41
 4925 0b56 01       		.byte	0x1
 4926 0b57 5F03     		.2byte	0x35f
 4927 0b59 05020000 		.4byte	0x205
 4928 0b5d 2E130000 		.4byte	.LLST70
ARM GAS  C:\Users\acer\AppData\Local\Temp\ccmxYZNb.s 			page 109


 4929 0b61 17       		.uleb128 0x17
 4930 0b62 FE050000 		.4byte	.LASF42
 4931 0b66 01       		.byte	0x1
 4932 0b67 5F03     		.2byte	0x35f
 4933 0b69 17040000 		.4byte	0x417
 4934 0b6d 4F130000 		.4byte	.LLST71
 4935 0b71 17       		.uleb128 0x17
 4936 0b72 8A030000 		.4byte	.LASF43
 4937 0b76 01       		.byte	0x1
 4938 0b77 5F03     		.2byte	0x35f
 4939 0b79 DF000000 		.4byte	0xdf
 4940 0b7d 6F130000 		.4byte	.LLST72
 4941 0b81 18       		.uleb128 0x18
 4942 0b82 C6020000 		.4byte	.LASF44
 4943 0b86 01       		.byte	0x1
 4944 0b87 5F03     		.2byte	0x35f
 4945 0b89 17040000 		.4byte	0x417
 4946 0b8d 01       		.uleb128 0x1
 4947 0b8e 53       		.byte	0x53
 4948 0b8f 19       		.uleb128 0x19
 4949 0b90 6900     		.ascii	"i\000"
 4950 0b92 01       		.byte	0x1
 4951 0b93 6103     		.2byte	0x361
 4952 0b95 84000000 		.4byte	0x84
 4953 0b99 A1130000 		.4byte	.LLST73
 4954 0b9d 00       		.byte	0
 4955 0b9e 1D       		.uleb128 0x1d
 4956 0b9f AB020000 		.4byte	.LASF78
 4957 0ba3 01       		.byte	0x1
 4958 0ba4 C501     		.2byte	0x1c5
 4959 0ba6 00000000 		.4byte	.LFB4
 4960 0baa 04060000 		.4byte	.LFE4-.LFB4
 4961 0bae 01       		.uleb128 0x1
 4962 0baf 9C       		.byte	0x9c
 4963 0bb0 650F0000 		.4byte	0xf65
 4964 0bb4 23       		.uleb128 0x23
 4965 0bb5 42010000 		.4byte	.LASF79
 4966 0bb9 01       		.byte	0x1
 4967 0bba C901     		.2byte	0x1c9
 4968 0bbc 650F0000 		.4byte	0xf65
 4969 0bc0 05       		.uleb128 0x5
 4970 0bc1 03       		.byte	0x3
 4971 0bc2 4C000000 		.4byte	accel.6372
 4972 0bc6 23       		.uleb128 0x23
 4973 0bc7 67050000 		.4byte	.LASF80
 4974 0bcb 01       		.byte	0x1
 4975 0bcc CB01     		.2byte	0x1cb
 4976 0bce 650F0000 		.4byte	0xf65
 4977 0bd2 05       		.uleb128 0x5
 4978 0bd3 03       		.byte	0x3
 4979 0bd4 52000000 		.4byte	magn.6373
 4980 0bd8 23       		.uleb128 0x23
 4981 0bd9 8D010000 		.4byte	.LASF81
 4982 0bdd 01       		.byte	0x1
 4983 0bde CD01     		.2byte	0x1cd
 4984 0be0 DF000000 		.4byte	0xdf
 4985 0be4 02       		.uleb128 0x2
ARM GAS  C:\Users\acer\AppData\Local\Temp\ccmxYZNb.s 			page 110


 4986 0be5 91       		.byte	0x91
 4987 0be6 4C       		.sleb128 -52
 4988 0be7 23       		.uleb128 0x23
 4989 0be8 40040000 		.4byte	.LASF82
 4990 0bec 01       		.byte	0x1
 4991 0bed CD01     		.2byte	0x1cd
 4992 0bef DF000000 		.4byte	0xdf
 4993 0bf3 02       		.uleb128 0x2
 4994 0bf4 91       		.byte	0x91
 4995 0bf5 50       		.sleb128 -48
 4996 0bf6 23       		.uleb128 0x23
 4997 0bf7 BC030000 		.4byte	.LASF83
 4998 0bfb 01       		.byte	0x1
 4999 0bfc CD01     		.2byte	0x1cd
 5000 0bfe DF000000 		.4byte	0xdf
 5001 0c02 02       		.uleb128 0x2
 5002 0c03 91       		.byte	0x91
 5003 0c04 54       		.sleb128 -44
 5004 0c05 23       		.uleb128 0x23
 5005 0c06 FA000000 		.4byte	.LASF84
 5006 0c0a 01       		.byte	0x1
 5007 0c0b D001     		.2byte	0x1d0
 5008 0c0d 750F0000 		.4byte	0xf75
 5009 0c11 05       		.uleb128 0x5
 5010 0c12 03       		.byte	0x3
 5011 0c13 58000000 		.4byte	BMP180_Filter.6377
 5012 0c17 19       		.uleb128 0x19
 5013 0c18 6900     		.ascii	"i\000"
 5014 0c1a 01       		.byte	0x1
 5015 0c1b D301     		.2byte	0x1d3
 5016 0c1d A8000000 		.4byte	0xa8
 5017 0c21 B5130000 		.4byte	.LLST74
 5018 0c25 10       		.uleb128 0x10
 5019 0c26 48000000 		.4byte	.LVL351
 5020 0c2a 0B020000 		.4byte	0x20b
 5021 0c2e 470C0000 		.4byte	0xc47
 5022 0c32 11       		.uleb128 0x11
 5023 0c33 01       		.uleb128 0x1
 5024 0c34 53       		.byte	0x53
 5025 0c35 01       		.uleb128 0x1
 5026 0c36 3E       		.byte	0x3e
 5027 0c37 11       		.uleb128 0x11
 5028 0c38 01       		.uleb128 0x1
 5029 0c39 52       		.byte	0x52
 5030 0c3a 05       		.uleb128 0x5
 5031 0c3b 03       		.byte	0x3
 5032 0c3c 00000000 		.4byte	Gyro_Temp_Acc_Read_Data
 5033 0c40 11       		.uleb128 0x11
 5034 0c41 01       		.uleb128 0x1
 5035 0c42 50       		.byte	0x50
 5036 0c43 02       		.uleb128 0x2
 5037 0c44 08       		.byte	0x8
 5038 0c45 68       		.byte	0x68
 5039 0c46 00       		.byte	0
 5040 0c47 10       		.uleb128 0x10
 5041 0c48 8C000000 		.4byte	.LVL353
 5042 0c4c AE030000 		.4byte	0x3ae
ARM GAS  C:\Users\acer\AppData\Local\Temp\ccmxYZNb.s 			page 111


 5043 0c50 6D0C0000 		.4byte	0xc6d
 5044 0c54 11       		.uleb128 0x11
 5045 0c55 01       		.uleb128 0x1
 5046 0c56 53       		.byte	0x53
 5047 0c57 02       		.uleb128 0x2
 5048 0c58 74       		.byte	0x74
 5049 0c59 0C       		.sleb128 12
 5050 0c5a 11       		.uleb128 0x11
 5051 0c5b 01       		.uleb128 0x1
 5052 0c5c 51       		.byte	0x51
 5053 0c5d 05       		.uleb128 0x5
 5054 0c5e 03       		.byte	0x3
 5055 0c5f 02000000 		.4byte	MPU9250_Filter_Acc+2
 5056 0c63 11       		.uleb128 0x11
 5057 0c64 01       		.uleb128 0x1
 5058 0c65 50       		.byte	0x50
 5059 0c66 05       		.uleb128 0x5
 5060 0c67 03       		.byte	0x3
 5061 0c68 00000000 		.4byte	MPU9250_Filter_Acc
 5062 0c6c 00       		.byte	0
 5063 0c6d 10       		.uleb128 0x10
 5064 0c6e 9C000000 		.4byte	.LVL354
 5065 0c72 AE030000 		.4byte	0x3ae
 5066 0c76 930C0000 		.4byte	0xc93
 5067 0c7a 11       		.uleb128 0x11
 5068 0c7b 01       		.uleb128 0x1
 5069 0c7c 53       		.byte	0x53
 5070 0c7d 02       		.uleb128 0x2
 5071 0c7e 74       		.byte	0x74
 5072 0c7f 10       		.sleb128 16
 5073 0c80 11       		.uleb128 0x11
 5074 0c81 01       		.uleb128 0x1
 5075 0c82 51       		.byte	0x51
 5076 0c83 05       		.uleb128 0x5
 5077 0c84 03       		.byte	0x3
 5078 0c85 14000000 		.4byte	MPU9250_Filter_Acc+20
 5079 0c89 11       		.uleb128 0x11
 5080 0c8a 01       		.uleb128 0x1
 5081 0c8b 50       		.byte	0x50
 5082 0c8c 05       		.uleb128 0x5
 5083 0c8d 03       		.byte	0x3
 5084 0c8e 12000000 		.4byte	MPU9250_Filter_Acc+18
 5085 0c92 00       		.byte	0
 5086 0c93 10       		.uleb128 0x10
 5087 0c94 AC000000 		.4byte	.LVL355
 5088 0c98 AE030000 		.4byte	0x3ae
 5089 0c9c B90C0000 		.4byte	0xcb9
 5090 0ca0 11       		.uleb128 0x11
 5091 0ca1 01       		.uleb128 0x1
 5092 0ca2 53       		.byte	0x53
 5093 0ca3 02       		.uleb128 0x2
 5094 0ca4 74       		.byte	0x74
 5095 0ca5 14       		.sleb128 20
 5096 0ca6 11       		.uleb128 0x11
 5097 0ca7 01       		.uleb128 0x1
 5098 0ca8 51       		.byte	0x51
 5099 0ca9 05       		.uleb128 0x5
ARM GAS  C:\Users\acer\AppData\Local\Temp\ccmxYZNb.s 			page 112


 5100 0caa 03       		.byte	0x3
 5101 0cab 26000000 		.4byte	MPU9250_Filter_Acc+38
 5102 0caf 11       		.uleb128 0x11
 5103 0cb0 01       		.uleb128 0x1
 5104 0cb1 50       		.byte	0x50
 5105 0cb2 05       		.uleb128 0x5
 5106 0cb3 03       		.byte	0x3
 5107 0cb4 24000000 		.4byte	MPU9250_Filter_Acc+36
 5108 0cb8 00       		.byte	0
 5109 0cb9 10       		.uleb128 0x10
 5110 0cba EA000000 		.4byte	.LVL357
 5111 0cbe AE030000 		.4byte	0x3ae
 5112 0cc2 DF0C0000 		.4byte	0xcdf
 5113 0cc6 11       		.uleb128 0x11
 5114 0cc7 01       		.uleb128 0x1
 5115 0cc8 53       		.byte	0x53
 5116 0cc9 02       		.uleb128 0x2
 5117 0cca 74       		.byte	0x74
 5118 0ccb 0C       		.sleb128 12
 5119 0ccc 11       		.uleb128 0x11
 5120 0ccd 01       		.uleb128 0x1
 5121 0cce 51       		.byte	0x51
 5122 0ccf 05       		.uleb128 0x5
 5123 0cd0 03       		.byte	0x3
 5124 0cd1 02000000 		.4byte	MPU9250_Filter_Gyro+2
 5125 0cd5 11       		.uleb128 0x11
 5126 0cd6 01       		.uleb128 0x1
 5127 0cd7 50       		.byte	0x50
 5128 0cd8 05       		.uleb128 0x5
 5129 0cd9 03       		.byte	0x3
 5130 0cda 00000000 		.4byte	MPU9250_Filter_Gyro
 5131 0cde 00       		.byte	0
 5132 0cdf 10       		.uleb128 0x10
 5133 0ce0 FA000000 		.4byte	.LVL358
 5134 0ce4 AE030000 		.4byte	0x3ae
 5135 0ce8 050D0000 		.4byte	0xd05
 5136 0cec 11       		.uleb128 0x11
 5137 0ced 01       		.uleb128 0x1
 5138 0cee 53       		.byte	0x53
 5139 0cef 02       		.uleb128 0x2
 5140 0cf0 74       		.byte	0x74
 5141 0cf1 10       		.sleb128 16
 5142 0cf2 11       		.uleb128 0x11
 5143 0cf3 01       		.uleb128 0x1
 5144 0cf4 51       		.byte	0x51
 5145 0cf5 05       		.uleb128 0x5
 5146 0cf6 03       		.byte	0x3
 5147 0cf7 14000000 		.4byte	MPU9250_Filter_Gyro+20
 5148 0cfb 11       		.uleb128 0x11
 5149 0cfc 01       		.uleb128 0x1
 5150 0cfd 50       		.byte	0x50
 5151 0cfe 05       		.uleb128 0x5
 5152 0cff 03       		.byte	0x3
 5153 0d00 12000000 		.4byte	MPU9250_Filter_Gyro+18
 5154 0d04 00       		.byte	0
 5155 0d05 10       		.uleb128 0x10
 5156 0d06 0A010000 		.4byte	.LVL359
ARM GAS  C:\Users\acer\AppData\Local\Temp\ccmxYZNb.s 			page 113


 5157 0d0a AE030000 		.4byte	0x3ae
 5158 0d0e 2B0D0000 		.4byte	0xd2b
 5159 0d12 11       		.uleb128 0x11
 5160 0d13 01       		.uleb128 0x1
 5161 0d14 53       		.byte	0x53
 5162 0d15 02       		.uleb128 0x2
 5163 0d16 74       		.byte	0x74
 5164 0d17 14       		.sleb128 20
 5165 0d18 11       		.uleb128 0x11
 5166 0d19 01       		.uleb128 0x1
 5167 0d1a 51       		.byte	0x51
 5168 0d1b 05       		.uleb128 0x5
 5169 0d1c 03       		.byte	0x3
 5170 0d1d 26000000 		.4byte	MPU9250_Filter_Gyro+38
 5171 0d21 11       		.uleb128 0x11
 5172 0d22 01       		.uleb128 0x1
 5173 0d23 50       		.byte	0x50
 5174 0d24 05       		.uleb128 0x5
 5175 0d25 03       		.byte	0x3
 5176 0d26 24000000 		.4byte	MPU9250_Filter_Gyro+36
 5177 0d2a 00       		.byte	0
 5178 0d2b 10       		.uleb128 0x10
 5179 0d2c 36010000 		.4byte	.LVL361
 5180 0d30 0B020000 		.4byte	0x20b
 5181 0d34 510D0000 		.4byte	0xd51
 5182 0d38 11       		.uleb128 0x11
 5183 0d39 01       		.uleb128 0x1
 5184 0d3a 53       		.byte	0x53
 5185 0d3b 01       		.uleb128 0x1
 5186 0d3c 31       		.byte	0x31
 5187 0d3d 11       		.uleb128 0x11
 5188 0d3e 01       		.uleb128 0x1
 5189 0d3f 52       		.byte	0x52
 5190 0d40 05       		.uleb128 0x5
 5191 0d41 03       		.byte	0x3
 5192 0d42 00000000 		.4byte	Mag_Read_Data
 5193 0d46 11       		.uleb128 0x11
 5194 0d47 01       		.uleb128 0x1
 5195 0d48 51       		.byte	0x51
 5196 0d49 01       		.uleb128 0x1
 5197 0d4a 30       		.byte	0x30
 5198 0d4b 11       		.uleb128 0x11
 5199 0d4c 01       		.uleb128 0x1
 5200 0d4d 50       		.byte	0x50
 5201 0d4e 01       		.uleb128 0x1
 5202 0d4f 3C       		.byte	0x3c
 5203 0d50 00       		.byte	0
 5204 0d51 10       		.uleb128 0x10
 5205 0d52 7C010000 		.4byte	.LVL363
 5206 0d56 AE030000 		.4byte	0x3ae
 5207 0d5a 770D0000 		.4byte	0xd77
 5208 0d5e 11       		.uleb128 0x11
 5209 0d5f 01       		.uleb128 0x1
 5210 0d60 53       		.byte	0x53
 5211 0d61 02       		.uleb128 0x2
 5212 0d62 74       		.byte	0x74
 5213 0d63 0C       		.sleb128 12
ARM GAS  C:\Users\acer\AppData\Local\Temp\ccmxYZNb.s 			page 114


 5214 0d64 11       		.uleb128 0x11
 5215 0d65 01       		.uleb128 0x1
 5216 0d66 51       		.byte	0x51
 5217 0d67 05       		.uleb128 0x5
 5218 0d68 03       		.byte	0x3
 5219 0d69 02000000 		.4byte	MPU9250_Filter_Mag+2
 5220 0d6d 11       		.uleb128 0x11
 5221 0d6e 01       		.uleb128 0x1
 5222 0d6f 50       		.byte	0x50
 5223 0d70 05       		.uleb128 0x5
 5224 0d71 03       		.byte	0x3
 5225 0d72 00000000 		.4byte	MPU9250_Filter_Mag
 5226 0d76 00       		.byte	0
 5227 0d77 10       		.uleb128 0x10
 5228 0d78 8C010000 		.4byte	.LVL364
 5229 0d7c AE030000 		.4byte	0x3ae
 5230 0d80 9D0D0000 		.4byte	0xd9d
 5231 0d84 11       		.uleb128 0x11
 5232 0d85 01       		.uleb128 0x1
 5233 0d86 53       		.byte	0x53
 5234 0d87 02       		.uleb128 0x2
 5235 0d88 74       		.byte	0x74
 5236 0d89 10       		.sleb128 16
 5237 0d8a 11       		.uleb128 0x11
 5238 0d8b 01       		.uleb128 0x1
 5239 0d8c 51       		.byte	0x51
 5240 0d8d 05       		.uleb128 0x5
 5241 0d8e 03       		.byte	0x3
 5242 0d8f 14000000 		.4byte	MPU9250_Filter_Mag+20
 5243 0d93 11       		.uleb128 0x11
 5244 0d94 01       		.uleb128 0x1
 5245 0d95 50       		.byte	0x50
 5246 0d96 05       		.uleb128 0x5
 5247 0d97 03       		.byte	0x3
 5248 0d98 12000000 		.4byte	MPU9250_Filter_Mag+18
 5249 0d9c 00       		.byte	0
 5250 0d9d 10       		.uleb128 0x10
 5251 0d9e 9C010000 		.4byte	.LVL365
 5252 0da2 AE030000 		.4byte	0x3ae
 5253 0da6 C30D0000 		.4byte	0xdc3
 5254 0daa 11       		.uleb128 0x11
 5255 0dab 01       		.uleb128 0x1
 5256 0dac 53       		.byte	0x53
 5257 0dad 02       		.uleb128 0x2
 5258 0dae 74       		.byte	0x74
 5259 0daf 14       		.sleb128 20
 5260 0db0 11       		.uleb128 0x11
 5261 0db1 01       		.uleb128 0x1
 5262 0db2 51       		.byte	0x51
 5263 0db3 05       		.uleb128 0x5
 5264 0db4 03       		.byte	0x3
 5265 0db5 26000000 		.4byte	MPU9250_Filter_Mag+38
 5266 0db9 11       		.uleb128 0x11
 5267 0dba 01       		.uleb128 0x1
 5268 0dbb 50       		.byte	0x50
 5269 0dbc 05       		.uleb128 0x5
 5270 0dbd 03       		.byte	0x3
ARM GAS  C:\Users\acer\AppData\Local\Temp\ccmxYZNb.s 			page 115


 5271 0dbe 24000000 		.4byte	MPU9250_Filter_Mag+36
 5272 0dc2 00       		.byte	0
 5273 0dc3 10       		.uleb128 0x10
 5274 0dc4 C8010000 		.4byte	.LVL367
 5275 0dc8 D3010000 		.4byte	0x1d3
 5276 0dcc E50D0000 		.4byte	0xde5
 5277 0dd0 11       		.uleb128 0x11
 5278 0dd1 01       		.uleb128 0x1
 5279 0dd2 52       		.byte	0x52
 5280 0dd3 01       		.uleb128 0x1
 5281 0dd4 32       		.byte	0x32
 5282 0dd5 11       		.uleb128 0x11
 5283 0dd6 01       		.uleb128 0x1
 5284 0dd7 51       		.byte	0x51
 5285 0dd8 05       		.uleb128 0x5
 5286 0dd9 03       		.byte	0x3
 5287 0dda 24000000 		.4byte	.LANCHOR1+36
 5288 0dde 11       		.uleb128 0x11
 5289 0ddf 01       		.uleb128 0x1
 5290 0de0 50       		.byte	0x50
 5291 0de1 02       		.uleb128 0x2
 5292 0de2 08       		.byte	0x8
 5293 0de3 77       		.byte	0x77
 5294 0de4 00       		.byte	0
 5295 0de5 10       		.uleb128 0x10
 5296 0de6 DE010000 		.4byte	.LVL368
 5297 0dea 0B020000 		.4byte	0x20b
 5298 0dee 0D0E0000 		.4byte	0xe0d
 5299 0df2 11       		.uleb128 0x11
 5300 0df3 01       		.uleb128 0x1
 5301 0df4 53       		.byte	0x53
 5302 0df5 01       		.uleb128 0x1
 5303 0df6 32       		.byte	0x32
 5304 0df7 11       		.uleb128 0x11
 5305 0df8 01       		.uleb128 0x1
 5306 0df9 52       		.byte	0x52
 5307 0dfa 05       		.uleb128 0x5
 5308 0dfb 03       		.byte	0x3
 5309 0dfc 00000000 		.4byte	Alt_Read_Data
 5310 0e00 11       		.uleb128 0x11
 5311 0e01 01       		.uleb128 0x1
 5312 0e02 51       		.byte	0x51
 5313 0e03 02       		.uleb128 0x2
 5314 0e04 09       		.byte	0x9
 5315 0e05 F6       		.byte	0xf6
 5316 0e06 11       		.uleb128 0x11
 5317 0e07 01       		.uleb128 0x1
 5318 0e08 50       		.byte	0x50
 5319 0e09 02       		.uleb128 0x2
 5320 0e0a 08       		.byte	0x8
 5321 0e0b 77       		.byte	0x77
 5322 0e0c 00       		.byte	0
 5323 0e0d 10       		.uleb128 0x10
 5324 0e0e 0E020000 		.4byte	.LVL369
 5325 0e12 D3010000 		.4byte	0x1d3
 5326 0e16 2F0E0000 		.4byte	0xe2f
 5327 0e1a 11       		.uleb128 0x11
ARM GAS  C:\Users\acer\AppData\Local\Temp\ccmxYZNb.s 			page 116


 5328 0e1b 01       		.uleb128 0x1
 5329 0e1c 52       		.byte	0x52
 5330 0e1d 01       		.uleb128 0x1
 5331 0e1e 32       		.byte	0x32
 5332 0e1f 11       		.uleb128 0x11
 5333 0e20 01       		.uleb128 0x1
 5334 0e21 51       		.byte	0x51
 5335 0e22 05       		.uleb128 0x5
 5336 0e23 03       		.byte	0x3
 5337 0e24 26000000 		.4byte	.LANCHOR1+38
 5338 0e28 11       		.uleb128 0x11
 5339 0e29 01       		.uleb128 0x1
 5340 0e2a 50       		.byte	0x50
 5341 0e2b 02       		.uleb128 0x2
 5342 0e2c 08       		.byte	0x8
 5343 0e2d 77       		.byte	0x77
 5344 0e2e 00       		.byte	0
 5345 0e2f 10       		.uleb128 0x10
 5346 0e30 24020000 		.4byte	.LVL370
 5347 0e34 0B020000 		.4byte	0x20b
 5348 0e38 570E0000 		.4byte	0xe57
 5349 0e3c 11       		.uleb128 0x11
 5350 0e3d 01       		.uleb128 0x1
 5351 0e3e 53       		.byte	0x53
 5352 0e3f 01       		.uleb128 0x1
 5353 0e40 33       		.byte	0x33
 5354 0e41 11       		.uleb128 0x11
 5355 0e42 01       		.uleb128 0x1
 5356 0e43 52       		.byte	0x52
 5357 0e44 05       		.uleb128 0x5
 5358 0e45 03       		.byte	0x3
 5359 0e46 03000000 		.4byte	Alt_Read_Data+3
 5360 0e4a 11       		.uleb128 0x11
 5361 0e4b 01       		.uleb128 0x1
 5362 0e4c 51       		.byte	0x51
 5363 0e4d 02       		.uleb128 0x2
 5364 0e4e 09       		.byte	0x9
 5365 0e4f F6       		.byte	0xf6
 5366 0e50 11       		.uleb128 0x11
 5367 0e51 01       		.uleb128 0x1
 5368 0e52 50       		.byte	0x50
 5369 0e53 02       		.uleb128 0x2
 5370 0e54 08       		.byte	0x8
 5371 0e55 77       		.byte	0x77
 5372 0e56 00       		.byte	0
 5373 0e57 10       		.uleb128 0x10
 5374 0e58 BA020000 		.4byte	.LVL371
 5375 0e5c 30070000 		.4byte	0x730
 5376 0e60 6B0E0000 		.4byte	0xe6b
 5377 0e64 11       		.uleb128 0x11
 5378 0e65 01       		.uleb128 0x1
 5379 0e66 50       		.byte	0x50
 5380 0e67 02       		.uleb128 0x2
 5381 0e68 91       		.byte	0x91
 5382 0e69 4C       		.sleb128 -52
 5383 0e6a 00       		.byte	0
 5384 0e6b 10       		.uleb128 0x10
ARM GAS  C:\Users\acer\AppData\Local\Temp\ccmxYZNb.s 			page 117


 5385 0e6c CA020000 		.4byte	.LVL372
 5386 0e70 3B0B0000 		.4byte	0xb3b
 5387 0e74 900E0000 		.4byte	0xe90
 5388 0e78 11       		.uleb128 0x11
 5389 0e79 01       		.uleb128 0x1
 5390 0e7a 53       		.byte	0x53
 5391 0e7b 05       		.uleb128 0x5
 5392 0e7c 03       		.byte	0x3
 5393 0e7d 00000000 		.4byte	PressureVal
 5394 0e81 11       		.uleb128 0x11
 5395 0e82 01       		.uleb128 0x1
 5396 0e83 51       		.byte	0x51
 5397 0e84 03       		.uleb128 0x3
 5398 0e85 74       		.byte	0x74
 5399 0e86 DC00     		.sleb128 92
 5400 0e88 11       		.uleb128 0x11
 5401 0e89 01       		.uleb128 0x1
 5402 0e8a 50       		.byte	0x50
 5403 0e8b 03       		.uleb128 0x3
 5404 0e8c 74       		.byte	0x74
 5405 0e8d D800     		.sleb128 88
 5406 0e8f 00       		.byte	0
 5407 0e90 10       		.uleb128 0x10
 5408 0e91 D2020000 		.4byte	.LVL373
 5409 0e95 E60A0000 		.4byte	0xae6
 5410 0e99 A40E0000 		.4byte	0xea4
 5411 0e9d 11       		.uleb128 0x11
 5412 0e9e 01       		.uleb128 0x1
 5413 0e9f 50       		.byte	0x50
 5414 0ea0 02       		.uleb128 0x2
 5415 0ea1 91       		.byte	0x91
 5416 0ea2 50       		.sleb128 -48
 5417 0ea3 00       		.byte	0
 5418 0ea4 10       		.uleb128 0x10
 5419 0ea5 E2020000 		.4byte	.LVL374
 5420 0ea9 3B0B0000 		.4byte	0xb3b
 5421 0ead C90E0000 		.4byte	0xec9
 5422 0eb1 11       		.uleb128 0x11
 5423 0eb2 01       		.uleb128 0x1
 5424 0eb3 53       		.byte	0x53
 5425 0eb4 05       		.uleb128 0x5
 5426 0eb5 03       		.byte	0x3
 5427 0eb6 00000000 		.4byte	AltitudeVal
 5428 0eba 11       		.uleb128 0x11
 5429 0ebb 01       		.uleb128 0x1
 5430 0ebc 51       		.byte	0x51
 5431 0ebd 03       		.uleb128 0x3
 5432 0ebe 74       		.byte	0x74
 5433 0ebf 8001     		.sleb128 128
 5434 0ec1 11       		.uleb128 0x11
 5435 0ec2 01       		.uleb128 0x1
 5436 0ec3 50       		.byte	0x50
 5437 0ec4 03       		.uleb128 0x3
 5438 0ec5 74       		.byte	0x74
 5439 0ec6 FC00     		.sleb128 124
 5440 0ec8 00       		.byte	0
 5441 0ec9 10       		.uleb128 0x10
ARM GAS  C:\Users\acer\AppData\Local\Temp\ccmxYZNb.s 			page 118


 5442 0eca E8020000 		.4byte	.LVL375
 5443 0ece EF060000 		.4byte	0x6ef
 5444 0ed2 DD0E0000 		.4byte	0xedd
 5445 0ed6 11       		.uleb128 0x11
 5446 0ed7 01       		.uleb128 0x1
 5447 0ed8 50       		.byte	0x50
 5448 0ed9 02       		.uleb128 0x2
 5449 0eda 91       		.byte	0x91
 5450 0edb 54       		.sleb128 -44
 5451 0edc 00       		.byte	0
 5452 0edd 10       		.uleb128 0x10
 5453 0ede F8020000 		.4byte	.LVL376
 5454 0ee2 3B0B0000 		.4byte	0xb3b
 5455 0ee6 020F0000 		.4byte	0xf02
 5456 0eea 11       		.uleb128 0x11
 5457 0eeb 01       		.uleb128 0x1
 5458 0eec 53       		.byte	0x53
 5459 0eed 05       		.uleb128 0x5
 5460 0eee 03       		.byte	0x3
 5461 0eef 00000000 		.4byte	TemperatureVal
 5462 0ef3 11       		.uleb128 0x11
 5463 0ef4 01       		.uleb128 0x1
 5464 0ef5 51       		.byte	0x51
 5465 0ef6 03       		.uleb128 0x3
 5466 0ef7 74       		.byte	0x74
 5467 0ef8 A401     		.sleb128 164
 5468 0efa 11       		.uleb128 0x11
 5469 0efb 01       		.uleb128 0x1
 5470 0efc 50       		.byte	0x50
 5471 0efd 03       		.uleb128 0x3
 5472 0efe 74       		.byte	0x74
 5473 0eff A001     		.sleb128 160
 5474 0f01 00       		.byte	0
 5475 0f02 10       		.uleb128 0x10
 5476 0f03 F2030000 		.4byte	.LVL401
 5477 0f07 72040000 		.4byte	0x472
 5478 0f0b 490F0000 		.4byte	0xf49
 5479 0f0f 11       		.uleb128 0x11
 5480 0f10 01       		.uleb128 0x1
 5481 0f11 53       		.byte	0x53
 5482 0f12 06       		.uleb128 0x6
 5483 0f13 91       		.byte	0x91
 5484 0f14 B87F     		.sleb128 -72
 5485 0f16 F6       		.byte	0xf6
 5486 0f17 04       		.byte	0x4
 5487 0f18 25       		.uleb128 0x25
 5488 0f19 11       		.uleb128 0x11
 5489 0f1a 01       		.uleb128 0x1
 5490 0f1b 51       		.byte	0x51
 5491 0f1c 03       		.uleb128 0x3
 5492 0f1d F5       		.byte	0xf5
 5493 0f1e 0B       		.uleb128 0xb
 5494 0f1f 25       		.uleb128 0x25
 5495 0f20 11       		.uleb128 0x11
 5496 0f21 02       		.uleb128 0x2
 5497 0f22 7D       		.byte	0x7d
 5498 0f23 10       		.sleb128 16
ARM GAS  C:\Users\acer\AppData\Local\Temp\ccmxYZNb.s 			page 119


 5499 0f24 03       		.uleb128 0x3
 5500 0f25 F5       		.byte	0xf5
 5501 0f26 04       		.uleb128 0x4
 5502 0f27 25       		.uleb128 0x25
 5503 0f28 11       		.uleb128 0x11
 5504 0f29 02       		.uleb128 0x2
 5505 0f2a 7D       		.byte	0x7d
 5506 0f2b 0C       		.sleb128 12
 5507 0f2c 03       		.uleb128 0x3
 5508 0f2d F5       		.byte	0xf5
 5509 0f2e 06       		.uleb128 0x6
 5510 0f2f 25       		.uleb128 0x25
 5511 0f30 11       		.uleb128 0x11
 5512 0f31 02       		.uleb128 0x2
 5513 0f32 7D       		.byte	0x7d
 5514 0f33 08       		.sleb128 8
 5515 0f34 03       		.uleb128 0x3
 5516 0f35 F5       		.byte	0xf5
 5517 0f36 07       		.uleb128 0x7
 5518 0f37 25       		.uleb128 0x25
 5519 0f38 11       		.uleb128 0x11
 5520 0f39 02       		.uleb128 0x2
 5521 0f3a 7D       		.byte	0x7d
 5522 0f3b 04       		.sleb128 4
 5523 0f3c 03       		.uleb128 0x3
 5524 0f3d F5       		.byte	0xf5
 5525 0f3e 08       		.uleb128 0x8
 5526 0f3f 25       		.uleb128 0x25
 5527 0f40 11       		.uleb128 0x11
 5528 0f41 02       		.uleb128 0x2
 5529 0f42 7D       		.byte	0x7d
 5530 0f43 00       		.sleb128 0
 5531 0f44 03       		.uleb128 0x3
 5532 0f45 F5       		.byte	0xf5
 5533 0f46 09       		.uleb128 0x9
 5534 0f47 25       		.uleb128 0x25
 5535 0f48 00       		.byte	0
 5536 0f49 0F       		.uleb128 0xf
 5537 0f4a 32040000 		.4byte	.LVL408
 5538 0f4e B2140000 		.4byte	0x14b2
 5539 0f52 0F       		.uleb128 0xf
 5540 0f53 E0040000 		.4byte	.LVL424
 5541 0f57 C7140000 		.4byte	0x14c7
 5542 0f5b 0F       		.uleb128 0xf
 5543 0f5c D8050000 		.4byte	.LVL440
 5544 0f60 C7140000 		.4byte	0x14c7
 5545 0f64 00       		.byte	0
 5546 0f65 08       		.uleb128 0x8
 5547 0f66 C9000000 		.4byte	0xc9
 5548 0f6a 750F0000 		.4byte	0xf75
 5549 0f6e 09       		.uleb128 0x9
 5550 0f6f A1000000 		.4byte	0xa1
 5551 0f73 02       		.byte	0x2
 5552 0f74 00       		.byte	0
 5553 0f75 08       		.uleb128 0x8
 5554 0f76 C8010000 		.4byte	0x1c8
 5555 0f7a 850F0000 		.4byte	0xf85
ARM GAS  C:\Users\acer\AppData\Local\Temp\ccmxYZNb.s 			page 120


 5556 0f7e 09       		.uleb128 0x9
 5557 0f7f A1000000 		.4byte	0xa1
 5558 0f83 02       		.byte	0x2
 5559 0f84 00       		.byte	0
 5560 0f85 16       		.uleb128 0x16
 5561 0f86 90030000 		.4byte	.LASF85
 5562 0f8a 01       		.byte	0x1
 5563 0f8b 6F03     		.2byte	0x36f
 5564 0f8d 00000000 		.4byte	.LFB12
 5565 0f91 38000000 		.4byte	.LFE12-.LFB12
 5566 0f95 01       		.uleb128 0x1
 5567 0f96 9C       		.byte	0x9c
 5568 0f97 AA0F0000 		.4byte	0xfaa
 5569 0f9b 18       		.uleb128 0x18
 5570 0f9c C8040000 		.4byte	.LASF86
 5571 0fa0 01       		.byte	0x1
 5572 0fa1 6F03     		.2byte	0x36f
 5573 0fa3 A8000000 		.4byte	0xa8
 5574 0fa7 01       		.uleb128 0x1
 5575 0fa8 50       		.byte	0x50
 5576 0fa9 00       		.byte	0
 5577 0faa 24       		.uleb128 0x24
 5578 0fab 81020000 		.4byte	.LASF130
 5579 0faf 01       		.byte	0x1
 5580 0fb0 8703     		.2byte	0x387
 5581 0fb2 A8000000 		.4byte	0xa8
 5582 0fb6 00000000 		.4byte	.LFB13
 5583 0fba 0C000000 		.4byte	.LFE13-.LFB13
 5584 0fbe 01       		.uleb128 0x1
 5585 0fbf 9C       		.byte	0x9c
 5586 0fc0 0E       		.uleb128 0xe
 5587 0fc1 54040000 		.4byte	.LASF87
 5588 0fc5 01       		.byte	0x1
 5589 0fc6 1B       		.byte	0x1b
 5590 0fc7 A8000000 		.4byte	0xa8
 5591 0fcb 05       		.uleb128 0x5
 5592 0fcc 03       		.byte	0x3
 5593 0fcd 01000000 		.4byte	rx_Slv_add
 5594 0fd1 0E       		.uleb128 0xe
 5595 0fd2 A6010000 		.4byte	.LASF88
 5596 0fd6 01       		.byte	0x1
 5597 0fd7 1B       		.byte	0x1b
 5598 0fd8 A8000000 		.4byte	0xa8
 5599 0fdc 05       		.uleb128 0x5
 5600 0fdd 03       		.byte	0x3
 5601 0fde 03000000 		.4byte	temp_rx_slv_reg
 5602 0fe2 0E       		.uleb128 0xe
 5603 0fe3 F5040000 		.4byte	.LASF89
 5604 0fe7 01       		.byte	0x1
 5605 0fe8 1B       		.byte	0x1b
 5606 0fe9 A8000000 		.4byte	0xa8
 5607 0fed 05       		.uleb128 0x5
 5608 0fee 03       		.byte	0x3
 5609 0fef 02000000 		.4byte	rx_Slv_dta_lnt
 5610 0ff3 08       		.uleb128 0x8
 5611 0ff4 B3000000 		.4byte	0xb3
 5612 0ff8 09100000 		.4byte	0x1009
ARM GAS  C:\Users\acer\AppData\Local\Temp\ccmxYZNb.s 			page 121


 5613 0ffc 09       		.uleb128 0x9
 5614 0ffd A1000000 		.4byte	0xa1
 5615 1001 06       		.byte	0x6
 5616 1002 09       		.uleb128 0x9
 5617 1003 A1000000 		.4byte	0xa1
 5618 1007 01       		.byte	0x1
 5619 1008 00       		.byte	0
 5620 1009 25       		.uleb128 0x25
 5621 100a 7A030000 		.4byte	.LASF90
 5622 100e 06       		.byte	0x6
 5623 100f 2F       		.byte	0x2f
 5624 1010 F30F0000 		.4byte	0xff3
 5625 1014 05       		.uleb128 0x5
 5626 1015 03       		.byte	0x3
 5627 1016 00000000 		.4byte	Gyro_Calib_Data
 5628 101a 08       		.uleb128 0x8
 5629 101b A8000000 		.4byte	0xa8
 5630 101f 2A100000 		.4byte	0x102a
 5631 1023 09       		.uleb128 0x9
 5632 1024 A1000000 		.4byte	0xa1
 5633 1028 0D       		.byte	0xd
 5634 1029 00       		.byte	0
 5635 102a 25       		.uleb128 0x25
 5636 102b C9030000 		.4byte	.LASF91
 5637 102f 06       		.byte	0x6
 5638 1030 52       		.byte	0x52
 5639 1031 1A100000 		.4byte	0x101a
 5640 1035 05       		.uleb128 0x5
 5641 1036 03       		.byte	0x3
 5642 1037 00000000 		.4byte	Gyro_Temp_Acc_Reg
 5643 103b 08       		.uleb128 0x8
 5644 103c B3000000 		.4byte	0xb3
 5645 1040 51100000 		.4byte	0x1051
 5646 1044 09       		.uleb128 0x9
 5647 1045 A1000000 		.4byte	0xa1
 5648 1049 03       		.byte	0x3
 5649 104a 09       		.uleb128 0x9
 5650 104b A1000000 		.4byte	0xa1
 5651 104f 01       		.byte	0x1
 5652 1050 00       		.byte	0
 5653 1051 25       		.uleb128 0x25
 5654 1052 6B040000 		.4byte	.LASF92
 5655 1056 06       		.byte	0x6
 5656 1057 80       		.byte	0x80
 5657 1058 3B100000 		.4byte	0x103b
 5658 105c 05       		.uleb128 0x5
 5659 105d 03       		.byte	0x3
 5660 105e 00000000 		.4byte	Mag_Calib_Data
 5661 1062 08       		.uleb128 0x8
 5662 1063 B3000000 		.4byte	0xb3
 5663 1067 72100000 		.4byte	0x1072
 5664 106b 09       		.uleb128 0x9
 5665 106c A1000000 		.4byte	0xa1
 5666 1070 06       		.byte	0x6
 5667 1071 00       		.byte	0
 5668 1072 25       		.uleb128 0x25
 5669 1073 BD010000 		.4byte	.LASF93
ARM GAS  C:\Users\acer\AppData\Local\Temp\ccmxYZNb.s 			page 122


 5670 1077 06       		.byte	0x6
 5671 1078 91       		.byte	0x91
 5672 1079 83100000 		.4byte	0x1083
 5673 107d 05       		.uleb128 0x5
 5674 107e 03       		.byte	0x3
 5675 107f 00000000 		.4byte	Mag_Reg
 5676 1083 26       		.uleb128 0x26
 5677 1084 62100000 		.4byte	0x1062
 5678 1088 08       		.uleb128 0x8
 5679 1089 A8000000 		.4byte	0xa8
 5680 108d 98100000 		.4byte	0x1098
 5681 1091 09       		.uleb128 0x9
 5682 1092 A1000000 		.4byte	0xa1
 5683 1096 0A       		.byte	0xa
 5684 1097 00       		.byte	0
 5685 1098 25       		.uleb128 0x25
 5686 1099 AD000000 		.4byte	.LASF94
 5687 109d 06       		.byte	0x6
 5688 109e B8       		.byte	0xb8
 5689 109f A9100000 		.4byte	0x10a9
 5690 10a3 05       		.uleb128 0x5
 5691 10a4 03       		.byte	0x3
 5692 10a5 00000000 		.4byte	Pres_Reg
 5693 10a9 26       		.uleb128 0x26
 5694 10aa 88100000 		.4byte	0x1088
 5695 10ae 08       		.uleb128 0x8
 5696 10af B3000000 		.4byte	0xb3
 5697 10b3 C4100000 		.4byte	0x10c4
 5698 10b7 09       		.uleb128 0x9
 5699 10b8 A1000000 		.4byte	0xa1
 5700 10bc 01       		.byte	0x1
 5701 10bd 09       		.uleb128 0x9
 5702 10be A1000000 		.4byte	0xa1
 5703 10c2 01       		.byte	0x1
 5704 10c3 00       		.byte	0
 5705 10c4 25       		.uleb128 0x25
 5706 10c5 E3050000 		.4byte	.LASF95
 5707 10c9 06       		.byte	0x6
 5708 10ca D1       		.byte	0xd1
 5709 10cb AE100000 		.4byte	0x10ae
 5710 10cf 05       		.uleb128 0x5
 5711 10d0 03       		.byte	0x3
 5712 10d1 00000000 		.4byte	Alt_Calib_Data
 5713 10d5 25       		.uleb128 0x25
 5714 10d6 04050000 		.4byte	.LASF96
 5715 10da 01       		.byte	0x1
 5716 10db 1A       		.byte	0x1a
 5717 10dc E6100000 		.4byte	0x10e6
 5718 10e0 05       		.uleb128 0x5
 5719 10e1 03       		.byte	0x3
 5720 10e2 00000000 		.4byte	stI2CMgr
 5721 10e6 27       		.uleb128 0x27
 5722 10e7 45000000 		.4byte	0x45
 5723 10eb 25       		.uleb128 0x25
 5724 10ec 56060000 		.4byte	.LASF97
 5725 10f0 01       		.byte	0x1
 5726 10f1 1C       		.byte	0x1c
ARM GAS  C:\Users\acer\AppData\Local\Temp\ccmxYZNb.s 			page 123


 5727 10f2 FC100000 		.4byte	0x10fc
 5728 10f6 05       		.uleb128 0x5
 5729 10f7 03       		.byte	0x3
 5730 10f8 00000000 		.4byte	rx_rd_data_ptr
 5731 10fc 0C       		.uleb128 0xc
 5732 10fd 04       		.byte	0x4
 5733 10fe A8000000 		.4byte	0xa8
 5734 1102 08       		.uleb128 0x8
 5735 1103 B3000000 		.4byte	0xb3
 5736 1107 12110000 		.4byte	0x1112
 5737 110b 09       		.uleb128 0x9
 5738 110c A1000000 		.4byte	0xa1
 5739 1110 0D       		.byte	0xd
 5740 1111 00       		.byte	0
 5741 1112 25       		.uleb128 0x25
 5742 1113 0A000000 		.4byte	.LASF98
 5743 1117 01       		.byte	0x1
 5744 1118 1F       		.byte	0x1f
 5745 1119 02110000 		.4byte	0x1102
 5746 111d 05       		.uleb128 0x5
 5747 111e 03       		.byte	0x3
 5748 111f 00000000 		.4byte	Gyro_Temp_Acc_Read_Data
 5749 1123 08       		.uleb128 0x8
 5750 1124 DF000000 		.4byte	0xdf
 5751 1128 33110000 		.4byte	0x1133
 5752 112c 09       		.uleb128 0x9
 5753 112d A1000000 		.4byte	0xa1
 5754 1131 02       		.byte	0x2
 5755 1132 00       		.byte	0
 5756 1133 25       		.uleb128 0x25
 5757 1134 5E000000 		.4byte	.LASF99
 5758 1138 01       		.byte	0x1
 5759 1139 20       		.byte	0x20
 5760 113a 23110000 		.4byte	0x1123
 5761 113e 05       		.uleb128 0x5
 5762 113f 03       		.byte	0x3
 5763 1140 00000000 		.4byte	OutBuffer
 5764 1144 25       		.uleb128 0x25
 5765 1145 41030000 		.4byte	.LASF100
 5766 1149 01       		.byte	0x1
 5767 114a 21       		.byte	0x21
 5768 114b 650F0000 		.4byte	0xf65
 5769 114f 05       		.uleb128 0x5
 5770 1150 03       		.byte	0x3
 5771 1151 00000000 		.4byte	InBuffer
 5772 1155 25       		.uleb128 0x25
 5773 1156 AB030000 		.4byte	.LASF101
 5774 115a 01       		.byte	0x1
 5775 115b 24       		.byte	0x24
 5776 115c B3000000 		.4byte	0xb3
 5777 1160 05       		.uleb128 0x5
 5778 1161 03       		.byte	0x3
 5779 1162 00000000 		.4byte	st_IMU
 5780 1166 25       		.uleb128 0x25
 5781 1167 C1030000 		.4byte	.LASF102
 5782 116b 01       		.byte	0x1
 5783 116c 25       		.byte	0x25
ARM GAS  C:\Users\acer\AppData\Local\Temp\ccmxYZNb.s 			page 124


 5784 116d B3000000 		.4byte	0xb3
 5785 1171 05       		.uleb128 0x5
 5786 1172 03       		.byte	0x3
 5787 1173 00000000 		.4byte	st_Read
 5788 1177 25       		.uleb128 0x25
 5789 1178 6B030000 		.4byte	.LASF103
 5790 117c 01       		.byte	0x1
 5791 117d 28       		.byte	0x28
 5792 117e 18010000 		.4byte	0x118
 5793 1182 05       		.uleb128 0x5
 5794 1183 03       		.byte	0x3
 5795 1184 00000000 		.4byte	MPU9250_Offset
 5796 1188 08       		.uleb128 0x8
 5797 1189 8C010000 		.4byte	0x18c
 5798 118d 98110000 		.4byte	0x1198
 5799 1191 09       		.uleb128 0x9
 5800 1192 A1000000 		.4byte	0xa1
 5801 1196 02       		.byte	0x2
 5802 1197 00       		.byte	0
 5803 1198 25       		.uleb128 0x25
 5804 1199 D0040000 		.4byte	.LASF104
 5805 119d 01       		.byte	0x1
 5806 119e 29       		.byte	0x29
 5807 119f 88110000 		.4byte	0x1188
 5808 11a3 05       		.uleb128 0x5
 5809 11a4 03       		.byte	0x3
 5810 11a5 00000000 		.4byte	MPU9250_Filter_Gyro
 5811 11a9 25       		.uleb128 0x25
 5812 11aa 98020000 		.4byte	.LASF105
 5813 11ae 01       		.byte	0x1
 5814 11af 29       		.byte	0x29
 5815 11b0 88110000 		.4byte	0x1188
 5816 11b4 05       		.uleb128 0x5
 5817 11b5 03       		.byte	0x3
 5818 11b6 00000000 		.4byte	MPU9250_Filter_Acc
 5819 11ba 25       		.uleb128 0x25
 5820 11bb 43060000 		.4byte	.LASF106
 5821 11bf 01       		.byte	0x1
 5822 11c0 29       		.byte	0x29
 5823 11c1 88110000 		.4byte	0x1188
 5824 11c5 05       		.uleb128 0x5
 5825 11c6 03       		.byte	0x3
 5826 11c7 00000000 		.4byte	MPU9250_Filter_Mag
 5827 11cb 25       		.uleb128 0x25
 5828 11cc A6030000 		.4byte	.LASF107
 5829 11d0 01       		.byte	0x1
 5830 11d1 2A       		.byte	0x2a
 5831 11d2 650F0000 		.4byte	0xf65
 5832 11d6 05       		.uleb128 0x5
 5833 11d7 03       		.byte	0x3
 5834 11d8 00000000 		.4byte	gyro
 5835 11dc 25       		.uleb128 0x25
 5836 11dd 18030000 		.4byte	.LASF108
 5837 11e1 01       		.byte	0x1
 5838 11e2 2D       		.byte	0x2d
 5839 11e3 50010000 		.4byte	0x150
 5840 11e7 05       		.uleb128 0x5
ARM GAS  C:\Users\acer\AppData\Local\Temp\ccmxYZNb.s 			page 125


 5841 11e8 03       		.byte	0x3
 5842 11e9 00000000 		.4byte	MPU9250_Magn_Offset
 5843 11ed 25       		.uleb128 0x25
 5844 11ee 92010000 		.4byte	.LASF109
 5845 11f2 01       		.byte	0x1
 5846 11f3 2E       		.byte	0x2e
 5847 11f4 62100000 		.4byte	0x1062
 5848 11f8 05       		.uleb128 0x5
 5849 11f9 03       		.byte	0x3
 5850 11fa 00000000 		.4byte	Mag_Read_Data
 5851 11fe 28       		.uleb128 0x28
 5852 11ff 713000   		.ascii	"q0\000"
 5853 1202 01       		.byte	0x1
 5854 1203 31       		.byte	0x31
 5855 1204 0E120000 		.4byte	0x120e
 5856 1208 05       		.uleb128 0x5
 5857 1209 03       		.byte	0x3
 5858 120a 00000000 		.4byte	q0
 5859 120e 27       		.uleb128 0x27
 5860 120f 25000000 		.4byte	0x25
 5861 1213 28       		.uleb128 0x28
 5862 1214 713100   		.ascii	"q1\000"
 5863 1217 01       		.byte	0x1
 5864 1218 31       		.byte	0x31
 5865 1219 0E120000 		.4byte	0x120e
 5866 121d 05       		.uleb128 0x5
 5867 121e 03       		.byte	0x3
 5868 121f 00000000 		.4byte	q1
 5869 1223 28       		.uleb128 0x28
 5870 1224 713200   		.ascii	"q2\000"
 5871 1227 01       		.byte	0x1
 5872 1228 31       		.byte	0x31
 5873 1229 0E120000 		.4byte	0x120e
 5874 122d 05       		.uleb128 0x5
 5875 122e 03       		.byte	0x3
 5876 122f 00000000 		.4byte	q2
 5877 1233 28       		.uleb128 0x28
 5878 1234 713300   		.ascii	"q3\000"
 5879 1237 01       		.byte	0x1
 5880 1238 31       		.byte	0x31
 5881 1239 0E120000 		.4byte	0x120e
 5882 123d 05       		.uleb128 0x5
 5883 123e 03       		.byte	0x3
 5884 123f 00000000 		.4byte	q3
 5885 1243 08       		.uleb128 0x8
 5886 1244 25000000 		.4byte	0x25
 5887 1248 53120000 		.4byte	0x1253
 5888 124c 09       		.uleb128 0x9
 5889 124d A1000000 		.4byte	0xa1
 5890 1251 08       		.byte	0x8
 5891 1252 00       		.byte	0
 5892 1253 25       		.uleb128 0x25
 5893 1254 00000000 		.4byte	.LASF110
 5894 1258 01       		.byte	0x1
 5895 1259 34       		.byte	0x34
 5896 125a 43120000 		.4byte	0x1243
 5897 125e 05       		.uleb128 0x5
ARM GAS  C:\Users\acer\AppData\Local\Temp\ccmxYZNb.s 			page 126


 5898 125f 03       		.byte	0x3
 5899 1260 00000000 		.4byte	MotionVal
 5900 1264 08       		.uleb128 0x8
 5901 1265 25000000 		.4byte	0x25
 5902 1269 74120000 		.4byte	0x1274
 5903 126d 09       		.uleb128 0x9
 5904 126e A1000000 		.4byte	0xa1
 5905 1272 02       		.byte	0x2
 5906 1273 00       		.byte	0
 5907 1274 25       		.uleb128 0x25
 5908 1275 1C060000 		.4byte	.LASF111
 5909 1279 01       		.byte	0x1
 5910 127a 35       		.byte	0x35
 5911 127b 64120000 		.4byte	0x1264
 5912 127f 05       		.uleb128 0x5
 5913 1280 03       		.byte	0x3
 5914 1281 00000000 		.4byte	angles
 5915 1285 25       		.uleb128 0x25
 5916 1286 9C030000 		.4byte	.LASF112
 5917 128a 01       		.byte	0x1
 5918 128b 38       		.byte	0x38
 5919 128c DF000000 		.4byte	0xdf
 5920 1290 05       		.uleb128 0x5
 5921 1291 03       		.byte	0x3
 5922 1292 00000000 		.4byte	Pressure0
 5923 1296 25       		.uleb128 0x25
 5924 1297 49050000 		.4byte	.LASF76
 5925 129b 01       		.byte	0x1
 5926 129c 39       		.byte	0x39
 5927 129d DF000000 		.4byte	0xdf
 5928 12a1 05       		.uleb128 0x5
 5929 12a2 03       		.byte	0x3
 5930 12a3 00000000 		.4byte	PressureVal
 5931 12a7 25       		.uleb128 0x25
 5932 12a8 4F000000 		.4byte	.LASF113
 5933 12ac 01       		.byte	0x1
 5934 12ad 39       		.byte	0x39
 5935 12ae DF000000 		.4byte	0xdf
 5936 12b2 05       		.uleb128 0x5
 5937 12b3 03       		.byte	0x3
 5938 12b4 00000000 		.4byte	TemperatureVal
 5939 12b8 25       		.uleb128 0x25
 5940 12b9 7F000000 		.4byte	.LASF114
 5941 12bd 01       		.byte	0x1
 5942 12be 39       		.byte	0x39
 5943 12bf DF000000 		.4byte	0xdf
 5944 12c3 05       		.uleb128 0x5
 5945 12c4 03       		.byte	0x3
 5946 12c5 00000000 		.4byte	AltitudeVal
 5947 12c9 08       		.uleb128 0x8
 5948 12ca B3000000 		.4byte	0xb3
 5949 12ce DF120000 		.4byte	0x12df
 5950 12d2 09       		.uleb128 0x9
 5951 12d3 A1000000 		.4byte	0xa1
 5952 12d7 01       		.byte	0x1
 5953 12d8 09       		.uleb128 0x9
 5954 12d9 A1000000 		.4byte	0xa1
ARM GAS  C:\Users\acer\AppData\Local\Temp\ccmxYZNb.s 			page 127


 5955 12dd 02       		.byte	0x2
 5956 12de 00       		.byte	0
 5957 12df 25       		.uleb128 0x25
 5958 12e0 AF040000 		.4byte	.LASF115
 5959 12e4 01       		.byte	0x1
 5960 12e5 3A       		.byte	0x3a
 5961 12e6 C9120000 		.4byte	0x12c9
 5962 12ea 05       		.uleb128 0x5
 5963 12eb 03       		.byte	0x3
 5964 12ec 00000000 		.4byte	Alt_Read_Data
 5965 12f0 28       		.uleb128 0x28
 5966 12f1 41433100 		.ascii	"AC1\000"
 5967 12f5 01       		.byte	0x1
 5968 12f6 3B       		.byte	0x3b
 5969 12f7 C9000000 		.4byte	0xc9
 5970 12fb 05       		.uleb128 0x5
 5971 12fc 03       		.byte	0x3
 5972 12fd 00000000 		.4byte	AC1
 5973 1301 28       		.uleb128 0x28
 5974 1302 41433200 		.ascii	"AC2\000"
 5975 1306 01       		.byte	0x1
 5976 1307 3B       		.byte	0x3b
 5977 1308 C9000000 		.4byte	0xc9
 5978 130c 05       		.uleb128 0x5
 5979 130d 03       		.byte	0x3
 5980 130e 00000000 		.4byte	AC2
 5981 1312 28       		.uleb128 0x28
 5982 1313 41433300 		.ascii	"AC3\000"
 5983 1317 01       		.byte	0x1
 5984 1318 3B       		.byte	0x3b
 5985 1319 C9000000 		.4byte	0xc9
 5986 131d 05       		.uleb128 0x5
 5987 131e 03       		.byte	0x3
 5988 131f 00000000 		.4byte	AC3
 5989 1323 28       		.uleb128 0x28
 5990 1324 423100   		.ascii	"B1\000"
 5991 1327 01       		.byte	0x1
 5992 1328 3B       		.byte	0x3b
 5993 1329 C9000000 		.4byte	0xc9
 5994 132d 05       		.uleb128 0x5
 5995 132e 03       		.byte	0x3
 5996 132f 00000000 		.4byte	B1
 5997 1333 28       		.uleb128 0x28
 5998 1334 423200   		.ascii	"B2\000"
 5999 1337 01       		.byte	0x1
 6000 1338 3B       		.byte	0x3b
 6001 1339 C9000000 		.4byte	0xc9
 6002 133d 05       		.uleb128 0x5
 6003 133e 03       		.byte	0x3
 6004 133f 00000000 		.4byte	B2
 6005 1343 28       		.uleb128 0x28
 6006 1344 4D4200   		.ascii	"MB\000"
 6007 1347 01       		.byte	0x1
 6008 1348 3B       		.byte	0x3b
 6009 1349 C9000000 		.4byte	0xc9
 6010 134d 05       		.uleb128 0x5
 6011 134e 03       		.byte	0x3
ARM GAS  C:\Users\acer\AppData\Local\Temp\ccmxYZNb.s 			page 128


 6012 134f 00000000 		.4byte	MB
 6013 1353 28       		.uleb128 0x28
 6014 1354 4D4300   		.ascii	"MC\000"
 6015 1357 01       		.byte	0x1
 6016 1358 3B       		.byte	0x3b
 6017 1359 C9000000 		.4byte	0xc9
 6018 135d 05       		.uleb128 0x5
 6019 135e 03       		.byte	0x3
 6020 135f 00000000 		.4byte	MC
 6021 1363 28       		.uleb128 0x28
 6022 1364 4D4400   		.ascii	"MD\000"
 6023 1367 01       		.byte	0x1
 6024 1368 3B       		.byte	0x3b
 6025 1369 C9000000 		.4byte	0xc9
 6026 136d 05       		.uleb128 0x5
 6027 136e 03       		.byte	0x3
 6028 136f 00000000 		.4byte	MD
 6029 1373 25       		.uleb128 0x25
 6030 1374 33000000 		.4byte	.LASF116
 6031 1378 01       		.byte	0x1
 6032 1379 3B       		.byte	0x3b
 6033 137a C9000000 		.4byte	0xc9
 6034 137e 05       		.uleb128 0x5
 6035 137f 03       		.byte	0x3
 6036 1380 00000000 		.4byte	_oss
 6037 1384 28       		.uleb128 0x28
 6038 1385 41433400 		.ascii	"AC4\000"
 6039 1389 01       		.byte	0x1
 6040 138a 3C       		.byte	0x3c
 6041 138b BE000000 		.4byte	0xbe
 6042 138f 05       		.uleb128 0x5
 6043 1390 03       		.byte	0x3
 6044 1391 00000000 		.4byte	AC4
 6045 1395 28       		.uleb128 0x28
 6046 1396 41433500 		.ascii	"AC5\000"
 6047 139a 01       		.byte	0x1
 6048 139b 3C       		.byte	0x3c
 6049 139c BE000000 		.4byte	0xbe
 6050 13a0 05       		.uleb128 0x5
 6051 13a1 03       		.byte	0x3
 6052 13a2 00000000 		.4byte	AC5
 6053 13a6 28       		.uleb128 0x28
 6054 13a7 41433600 		.ascii	"AC6\000"
 6055 13ab 01       		.byte	0x1
 6056 13ac 3C       		.byte	0x3c
 6057 13ad BE000000 		.4byte	0xbe
 6058 13b1 05       		.uleb128 0x5
 6059 13b2 03       		.byte	0x3
 6060 13b3 00000000 		.4byte	AC6
 6061 13b7 28       		.uleb128 0x28
 6062 13b8 423500   		.ascii	"B5\000"
 6063 13bb 01       		.byte	0x1
 6064 13bc 3D       		.byte	0x3d
 6065 13bd DF000000 		.4byte	0xdf
 6066 13c1 05       		.uleb128 0x5
 6067 13c2 03       		.byte	0x3
 6068 13c3 00000000 		.4byte	B5
ARM GAS  C:\Users\acer\AppData\Local\Temp\ccmxYZNb.s 			page 129


 6069 13c7 28       		.uleb128 0x28
 6070 13c8 555400   		.ascii	"UT\000"
 6071 13cb 01       		.byte	0x1
 6072 13cc 3D       		.byte	0x3d
 6073 13cd DF000000 		.4byte	0xdf
 6074 13d1 05       		.uleb128 0x5
 6075 13d2 03       		.byte	0x3
 6076 13d3 00000000 		.4byte	UT
 6077 13d7 28       		.uleb128 0x28
 6078 13d8 555000   		.ascii	"UP\000"
 6079 13db 01       		.byte	0x1
 6080 13dc 3D       		.byte	0x3d
 6081 13dd DF000000 		.4byte	0xdf
 6082 13e1 05       		.uleb128 0x5
 6083 13e2 03       		.byte	0x3
 6084 13e3 00000000 		.4byte	UP
 6085 13e7 25       		.uleb128 0x25
 6086 13e8 BD040000 		.4byte	.LASF117
 6087 13ec 01       		.byte	0x1
 6088 13ed 3F       		.byte	0x3f
 6089 13ee B3000000 		.4byte	0xb3
 6090 13f2 05       		.uleb128 0x5
 6091 13f3 03       		.byte	0x3
 6092 13f4 00000000 		.4byte	calc_count
 6093 13f8 25       		.uleb128 0x25
 6094 13f9 5F040000 		.4byte	.LASF118
 6095 13fd 01       		.byte	0x1
 6096 13fe 3F       		.byte	0x3f
 6097 13ff B3000000 		.4byte	0xb3
 6098 1403 05       		.uleb128 0x5
 6099 1404 03       		.byte	0x3
 6100 1405 00000000 		.4byte	calc_count2
 6101 1409 25       		.uleb128 0x25
 6102 140a B6000000 		.4byte	.LASF119
 6103 140e 01       		.byte	0x1
 6104 140f 40       		.byte	0x40
 6105 1410 1A140000 		.4byte	0x141a
 6106 1414 05       		.uleb128 0x5
 6107 1415 03       		.byte	0x3
 6108 1416 00000000 		.4byte	test_1
 6109 141a 26       		.uleb128 0x26
 6110 141b 45000000 		.4byte	0x45
 6111 141f 29       		.uleb128 0x29
 6112 1420 9B050000 		.4byte	.LASF121
 6113 1424 07       		.byte	0x7
 6114 1425 A3       		.byte	0xa3
 6115 1426 8F000000 		.4byte	0x8f
 6116 142a 2A       		.uleb128 0x2a
 6117 142b 8B000000 		.4byte	.LASF120
 6118 142f 07       		.byte	0x7
 6119 1430 A9       		.byte	0xa9
 6120 1431 8F000000 		.4byte	0x8f
 6121 1435 4E140000 		.4byte	0x144e
 6122 1439 2B       		.uleb128 0x2b
 6123 143a 8F000000 		.4byte	0x8f
 6124 143e 2B       		.uleb128 0x2b
 6125 143f 4E140000 		.4byte	0x144e
ARM GAS  C:\Users\acer\AppData\Local\Temp\ccmxYZNb.s 			page 130


 6126 1443 2B       		.uleb128 0x2b
 6127 1444 8F000000 		.4byte	0x8f
 6128 1448 2B       		.uleb128 0x2b
 6129 1449 8F000000 		.4byte	0x8f
 6130 144d 00       		.byte	0
 6131 144e 0C       		.uleb128 0xc
 6132 144f 04       		.byte	0x4
 6133 1450 8F000000 		.4byte	0x8f
 6134 1454 29       		.uleb128 0x29
 6135 1455 8E040000 		.4byte	.LASF122
 6136 1459 07       		.byte	0x7
 6137 145a A4       		.byte	0xa4
 6138 145b 8F000000 		.4byte	0x8f
 6139 145f 2A       		.uleb128 0x2a
 6140 1460 78010000 		.4byte	.LASF123
 6141 1464 07       		.byte	0x7
 6142 1465 A7       		.byte	0xa7
 6143 1466 8F000000 		.4byte	0x8f
 6144 146a 83140000 		.4byte	0x1483
 6145 146e 2B       		.uleb128 0x2b
 6146 146f 8F000000 		.4byte	0x8f
 6147 1473 2B       		.uleb128 0x2b
 6148 1474 4E140000 		.4byte	0x144e
 6149 1478 2B       		.uleb128 0x2b
 6150 1479 8F000000 		.4byte	0x8f
 6151 147d 2B       		.uleb128 0x2b
 6152 147e 8F000000 		.4byte	0x8f
 6153 1482 00       		.byte	0
 6154 1483 2A       		.uleb128 0x2a
 6155 1484 E5000000 		.4byte	.LASF124
 6156 1488 08       		.byte	0x8
 6157 1489 86       		.byte	0x86
 6158 148a 2C000000 		.4byte	0x2c
 6159 148e 98140000 		.4byte	0x1498
 6160 1492 2B       		.uleb128 0x2b
 6161 1493 2C000000 		.4byte	0x2c
 6162 1497 00       		.byte	0
 6163 1498 2C       		.uleb128 0x2c
 6164 1499 706F7700 		.ascii	"pow\000"
 6165 149d 08       		.byte	0x8
 6166 149e 85       		.byte	0x85
 6167 149f 2C000000 		.4byte	0x2c
 6168 14a3 B2140000 		.4byte	0x14b2
 6169 14a7 2B       		.uleb128 0x2b
 6170 14a8 2C000000 		.4byte	0x2c
 6171 14ac 2B       		.uleb128 0x2b
 6172 14ad 2C000000 		.4byte	0x2c
 6173 14b1 00       		.byte	0
 6174 14b2 2A       		.uleb128 0x2a
 6175 14b3 70000000 		.4byte	.LASF125
 6176 14b7 08       		.byte	0x8
 6177 14b8 7D       		.byte	0x7d
 6178 14b9 2C000000 		.4byte	0x2c
 6179 14bd C7140000 		.4byte	0x14c7
 6180 14c1 2B       		.uleb128 0x2b
 6181 14c2 2C000000 		.4byte	0x2c
 6182 14c6 00       		.byte	0
ARM GAS  C:\Users\acer\AppData\Local\Temp\ccmxYZNb.s 			page 131


 6183 14c7 2D       		.uleb128 0x2d
 6184 14c8 87050000 		.4byte	.LASF131
 6185 14cc 08       		.byte	0x8
 6186 14cd 7E       		.byte	0x7e
 6187 14ce 2C000000 		.4byte	0x2c
 6188 14d2 2B       		.uleb128 0x2b
 6189 14d3 2C000000 		.4byte	0x2c
 6190 14d7 2B       		.uleb128 0x2b
 6191 14d8 2C000000 		.4byte	0x2c
 6192 14dc 00       		.byte	0
 6193 14dd 00       		.byte	0
 6194              		.section	.debug_abbrev,"",%progbits
 6195              	.Ldebug_abbrev0:
 6196 0000 01       		.uleb128 0x1
 6197 0001 11       		.uleb128 0x11
 6198 0002 01       		.byte	0x1
 6199 0003 25       		.uleb128 0x25
 6200 0004 0E       		.uleb128 0xe
 6201 0005 13       		.uleb128 0x13
 6202 0006 0B       		.uleb128 0xb
 6203 0007 03       		.uleb128 0x3
 6204 0008 0E       		.uleb128 0xe
 6205 0009 1B       		.uleb128 0x1b
 6206 000a 0E       		.uleb128 0xe
 6207 000b 55       		.uleb128 0x55
 6208 000c 17       		.uleb128 0x17
 6209 000d 11       		.uleb128 0x11
 6210 000e 01       		.uleb128 0x1
 6211 000f 10       		.uleb128 0x10
 6212 0010 17       		.uleb128 0x17
 6213 0011 00       		.byte	0
 6214 0012 00       		.byte	0
 6215 0013 02       		.uleb128 0x2
 6216 0014 24       		.uleb128 0x24
 6217 0015 00       		.byte	0
 6218 0016 0B       		.uleb128 0xb
 6219 0017 0B       		.uleb128 0xb
 6220 0018 3E       		.uleb128 0x3e
 6221 0019 0B       		.uleb128 0xb
 6222 001a 03       		.uleb128 0x3
 6223 001b 0E       		.uleb128 0xe
 6224 001c 00       		.byte	0
 6225 001d 00       		.byte	0
 6226 001e 03       		.uleb128 0x3
 6227 001f 16       		.uleb128 0x16
 6228 0020 00       		.byte	0
 6229 0021 03       		.uleb128 0x3
 6230 0022 0E       		.uleb128 0xe
 6231 0023 3A       		.uleb128 0x3a
 6232 0024 0B       		.uleb128 0xb
 6233 0025 3B       		.uleb128 0x3b
 6234 0026 0B       		.uleb128 0xb
 6235 0027 49       		.uleb128 0x49
 6236 0028 13       		.uleb128 0x13
 6237 0029 00       		.byte	0
 6238 002a 00       		.byte	0
 6239 002b 04       		.uleb128 0x4
ARM GAS  C:\Users\acer\AppData\Local\Temp\ccmxYZNb.s 			page 132


 6240 002c 24       		.uleb128 0x24
 6241 002d 00       		.byte	0
 6242 002e 0B       		.uleb128 0xb
 6243 002f 0B       		.uleb128 0xb
 6244 0030 3E       		.uleb128 0x3e
 6245 0031 0B       		.uleb128 0xb
 6246 0032 03       		.uleb128 0x3
 6247 0033 08       		.uleb128 0x8
 6248 0034 00       		.byte	0
 6249 0035 00       		.byte	0
 6250 0036 05       		.uleb128 0x5
 6251 0037 13       		.uleb128 0x13
 6252 0038 01       		.byte	0x1
 6253 0039 0B       		.uleb128 0xb
 6254 003a 0B       		.uleb128 0xb
 6255 003b 3A       		.uleb128 0x3a
 6256 003c 0B       		.uleb128 0xb
 6257 003d 3B       		.uleb128 0x3b
 6258 003e 0B       		.uleb128 0xb
 6259 003f 01       		.uleb128 0x1
 6260 0040 13       		.uleb128 0x13
 6261 0041 00       		.byte	0
 6262 0042 00       		.byte	0
 6263 0043 06       		.uleb128 0x6
 6264 0044 0D       		.uleb128 0xd
 6265 0045 00       		.byte	0
 6266 0046 03       		.uleb128 0x3
 6267 0047 08       		.uleb128 0x8
 6268 0048 3A       		.uleb128 0x3a
 6269 0049 0B       		.uleb128 0xb
 6270 004a 3B       		.uleb128 0x3b
 6271 004b 0B       		.uleb128 0xb
 6272 004c 49       		.uleb128 0x49
 6273 004d 13       		.uleb128 0x13
 6274 004e 38       		.uleb128 0x38
 6275 004f 0B       		.uleb128 0xb
 6276 0050 00       		.byte	0
 6277 0051 00       		.byte	0
 6278 0052 07       		.uleb128 0x7
 6279 0053 0D       		.uleb128 0xd
 6280 0054 00       		.byte	0
 6281 0055 03       		.uleb128 0x3
 6282 0056 0E       		.uleb128 0xe
 6283 0057 3A       		.uleb128 0x3a
 6284 0058 0B       		.uleb128 0xb
 6285 0059 3B       		.uleb128 0x3b
 6286 005a 0B       		.uleb128 0xb
 6287 005b 49       		.uleb128 0x49
 6288 005c 13       		.uleb128 0x13
 6289 005d 38       		.uleb128 0x38
 6290 005e 0B       		.uleb128 0xb
 6291 005f 00       		.byte	0
 6292 0060 00       		.byte	0
 6293 0061 08       		.uleb128 0x8
 6294 0062 01       		.uleb128 0x1
 6295 0063 01       		.byte	0x1
 6296 0064 49       		.uleb128 0x49
ARM GAS  C:\Users\acer\AppData\Local\Temp\ccmxYZNb.s 			page 133


 6297 0065 13       		.uleb128 0x13
 6298 0066 01       		.uleb128 0x1
 6299 0067 13       		.uleb128 0x13
 6300 0068 00       		.byte	0
 6301 0069 00       		.byte	0
 6302 006a 09       		.uleb128 0x9
 6303 006b 21       		.uleb128 0x21
 6304 006c 00       		.byte	0
 6305 006d 49       		.uleb128 0x49
 6306 006e 13       		.uleb128 0x13
 6307 006f 2F       		.uleb128 0x2f
 6308 0070 0B       		.uleb128 0xb
 6309 0071 00       		.byte	0
 6310 0072 00       		.byte	0
 6311 0073 0A       		.uleb128 0xa
 6312 0074 2E       		.uleb128 0x2e
 6313 0075 01       		.byte	0x1
 6314 0076 3F       		.uleb128 0x3f
 6315 0077 19       		.uleb128 0x19
 6316 0078 03       		.uleb128 0x3
 6317 0079 0E       		.uleb128 0xe
 6318 007a 3A       		.uleb128 0x3a
 6319 007b 0B       		.uleb128 0xb
 6320 007c 3B       		.uleb128 0x3b
 6321 007d 0B       		.uleb128 0xb
 6322 007e 27       		.uleb128 0x27
 6323 007f 19       		.uleb128 0x19
 6324 0080 49       		.uleb128 0x49
 6325 0081 13       		.uleb128 0x13
 6326 0082 20       		.uleb128 0x20
 6327 0083 0B       		.uleb128 0xb
 6328 0084 01       		.uleb128 0x1
 6329 0085 13       		.uleb128 0x13
 6330 0086 00       		.byte	0
 6331 0087 00       		.byte	0
 6332 0088 0B       		.uleb128 0xb
 6333 0089 05       		.uleb128 0x5
 6334 008a 00       		.byte	0
 6335 008b 03       		.uleb128 0x3
 6336 008c 0E       		.uleb128 0xe
 6337 008d 3A       		.uleb128 0x3a
 6338 008e 0B       		.uleb128 0xb
 6339 008f 3B       		.uleb128 0x3b
 6340 0090 0B       		.uleb128 0xb
 6341 0091 49       		.uleb128 0x49
 6342 0092 13       		.uleb128 0x13
 6343 0093 00       		.byte	0
 6344 0094 00       		.byte	0
 6345 0095 0C       		.uleb128 0xc
 6346 0096 0F       		.uleb128 0xf
 6347 0097 00       		.byte	0
 6348 0098 0B       		.uleb128 0xb
 6349 0099 0B       		.uleb128 0xb
 6350 009a 49       		.uleb128 0x49
 6351 009b 13       		.uleb128 0x13
 6352 009c 00       		.byte	0
 6353 009d 00       		.byte	0
ARM GAS  C:\Users\acer\AppData\Local\Temp\ccmxYZNb.s 			page 134


 6354 009e 0D       		.uleb128 0xd
 6355 009f 2E       		.uleb128 0x2e
 6356 00a0 01       		.byte	0x1
 6357 00a1 3F       		.uleb128 0x3f
 6358 00a2 19       		.uleb128 0x19
 6359 00a3 03       		.uleb128 0x3
 6360 00a4 0E       		.uleb128 0xe
 6361 00a5 3A       		.uleb128 0x3a
 6362 00a6 0B       		.uleb128 0xb
 6363 00a7 3B       		.uleb128 0x3b
 6364 00a8 0B       		.uleb128 0xb
 6365 00a9 27       		.uleb128 0x27
 6366 00aa 19       		.uleb128 0x19
 6367 00ab 11       		.uleb128 0x11
 6368 00ac 01       		.uleb128 0x1
 6369 00ad 12       		.uleb128 0x12
 6370 00ae 06       		.uleb128 0x6
 6371 00af 40       		.uleb128 0x40
 6372 00b0 18       		.uleb128 0x18
 6373 00b1 9742     		.uleb128 0x2117
 6374 00b3 19       		.uleb128 0x19
 6375 00b4 01       		.uleb128 0x1
 6376 00b5 13       		.uleb128 0x13
 6377 00b6 00       		.byte	0
 6378 00b7 00       		.byte	0
 6379 00b8 0E       		.uleb128 0xe
 6380 00b9 34       		.uleb128 0x34
 6381 00ba 00       		.byte	0
 6382 00bb 03       		.uleb128 0x3
 6383 00bc 0E       		.uleb128 0xe
 6384 00bd 3A       		.uleb128 0x3a
 6385 00be 0B       		.uleb128 0xb
 6386 00bf 3B       		.uleb128 0x3b
 6387 00c0 0B       		.uleb128 0xb
 6388 00c1 49       		.uleb128 0x49
 6389 00c2 13       		.uleb128 0x13
 6390 00c3 02       		.uleb128 0x2
 6391 00c4 18       		.uleb128 0x18
 6392 00c5 00       		.byte	0
 6393 00c6 00       		.byte	0
 6394 00c7 0F       		.uleb128 0xf
 6395 00c8 898201   		.uleb128 0x4109
 6396 00cb 00       		.byte	0
 6397 00cc 11       		.uleb128 0x11
 6398 00cd 01       		.uleb128 0x1
 6399 00ce 31       		.uleb128 0x31
 6400 00cf 13       		.uleb128 0x13
 6401 00d0 00       		.byte	0
 6402 00d1 00       		.byte	0
 6403 00d2 10       		.uleb128 0x10
 6404 00d3 898201   		.uleb128 0x4109
 6405 00d6 01       		.byte	0x1
 6406 00d7 11       		.uleb128 0x11
 6407 00d8 01       		.uleb128 0x1
 6408 00d9 31       		.uleb128 0x31
 6409 00da 13       		.uleb128 0x13
 6410 00db 01       		.uleb128 0x1
ARM GAS  C:\Users\acer\AppData\Local\Temp\ccmxYZNb.s 			page 135


 6411 00dc 13       		.uleb128 0x13
 6412 00dd 00       		.byte	0
 6413 00de 00       		.byte	0
 6414 00df 11       		.uleb128 0x11
 6415 00e0 8A8201   		.uleb128 0x410a
 6416 00e3 00       		.byte	0
 6417 00e4 02       		.uleb128 0x2
 6418 00e5 18       		.uleb128 0x18
 6419 00e6 9142     		.uleb128 0x2111
 6420 00e8 18       		.uleb128 0x18
 6421 00e9 00       		.byte	0
 6422 00ea 00       		.byte	0
 6423 00eb 12       		.uleb128 0x12
 6424 00ec 2E       		.uleb128 0x2e
 6425 00ed 01       		.byte	0x1
 6426 00ee 31       		.uleb128 0x31
 6427 00ef 13       		.uleb128 0x13
 6428 00f0 11       		.uleb128 0x11
 6429 00f1 01       		.uleb128 0x1
 6430 00f2 12       		.uleb128 0x12
 6431 00f3 06       		.uleb128 0x6
 6432 00f4 40       		.uleb128 0x40
 6433 00f5 18       		.uleb128 0x18
 6434 00f6 9742     		.uleb128 0x2117
 6435 00f8 19       		.uleb128 0x19
 6436 00f9 01       		.uleb128 0x1
 6437 00fa 13       		.uleb128 0x13
 6438 00fb 00       		.byte	0
 6439 00fc 00       		.byte	0
 6440 00fd 13       		.uleb128 0x13
 6441 00fe 05       		.uleb128 0x5
 6442 00ff 00       		.byte	0
 6443 0100 31       		.uleb128 0x31
 6444 0101 13       		.uleb128 0x13
 6445 0102 02       		.uleb128 0x2
 6446 0103 17       		.uleb128 0x17
 6447 0104 00       		.byte	0
 6448 0105 00       		.byte	0
 6449 0106 14       		.uleb128 0x14
 6450 0107 0B       		.uleb128 0xb
 6451 0108 01       		.byte	0x1
 6452 0109 11       		.uleb128 0x11
 6453 010a 01       		.uleb128 0x1
 6454 010b 12       		.uleb128 0x12
 6455 010c 06       		.uleb128 0x6
 6456 010d 00       		.byte	0
 6457 010e 00       		.byte	0
 6458 010f 15       		.uleb128 0x15
 6459 0110 898201   		.uleb128 0x4109
 6460 0113 01       		.byte	0x1
 6461 0114 11       		.uleb128 0x11
 6462 0115 01       		.uleb128 0x1
 6463 0116 31       		.uleb128 0x31
 6464 0117 13       		.uleb128 0x13
 6465 0118 00       		.byte	0
 6466 0119 00       		.byte	0
 6467 011a 16       		.uleb128 0x16
ARM GAS  C:\Users\acer\AppData\Local\Temp\ccmxYZNb.s 			page 136


 6468 011b 2E       		.uleb128 0x2e
 6469 011c 01       		.byte	0x1
 6470 011d 3F       		.uleb128 0x3f
 6471 011e 19       		.uleb128 0x19
 6472 011f 03       		.uleb128 0x3
 6473 0120 0E       		.uleb128 0xe
 6474 0121 3A       		.uleb128 0x3a
 6475 0122 0B       		.uleb128 0xb
 6476 0123 3B       		.uleb128 0x3b
 6477 0124 05       		.uleb128 0x5
 6478 0125 27       		.uleb128 0x27
 6479 0126 19       		.uleb128 0x19
 6480 0127 11       		.uleb128 0x11
 6481 0128 01       		.uleb128 0x1
 6482 0129 12       		.uleb128 0x12
 6483 012a 06       		.uleb128 0x6
 6484 012b 40       		.uleb128 0x40
 6485 012c 18       		.uleb128 0x18
 6486 012d 9742     		.uleb128 0x2117
 6487 012f 19       		.uleb128 0x19
 6488 0130 01       		.uleb128 0x1
 6489 0131 13       		.uleb128 0x13
 6490 0132 00       		.byte	0
 6491 0133 00       		.byte	0
 6492 0134 17       		.uleb128 0x17
 6493 0135 05       		.uleb128 0x5
 6494 0136 00       		.byte	0
 6495 0137 03       		.uleb128 0x3
 6496 0138 0E       		.uleb128 0xe
 6497 0139 3A       		.uleb128 0x3a
 6498 013a 0B       		.uleb128 0xb
 6499 013b 3B       		.uleb128 0x3b
 6500 013c 05       		.uleb128 0x5
 6501 013d 49       		.uleb128 0x49
 6502 013e 13       		.uleb128 0x13
 6503 013f 02       		.uleb128 0x2
 6504 0140 17       		.uleb128 0x17
 6505 0141 00       		.byte	0
 6506 0142 00       		.byte	0
 6507 0143 18       		.uleb128 0x18
 6508 0144 05       		.uleb128 0x5
 6509 0145 00       		.byte	0
 6510 0146 03       		.uleb128 0x3
 6511 0147 0E       		.uleb128 0xe
 6512 0148 3A       		.uleb128 0x3a
 6513 0149 0B       		.uleb128 0xb
 6514 014a 3B       		.uleb128 0x3b
 6515 014b 05       		.uleb128 0x5
 6516 014c 49       		.uleb128 0x49
 6517 014d 13       		.uleb128 0x13
 6518 014e 02       		.uleb128 0x2
 6519 014f 18       		.uleb128 0x18
 6520 0150 00       		.byte	0
 6521 0151 00       		.byte	0
 6522 0152 19       		.uleb128 0x19
 6523 0153 34       		.uleb128 0x34
 6524 0154 00       		.byte	0
ARM GAS  C:\Users\acer\AppData\Local\Temp\ccmxYZNb.s 			page 137


 6525 0155 03       		.uleb128 0x3
 6526 0156 08       		.uleb128 0x8
 6527 0157 3A       		.uleb128 0x3a
 6528 0158 0B       		.uleb128 0xb
 6529 0159 3B       		.uleb128 0x3b
 6530 015a 05       		.uleb128 0x5
 6531 015b 49       		.uleb128 0x49
 6532 015c 13       		.uleb128 0x13
 6533 015d 02       		.uleb128 0x2
 6534 015e 17       		.uleb128 0x17
 6535 015f 00       		.byte	0
 6536 0160 00       		.byte	0
 6537 0161 1A       		.uleb128 0x1a
 6538 0162 2E       		.uleb128 0x2e
 6539 0163 01       		.byte	0x1
 6540 0164 3F       		.uleb128 0x3f
 6541 0165 19       		.uleb128 0x19
 6542 0166 03       		.uleb128 0x3
 6543 0167 0E       		.uleb128 0xe
 6544 0168 3A       		.uleb128 0x3a
 6545 0169 0B       		.uleb128 0xb
 6546 016a 3B       		.uleb128 0x3b
 6547 016b 05       		.uleb128 0x5
 6548 016c 27       		.uleb128 0x27
 6549 016d 19       		.uleb128 0x19
 6550 016e 49       		.uleb128 0x49
 6551 016f 13       		.uleb128 0x13
 6552 0170 11       		.uleb128 0x11
 6553 0171 01       		.uleb128 0x1
 6554 0172 12       		.uleb128 0x12
 6555 0173 06       		.uleb128 0x6
 6556 0174 40       		.uleb128 0x40
 6557 0175 18       		.uleb128 0x18
 6558 0176 9642     		.uleb128 0x2116
 6559 0178 19       		.uleb128 0x19
 6560 0179 01       		.uleb128 0x1
 6561 017a 13       		.uleb128 0x13
 6562 017b 00       		.byte	0
 6563 017c 00       		.byte	0
 6564 017d 1B       		.uleb128 0x1b
 6565 017e 05       		.uleb128 0x5
 6566 017f 00       		.byte	0
 6567 0180 03       		.uleb128 0x3
 6568 0181 08       		.uleb128 0x8
 6569 0182 3A       		.uleb128 0x3a
 6570 0183 0B       		.uleb128 0xb
 6571 0184 3B       		.uleb128 0x3b
 6572 0185 05       		.uleb128 0x5
 6573 0186 49       		.uleb128 0x49
 6574 0187 13       		.uleb128 0x13
 6575 0188 02       		.uleb128 0x2
 6576 0189 17       		.uleb128 0x17
 6577 018a 00       		.byte	0
 6578 018b 00       		.byte	0
 6579 018c 1C       		.uleb128 0x1c
 6580 018d 34       		.uleb128 0x34
 6581 018e 00       		.byte	0
ARM GAS  C:\Users\acer\AppData\Local\Temp\ccmxYZNb.s 			page 138


 6582 018f 03       		.uleb128 0x3
 6583 0190 0E       		.uleb128 0xe
 6584 0191 3A       		.uleb128 0x3a
 6585 0192 0B       		.uleb128 0xb
 6586 0193 3B       		.uleb128 0x3b
 6587 0194 05       		.uleb128 0x5
 6588 0195 49       		.uleb128 0x49
 6589 0196 13       		.uleb128 0x13
 6590 0197 02       		.uleb128 0x2
 6591 0198 17       		.uleb128 0x17
 6592 0199 00       		.byte	0
 6593 019a 00       		.byte	0
 6594 019b 1D       		.uleb128 0x1d
 6595 019c 2E       		.uleb128 0x2e
 6596 019d 01       		.byte	0x1
 6597 019e 3F       		.uleb128 0x3f
 6598 019f 19       		.uleb128 0x19
 6599 01a0 03       		.uleb128 0x3
 6600 01a1 0E       		.uleb128 0xe
 6601 01a2 3A       		.uleb128 0x3a
 6602 01a3 0B       		.uleb128 0xb
 6603 01a4 3B       		.uleb128 0x3b
 6604 01a5 05       		.uleb128 0x5
 6605 01a6 27       		.uleb128 0x27
 6606 01a7 19       		.uleb128 0x19
 6607 01a8 11       		.uleb128 0x11
 6608 01a9 01       		.uleb128 0x1
 6609 01aa 12       		.uleb128 0x12
 6610 01ab 06       		.uleb128 0x6
 6611 01ac 40       		.uleb128 0x40
 6612 01ad 18       		.uleb128 0x18
 6613 01ae 9642     		.uleb128 0x2116
 6614 01b0 19       		.uleb128 0x19
 6615 01b1 01       		.uleb128 0x1
 6616 01b2 13       		.uleb128 0x13
 6617 01b3 00       		.byte	0
 6618 01b4 00       		.byte	0
 6619 01b5 1E       		.uleb128 0x1e
 6620 01b6 34       		.uleb128 0x34
 6621 01b7 00       		.byte	0
 6622 01b8 03       		.uleb128 0x3
 6623 01b9 08       		.uleb128 0x8
 6624 01ba 3A       		.uleb128 0x3a
 6625 01bb 0B       		.uleb128 0xb
 6626 01bc 3B       		.uleb128 0x3b
 6627 01bd 05       		.uleb128 0x5
 6628 01be 49       		.uleb128 0x49
 6629 01bf 13       		.uleb128 0x13
 6630 01c0 00       		.byte	0
 6631 01c1 00       		.byte	0
 6632 01c2 1F       		.uleb128 0x1f
 6633 01c3 34       		.uleb128 0x34
 6634 01c4 00       		.byte	0
 6635 01c5 03       		.uleb128 0x3
 6636 01c6 0E       		.uleb128 0xe
 6637 01c7 3A       		.uleb128 0x3a
 6638 01c8 0B       		.uleb128 0xb
ARM GAS  C:\Users\acer\AppData\Local\Temp\ccmxYZNb.s 			page 139


 6639 01c9 3B       		.uleb128 0x3b
 6640 01ca 05       		.uleb128 0x5
 6641 01cb 49       		.uleb128 0x49
 6642 01cc 13       		.uleb128 0x13
 6643 01cd 1C       		.uleb128 0x1c
 6644 01ce 0A       		.uleb128 0xa
 6645 01cf 00       		.byte	0
 6646 01d0 00       		.byte	0
 6647 01d1 20       		.uleb128 0x20
 6648 01d2 34       		.uleb128 0x34
 6649 01d3 00       		.byte	0
 6650 01d4 03       		.uleb128 0x3
 6651 01d5 08       		.uleb128 0x8
 6652 01d6 3A       		.uleb128 0x3a
 6653 01d7 0B       		.uleb128 0xb
 6654 01d8 3B       		.uleb128 0x3b
 6655 01d9 05       		.uleb128 0x5
 6656 01da 49       		.uleb128 0x49
 6657 01db 13       		.uleb128 0x13
 6658 01dc 02       		.uleb128 0x2
 6659 01dd 18       		.uleb128 0x18
 6660 01de 00       		.byte	0
 6661 01df 00       		.byte	0
 6662 01e0 21       		.uleb128 0x21
 6663 01e1 34       		.uleb128 0x34
 6664 01e2 00       		.byte	0
 6665 01e3 03       		.uleb128 0x3
 6666 01e4 08       		.uleb128 0x8
 6667 01e5 3A       		.uleb128 0x3a
 6668 01e6 0B       		.uleb128 0xb
 6669 01e7 3B       		.uleb128 0x3b
 6670 01e8 0B       		.uleb128 0xb
 6671 01e9 49       		.uleb128 0x49
 6672 01ea 13       		.uleb128 0x13
 6673 01eb 02       		.uleb128 0x2
 6674 01ec 18       		.uleb128 0x18
 6675 01ed 00       		.byte	0
 6676 01ee 00       		.byte	0
 6677 01ef 22       		.uleb128 0x22
 6678 01f0 34       		.uleb128 0x34
 6679 01f1 00       		.byte	0
 6680 01f2 03       		.uleb128 0x3
 6681 01f3 08       		.uleb128 0x8
 6682 01f4 3A       		.uleb128 0x3a
 6683 01f5 0B       		.uleb128 0xb
 6684 01f6 3B       		.uleb128 0x3b
 6685 01f7 0B       		.uleb128 0xb
 6686 01f8 49       		.uleb128 0x49
 6687 01f9 13       		.uleb128 0x13
 6688 01fa 02       		.uleb128 0x2
 6689 01fb 17       		.uleb128 0x17
 6690 01fc 00       		.byte	0
 6691 01fd 00       		.byte	0
 6692 01fe 23       		.uleb128 0x23
 6693 01ff 34       		.uleb128 0x34
 6694 0200 00       		.byte	0
 6695 0201 03       		.uleb128 0x3
ARM GAS  C:\Users\acer\AppData\Local\Temp\ccmxYZNb.s 			page 140


 6696 0202 0E       		.uleb128 0xe
 6697 0203 3A       		.uleb128 0x3a
 6698 0204 0B       		.uleb128 0xb
 6699 0205 3B       		.uleb128 0x3b
 6700 0206 05       		.uleb128 0x5
 6701 0207 49       		.uleb128 0x49
 6702 0208 13       		.uleb128 0x13
 6703 0209 02       		.uleb128 0x2
 6704 020a 18       		.uleb128 0x18
 6705 020b 00       		.byte	0
 6706 020c 00       		.byte	0
 6707 020d 24       		.uleb128 0x24
 6708 020e 2E       		.uleb128 0x2e
 6709 020f 00       		.byte	0
 6710 0210 3F       		.uleb128 0x3f
 6711 0211 19       		.uleb128 0x19
 6712 0212 03       		.uleb128 0x3
 6713 0213 0E       		.uleb128 0xe
 6714 0214 3A       		.uleb128 0x3a
 6715 0215 0B       		.uleb128 0xb
 6716 0216 3B       		.uleb128 0x3b
 6717 0217 05       		.uleb128 0x5
 6718 0218 27       		.uleb128 0x27
 6719 0219 19       		.uleb128 0x19
 6720 021a 49       		.uleb128 0x49
 6721 021b 13       		.uleb128 0x13
 6722 021c 11       		.uleb128 0x11
 6723 021d 01       		.uleb128 0x1
 6724 021e 12       		.uleb128 0x12
 6725 021f 06       		.uleb128 0x6
 6726 0220 40       		.uleb128 0x40
 6727 0221 18       		.uleb128 0x18
 6728 0222 9742     		.uleb128 0x2117
 6729 0224 19       		.uleb128 0x19
 6730 0225 00       		.byte	0
 6731 0226 00       		.byte	0
 6732 0227 25       		.uleb128 0x25
 6733 0228 34       		.uleb128 0x34
 6734 0229 00       		.byte	0
 6735 022a 03       		.uleb128 0x3
 6736 022b 0E       		.uleb128 0xe
 6737 022c 3A       		.uleb128 0x3a
 6738 022d 0B       		.uleb128 0xb
 6739 022e 3B       		.uleb128 0x3b
 6740 022f 0B       		.uleb128 0xb
 6741 0230 49       		.uleb128 0x49
 6742 0231 13       		.uleb128 0x13
 6743 0232 3F       		.uleb128 0x3f
 6744 0233 19       		.uleb128 0x19
 6745 0234 02       		.uleb128 0x2
 6746 0235 18       		.uleb128 0x18
 6747 0236 00       		.byte	0
 6748 0237 00       		.byte	0
 6749 0238 26       		.uleb128 0x26
 6750 0239 26       		.uleb128 0x26
 6751 023a 00       		.byte	0
 6752 023b 49       		.uleb128 0x49
ARM GAS  C:\Users\acer\AppData\Local\Temp\ccmxYZNb.s 			page 141


 6753 023c 13       		.uleb128 0x13
 6754 023d 00       		.byte	0
 6755 023e 00       		.byte	0
 6756 023f 27       		.uleb128 0x27
 6757 0240 35       		.uleb128 0x35
 6758 0241 00       		.byte	0
 6759 0242 49       		.uleb128 0x49
 6760 0243 13       		.uleb128 0x13
 6761 0244 00       		.byte	0
 6762 0245 00       		.byte	0
 6763 0246 28       		.uleb128 0x28
 6764 0247 34       		.uleb128 0x34
 6765 0248 00       		.byte	0
 6766 0249 03       		.uleb128 0x3
 6767 024a 08       		.uleb128 0x8
 6768 024b 3A       		.uleb128 0x3a
 6769 024c 0B       		.uleb128 0xb
 6770 024d 3B       		.uleb128 0x3b
 6771 024e 0B       		.uleb128 0xb
 6772 024f 49       		.uleb128 0x49
 6773 0250 13       		.uleb128 0x13
 6774 0251 3F       		.uleb128 0x3f
 6775 0252 19       		.uleb128 0x19
 6776 0253 02       		.uleb128 0x2
 6777 0254 18       		.uleb128 0x18
 6778 0255 00       		.byte	0
 6779 0256 00       		.byte	0
 6780 0257 29       		.uleb128 0x29
 6781 0258 2E       		.uleb128 0x2e
 6782 0259 00       		.byte	0
 6783 025a 3F       		.uleb128 0x3f
 6784 025b 19       		.uleb128 0x19
 6785 025c 03       		.uleb128 0x3
 6786 025d 0E       		.uleb128 0xe
 6787 025e 3A       		.uleb128 0x3a
 6788 025f 0B       		.uleb128 0xb
 6789 0260 3B       		.uleb128 0x3b
 6790 0261 0B       		.uleb128 0xb
 6791 0262 27       		.uleb128 0x27
 6792 0263 19       		.uleb128 0x19
 6793 0264 49       		.uleb128 0x49
 6794 0265 13       		.uleb128 0x13
 6795 0266 3C       		.uleb128 0x3c
 6796 0267 19       		.uleb128 0x19
 6797 0268 00       		.byte	0
 6798 0269 00       		.byte	0
 6799 026a 2A       		.uleb128 0x2a
 6800 026b 2E       		.uleb128 0x2e
 6801 026c 01       		.byte	0x1
 6802 026d 3F       		.uleb128 0x3f
 6803 026e 19       		.uleb128 0x19
 6804 026f 03       		.uleb128 0x3
 6805 0270 0E       		.uleb128 0xe
 6806 0271 3A       		.uleb128 0x3a
 6807 0272 0B       		.uleb128 0xb
 6808 0273 3B       		.uleb128 0x3b
 6809 0274 0B       		.uleb128 0xb
ARM GAS  C:\Users\acer\AppData\Local\Temp\ccmxYZNb.s 			page 142


 6810 0275 27       		.uleb128 0x27
 6811 0276 19       		.uleb128 0x19
 6812 0277 49       		.uleb128 0x49
 6813 0278 13       		.uleb128 0x13
 6814 0279 3C       		.uleb128 0x3c
 6815 027a 19       		.uleb128 0x19
 6816 027b 01       		.uleb128 0x1
 6817 027c 13       		.uleb128 0x13
 6818 027d 00       		.byte	0
 6819 027e 00       		.byte	0
 6820 027f 2B       		.uleb128 0x2b
 6821 0280 05       		.uleb128 0x5
 6822 0281 00       		.byte	0
 6823 0282 49       		.uleb128 0x49
 6824 0283 13       		.uleb128 0x13
 6825 0284 00       		.byte	0
 6826 0285 00       		.byte	0
 6827 0286 2C       		.uleb128 0x2c
 6828 0287 2E       		.uleb128 0x2e
 6829 0288 01       		.byte	0x1
 6830 0289 3F       		.uleb128 0x3f
 6831 028a 19       		.uleb128 0x19
 6832 028b 03       		.uleb128 0x3
 6833 028c 08       		.uleb128 0x8
 6834 028d 3A       		.uleb128 0x3a
 6835 028e 0B       		.uleb128 0xb
 6836 028f 3B       		.uleb128 0x3b
 6837 0290 0B       		.uleb128 0xb
 6838 0291 27       		.uleb128 0x27
 6839 0292 19       		.uleb128 0x19
 6840 0293 49       		.uleb128 0x49
 6841 0294 13       		.uleb128 0x13
 6842 0295 3C       		.uleb128 0x3c
 6843 0296 19       		.uleb128 0x19
 6844 0297 01       		.uleb128 0x1
 6845 0298 13       		.uleb128 0x13
 6846 0299 00       		.byte	0
 6847 029a 00       		.byte	0
 6848 029b 2D       		.uleb128 0x2d
 6849 029c 2E       		.uleb128 0x2e
 6850 029d 01       		.byte	0x1
 6851 029e 3F       		.uleb128 0x3f
 6852 029f 19       		.uleb128 0x19
 6853 02a0 03       		.uleb128 0x3
 6854 02a1 0E       		.uleb128 0xe
 6855 02a2 3A       		.uleb128 0x3a
 6856 02a3 0B       		.uleb128 0xb
 6857 02a4 3B       		.uleb128 0x3b
 6858 02a5 0B       		.uleb128 0xb
 6859 02a6 27       		.uleb128 0x27
 6860 02a7 19       		.uleb128 0x19
 6861 02a8 49       		.uleb128 0x49
 6862 02a9 13       		.uleb128 0x13
 6863 02aa 3C       		.uleb128 0x3c
 6864 02ab 19       		.uleb128 0x19
 6865 02ac 00       		.byte	0
 6866 02ad 00       		.byte	0
ARM GAS  C:\Users\acer\AppData\Local\Temp\ccmxYZNb.s 			page 143


 6867 02ae 00       		.byte	0
 6868              		.section	.debug_loc,"",%progbits
 6869              	.Ldebug_loc0:
 6870              	.LLST0:
 6871 0000 00000000 		.4byte	.LVL4
 6872 0004 0A000000 		.4byte	.LVL5
 6873 0008 0100     		.2byte	0x1
 6874 000a 50       		.byte	0x50
 6875 000b 0A000000 		.4byte	.LVL5
 6876 000f 38000000 		.4byte	.LFE1
 6877 0013 0400     		.2byte	0x4
 6878 0015 F3       		.byte	0xf3
 6879 0016 01       		.uleb128 0x1
 6880 0017 50       		.byte	0x50
 6881 0018 9F       		.byte	0x9f
 6882 0019 00000000 		.4byte	0
 6883 001d 00000000 		.4byte	0
 6884              	.LLST1:
 6885 0021 00000000 		.4byte	.LVL4
 6886 0025 17000000 		.4byte	.LVL7-1
 6887 0029 0100     		.2byte	0x1
 6888 002b 51       		.byte	0x51
 6889 002c 17000000 		.4byte	.LVL7-1
 6890 0030 2C000000 		.4byte	.LVL9
 6891 0034 0100     		.2byte	0x1
 6892 0036 57       		.byte	0x57
 6893 0037 2C000000 		.4byte	.LVL9
 6894 003b 38000000 		.4byte	.LFE1
 6895 003f 0100     		.2byte	0x1
 6896 0041 51       		.byte	0x51
 6897 0042 00000000 		.4byte	0
 6898 0046 00000000 		.4byte	0
 6899              	.LLST2:
 6900 004a 00000000 		.4byte	.LVL4
 6901 004e 17000000 		.4byte	.LVL7-1
 6902 0052 0100     		.2byte	0x1
 6903 0054 52       		.byte	0x52
 6904 0055 17000000 		.4byte	.LVL7-1
 6905 0059 2C000000 		.4byte	.LVL9
 6906 005d 0400     		.2byte	0x4
 6907 005f F3       		.byte	0xf3
 6908 0060 01       		.uleb128 0x1
 6909 0061 52       		.byte	0x52
 6910 0062 9F       		.byte	0x9f
 6911 0063 2C000000 		.4byte	.LVL9
 6912 0067 38000000 		.4byte	.LFE1
 6913 006b 0100     		.2byte	0x1
 6914 006d 52       		.byte	0x52
 6915 006e 00000000 		.4byte	0
 6916 0072 00000000 		.4byte	0
 6917              	.LLST3:
 6918 0076 14000000 		.4byte	.LVL6
 6919 007a 2C000000 		.4byte	.LVL9
 6920 007e 0100     		.2byte	0x1
 6921 0080 56       		.byte	0x56
 6922 0081 00000000 		.4byte	0
 6923 0085 00000000 		.4byte	0
ARM GAS  C:\Users\acer\AppData\Local\Temp\ccmxYZNb.s 			page 144


 6924              	.LLST4:
 6925 0089 14000000 		.4byte	.LVL6
 6926 008d 17000000 		.4byte	.LVL7-1
 6927 0091 0100     		.2byte	0x1
 6928 0093 51       		.byte	0x51
 6929 0094 17000000 		.4byte	.LVL7-1
 6930 0098 2C000000 		.4byte	.LVL9
 6931 009c 0100     		.2byte	0x1
 6932 009e 57       		.byte	0x57
 6933 009f 00000000 		.4byte	0
 6934 00a3 00000000 		.4byte	0
 6935              	.LLST5:
 6936 00a7 14000000 		.4byte	.LVL6
 6937 00ab 2C000000 		.4byte	.LVL9
 6938 00af 0100     		.2byte	0x1
 6939 00b1 58       		.byte	0x58
 6940 00b2 00000000 		.4byte	0
 6941 00b6 00000000 		.4byte	0
 6942              	.LLST6:
 6943 00ba 00000000 		.4byte	.LVL10
 6944 00be 15000000 		.4byte	.LVL13-1
 6945 00c2 0100     		.2byte	0x1
 6946 00c4 50       		.byte	0x50
 6947 00c5 15000000 		.4byte	.LVL13-1
 6948 00c9 3A000000 		.4byte	.LVL15
 6949 00cd 0400     		.2byte	0x4
 6950 00cf F3       		.byte	0xf3
 6951 00d0 01       		.uleb128 0x1
 6952 00d1 50       		.byte	0x50
 6953 00d2 9F       		.byte	0x9f
 6954 00d3 3A000000 		.4byte	.LVL15
 6955 00d7 3C000000 		.4byte	.LVL16
 6956 00db 0100     		.2byte	0x1
 6957 00dd 50       		.byte	0x50
 6958 00de 3C000000 		.4byte	.LVL16
 6959 00e2 4C000000 		.4byte	.LFE2
 6960 00e6 0400     		.2byte	0x4
 6961 00e8 F3       		.byte	0xf3
 6962 00e9 01       		.uleb128 0x1
 6963 00ea 50       		.byte	0x50
 6964 00eb 9F       		.byte	0x9f
 6965 00ec 00000000 		.4byte	0
 6966 00f0 00000000 		.4byte	0
 6967              	.LLST7:
 6968 00f4 00000000 		.4byte	.LVL10
 6969 00f8 15000000 		.4byte	.LVL13-1
 6970 00fc 0100     		.2byte	0x1
 6971 00fe 51       		.byte	0x51
 6972 00ff 15000000 		.4byte	.LVL13-1
 6973 0103 3A000000 		.4byte	.LVL15
 6974 0107 0400     		.2byte	0x4
 6975 0109 F3       		.byte	0xf3
 6976 010a 01       		.uleb128 0x1
 6977 010b 51       		.byte	0x51
 6978 010c 9F       		.byte	0x9f
 6979 010d 3A000000 		.4byte	.LVL15
 6980 0111 4C000000 		.4byte	.LFE2
ARM GAS  C:\Users\acer\AppData\Local\Temp\ccmxYZNb.s 			page 145


 6981 0115 0100     		.2byte	0x1
 6982 0117 51       		.byte	0x51
 6983 0118 00000000 		.4byte	0
 6984 011c 00000000 		.4byte	0
 6985              	.LLST8:
 6986 0120 00000000 		.4byte	.LVL10
 6987 0124 15000000 		.4byte	.LVL13-1
 6988 0128 0100     		.2byte	0x1
 6989 012a 52       		.byte	0x52
 6990 012b 15000000 		.4byte	.LVL13-1
 6991 012f 3A000000 		.4byte	.LVL15
 6992 0133 0100     		.2byte	0x1
 6993 0135 54       		.byte	0x54
 6994 0136 3A000000 		.4byte	.LVL15
 6995 013a 4C000000 		.4byte	.LFE2
 6996 013e 0100     		.2byte	0x1
 6997 0140 52       		.byte	0x52
 6998 0141 00000000 		.4byte	0
 6999 0145 00000000 		.4byte	0
 7000              	.LLST9:
 7001 0149 00000000 		.4byte	.LVL10
 7002 014d 0A000000 		.4byte	.LVL11
 7003 0151 0100     		.2byte	0x1
 7004 0153 53       		.byte	0x53
 7005 0154 0A000000 		.4byte	.LVL11
 7006 0158 4C000000 		.4byte	.LFE2
 7007 015c 0400     		.2byte	0x4
 7008 015e F3       		.byte	0xf3
 7009 015f 01       		.uleb128 0x1
 7010 0160 53       		.byte	0x53
 7011 0161 9F       		.byte	0x9f
 7012 0162 00000000 		.4byte	0
 7013 0166 00000000 		.4byte	0
 7014              	.LLST10:
 7015 016a 12000000 		.4byte	.LVL12
 7016 016e 3A000000 		.4byte	.LVL15
 7017 0172 0100     		.2byte	0x1
 7018 0174 57       		.byte	0x57
 7019 0175 00000000 		.4byte	0
 7020 0179 00000000 		.4byte	0
 7021              	.LLST11:
 7022 017d 12000000 		.4byte	.LVL12
 7023 0181 15000000 		.4byte	.LVL13-1
 7024 0185 0100     		.2byte	0x1
 7025 0187 52       		.byte	0x52
 7026 0188 15000000 		.4byte	.LVL13-1
 7027 018c 3A000000 		.4byte	.LVL15
 7028 0190 0100     		.2byte	0x1
 7029 0192 54       		.byte	0x54
 7030 0193 00000000 		.4byte	0
 7031 0197 00000000 		.4byte	0
 7032              	.LLST12:
 7033 019b 12000000 		.4byte	.LVL12
 7034 019f 3A000000 		.4byte	.LVL15
 7035 01a3 0100     		.2byte	0x1
 7036 01a5 59       		.byte	0x59
 7037 01a6 00000000 		.4byte	0
ARM GAS  C:\Users\acer\AppData\Local\Temp\ccmxYZNb.s 			page 146


 7038 01aa 00000000 		.4byte	0
 7039              	.LLST13:
 7040 01ae 12000000 		.4byte	.LVL12
 7041 01b2 3A000000 		.4byte	.LVL15
 7042 01b6 0100     		.2byte	0x1
 7043 01b8 56       		.byte	0x56
 7044 01b9 00000000 		.4byte	0
 7045 01bd 00000000 		.4byte	0
 7046              	.LLST14:
 7047 01c1 00000000 		.4byte	.LVL17
 7048 01c5 16000000 		.4byte	.LVL20
 7049 01c9 0100     		.2byte	0x1
 7050 01cb 50       		.byte	0x50
 7051 01cc 16000000 		.4byte	.LVL20
 7052 01d0 2A000000 		.4byte	.LFE5
 7053 01d4 0400     		.2byte	0x4
 7054 01d6 F3       		.byte	0xf3
 7055 01d7 01       		.uleb128 0x1
 7056 01d8 50       		.byte	0x50
 7057 01d9 9F       		.byte	0x9f
 7058 01da 00000000 		.4byte	0
 7059 01de 00000000 		.4byte	0
 7060              	.LLST15:
 7061 01e2 00000000 		.4byte	.LVL17
 7062 01e6 1A000000 		.4byte	.LVL21
 7063 01ea 0100     		.2byte	0x1
 7064 01ec 51       		.byte	0x51
 7065 01ed 1A000000 		.4byte	.LVL21
 7066 01f1 2A000000 		.4byte	.LFE5
 7067 01f5 0300     		.2byte	0x3
 7068 01f7 71       		.byte	0x71
 7069 01f8 72       		.sleb128 -14
 7070 01f9 9F       		.byte	0x9f
 7071 01fa 00000000 		.4byte	0
 7072 01fe 00000000 		.4byte	0
 7073              	.LLST16:
 7074 0202 00000000 		.4byte	.LVL17
 7075 0206 0E000000 		.4byte	.LVL18
 7076 020a 0100     		.2byte	0x1
 7077 020c 52       		.byte	0x52
 7078 020d 0E000000 		.4byte	.LVL18
 7079 0211 14000000 		.4byte	.LVL19
 7080 0215 0700     		.2byte	0x7
 7081 0217 74       		.byte	0x74
 7082 0218 00       		.sleb128 0
 7083 0219 31       		.byte	0x31
 7084 021a 24       		.byte	0x24
 7085 021b 71       		.byte	0x71
 7086 021c 00       		.sleb128 0
 7087 021d 22       		.byte	0x22
 7088 021e 14000000 		.4byte	.LVL19
 7089 0222 2A000000 		.4byte	.LFE5
 7090 0226 0400     		.2byte	0x4
 7091 0228 F3       		.byte	0xf3
 7092 0229 01       		.uleb128 0x1
 7093 022a 52       		.byte	0x52
 7094 022b 9F       		.byte	0x9f
ARM GAS  C:\Users\acer\AppData\Local\Temp\ccmxYZNb.s 			page 147


 7095 022c 00000000 		.4byte	0
 7096 0230 00000000 		.4byte	0
 7097              	.LLST17:
 7098 0234 14000000 		.4byte	.LVL19
 7099 0238 1A000000 		.4byte	.LVL21
 7100 023c 0200     		.2byte	0x2
 7101 023e 30       		.byte	0x30
 7102 023f 9F       		.byte	0x9f
 7103 0240 00000000 		.4byte	0
 7104 0244 00000000 		.4byte	0
 7105              	.LLST18:
 7106 0248 00000000 		.4byte	.LVL22
 7107 024c 0F000000 		.4byte	.LVL24-1
 7108 0250 0100     		.2byte	0x1
 7109 0252 50       		.byte	0x50
 7110 0253 0F000000 		.4byte	.LVL24-1
 7111 0257 34000000 		.4byte	.LFE6
 7112 025b 0600     		.2byte	0x6
 7113 025d F3       		.byte	0xf3
 7114 025e 03       		.uleb128 0x3
 7115 025f F5       		.byte	0xf5
 7116 0260 00       		.uleb128 0
 7117 0261 25       		.uleb128 0x25
 7118 0262 9F       		.byte	0x9f
 7119 0263 00000000 		.4byte	0
 7120 0267 00000000 		.4byte	0
 7121              	.LLST19:
 7122 026b 00000000 		.4byte	.LVL22
 7123 026f 0F000000 		.4byte	.LVL24-1
 7124 0273 0C00     		.2byte	0xc
 7125 0275 F5       		.byte	0xf5
 7126 0276 00       		.uleb128 0
 7127 0277 25       		.uleb128 0x25
 7128 0278 F4       		.byte	0xf4
 7129 0279 25       		.uleb128 0x25
 7130 027a 04       		.byte	0x4
 7131 027b 0000003F 		.4byte	0x3f000000
 7132 027f 1E       		.byte	0x1e
 7133 0280 9F       		.byte	0x9f
 7134 0281 0F000000 		.4byte	.LVL24-1
 7135 0285 34000000 		.4byte	.LFE6
 7136 0289 0E00     		.2byte	0xe
 7137 028b F3       		.byte	0xf3
 7138 028c 03       		.uleb128 0x3
 7139 028d F5       		.byte	0xf5
 7140 028e 00       		.uleb128 0
 7141 028f 25       		.uleb128 0x25
 7142 0290 F4       		.byte	0xf4
 7143 0291 25       		.uleb128 0x25
 7144 0292 04       		.byte	0x4
 7145 0293 0000003F 		.4byte	0x3f000000
 7146 0297 1E       		.byte	0x1e
 7147 0298 9F       		.byte	0x9f
 7148 0299 00000000 		.4byte	0
 7149 029d 00000000 		.4byte	0
 7150              	.LLST20:
 7151 02a1 00000000 		.4byte	.LVL22
ARM GAS  C:\Users\acer\AppData\Local\Temp\ccmxYZNb.s 			page 148


 7152 02a5 0C000000 		.4byte	.LVL23
 7153 02a9 0100     		.2byte	0x1
 7154 02ab 50       		.byte	0x50
 7155 02ac 0C000000 		.4byte	.LVL23
 7156 02b0 28000000 		.4byte	.LVL28
 7157 02b4 0100     		.2byte	0x1
 7158 02b6 54       		.byte	0x54
 7159 02b7 28000000 		.4byte	.LVL28
 7160 02bb 2A000000 		.4byte	.LVL29
 7161 02bf 0800     		.2byte	0x8
 7162 02c1 F5       		.byte	0xf5
 7163 02c2 00       		.uleb128 0
 7164 02c3 25       		.uleb128 0x25
 7165 02c4 F5       		.byte	0xf5
 7166 02c5 04       		.uleb128 0x4
 7167 02c6 25       		.uleb128 0x25
 7168 02c7 1E       		.byte	0x1e
 7169 02c8 9F       		.byte	0x9f
 7170 02c9 2A000000 		.4byte	.LVL29
 7171 02cd 2D000000 		.4byte	.LVL30-1
 7172 02d1 0800     		.2byte	0x8
 7173 02d3 F5       		.byte	0xf5
 7174 02d4 01       		.uleb128 0x1
 7175 02d5 25       		.uleb128 0x25
 7176 02d6 F5       		.byte	0xf5
 7177 02d7 04       		.uleb128 0x4
 7178 02d8 25       		.uleb128 0x25
 7179 02d9 1E       		.byte	0x1e
 7180 02da 9F       		.byte	0x9f
 7181 02db 00000000 		.4byte	0
 7182 02df 00000000 		.4byte	0
 7183              	.LLST21:
 7184 02e3 00000000 		.4byte	.LVL22
 7185 02e7 0C000000 		.4byte	.LVL23
 7186 02eb 0B00     		.2byte	0xb
 7187 02ed 0C       		.byte	0xc
 7188 02ee DF59375F 		.4byte	0x5f3759df
 7189 02f2 70       		.byte	0x70
 7190 02f3 00       		.sleb128 0
 7191 02f4 31       		.byte	0x31
 7192 02f5 26       		.byte	0x26
 7193 02f6 1C       		.byte	0x1c
 7194 02f7 9F       		.byte	0x9f
 7195 02f8 0C000000 		.4byte	.LVL23
 7196 02fc 30000000 		.4byte	.LVL31
 7197 0300 0100     		.2byte	0x1
 7198 0302 54       		.byte	0x54
 7199 0303 00000000 		.4byte	0
 7200 0307 00000000 		.4byte	0
 7201              	.LLST22:
 7202 030b 00000000 		.4byte	.LVL32
 7203 030f 12000000 		.4byte	.LVL33
 7204 0313 0100     		.2byte	0x1
 7205 0315 50       		.byte	0x50
 7206 0316 12000000 		.4byte	.LVL33
 7207 031a B6040000 		.4byte	.LVL214
 7208 031e 0300     		.2byte	0x3
ARM GAS  C:\Users\acer\AppData\Local\Temp\ccmxYZNb.s 			page 149


 7209 0320 91       		.byte	0x91
 7210 0321 FC7E     		.sleb128 -132
 7211 0323 B6040000 		.4byte	.LVL214
 7212 0327 B8040000 		.4byte	.LVL215
 7213 032b 0100     		.2byte	0x1
 7214 032d 50       		.byte	0x50
 7215 032e B8040000 		.4byte	.LVL215
 7216 0332 58060000 		.4byte	.LVL258
 7217 0336 0300     		.2byte	0x3
 7218 0338 91       		.byte	0x91
 7219 0339 FC7E     		.sleb128 -132
 7220 033b 00000000 		.4byte	0
 7221 033f 00000000 		.4byte	0
 7222              	.LLST23:
 7223 0343 00000000 		.4byte	.LVL32
 7224 0347 16000000 		.4byte	.LVL34
 7225 034b 0100     		.2byte	0x1
 7226 034d 51       		.byte	0x51
 7227 034e 16000000 		.4byte	.LVL34
 7228 0352 E0040000 		.4byte	.LVL221
 7229 0356 0300     		.2byte	0x3
 7230 0358 91       		.byte	0x91
 7231 0359 807F     		.sleb128 -128
 7232 035b E0040000 		.4byte	.LVL221
 7233 035f E2040000 		.4byte	.LVL222
 7234 0363 0100     		.2byte	0x1
 7235 0365 50       		.byte	0x50
 7236 0366 E2040000 		.4byte	.LVL222
 7237 036a 5A060000 		.4byte	.LVL259
 7238 036e 0300     		.2byte	0x3
 7239 0370 91       		.byte	0x91
 7240 0371 807F     		.sleb128 -128
 7241 0373 00000000 		.4byte	0
 7242 0377 00000000 		.4byte	0
 7243              	.LLST24:
 7244 037b 00000000 		.4byte	.LVL32
 7245 037f 1D000000 		.4byte	.LVL35-1
 7246 0383 0100     		.2byte	0x1
 7247 0385 52       		.byte	0x52
 7248 0386 1D000000 		.4byte	.LVL35-1
 7249 038a 56060000 		.4byte	.LVL257
 7250 038e 0300     		.2byte	0x3
 7251 0390 91       		.byte	0x91
 7252 0391 847F     		.sleb128 -124
 7253 0393 00000000 		.4byte	0
 7254 0397 00000000 		.4byte	0
 7255              	.LLST25:
 7256 039b 00000000 		.4byte	.LVL32
 7257 039f 1D000000 		.4byte	.LVL35-1
 7258 03a3 0100     		.2byte	0x1
 7259 03a5 53       		.byte	0x53
 7260 03a6 1D000000 		.4byte	.LVL35-1
 7261 03aa C4000000 		.4byte	.LVL71
 7262 03ae 0300     		.2byte	0x3
 7263 03b0 91       		.byte	0x91
 7264 03b1 987F     		.sleb128 -104
 7265 03b3 C4000000 		.4byte	.LVL71
ARM GAS  C:\Users\acer\AppData\Local\Temp\ccmxYZNb.s 			page 150


 7266 03b7 C6000000 		.4byte	.LVL72
 7267 03bb 0B00     		.2byte	0xb
 7268 03bd 91       		.byte	0x91
 7269 03be 987F     		.sleb128 -104
 7270 03c0 F6       		.byte	0xf6
 7271 03c1 04       		.byte	0x4
 7272 03c2 25       		.uleb128 0x25
 7273 03c3 F5       		.byte	0xf5
 7274 03c4 00       		.uleb128 0
 7275 03c5 25       		.uleb128 0x25
 7276 03c6 1E       		.byte	0x1e
 7277 03c7 9F       		.byte	0x9f
 7278 03c8 C6000000 		.4byte	.LVL72
 7279 03cc CF000000 		.4byte	.LVL73-1
 7280 03d0 0B00     		.2byte	0xb
 7281 03d2 91       		.byte	0x91
 7282 03d3 987F     		.sleb128 -104
 7283 03d5 F6       		.byte	0xf6
 7284 03d6 04       		.byte	0x4
 7285 03d7 25       		.uleb128 0x25
 7286 03d8 F5       		.byte	0xf5
 7287 03d9 0C       		.uleb128 0xc
 7288 03da 25       		.uleb128 0x25
 7289 03db 1E       		.byte	0x1e
 7290 03dc 9F       		.byte	0x9f
 7291 03dd 00000000 		.4byte	0
 7292 03e1 00000000 		.4byte	0
 7293              	.LLST26:
 7294 03e5 00000000 		.4byte	.LVL32
 7295 03e9 D6000000 		.4byte	.LVL74
 7296 03ed 0200     		.2byte	0x2
 7297 03ef 91       		.byte	0x91
 7298 03f0 00       		.sleb128 0
 7299 03f1 D6000000 		.4byte	.LVL74
 7300 03f5 DA000000 		.4byte	.LVL75
 7301 03f9 0100     		.2byte	0x1
 7302 03fb 50       		.byte	0x50
 7303 03fc DA000000 		.4byte	.LVL75
 7304 0400 DC060000 		.4byte	.LVL274
 7305 0404 0300     		.2byte	0x3
 7306 0406 91       		.byte	0x91
 7307 0407 BC7F     		.sleb128 -68
 7308 0409 DC060000 		.4byte	.LVL274
 7309 040d E0060000 		.4byte	.LFE7
 7310 0411 0300     		.2byte	0x3
 7311 0413 7D       		.byte	0x7d
 7312 0414 BC7F     		.sleb128 -68
 7313 0416 00000000 		.4byte	0
 7314 041a 00000000 		.4byte	0
 7315              	.LLST27:
 7316 041e 00000000 		.4byte	.LVL32
 7317 0422 E4000000 		.4byte	.LVL77
 7318 0426 0200     		.2byte	0x2
 7319 0428 91       		.byte	0x91
 7320 0429 04       		.sleb128 4
 7321 042a E4000000 		.4byte	.LVL77
 7322 042e E6000000 		.4byte	.LVL78
ARM GAS  C:\Users\acer\AppData\Local\Temp\ccmxYZNb.s 			page 151


 7323 0432 0100     		.2byte	0x1
 7324 0434 50       		.byte	0x50
 7325 0435 E6000000 		.4byte	.LVL78
 7326 0439 DC060000 		.4byte	.LVL274
 7327 043d 0200     		.2byte	0x2
 7328 043f 91       		.byte	0x91
 7329 0440 40       		.sleb128 -64
 7330 0441 DC060000 		.4byte	.LVL274
 7331 0445 E0060000 		.4byte	.LFE7
 7332 0449 0200     		.2byte	0x2
 7333 044b 7D       		.byte	0x7d
 7334 044c 40       		.sleb128 -64
 7335 044d 00000000 		.4byte	0
 7336 0451 00000000 		.4byte	0
 7337              	.LLST28:
 7338 0455 00000000 		.4byte	.LVL32
 7339 0459 22010000 		.4byte	.LVL88
 7340 045d 0200     		.2byte	0x2
 7341 045f 91       		.byte	0x91
 7342 0460 08       		.sleb128 8
 7343 0461 22010000 		.4byte	.LVL88
 7344 0465 24010000 		.4byte	.LVL89
 7345 0469 0100     		.2byte	0x1
 7346 046b 50       		.byte	0x50
 7347 046c 24010000 		.4byte	.LVL89
 7348 0470 DC060000 		.4byte	.LVL274
 7349 0474 0300     		.2byte	0x3
 7350 0476 91       		.byte	0x91
 7351 0477 8C7F     		.sleb128 -116
 7352 0479 DC060000 		.4byte	.LVL274
 7353 047d E0060000 		.4byte	.LFE7
 7354 0481 0300     		.2byte	0x3
 7355 0483 7D       		.byte	0x7d
 7356 0484 8C7F     		.sleb128 -116
 7357 0486 00000000 		.4byte	0
 7358 048a 00000000 		.4byte	0
 7359              	.LLST29:
 7360 048e 00000000 		.4byte	.LVL32
 7361 0492 2C010000 		.4byte	.LVL91
 7362 0496 0200     		.2byte	0x2
 7363 0498 91       		.byte	0x91
 7364 0499 0C       		.sleb128 12
 7365 049a 2C010000 		.4byte	.LVL91
 7366 049e 2E010000 		.4byte	.LVL92
 7367 04a2 0100     		.2byte	0x1
 7368 04a4 50       		.byte	0x50
 7369 04a5 2E010000 		.4byte	.LVL92
 7370 04a9 DC060000 		.4byte	.LVL274
 7371 04ad 0300     		.2byte	0x3
 7372 04af 91       		.byte	0x91
 7373 04b0 907F     		.sleb128 -112
 7374 04b2 DC060000 		.4byte	.LVL274
 7375 04b6 E0060000 		.4byte	.LFE7
 7376 04ba 0300     		.2byte	0x3
 7377 04bc 7D       		.byte	0x7d
 7378 04bd 907F     		.sleb128 -112
 7379 04bf 00000000 		.4byte	0
ARM GAS  C:\Users\acer\AppData\Local\Temp\ccmxYZNb.s 			page 152


 7380 04c3 00000000 		.4byte	0
 7381              	.LLST30:
 7382 04c7 00000000 		.4byte	.LVL32
 7383 04cb 34010000 		.4byte	.LVL94
 7384 04cf 0200     		.2byte	0x2
 7385 04d1 91       		.byte	0x91
 7386 04d2 10       		.sleb128 16
 7387 04d3 34010000 		.4byte	.LVL94
 7388 04d7 36010000 		.4byte	.LVL95
 7389 04db 0100     		.2byte	0x1
 7390 04dd 50       		.byte	0x50
 7391 04de 36010000 		.4byte	.LVL95
 7392 04e2 DC060000 		.4byte	.LVL274
 7393 04e6 0300     		.2byte	0x3
 7394 04e8 91       		.byte	0x91
 7395 04e9 947F     		.sleb128 -108
 7396 04eb DC060000 		.4byte	.LVL274
 7397 04ef E0060000 		.4byte	.LFE7
 7398 04f3 0300     		.2byte	0x3
 7399 04f5 7D       		.byte	0x7d
 7400 04f6 947F     		.sleb128 -108
 7401 04f8 00000000 		.4byte	0
 7402 04fc 00000000 		.4byte	0
 7403              	.LLST31:
 7404 0500 C4000000 		.4byte	.LVL71
 7405 0504 C6000000 		.4byte	.LVL72
 7406 0508 0100     		.2byte	0x1
 7407 050a 50       		.byte	0x50
 7408 050b C6000000 		.4byte	.LVL72
 7409 050f CF000000 		.4byte	.LVL73-1
 7410 0513 0100     		.2byte	0x1
 7411 0515 5C       		.byte	0x5c
 7412 0516 16010000 		.4byte	.LVL85
 7413 051a 18010000 		.4byte	.LVL86
 7414 051e 0100     		.2byte	0x1
 7415 0520 50       		.byte	0x50
 7416 0521 18010000 		.4byte	.LVL86
 7417 0525 5E010000 		.4byte	.LVL100
 7418 0529 0100     		.2byte	0x1
 7419 052b 56       		.byte	0x56
 7420 052c AE060000 		.4byte	.LVL268
 7421 0530 B0060000 		.4byte	.LVL269
 7422 0534 0100     		.2byte	0x1
 7423 0536 50       		.byte	0x50
 7424 0537 B0060000 		.4byte	.LVL269
 7425 053b DC060000 		.4byte	.LVL274
 7426 053f 0100     		.2byte	0x1
 7427 0541 58       		.byte	0x58
 7428 0542 00000000 		.4byte	0
 7429 0546 00000000 		.4byte	0
 7430              	.LLST32:
 7431 054a A6010000 		.4byte	.LVL109
 7432 054e DC060000 		.4byte	.LVL274
 7433 0552 0200     		.2byte	0x2
 7434 0554 91       		.byte	0x91
 7435 0555 50       		.sleb128 -48
 7436 0556 DC060000 		.4byte	.LVL274
ARM GAS  C:\Users\acer\AppData\Local\Temp\ccmxYZNb.s 			page 153


 7437 055a E0060000 		.4byte	.LFE7
 7438 055e 0200     		.2byte	0x2
 7439 0560 7D       		.byte	0x7d
 7440 0561 50       		.sleb128 -48
 7441 0562 00000000 		.4byte	0
 7442 0566 00000000 		.4byte	0
 7443              	.LLST33:
 7444 056a F8010000 		.4byte	.LVL120
 7445 056e 44020000 		.4byte	.LVL133
 7446 0572 0300     		.2byte	0x3
 7447 0574 91       		.byte	0x91
 7448 0575 B47F     		.sleb128 -76
 7449 0577 00000000 		.4byte	0
 7450 057b 00000000 		.4byte	0
 7451              	.LLST34:
 7452 057f 0C020000 		.4byte	.LVL124
 7453 0583 10020000 		.4byte	.LVL125
 7454 0587 2200     		.2byte	0x22
 7455 0589 91       		.byte	0x91
 7456 058a B07F     		.sleb128 -80
 7457 058c F6       		.byte	0xf6
 7458 058d 04       		.byte	0x4
 7459 058e 25       		.uleb128 0x25
 7460 058f 91       		.byte	0x91
 7461 0590 A07F     		.sleb128 -96
 7462 0592 F6       		.byte	0xf6
 7463 0593 04       		.byte	0x4
 7464 0594 25       		.uleb128 0x25
 7465 0595 1E       		.byte	0x1e
 7466 0596 F5       		.byte	0xf5
 7467 0597 07       		.uleb128 0x7
 7468 0598 25       		.uleb128 0x25
 7469 0599 F5       		.byte	0xf5
 7470 059a 00       		.uleb128 0
 7471 059b 25       		.uleb128 0x25
 7472 059c 1E       		.byte	0x1e
 7473 059d 22       		.byte	0x22
 7474 059e F5       		.byte	0xf5
 7475 059f 0A       		.uleb128 0xa
 7476 05a0 25       		.uleb128 0x25
 7477 05a1 F5       		.byte	0xf5
 7478 05a2 05       		.uleb128 0x5
 7479 05a3 25       		.uleb128 0x25
 7480 05a4 1C       		.byte	0x1c
 7481 05a5 F5       		.byte	0xf5
 7482 05a6 06       		.uleb128 0x6
 7483 05a7 25       		.uleb128 0x25
 7484 05a8 1E       		.byte	0x1e
 7485 05a9 22       		.byte	0x22
 7486 05aa 9F       		.byte	0x9f
 7487 05ab 10020000 		.4byte	.LVL125
 7488 05af 82020000 		.4byte	.LVL145
 7489 05b3 2200     		.2byte	0x22
 7490 05b5 91       		.byte	0x91
 7491 05b6 B07F     		.sleb128 -80
 7492 05b8 F6       		.byte	0xf6
 7493 05b9 04       		.byte	0x4
ARM GAS  C:\Users\acer\AppData\Local\Temp\ccmxYZNb.s 			page 154


 7494 05ba 25       		.uleb128 0x25
 7495 05bb 91       		.byte	0x91
 7496 05bc A07F     		.sleb128 -96
 7497 05be F6       		.byte	0xf6
 7498 05bf 04       		.byte	0x4
 7499 05c0 25       		.uleb128 0x25
 7500 05c1 1E       		.byte	0x1e
 7501 05c2 F5       		.byte	0xf5
 7502 05c3 07       		.uleb128 0x7
 7503 05c4 25       		.uleb128 0x25
 7504 05c5 F5       		.byte	0xf5
 7505 05c6 04       		.uleb128 0x4
 7506 05c7 25       		.uleb128 0x25
 7507 05c8 1E       		.byte	0x1e
 7508 05c9 22       		.byte	0x22
 7509 05ca F5       		.byte	0xf5
 7510 05cb 0A       		.uleb128 0xa
 7511 05cc 25       		.uleb128 0x25
 7512 05cd F5       		.byte	0xf5
 7513 05ce 05       		.uleb128 0x5
 7514 05cf 25       		.uleb128 0x25
 7515 05d0 1C       		.byte	0x1c
 7516 05d1 F5       		.byte	0xf5
 7517 05d2 06       		.uleb128 0x6
 7518 05d3 25       		.uleb128 0x25
 7519 05d4 1E       		.byte	0x1e
 7520 05d5 22       		.byte	0x22
 7521 05d6 9F       		.byte	0x9f
 7522 05d7 00000000 		.4byte	0
 7523 05db 00000000 		.4byte	0
 7524              	.LLST35:
 7525 05df 3C020000 		.4byte	.LVL131
 7526 05e3 76020000 		.4byte	.LVL143
 7527 05e7 0900     		.2byte	0x9
 7528 05e9 91       		.byte	0x91
 7529 05ea A87F     		.sleb128 -88
 7530 05ec F6       		.byte	0xf6
 7531 05ed 08       		.byte	0x8
 7532 05ee 2C       		.uleb128 0x2c
 7533 05ef F7       		.byte	0xf7
 7534 05f0 25       		.uleb128 0x25
 7535 05f1 9F       		.byte	0x9f
 7536 05f2 00000000 		.4byte	0
 7537 05f6 00000000 		.4byte	0
 7538              	.LLST36:
 7539 05fa 3C020000 		.4byte	.LVL131
 7540 05fe 82020000 		.4byte	.LVL145
 7541 0602 2200     		.2byte	0x22
 7542 0604 91       		.byte	0x91
 7543 0605 B07F     		.sleb128 -80
 7544 0607 F6       		.byte	0xf6
 7545 0608 04       		.byte	0x4
 7546 0609 25       		.uleb128 0x25
 7547 060a 91       		.byte	0x91
 7548 060b A07F     		.sleb128 -96
 7549 060d F6       		.byte	0xf6
 7550 060e 04       		.byte	0x4
ARM GAS  C:\Users\acer\AppData\Local\Temp\ccmxYZNb.s 			page 155


 7551 060f 25       		.uleb128 0x25
 7552 0610 1E       		.byte	0x1e
 7553 0611 F5       		.byte	0xf5
 7554 0612 07       		.uleb128 0x7
 7555 0613 25       		.uleb128 0x25
 7556 0614 F5       		.byte	0xf5
 7557 0615 04       		.uleb128 0x4
 7558 0616 25       		.uleb128 0x25
 7559 0617 1E       		.byte	0x1e
 7560 0618 22       		.byte	0x22
 7561 0619 F5       		.byte	0xf5
 7562 061a 0A       		.uleb128 0xa
 7563 061b 25       		.uleb128 0x25
 7564 061c F5       		.byte	0xf5
 7565 061d 05       		.uleb128 0x5
 7566 061e 25       		.uleb128 0x25
 7567 061f 1C       		.byte	0x1c
 7568 0620 F5       		.byte	0xf5
 7569 0621 06       		.uleb128 0x6
 7570 0622 25       		.uleb128 0x25
 7571 0623 1E       		.byte	0x1e
 7572 0624 22       		.byte	0x22
 7573 0625 9F       		.byte	0x9f
 7574 0626 00000000 		.4byte	0
 7575 062a 00000000 		.4byte	0
 7576              	.LLST37:
 7577 062e 3C020000 		.4byte	.LVL131
 7578 0632 DC060000 		.4byte	.LVL274
 7579 0636 0E00     		.2byte	0xe
 7580 0638 91       		.byte	0x91
 7581 0639 A07F     		.sleb128 -96
 7582 063b F6       		.byte	0xf6
 7583 063c 04       		.byte	0x4
 7584 063d 25       		.uleb128 0x25
 7585 063e 91       		.byte	0x91
 7586 063f A07F     		.sleb128 -96
 7587 0641 F6       		.byte	0xf6
 7588 0642 04       		.byte	0x4
 7589 0643 25       		.uleb128 0x25
 7590 0644 22       		.byte	0x22
 7591 0645 9F       		.byte	0x9f
 7592 0646 DC060000 		.4byte	.LVL274
 7593 064a E0060000 		.4byte	.LFE7
 7594 064e 0E00     		.2byte	0xe
 7595 0650 7D       		.byte	0x7d
 7596 0651 A07F     		.sleb128 -96
 7597 0653 F6       		.byte	0xf6
 7598 0654 04       		.byte	0x4
 7599 0655 25       		.uleb128 0x25
 7600 0656 7D       		.byte	0x7d
 7601 0657 A07F     		.sleb128 -96
 7602 0659 F6       		.byte	0xf6
 7603 065a 04       		.byte	0x4
 7604 065b 25       		.uleb128 0x25
 7605 065c 22       		.byte	0x22
 7606 065d 9F       		.byte	0x9f
 7607 065e 00000000 		.4byte	0
ARM GAS  C:\Users\acer\AppData\Local\Temp\ccmxYZNb.s 			page 156


 7608 0662 00000000 		.4byte	0
 7609              	.LLST38:
 7610 0666 44020000 		.4byte	.LVL133
 7611 066a 46020000 		.4byte	.LVL134
 7612 066e 0100     		.2byte	0x1
 7613 0670 50       		.byte	0x50
 7614 0671 46020000 		.4byte	.LVL134
 7615 0675 DC060000 		.4byte	.LVL274
 7616 0679 0300     		.2byte	0x3
 7617 067b 91       		.byte	0x91
 7618 067c B47F     		.sleb128 -76
 7619 067e DC060000 		.4byte	.LVL274
 7620 0682 E0060000 		.4byte	.LFE7
 7621 0686 0300     		.2byte	0x3
 7622 0688 7D       		.byte	0x7d
 7623 0689 B47F     		.sleb128 -76
 7624 068b 00000000 		.4byte	0
 7625 068f 00000000 		.4byte	0
 7626              	.LLST39:
 7627 0693 5C020000 		.4byte	.LVL138
 7628 0697 60020000 		.4byte	.LVL139
 7629 069b 0100     		.2byte	0x1
 7630 069d 50       		.byte	0x50
 7631 069e 60020000 		.4byte	.LVL139
 7632 06a2 DC060000 		.4byte	.LVL274
 7633 06a6 0300     		.2byte	0x3
 7634 06a8 91       		.byte	0x91
 7635 06a9 B87F     		.sleb128 -72
 7636 06ab DC060000 		.4byte	.LVL274
 7637 06af E0060000 		.4byte	.LFE7
 7638 06b3 0300     		.2byte	0x3
 7639 06b5 7D       		.byte	0x7d
 7640 06b6 B87F     		.sleb128 -72
 7641 06b8 00000000 		.4byte	0
 7642 06bc 00000000 		.4byte	0
 7643              	.LLST40:
 7644 06c0 B6020000 		.4byte	.LVL152
 7645 06c4 B8020000 		.4byte	.LVL153
 7646 06c8 3100     		.2byte	0x31
 7647 06ca F4       		.byte	0xf4
 7648 06cb 2C       		.uleb128 0x2c
 7649 06cc 08       		.byte	0x8
 7650 06cd 00000000 		.4byte	0
 7651 06d1 0000E03F 		.4byte	0x3fe00000
 7652 06d5 91       		.byte	0x91
 7653 06d6 A87F     		.sleb128 -88
 7654 06d8 F6       		.byte	0xf6
 7655 06d9 08       		.byte	0x8
 7656 06da 2C       		.uleb128 0x2c
 7657 06db 1C       		.byte	0x1c
 7658 06dc 91       		.byte	0x91
 7659 06dd 887F     		.sleb128 -120
 7660 06df F6       		.byte	0xf6
 7661 06e0 04       		.byte	0x4
 7662 06e1 25       		.uleb128 0x25
 7663 06e2 F7       		.byte	0xf7
 7664 06e3 2C       		.uleb128 0x2c
ARM GAS  C:\Users\acer\AppData\Local\Temp\ccmxYZNb.s 			page 157


 7665 06e4 1C       		.byte	0x1c
 7666 06e5 F5       		.byte	0xf5
 7667 06e6 08       		.uleb128 0x8
 7668 06e7 25       		.uleb128 0x25
 7669 06e8 F7       		.byte	0xf7
 7670 06e9 2C       		.uleb128 0x2c
 7671 06ea 1E       		.byte	0x1e
 7672 06eb F5       		.byte	0xf5
 7673 06ec 00       		.uleb128 0
 7674 06ed 25       		.uleb128 0x25
 7675 06ee 91       		.byte	0x91
 7676 06ef A07F     		.sleb128 -96
 7677 06f1 F6       		.byte	0xf6
 7678 06f2 04       		.byte	0x4
 7679 06f3 25       		.uleb128 0x25
 7680 06f4 1E       		.byte	0x1e
 7681 06f5 F7       		.byte	0xf7
 7682 06f6 2C       		.uleb128 0x2c
 7683 06f7 22       		.byte	0x22
 7684 06f8 F7       		.byte	0xf7
 7685 06f9 25       		.uleb128 0x25
 7686 06fa 9F       		.byte	0x9f
 7687 06fb B8020000 		.4byte	.LVL153
 7688 06ff B4030000 		.4byte	.LVL184
 7689 0703 3100     		.2byte	0x31
 7690 0705 F4       		.byte	0xf4
 7691 0706 2C       		.uleb128 0x2c
 7692 0707 08       		.byte	0x8
 7693 0708 00000000 		.4byte	0
 7694 070c 0000E03F 		.4byte	0x3fe00000
 7695 0710 91       		.byte	0x91
 7696 0711 A87F     		.sleb128 -88
 7697 0713 F6       		.byte	0xf6
 7698 0714 08       		.byte	0x8
 7699 0715 2C       		.uleb128 0x2c
 7700 0716 1C       		.byte	0x1c
 7701 0717 91       		.byte	0x91
 7702 0718 887F     		.sleb128 -120
 7703 071a F6       		.byte	0xf6
 7704 071b 04       		.byte	0x4
 7705 071c 25       		.uleb128 0x25
 7706 071d F7       		.byte	0xf7
 7707 071e 2C       		.uleb128 0x2c
 7708 071f 1C       		.byte	0x1c
 7709 0720 F5       		.byte	0xf5
 7710 0721 08       		.uleb128 0x8
 7711 0722 25       		.uleb128 0x25
 7712 0723 F7       		.byte	0xf7
 7713 0724 2C       		.uleb128 0x2c
 7714 0725 1E       		.byte	0x1e
 7715 0726 F5       		.byte	0xf5
 7716 0727 0A       		.uleb128 0xa
 7717 0728 25       		.uleb128 0x25
 7718 0729 91       		.byte	0x91
 7719 072a A07F     		.sleb128 -96
 7720 072c F6       		.byte	0xf6
 7721 072d 04       		.byte	0x4
ARM GAS  C:\Users\acer\AppData\Local\Temp\ccmxYZNb.s 			page 158


 7722 072e 25       		.uleb128 0x25
 7723 072f 1E       		.byte	0x1e
 7724 0730 F7       		.byte	0xf7
 7725 0731 2C       		.uleb128 0x2c
 7726 0732 22       		.byte	0x22
 7727 0733 F7       		.byte	0xf7
 7728 0734 25       		.uleb128 0x25
 7729 0735 9F       		.byte	0x9f
 7730 0736 00000000 		.4byte	0
 7731 073a 00000000 		.4byte	0
 7732              	.LLST41:
 7733 073e E4020000 		.4byte	.LVL158
 7734 0742 E6020000 		.4byte	.LVL159
 7735 0746 0100     		.2byte	0x1
 7736 0748 50       		.byte	0x50
 7737 0749 E6020000 		.4byte	.LVL159
 7738 074d DC060000 		.4byte	.LVL274
 7739 0751 0300     		.2byte	0x3
 7740 0753 91       		.byte	0x91
 7741 0754 B07F     		.sleb128 -80
 7742 0756 DC060000 		.4byte	.LVL274
 7743 075a E0060000 		.4byte	.LFE7
 7744 075e 0300     		.2byte	0x3
 7745 0760 7D       		.byte	0x7d
 7746 0761 B07F     		.sleb128 -80
 7747 0763 00000000 		.4byte	0
 7748 0767 00000000 		.4byte	0
 7749              	.LLST42:
 7750 076b 36030000 		.4byte	.LVL169
 7751 076f 38030000 		.4byte	.LVL170
 7752 0773 0100     		.2byte	0x1
 7753 0775 50       		.byte	0x50
 7754 0776 38030000 		.4byte	.LVL170
 7755 077a DC060000 		.4byte	.LVL274
 7756 077e 0300     		.2byte	0x3
 7757 0780 91       		.byte	0x91
 7758 0781 A47F     		.sleb128 -92
 7759 0783 DC060000 		.4byte	.LVL274
 7760 0787 E0060000 		.4byte	.LFE7
 7761 078b 0300     		.2byte	0x3
 7762 078d 7D       		.byte	0x7d
 7763 078e A47F     		.sleb128 -92
 7764 0790 00000000 		.4byte	0
 7765 0794 00000000 		.4byte	0
 7766              	.LLST43:
 7767 0798 00000000 		.4byte	.LVL32
 7768 079c 8A040000 		.4byte	.LVL208
 7769 07a0 0600     		.2byte	0x6
 7770 07a2 9E       		.byte	0x9e
 7771 07a3 04       		.uleb128 0x4
 7772 07a4 00000000 		.4byte	0
 7773 07a8 8A040000 		.4byte	.LVL208
 7774 07ac 08050000 		.4byte	.LVL228
 7775 07b0 1600     		.2byte	0x16
 7776 07b2 91       		.byte	0x91
 7777 07b3 44       		.sleb128 -60
 7778 07b4 F6       		.byte	0xf6
ARM GAS  C:\Users\acer\AppData\Local\Temp\ccmxYZNb.s 			page 159


 7779 07b5 04       		.byte	0x4
 7780 07b6 25       		.uleb128 0x25
 7781 07b7 F4       		.byte	0xf4
 7782 07b8 25       		.uleb128 0x25
 7783 07b9 04       		.byte	0x4
 7784 07ba A69BC43C 		.4byte	0x3cc49ba6
 7785 07be 1E       		.byte	0x1e
 7786 07bf F4       		.byte	0xf4
 7787 07c0 25       		.uleb128 0x25
 7788 07c1 04       		.byte	0x4
 7789 07c2 00000000 		.4byte	0
 7790 07c6 22       		.byte	0x22
 7791 07c7 9F       		.byte	0x9f
 7792 07c8 00000000 		.4byte	0
 7793 07cc 00000000 		.4byte	0
 7794              	.LLST44:
 7795 07d0 00000000 		.4byte	.LVL32
 7796 07d4 8A040000 		.4byte	.LVL208
 7797 07d8 0600     		.2byte	0x6
 7798 07da 9E       		.byte	0x9e
 7799 07db 04       		.uleb128 0x4
 7800 07dc 00000000 		.4byte	0
 7801 07e0 8A040000 		.4byte	.LVL208
 7802 07e4 08050000 		.4byte	.LVL228
 7803 07e8 1400     		.2byte	0x14
 7804 07ea F5       		.byte	0xf5
 7805 07eb 09       		.uleb128 0x9
 7806 07ec 25       		.uleb128 0x25
 7807 07ed F4       		.byte	0xf4
 7808 07ee 25       		.uleb128 0x25
 7809 07ef 04       		.byte	0x4
 7810 07f0 A69BC43C 		.4byte	0x3cc49ba6
 7811 07f4 1E       		.byte	0x1e
 7812 07f5 F4       		.byte	0xf4
 7813 07f6 25       		.uleb128 0x25
 7814 07f7 04       		.byte	0x4
 7815 07f8 00000000 		.4byte	0
 7816 07fc 22       		.byte	0x22
 7817 07fd 9F       		.byte	0x9f
 7818 07fe 00000000 		.4byte	0
 7819 0802 00000000 		.4byte	0
 7820              	.LLST45:
 7821 0806 00000000 		.4byte	.LVL32
 7822 080a 8A040000 		.4byte	.LVL208
 7823 080e 0600     		.2byte	0x6
 7824 0810 9E       		.byte	0x9e
 7825 0811 04       		.uleb128 0x4
 7826 0812 00000000 		.4byte	0
 7827 0816 8A040000 		.4byte	.LVL208
 7828 081a 08050000 		.4byte	.LVL228
 7829 081e 1400     		.2byte	0x14
 7830 0820 F5       		.byte	0xf5
 7831 0821 06       		.uleb128 0x6
 7832 0822 25       		.uleb128 0x25
 7833 0823 F4       		.byte	0xf4
 7834 0824 25       		.uleb128 0x25
 7835 0825 04       		.byte	0x4
ARM GAS  C:\Users\acer\AppData\Local\Temp\ccmxYZNb.s 			page 160


 7836 0826 A69BC43C 		.4byte	0x3cc49ba6
 7837 082a 1E       		.byte	0x1e
 7838 082b F4       		.byte	0xf4
 7839 082c 25       		.uleb128 0x25
 7840 082d 04       		.byte	0x4
 7841 082e 00000000 		.4byte	0
 7842 0832 22       		.byte	0x22
 7843 0833 9F       		.byte	0x9f
 7844 0834 00000000 		.4byte	0
 7845 0838 00000000 		.4byte	0
 7846              	.LLST46:
 7847 083c 76030000 		.4byte	.LVL178
 7848 0840 79030000 		.4byte	.LVL179-1
 7849 0844 0100     		.2byte	0x1
 7850 0846 50       		.byte	0x50
 7851 0847 79030000 		.4byte	.LVL179-1
 7852 084b DC060000 		.4byte	.LVL274
 7853 084f 0200     		.2byte	0x2
 7854 0851 91       		.byte	0x91
 7855 0852 44       		.sleb128 -60
 7856 0853 DC060000 		.4byte	.LVL274
 7857 0857 E0060000 		.4byte	.LFE7
 7858 085b 0200     		.2byte	0x2
 7859 085d 7D       		.byte	0x7d
 7860 085e 44       		.sleb128 -60
 7861 085f 00000000 		.4byte	0
 7862 0863 00000000 		.4byte	0
 7863              	.LLST47:
 7864 0867 24000000 		.4byte	.LVL36
 7865 086b 28000000 		.4byte	.LVL37
 7866 086f 0100     		.2byte	0x1
 7867 0871 50       		.byte	0x50
 7868 0872 28000000 		.4byte	.LVL37
 7869 0876 DC060000 		.4byte	.LVL274
 7870 087a 0200     		.2byte	0x2
 7871 087c 91       		.byte	0x91
 7872 087d 4C       		.sleb128 -52
 7873 087e DC060000 		.4byte	.LVL274
 7874 0882 E0060000 		.4byte	.LFE7
 7875 0886 0200     		.2byte	0x2
 7876 0888 7D       		.byte	0x7d
 7877 0889 4C       		.sleb128 -52
 7878 088a 00000000 		.4byte	0
 7879 088e 00000000 		.4byte	0
 7880              	.LLST48:
 7881 0892 34000000 		.4byte	.LVL39
 7882 0896 38000000 		.4byte	.LVL40
 7883 089a 0100     		.2byte	0x1
 7884 089c 50       		.byte	0x50
 7885 089d 38000000 		.4byte	.LVL40
 7886 08a1 3C020000 		.4byte	.LVL131
 7887 08a5 0300     		.2byte	0x3
 7888 08a7 91       		.byte	0x91
 7889 08a8 A87F     		.sleb128 -88
 7890 08aa 00000000 		.4byte	0
 7891 08ae 00000000 		.4byte	0
 7892              	.LLST49:
ARM GAS  C:\Users\acer\AppData\Local\Temp\ccmxYZNb.s 			page 161


 7893 08b2 42000000 		.4byte	.LVL42
 7894 08b6 46000000 		.4byte	.LVL43
 7895 08ba 0100     		.2byte	0x1
 7896 08bc 50       		.byte	0x50
 7897 08bd 46000000 		.4byte	.LVL43
 7898 08c1 02020000 		.4byte	.LVL122
 7899 08c5 0300     		.2byte	0x3
 7900 08c7 91       		.byte	0x91
 7901 08c8 A07F     		.sleb128 -96
 7902 08ca 00000000 		.4byte	0
 7903 08ce 00000000 		.4byte	0
 7904              	.LLST50:
 7905 08d2 4E000000 		.4byte	.LVL45
 7906 08d6 52000000 		.4byte	.LVL46
 7907 08da 0100     		.2byte	0x1
 7908 08dc 50       		.byte	0x50
 7909 08dd 52000000 		.4byte	.LVL46
 7910 08e1 F8010000 		.4byte	.LVL120
 7911 08e5 0300     		.2byte	0x3
 7912 08e7 91       		.byte	0x91
 7913 08e8 B47F     		.sleb128 -76
 7914 08ea 00000000 		.4byte	0
 7915 08ee 00000000 		.4byte	0
 7916              	.LLST51:
 7917 08f2 5C000000 		.4byte	.LVL48
 7918 08f6 60000000 		.4byte	.LVL49
 7919 08fa 0100     		.2byte	0x1
 7920 08fc 50       		.byte	0x50
 7921 08fd 60000000 		.4byte	.LVL49
 7922 0901 36030000 		.4byte	.LVL169
 7923 0905 0300     		.2byte	0x3
 7924 0907 91       		.byte	0x91
 7925 0908 A47F     		.sleb128 -92
 7926 090a 00000000 		.4byte	0
 7927 090e 00000000 		.4byte	0
 7928              	.LLST52:
 7929 0912 68000000 		.4byte	.LVL51
 7930 0916 6C000000 		.4byte	.LVL52
 7931 091a 0100     		.2byte	0x1
 7932 091c 50       		.byte	0x50
 7933 091d 6C000000 		.4byte	.LVL52
 7934 0921 C4010000 		.4byte	.LVL113
 7935 0925 0100     		.2byte	0x1
 7936 0927 58       		.byte	0x58
 7937 0928 00000000 		.4byte	0
 7938 092c 00000000 		.4byte	0
 7939              	.LLST53:
 7940 0930 74000000 		.4byte	.LVL54
 7941 0934 76000000 		.4byte	.LVL55
 7942 0938 0100     		.2byte	0x1
 7943 093a 50       		.byte	0x50
 7944 093b 76000000 		.4byte	.LVL55
 7945 093f 5C020000 		.4byte	.LVL138
 7946 0943 0300     		.2byte	0x3
 7947 0945 91       		.byte	0x91
 7948 0946 B87F     		.sleb128 -72
 7949 0948 00000000 		.4byte	0
ARM GAS  C:\Users\acer\AppData\Local\Temp\ccmxYZNb.s 			page 162


 7950 094c 00000000 		.4byte	0
 7951              	.LLST54:
 7952 0950 7E000000 		.4byte	.LVL57
 7953 0954 80000000 		.4byte	.LVL58
 7954 0958 0100     		.2byte	0x1
 7955 095a 50       		.byte	0x50
 7956 095b 80000000 		.4byte	.LVL58
 7957 095f C0020000 		.4byte	.LVL155
 7958 0963 0100     		.2byte	0x1
 7959 0965 55       		.byte	0x55
 7960 0966 00000000 		.4byte	0
 7961 096a 00000000 		.4byte	0
 7962              	.LLST55:
 7963 096e 88000000 		.4byte	.LVL60
 7964 0972 8A000000 		.4byte	.LVL61
 7965 0976 0100     		.2byte	0x1
 7966 0978 50       		.byte	0x50
 7967 0979 8A000000 		.4byte	.LVL61
 7968 097d 0C020000 		.4byte	.LVL124
 7969 0981 0100     		.2byte	0x1
 7970 0983 54       		.byte	0x54
 7971 0984 00000000 		.4byte	0
 7972 0988 00000000 		.4byte	0
 7973              	.LLST56:
 7974 098c 92000000 		.4byte	.LVL63
 7975 0990 94000000 		.4byte	.LVL64
 7976 0994 0100     		.2byte	0x1
 7977 0996 50       		.byte	0x50
 7978 0997 94000000 		.4byte	.LVL64
 7979 099b DC060000 		.4byte	.LVL274
 7980 099f 0300     		.2byte	0x3
 7981 09a1 91       		.byte	0x91
 7982 09a2 887F     		.sleb128 -120
 7983 09a4 DC060000 		.4byte	.LVL274
 7984 09a8 E0060000 		.4byte	.LFE7
 7985 09ac 0300     		.2byte	0x3
 7986 09ae 7D       		.byte	0x7d
 7987 09af 887F     		.sleb128 -120
 7988 09b1 00000000 		.4byte	0
 7989 09b5 00000000 		.4byte	0
 7990              	.LLST57:
 7991 09b9 12000000 		.4byte	.LVL276
 7992 09bd 14000000 		.4byte	.LVL277
 7993 09c1 1D00     		.2byte	0x1d
 7994 09c3 03       		.byte	0x3
 7995 09c4 00000000 		.4byte	MC
 7996 09c8 94       		.byte	0x94
 7997 09c9 02       		.byte	0x2
 7998 09ca 40       		.byte	0x40
 7999 09cb 24       		.byte	0x24
 8000 09cc 40       		.byte	0x40
 8001 09cd 26       		.byte	0x26
 8002 09ce 3B       		.byte	0x3b
 8003 09cf 24       		.byte	0x24
 8004 09d0 03       		.byte	0x3
 8005 09d1 00000000 		.4byte	MD
 8006 09d5 94       		.byte	0x94
ARM GAS  C:\Users\acer\AppData\Local\Temp\ccmxYZNb.s 			page 163


 8007 09d6 02       		.byte	0x2
 8008 09d7 40       		.byte	0x40
 8009 09d8 24       		.byte	0x24
 8010 09d9 40       		.byte	0x40
 8011 09da 26       		.byte	0x26
 8012 09db 71       		.byte	0x71
 8013 09dc 00       		.sleb128 0
 8014 09dd 22       		.byte	0x22
 8015 09de 1B       		.byte	0x1b
 8016 09df 9F       		.byte	0x9f
 8017 09e0 14000000 		.4byte	.LVL277
 8018 09e4 1A000000 		.4byte	.LVL278
 8019 09e8 1D00     		.2byte	0x1d
 8020 09ea 03       		.byte	0x3
 8021 09eb 00000000 		.4byte	MC
 8022 09ef 94       		.byte	0x94
 8023 09f0 02       		.byte	0x2
 8024 09f1 40       		.byte	0x40
 8025 09f2 24       		.byte	0x24
 8026 09f3 40       		.byte	0x40
 8027 09f4 26       		.byte	0x26
 8028 09f5 3B       		.byte	0x3b
 8029 09f6 24       		.byte	0x24
 8030 09f7 03       		.byte	0x3
 8031 09f8 00000000 		.4byte	MD
 8032 09fc 94       		.byte	0x94
 8033 09fd 02       		.byte	0x2
 8034 09fe 40       		.byte	0x40
 8035 09ff 24       		.byte	0x24
 8036 0a00 40       		.byte	0x40
 8037 0a01 26       		.byte	0x26
 8038 0a02 71       		.byte	0x71
 8039 0a03 00       		.sleb128 0
 8040 0a04 22       		.byte	0x22
 8041 0a05 1B       		.byte	0x1b
 8042 0a06 9F       		.byte	0x9f
 8043 0a07 1A000000 		.4byte	.LVL278
 8044 0a0b 20000000 		.4byte	.LVL279
 8045 0a0f 1D00     		.2byte	0x1d
 8046 0a11 03       		.byte	0x3
 8047 0a12 00000000 		.4byte	MC
 8048 0a16 94       		.byte	0x94
 8049 0a17 02       		.byte	0x2
 8050 0a18 40       		.byte	0x40
 8051 0a19 24       		.byte	0x24
 8052 0a1a 40       		.byte	0x40
 8053 0a1b 26       		.byte	0x26
 8054 0a1c 3B       		.byte	0x3b
 8055 0a1d 24       		.byte	0x24
 8056 0a1e 03       		.byte	0x3
 8057 0a1f 00000000 		.4byte	MD
 8058 0a23 94       		.byte	0x94
 8059 0a24 02       		.byte	0x2
 8060 0a25 40       		.byte	0x40
 8061 0a26 24       		.byte	0x24
 8062 0a27 40       		.byte	0x40
 8063 0a28 26       		.byte	0x26
ARM GAS  C:\Users\acer\AppData\Local\Temp\ccmxYZNb.s 			page 164


 8064 0a29 71       		.byte	0x71
 8065 0a2a 00       		.sleb128 0
 8066 0a2b 22       		.byte	0x22
 8067 0a2c 1B       		.byte	0x1b
 8068 0a2d 9F       		.byte	0x9f
 8069 0a2e 20000000 		.4byte	.LVL279
 8070 0a32 26000000 		.4byte	.LVL280
 8071 0a36 1D00     		.2byte	0x1d
 8072 0a38 03       		.byte	0x3
 8073 0a39 00000000 		.4byte	MC
 8074 0a3d 94       		.byte	0x94
 8075 0a3e 02       		.byte	0x2
 8076 0a3f 40       		.byte	0x40
 8077 0a40 24       		.byte	0x24
 8078 0a41 40       		.byte	0x40
 8079 0a42 26       		.byte	0x26
 8080 0a43 3B       		.byte	0x3b
 8081 0a44 24       		.byte	0x24
 8082 0a45 03       		.byte	0x3
 8083 0a46 00000000 		.4byte	MD
 8084 0a4a 94       		.byte	0x94
 8085 0a4b 02       		.byte	0x2
 8086 0a4c 40       		.byte	0x40
 8087 0a4d 24       		.byte	0x24
 8088 0a4e 40       		.byte	0x40
 8089 0a4f 26       		.byte	0x26
 8090 0a50 71       		.byte	0x71
 8091 0a51 00       		.sleb128 0
 8092 0a52 22       		.byte	0x22
 8093 0a53 1B       		.byte	0x1b
 8094 0a54 9F       		.byte	0x9f
 8095 0a55 26000000 		.4byte	.LVL280
 8096 0a59 2A000000 		.4byte	.LVL281
 8097 0a5d 0100     		.2byte	0x1
 8098 0a5f 53       		.byte	0x53
 8099 0a60 2A000000 		.4byte	.LVL281
 8100 0a64 4C000000 		.4byte	.LFE8
 8101 0a68 1D00     		.2byte	0x1d
 8102 0a6a 03       		.byte	0x3
 8103 0a6b 00000000 		.4byte	MC
 8104 0a6f 94       		.byte	0x94
 8105 0a70 02       		.byte	0x2
 8106 0a71 40       		.byte	0x40
 8107 0a72 24       		.byte	0x24
 8108 0a73 40       		.byte	0x40
 8109 0a74 26       		.byte	0x26
 8110 0a75 3B       		.byte	0x3b
 8111 0a76 24       		.byte	0x24
 8112 0a77 03       		.byte	0x3
 8113 0a78 00000000 		.4byte	MD
 8114 0a7c 94       		.byte	0x94
 8115 0a7d 02       		.byte	0x2
 8116 0a7e 40       		.byte	0x40
 8117 0a7f 24       		.byte	0x24
 8118 0a80 40       		.byte	0x40
 8119 0a81 26       		.byte	0x26
 8120 0a82 71       		.byte	0x71
ARM GAS  C:\Users\acer\AppData\Local\Temp\ccmxYZNb.s 			page 165


 8121 0a83 00       		.sleb128 0
 8122 0a84 22       		.byte	0x22
 8123 0a85 1B       		.byte	0x1b
 8124 0a86 9F       		.byte	0x9f
 8125 0a87 00000000 		.4byte	0
 8126 0a8b 00000000 		.4byte	0
 8127              	.LLST58:
 8128 0a8f 1C000000 		.4byte	.LVL284
 8129 0a93 5A000000 		.4byte	.LVL299
 8130 0a97 1100     		.2byte	0x11
 8131 0a99 03       		.byte	0x3
 8132 0a9a 00000000 		.4byte	AC3
 8133 0a9e 94       		.byte	0x94
 8134 0a9f 02       		.byte	0x2
 8135 0aa0 40       		.byte	0x40
 8136 0aa1 24       		.byte	0x24
 8137 0aa2 40       		.byte	0x40
 8138 0aa3 26       		.byte	0x26
 8139 0aa4 74       		.byte	0x74
 8140 0aa5 00       		.sleb128 0
 8141 0aa6 1E       		.byte	0x1e
 8142 0aa7 3D       		.byte	0x3d
 8143 0aa8 26       		.byte	0x26
 8144 0aa9 9F       		.byte	0x9f
 8145 0aaa 5A000000 		.4byte	.LVL299
 8146 0aae 88000000 		.4byte	.LVL304
 8147 0ab2 1900     		.2byte	0x19
 8148 0ab4 03       		.byte	0x3
 8149 0ab5 00000000 		.4byte	B5
 8150 0ab9 06       		.byte	0x6
 8151 0aba 0A       		.byte	0xa
 8152 0abb A00F     		.2byte	0xfa0
 8153 0abd 1C       		.byte	0x1c
 8154 0abe 03       		.byte	0x3
 8155 0abf 00000000 		.4byte	AC3
 8156 0ac3 94       		.byte	0x94
 8157 0ac4 02       		.byte	0x2
 8158 0ac5 40       		.byte	0x40
 8159 0ac6 24       		.byte	0x24
 8160 0ac7 40       		.byte	0x40
 8161 0ac8 26       		.byte	0x26
 8162 0ac9 1E       		.byte	0x1e
 8163 0aca 3D       		.byte	0x3d
 8164 0acb 26       		.byte	0x26
 8165 0acc 9F       		.byte	0x9f
 8166 0acd 88000000 		.4byte	.LVL304
 8167 0ad1 8A000000 		.4byte	.LVL305
 8168 0ad5 0600     		.2byte	0x6
 8169 0ad7 72       		.byte	0x72
 8170 0ad8 00       		.sleb128 0
 8171 0ad9 72       		.byte	0x72
 8172 0ada 00       		.sleb128 0
 8173 0adb 1E       		.byte	0x1e
 8174 0adc 9F       		.byte	0x9f
 8175 0add 8A000000 		.4byte	.LVL305
 8176 0ae1 8C000000 		.4byte	.LVL306
 8177 0ae5 0100     		.2byte	0x1
ARM GAS  C:\Users\acer\AppData\Local\Temp\ccmxYZNb.s 			page 166


 8178 0ae7 52       		.byte	0x52
 8179 0ae8 8C000000 		.4byte	.LVL306
 8180 0aec 96000000 		.4byte	.LVL308
 8181 0af0 0500     		.2byte	0x5
 8182 0af2 72       		.byte	0x72
 8183 0af3 00       		.sleb128 0
 8184 0af4 40       		.byte	0x40
 8185 0af5 26       		.byte	0x26
 8186 0af6 9F       		.byte	0x9f
 8187 0af7 96000000 		.4byte	.LVL308
 8188 0afb 9E000000 		.4byte	.LVL309
 8189 0aff 1000     		.2byte	0x10
 8190 0b01 73       		.byte	0x73
 8191 0b02 00       		.sleb128 0
 8192 0b03 38       		.byte	0x38
 8193 0b04 26       		.byte	0x26
 8194 0b05 73       		.byte	0x73
 8195 0b06 00       		.sleb128 0
 8196 0b07 38       		.byte	0x38
 8197 0b08 26       		.byte	0x26
 8198 0b09 1E       		.byte	0x1e
 8199 0b0a 0A       		.byte	0xa
 8200 0b0b DE0B     		.2byte	0xbde
 8201 0b0d 1E       		.byte	0x1e
 8202 0b0e 40       		.byte	0x40
 8203 0b0f 26       		.byte	0x26
 8204 0b10 9F       		.byte	0x9f
 8205 0b11 00000000 		.4byte	0
 8206 0b15 00000000 		.4byte	0
 8207              	.LLST59:
 8208 0b19 1C000000 		.4byte	.LVL284
 8209 0b1d 22000000 		.4byte	.LVL286
 8210 0b21 1100     		.2byte	0x11
 8211 0b23 03       		.byte	0x3
 8212 0b24 00000000 		.4byte	B1
 8213 0b28 94       		.byte	0x94
 8214 0b29 02       		.byte	0x2
 8215 0b2a 40       		.byte	0x40
 8216 0b2b 24       		.byte	0x24
 8217 0b2c 40       		.byte	0x40
 8218 0b2d 26       		.byte	0x26
 8219 0b2e 77       		.byte	0x77
 8220 0b2f 00       		.sleb128 0
 8221 0b30 1E       		.byte	0x1e
 8222 0b31 40       		.byte	0x40
 8223 0b32 26       		.byte	0x26
 8224 0b33 9F       		.byte	0x9f
 8225 0b34 22000000 		.4byte	.LVL286
 8226 0b38 26000000 		.4byte	.LVL287
 8227 0b3c 1100     		.2byte	0x11
 8228 0b3e 03       		.byte	0x3
 8229 0b3f 00000000 		.4byte	B1
 8230 0b43 94       		.byte	0x94
 8231 0b44 02       		.byte	0x2
 8232 0b45 40       		.byte	0x40
 8233 0b46 24       		.byte	0x24
 8234 0b47 40       		.byte	0x40
ARM GAS  C:\Users\acer\AppData\Local\Temp\ccmxYZNb.s 			page 167


 8235 0b48 26       		.byte	0x26
 8236 0b49 77       		.byte	0x77
 8237 0b4a 00       		.sleb128 0
 8238 0b4b 1E       		.byte	0x1e
 8239 0b4c 40       		.byte	0x40
 8240 0b4d 26       		.byte	0x26
 8241 0b4e 9F       		.byte	0x9f
 8242 0b4f 26000000 		.4byte	.LVL287
 8243 0b53 2A000000 		.4byte	.LVL289
 8244 0b57 1100     		.2byte	0x11
 8245 0b59 03       		.byte	0x3
 8246 0b5a 00000000 		.4byte	B1
 8247 0b5e 94       		.byte	0x94
 8248 0b5f 02       		.byte	0x2
 8249 0b60 40       		.byte	0x40
 8250 0b61 24       		.byte	0x24
 8251 0b62 40       		.byte	0x40
 8252 0b63 26       		.byte	0x26
 8253 0b64 77       		.byte	0x77
 8254 0b65 00       		.sleb128 0
 8255 0b66 1E       		.byte	0x1e
 8256 0b67 40       		.byte	0x40
 8257 0b68 26       		.byte	0x26
 8258 0b69 9F       		.byte	0x9f
 8259 0b6a 2A000000 		.4byte	.LVL289
 8260 0b6e 2E000000 		.4byte	.LVL290
 8261 0b72 0100     		.2byte	0x1
 8262 0b74 53       		.byte	0x53
 8263 0b75 2E000000 		.4byte	.LVL290
 8264 0b79 52000000 		.4byte	.LVL296
 8265 0b7d 1100     		.2byte	0x11
 8266 0b7f 03       		.byte	0x3
 8267 0b80 00000000 		.4byte	B1
 8268 0b84 94       		.byte	0x94
 8269 0b85 02       		.byte	0x2
 8270 0b86 40       		.byte	0x40
 8271 0b87 24       		.byte	0x24
 8272 0b88 40       		.byte	0x40
 8273 0b89 26       		.byte	0x26
 8274 0b8a 77       		.byte	0x77
 8275 0b8b 00       		.sleb128 0
 8276 0b8c 1E       		.byte	0x1e
 8277 0b8d 40       		.byte	0x40
 8278 0b8e 26       		.byte	0x26
 8279 0b8f 9F       		.byte	0x9f
 8280 0b90 52000000 		.4byte	.LVL296
 8281 0b94 5A000000 		.4byte	.LVL299
 8282 0b98 1600     		.2byte	0x16
 8283 0b9a 74       		.byte	0x74
 8284 0b9b 00       		.sleb128 0
 8285 0b9c 74       		.byte	0x74
 8286 0b9d 00       		.sleb128 0
 8287 0b9e 1E       		.byte	0x1e
 8288 0b9f 3C       		.byte	0x3c
 8289 0ba0 26       		.byte	0x26
 8290 0ba1 03       		.byte	0x3
 8291 0ba2 00000000 		.4byte	B1
ARM GAS  C:\Users\acer\AppData\Local\Temp\ccmxYZNb.s 			page 168


 8292 0ba6 94       		.byte	0x94
 8293 0ba7 02       		.byte	0x2
 8294 0ba8 40       		.byte	0x40
 8295 0ba9 24       		.byte	0x24
 8296 0baa 40       		.byte	0x40
 8297 0bab 26       		.byte	0x26
 8298 0bac 1E       		.byte	0x1e
 8299 0bad 40       		.byte	0x40
 8300 0bae 26       		.byte	0x26
 8301 0baf 9F       		.byte	0x9f
 8302 0bb0 5A000000 		.4byte	.LVL299
 8303 0bb4 8C000000 		.4byte	.LVL306
 8304 0bb8 2600     		.2byte	0x26
 8305 0bba 03       		.byte	0x3
 8306 0bbb 00000000 		.4byte	B5
 8307 0bbf 06       		.byte	0x6
 8308 0bc0 0A       		.byte	0xa
 8309 0bc1 A00F     		.2byte	0xfa0
 8310 0bc3 1C       		.byte	0x1c
 8311 0bc4 03       		.byte	0x3
 8312 0bc5 00000000 		.4byte	B5
 8313 0bc9 06       		.byte	0x6
 8314 0bca 0A       		.byte	0xa
 8315 0bcb A00F     		.2byte	0xfa0
 8316 0bcd 1C       		.byte	0x1c
 8317 0bce 1E       		.byte	0x1e
 8318 0bcf 3C       		.byte	0x3c
 8319 0bd0 26       		.byte	0x26
 8320 0bd1 03       		.byte	0x3
 8321 0bd2 00000000 		.4byte	B1
 8322 0bd6 94       		.byte	0x94
 8323 0bd7 02       		.byte	0x2
 8324 0bd8 40       		.byte	0x40
 8325 0bd9 24       		.byte	0x24
 8326 0bda 40       		.byte	0x40
 8327 0bdb 26       		.byte	0x26
 8328 0bdc 1E       		.byte	0x1e
 8329 0bdd 40       		.byte	0x40
 8330 0bde 26       		.byte	0x26
 8331 0bdf 9F       		.byte	0x9f
 8332 0be0 8C000000 		.4byte	.LVL306
 8333 0be4 92000000 		.4byte	.LVL307
 8334 0be8 0900     		.2byte	0x9
 8335 0bea 73       		.byte	0x73
 8336 0beb 00       		.sleb128 0
 8337 0bec 0B       		.byte	0xb
 8338 0bed 43E3     		.2byte	0xe343
 8339 0bef 1E       		.byte	0x1e
 8340 0bf0 40       		.byte	0x40
 8341 0bf1 26       		.byte	0x26
 8342 0bf2 9F       		.byte	0x9f
 8343 0bf3 92000000 		.4byte	.LVL307
 8344 0bf7 CC000000 		.4byte	.LFE9
 8345 0bfb 0100     		.2byte	0x1
 8346 0bfd 51       		.byte	0x51
 8347 0bfe 00000000 		.4byte	0
 8348 0c02 00000000 		.4byte	0
ARM GAS  C:\Users\acer\AppData\Local\Temp\ccmxYZNb.s 			page 169


 8349              	.LLST60:
 8350 0c06 1C000000 		.4byte	.LVL284
 8351 0c0a 20000000 		.4byte	.LVL285
 8352 0c0e 2600     		.2byte	0x26
 8353 0c10 03       		.byte	0x3
 8354 0c11 00000000 		.4byte	AC3
 8355 0c15 94       		.byte	0x94
 8356 0c16 02       		.byte	0x2
 8357 0c17 40       		.byte	0x40
 8358 0c18 24       		.byte	0x24
 8359 0c19 40       		.byte	0x40
 8360 0c1a 26       		.byte	0x26
 8361 0c1b 74       		.byte	0x74
 8362 0c1c 00       		.sleb128 0
 8363 0c1d 1E       		.byte	0x1e
 8364 0c1e 3D       		.byte	0x3d
 8365 0c1f 26       		.byte	0x26
 8366 0c20 03       		.byte	0x3
 8367 0c21 00000000 		.4byte	B1
 8368 0c25 94       		.byte	0x94
 8369 0c26 02       		.byte	0x2
 8370 0c27 40       		.byte	0x40
 8371 0c28 24       		.byte	0x24
 8372 0c29 40       		.byte	0x40
 8373 0c2a 26       		.byte	0x26
 8374 0c2b 77       		.byte	0x77
 8375 0c2c 00       		.sleb128 0
 8376 0c2d 1E       		.byte	0x1e
 8377 0c2e 40       		.byte	0x40
 8378 0c2f 26       		.byte	0x26
 8379 0c30 22       		.byte	0x22
 8380 0c31 23       		.byte	0x23
 8381 0c32 02       		.uleb128 0x2
 8382 0c33 32       		.byte	0x32
 8383 0c34 26       		.byte	0x26
 8384 0c35 9F       		.byte	0x9f
 8385 0c36 20000000 		.4byte	.LVL285
 8386 0c3a 22000000 		.4byte	.LVL286
 8387 0c3e 1A00     		.2byte	0x1a
 8388 0c40 72       		.byte	0x72
 8389 0c41 00       		.sleb128 0
 8390 0c42 3D       		.byte	0x3d
 8391 0c43 26       		.byte	0x26
 8392 0c44 03       		.byte	0x3
 8393 0c45 00000000 		.4byte	B1
 8394 0c49 94       		.byte	0x94
 8395 0c4a 02       		.byte	0x2
 8396 0c4b 40       		.byte	0x40
 8397 0c4c 24       		.byte	0x24
 8398 0c4d 40       		.byte	0x40
 8399 0c4e 26       		.byte	0x26
 8400 0c4f 77       		.byte	0x77
 8401 0c50 00       		.sleb128 0
 8402 0c51 1E       		.byte	0x1e
 8403 0c52 40       		.byte	0x40
 8404 0c53 26       		.byte	0x26
 8405 0c54 22       		.byte	0x22
ARM GAS  C:\Users\acer\AppData\Local\Temp\ccmxYZNb.s 			page 170


 8406 0c55 23       		.byte	0x23
 8407 0c56 02       		.uleb128 0x2
 8408 0c57 32       		.byte	0x32
 8409 0c58 26       		.byte	0x26
 8410 0c59 9F       		.byte	0x9f
 8411 0c5a 22000000 		.4byte	.LVL286
 8412 0c5e 26000000 		.4byte	.LVL287
 8413 0c62 1A00     		.2byte	0x1a
 8414 0c64 72       		.byte	0x72
 8415 0c65 00       		.sleb128 0
 8416 0c66 3D       		.byte	0x3d
 8417 0c67 26       		.byte	0x26
 8418 0c68 03       		.byte	0x3
 8419 0c69 00000000 		.4byte	B1
 8420 0c6d 94       		.byte	0x94
 8421 0c6e 02       		.byte	0x2
 8422 0c6f 40       		.byte	0x40
 8423 0c70 24       		.byte	0x24
 8424 0c71 40       		.byte	0x40
 8425 0c72 26       		.byte	0x26
 8426 0c73 77       		.byte	0x77
 8427 0c74 00       		.sleb128 0
 8428 0c75 1E       		.byte	0x1e
 8429 0c76 40       		.byte	0x40
 8430 0c77 26       		.byte	0x26
 8431 0c78 22       		.byte	0x22
 8432 0c79 23       		.byte	0x23
 8433 0c7a 02       		.uleb128 0x2
 8434 0c7b 32       		.byte	0x32
 8435 0c7c 26       		.byte	0x26
 8436 0c7d 9F       		.byte	0x9f
 8437 0c7e 26000000 		.4byte	.LVL287
 8438 0c82 28000000 		.4byte	.LVL288
 8439 0c86 1A00     		.2byte	0x1a
 8440 0c88 72       		.byte	0x72
 8441 0c89 00       		.sleb128 0
 8442 0c8a 3D       		.byte	0x3d
 8443 0c8b 26       		.byte	0x26
 8444 0c8c 03       		.byte	0x3
 8445 0c8d 00000000 		.4byte	B1
 8446 0c91 94       		.byte	0x94
 8447 0c92 02       		.byte	0x2
 8448 0c93 40       		.byte	0x40
 8449 0c94 24       		.byte	0x24
 8450 0c95 40       		.byte	0x40
 8451 0c96 26       		.byte	0x26
 8452 0c97 77       		.byte	0x77
 8453 0c98 00       		.sleb128 0
 8454 0c99 1E       		.byte	0x1e
 8455 0c9a 40       		.byte	0x40
 8456 0c9b 26       		.byte	0x26
 8457 0c9c 22       		.byte	0x22
 8458 0c9d 23       		.byte	0x23
 8459 0c9e 02       		.uleb128 0x2
 8460 0c9f 32       		.byte	0x32
 8461 0ca0 26       		.byte	0x26
 8462 0ca1 9F       		.byte	0x9f
ARM GAS  C:\Users\acer\AppData\Local\Temp\ccmxYZNb.s 			page 171


 8463 0ca2 28000000 		.4byte	.LVL288
 8464 0ca6 2A000000 		.4byte	.LVL289
 8465 0caa 0E00     		.2byte	0xe
 8466 0cac 72       		.byte	0x72
 8467 0cad 00       		.sleb128 0
 8468 0cae 3D       		.byte	0x3d
 8469 0caf 26       		.byte	0x26
 8470 0cb0 73       		.byte	0x73
 8471 0cb1 00       		.sleb128 0
 8472 0cb2 40       		.byte	0x40
 8473 0cb3 26       		.byte	0x26
 8474 0cb4 22       		.byte	0x22
 8475 0cb5 23       		.byte	0x23
 8476 0cb6 02       		.uleb128 0x2
 8477 0cb7 32       		.byte	0x32
 8478 0cb8 26       		.byte	0x26
 8479 0cb9 9F       		.byte	0x9f
 8480 0cba 2A000000 		.4byte	.LVL289
 8481 0cbe 30000000 		.4byte	.LVL291
 8482 0cc2 1A00     		.2byte	0x1a
 8483 0cc4 72       		.byte	0x72
 8484 0cc5 00       		.sleb128 0
 8485 0cc6 3D       		.byte	0x3d
 8486 0cc7 26       		.byte	0x26
 8487 0cc8 03       		.byte	0x3
 8488 0cc9 00000000 		.4byte	B1
 8489 0ccd 94       		.byte	0x94
 8490 0cce 02       		.byte	0x2
 8491 0ccf 40       		.byte	0x40
 8492 0cd0 24       		.byte	0x24
 8493 0cd1 40       		.byte	0x40
 8494 0cd2 26       		.byte	0x26
 8495 0cd3 77       		.byte	0x77
 8496 0cd4 00       		.sleb128 0
 8497 0cd5 1E       		.byte	0x1e
 8498 0cd6 40       		.byte	0x40
 8499 0cd7 26       		.byte	0x26
 8500 0cd8 22       		.byte	0x22
 8501 0cd9 23       		.byte	0x23
 8502 0cda 02       		.uleb128 0x2
 8503 0cdb 32       		.byte	0x32
 8504 0cdc 26       		.byte	0x26
 8505 0cdd 9F       		.byte	0x9f
 8506 0cde 30000000 		.4byte	.LVL291
 8507 0ce2 52000000 		.4byte	.LVL296
 8508 0ce6 2600     		.2byte	0x26
 8509 0ce8 03       		.byte	0x3
 8510 0ce9 00000000 		.4byte	AC3
 8511 0ced 94       		.byte	0x94
 8512 0cee 02       		.byte	0x2
 8513 0cef 40       		.byte	0x40
 8514 0cf0 24       		.byte	0x24
 8515 0cf1 40       		.byte	0x40
 8516 0cf2 26       		.byte	0x26
 8517 0cf3 74       		.byte	0x74
 8518 0cf4 00       		.sleb128 0
 8519 0cf5 1E       		.byte	0x1e
ARM GAS  C:\Users\acer\AppData\Local\Temp\ccmxYZNb.s 			page 172


 8520 0cf6 3D       		.byte	0x3d
 8521 0cf7 26       		.byte	0x26
 8522 0cf8 03       		.byte	0x3
 8523 0cf9 00000000 		.4byte	B1
 8524 0cfd 94       		.byte	0x94
 8525 0cfe 02       		.byte	0x2
 8526 0cff 40       		.byte	0x40
 8527 0d00 24       		.byte	0x24
 8528 0d01 40       		.byte	0x40
 8529 0d02 26       		.byte	0x26
 8530 0d03 77       		.byte	0x77
 8531 0d04 00       		.sleb128 0
 8532 0d05 1E       		.byte	0x1e
 8533 0d06 40       		.byte	0x40
 8534 0d07 26       		.byte	0x26
 8535 0d08 22       		.byte	0x22
 8536 0d09 23       		.byte	0x23
 8537 0d0a 02       		.uleb128 0x2
 8538 0d0b 32       		.byte	0x32
 8539 0d0c 26       		.byte	0x26
 8540 0d0d 9F       		.byte	0x9f
 8541 0d0e 52000000 		.4byte	.LVL296
 8542 0d12 5A000000 		.4byte	.LVL299
 8543 0d16 2B00     		.2byte	0x2b
 8544 0d18 03       		.byte	0x3
 8545 0d19 00000000 		.4byte	AC3
 8546 0d1d 94       		.byte	0x94
 8547 0d1e 02       		.byte	0x2
 8548 0d1f 40       		.byte	0x40
 8549 0d20 24       		.byte	0x24
 8550 0d21 40       		.byte	0x40
 8551 0d22 26       		.byte	0x26
 8552 0d23 74       		.byte	0x74
 8553 0d24 00       		.sleb128 0
 8554 0d25 1E       		.byte	0x1e
 8555 0d26 3D       		.byte	0x3d
 8556 0d27 26       		.byte	0x26
 8557 0d28 74       		.byte	0x74
 8558 0d29 00       		.sleb128 0
 8559 0d2a 74       		.byte	0x74
 8560 0d2b 00       		.sleb128 0
 8561 0d2c 1E       		.byte	0x1e
 8562 0d2d 3C       		.byte	0x3c
 8563 0d2e 26       		.byte	0x26
 8564 0d2f 03       		.byte	0x3
 8565 0d30 00000000 		.4byte	B1
 8566 0d34 94       		.byte	0x94
 8567 0d35 02       		.byte	0x2
 8568 0d36 40       		.byte	0x40
 8569 0d37 24       		.byte	0x24
 8570 0d38 40       		.byte	0x40
 8571 0d39 26       		.byte	0x26
 8572 0d3a 1E       		.byte	0x1e
 8573 0d3b 40       		.byte	0x40
 8574 0d3c 26       		.byte	0x26
 8575 0d3d 22       		.byte	0x22
 8576 0d3e 23       		.byte	0x23
ARM GAS  C:\Users\acer\AppData\Local\Temp\ccmxYZNb.s 			page 173


 8577 0d3f 02       		.uleb128 0x2
 8578 0d40 32       		.byte	0x32
 8579 0d41 26       		.byte	0x26
 8580 0d42 9F       		.byte	0x9f
 8581 0d43 5A000000 		.4byte	.LVL299
 8582 0d47 A0000000 		.4byte	.LVL310
 8583 0d4b 4300     		.2byte	0x43
 8584 0d4d 03       		.byte	0x3
 8585 0d4e 00000000 		.4byte	B5
 8586 0d52 06       		.byte	0x6
 8587 0d53 0A       		.byte	0xa
 8588 0d54 A00F     		.2byte	0xfa0
 8589 0d56 1C       		.byte	0x1c
 8590 0d57 03       		.byte	0x3
 8591 0d58 00000000 		.4byte	AC3
 8592 0d5c 94       		.byte	0x94
 8593 0d5d 02       		.byte	0x2
 8594 0d5e 40       		.byte	0x40
 8595 0d5f 24       		.byte	0x24
 8596 0d60 40       		.byte	0x40
 8597 0d61 26       		.byte	0x26
 8598 0d62 1E       		.byte	0x1e
 8599 0d63 3D       		.byte	0x3d
 8600 0d64 26       		.byte	0x26
 8601 0d65 03       		.byte	0x3
 8602 0d66 00000000 		.4byte	B5
 8603 0d6a 06       		.byte	0x6
 8604 0d6b 0A       		.byte	0xa
 8605 0d6c A00F     		.2byte	0xfa0
 8606 0d6e 1C       		.byte	0x1c
 8607 0d6f 03       		.byte	0x3
 8608 0d70 00000000 		.4byte	B5
 8609 0d74 06       		.byte	0x6
 8610 0d75 0A       		.byte	0xa
 8611 0d76 A00F     		.2byte	0xfa0
 8612 0d78 1C       		.byte	0x1c
 8613 0d79 1E       		.byte	0x1e
 8614 0d7a 3C       		.byte	0x3c
 8615 0d7b 26       		.byte	0x26
 8616 0d7c 03       		.byte	0x3
 8617 0d7d 00000000 		.4byte	B1
 8618 0d81 94       		.byte	0x94
 8619 0d82 02       		.byte	0x2
 8620 0d83 40       		.byte	0x40
 8621 0d84 24       		.byte	0x24
 8622 0d85 40       		.byte	0x40
 8623 0d86 26       		.byte	0x26
 8624 0d87 1E       		.byte	0x1e
 8625 0d88 40       		.byte	0x40
 8626 0d89 26       		.byte	0x26
 8627 0d8a 22       		.byte	0x22
 8628 0d8b 23       		.byte	0x23
 8629 0d8c 02       		.uleb128 0x2
 8630 0d8d 32       		.byte	0x32
 8631 0d8e 26       		.byte	0x26
 8632 0d8f 9F       		.byte	0x9f
 8633 0d90 00000000 		.4byte	0
ARM GAS  C:\Users\acer\AppData\Local\Temp\ccmxYZNb.s 			page 174


 8634 0d94 00000000 		.4byte	0
 8635              	.LLST61:
 8636 0d98 1C000000 		.4byte	.LVL284
 8637 0d9c 44000000 		.4byte	.LVL293
 8638 0da0 3700     		.2byte	0x37
 8639 0da2 03       		.byte	0x3
 8640 0da3 00000000 		.4byte	B2
 8641 0da7 94       		.byte	0x94
 8642 0da8 02       		.byte	0x2
 8643 0da9 40       		.byte	0x40
 8644 0daa 24       		.byte	0x24
 8645 0dab 40       		.byte	0x40
 8646 0dac 26       		.byte	0x26
 8647 0dad 77       		.byte	0x77
 8648 0dae 00       		.sleb128 0
 8649 0daf 1E       		.byte	0x1e
 8650 0db0 3B       		.byte	0x3b
 8651 0db1 26       		.byte	0x26
 8652 0db2 03       		.byte	0x3
 8653 0db3 00000000 		.4byte	AC2
 8654 0db7 94       		.byte	0x94
 8655 0db8 02       		.byte	0x2
 8656 0db9 40       		.byte	0x40
 8657 0dba 24       		.byte	0x24
 8658 0dbb 40       		.byte	0x40
 8659 0dbc 26       		.byte	0x26
 8660 0dbd 74       		.byte	0x74
 8661 0dbe 00       		.sleb128 0
 8662 0dbf 1E       		.byte	0x1e
 8663 0dc0 3B       		.byte	0x3b
 8664 0dc1 26       		.byte	0x26
 8665 0dc2 22       		.byte	0x22
 8666 0dc3 03       		.byte	0x3
 8667 0dc4 00000000 		.4byte	AC1
 8668 0dc8 94       		.byte	0x94
 8669 0dc9 02       		.byte	0x2
 8670 0dca 40       		.byte	0x40
 8671 0dcb 24       		.byte	0x24
 8672 0dcc 40       		.byte	0x40
 8673 0dcd 26       		.byte	0x26
 8674 0dce 32       		.byte	0x32
 8675 0dcf 24       		.byte	0x24
 8676 0dd0 22       		.byte	0x22
 8677 0dd1 75       		.byte	0x75
 8678 0dd2 00       		.sleb128 0
 8679 0dd3 24       		.byte	0x24
 8680 0dd4 23       		.byte	0x23
 8681 0dd5 02       		.uleb128 0x2
 8682 0dd6 32       		.byte	0x32
 8683 0dd7 26       		.byte	0x26
 8684 0dd8 9F       		.byte	0x9f
 8685 0dd9 44000000 		.4byte	.LVL293
 8686 0ddd 4C000000 		.4byte	.LVL294
 8687 0de1 3700     		.2byte	0x37
 8688 0de3 03       		.byte	0x3
 8689 0de4 00000000 		.4byte	B2
 8690 0de8 94       		.byte	0x94
ARM GAS  C:\Users\acer\AppData\Local\Temp\ccmxYZNb.s 			page 175


 8691 0de9 02       		.byte	0x2
 8692 0dea 40       		.byte	0x40
 8693 0deb 24       		.byte	0x24
 8694 0dec 40       		.byte	0x40
 8695 0ded 26       		.byte	0x26
 8696 0dee 77       		.byte	0x77
 8697 0def 00       		.sleb128 0
 8698 0df0 1E       		.byte	0x1e
 8699 0df1 3B       		.byte	0x3b
 8700 0df2 26       		.byte	0x26
 8701 0df3 03       		.byte	0x3
 8702 0df4 00000000 		.4byte	AC2
 8703 0df8 94       		.byte	0x94
 8704 0df9 02       		.byte	0x2
 8705 0dfa 40       		.byte	0x40
 8706 0dfb 24       		.byte	0x24
 8707 0dfc 40       		.byte	0x40
 8708 0dfd 26       		.byte	0x26
 8709 0dfe 74       		.byte	0x74
 8710 0dff 00       		.sleb128 0
 8711 0e00 1E       		.byte	0x1e
 8712 0e01 3B       		.byte	0x3b
 8713 0e02 26       		.byte	0x26
 8714 0e03 22       		.byte	0x22
 8715 0e04 03       		.byte	0x3
 8716 0e05 00000000 		.4byte	AC1
 8717 0e09 94       		.byte	0x94
 8718 0e0a 02       		.byte	0x2
 8719 0e0b 40       		.byte	0x40
 8720 0e0c 24       		.byte	0x24
 8721 0e0d 40       		.byte	0x40
 8722 0e0e 26       		.byte	0x26
 8723 0e0f 32       		.byte	0x32
 8724 0e10 24       		.byte	0x24
 8725 0e11 22       		.byte	0x22
 8726 0e12 75       		.byte	0x75
 8727 0e13 00       		.sleb128 0
 8728 0e14 24       		.byte	0x24
 8729 0e15 23       		.byte	0x23
 8730 0e16 02       		.uleb128 0x2
 8731 0e17 32       		.byte	0x32
 8732 0e18 26       		.byte	0x26
 8733 0e19 9F       		.byte	0x9f
 8734 0e1a 4C000000 		.4byte	.LVL294
 8735 0e1e 50000000 		.4byte	.LVL295
 8736 0e22 3700     		.2byte	0x37
 8737 0e24 03       		.byte	0x3
 8738 0e25 00000000 		.4byte	B2
 8739 0e29 94       		.byte	0x94
 8740 0e2a 02       		.byte	0x2
 8741 0e2b 40       		.byte	0x40
 8742 0e2c 24       		.byte	0x24
 8743 0e2d 40       		.byte	0x40
 8744 0e2e 26       		.byte	0x26
 8745 0e2f 77       		.byte	0x77
 8746 0e30 00       		.sleb128 0
 8747 0e31 1E       		.byte	0x1e
ARM GAS  C:\Users\acer\AppData\Local\Temp\ccmxYZNb.s 			page 176


 8748 0e32 3B       		.byte	0x3b
 8749 0e33 26       		.byte	0x26
 8750 0e34 03       		.byte	0x3
 8751 0e35 00000000 		.4byte	AC2
 8752 0e39 94       		.byte	0x94
 8753 0e3a 02       		.byte	0x2
 8754 0e3b 40       		.byte	0x40
 8755 0e3c 24       		.byte	0x24
 8756 0e3d 40       		.byte	0x40
 8757 0e3e 26       		.byte	0x26
 8758 0e3f 74       		.byte	0x74
 8759 0e40 00       		.sleb128 0
 8760 0e41 1E       		.byte	0x1e
 8761 0e42 3B       		.byte	0x3b
 8762 0e43 26       		.byte	0x26
 8763 0e44 22       		.byte	0x22
 8764 0e45 03       		.byte	0x3
 8765 0e46 00000000 		.4byte	AC1
 8766 0e4a 94       		.byte	0x94
 8767 0e4b 02       		.byte	0x2
 8768 0e4c 40       		.byte	0x40
 8769 0e4d 24       		.byte	0x24
 8770 0e4e 40       		.byte	0x40
 8771 0e4f 26       		.byte	0x26
 8772 0e50 32       		.byte	0x32
 8773 0e51 24       		.byte	0x24
 8774 0e52 22       		.byte	0x22
 8775 0e53 75       		.byte	0x75
 8776 0e54 00       		.sleb128 0
 8777 0e55 24       		.byte	0x24
 8778 0e56 23       		.byte	0x23
 8779 0e57 02       		.uleb128 0x2
 8780 0e58 32       		.byte	0x32
 8781 0e59 26       		.byte	0x26
 8782 0e5a 9F       		.byte	0x9f
 8783 0e5b 50000000 		.4byte	.LVL295
 8784 0e5f 52000000 		.4byte	.LVL296
 8785 0e63 3700     		.2byte	0x37
 8786 0e65 03       		.byte	0x3
 8787 0e66 00000000 		.4byte	B2
 8788 0e6a 94       		.byte	0x94
 8789 0e6b 02       		.byte	0x2
 8790 0e6c 40       		.byte	0x40
 8791 0e6d 24       		.byte	0x24
 8792 0e6e 40       		.byte	0x40
 8793 0e6f 26       		.byte	0x26
 8794 0e70 77       		.byte	0x77
 8795 0e71 00       		.sleb128 0
 8796 0e72 1E       		.byte	0x1e
 8797 0e73 3B       		.byte	0x3b
 8798 0e74 26       		.byte	0x26
 8799 0e75 03       		.byte	0x3
 8800 0e76 00000000 		.4byte	AC2
 8801 0e7a 94       		.byte	0x94
 8802 0e7b 02       		.byte	0x2
 8803 0e7c 40       		.byte	0x40
 8804 0e7d 24       		.byte	0x24
ARM GAS  C:\Users\acer\AppData\Local\Temp\ccmxYZNb.s 			page 177


 8805 0e7e 40       		.byte	0x40
 8806 0e7f 26       		.byte	0x26
 8807 0e80 74       		.byte	0x74
 8808 0e81 00       		.sleb128 0
 8809 0e82 1E       		.byte	0x1e
 8810 0e83 3B       		.byte	0x3b
 8811 0e84 26       		.byte	0x26
 8812 0e85 22       		.byte	0x22
 8813 0e86 03       		.byte	0x3
 8814 0e87 00000000 		.4byte	AC1
 8815 0e8b 94       		.byte	0x94
 8816 0e8c 02       		.byte	0x2
 8817 0e8d 40       		.byte	0x40
 8818 0e8e 24       		.byte	0x24
 8819 0e8f 40       		.byte	0x40
 8820 0e90 26       		.byte	0x26
 8821 0e91 32       		.byte	0x32
 8822 0e92 24       		.byte	0x24
 8823 0e93 22       		.byte	0x22
 8824 0e94 75       		.byte	0x75
 8825 0e95 00       		.sleb128 0
 8826 0e96 24       		.byte	0x24
 8827 0e97 23       		.byte	0x23
 8828 0e98 02       		.uleb128 0x2
 8829 0e99 32       		.byte	0x32
 8830 0e9a 26       		.byte	0x26
 8831 0e9b 9F       		.byte	0x9f
 8832 0e9c 52000000 		.4byte	.LVL296
 8833 0ea0 54000000 		.4byte	.LVL297
 8834 0ea4 3C00     		.2byte	0x3c
 8835 0ea6 74       		.byte	0x74
 8836 0ea7 00       		.sleb128 0
 8837 0ea8 74       		.byte	0x74
 8838 0ea9 00       		.sleb128 0
 8839 0eaa 1E       		.byte	0x1e
 8840 0eab 3C       		.byte	0x3c
 8841 0eac 26       		.byte	0x26
 8842 0ead 03       		.byte	0x3
 8843 0eae 00000000 		.4byte	B2
 8844 0eb2 94       		.byte	0x94
 8845 0eb3 02       		.byte	0x2
 8846 0eb4 40       		.byte	0x40
 8847 0eb5 24       		.byte	0x24
 8848 0eb6 40       		.byte	0x40
 8849 0eb7 26       		.byte	0x26
 8850 0eb8 1E       		.byte	0x1e
 8851 0eb9 3B       		.byte	0x3b
 8852 0eba 26       		.byte	0x26
 8853 0ebb 03       		.byte	0x3
 8854 0ebc 00000000 		.4byte	AC2
 8855 0ec0 94       		.byte	0x94
 8856 0ec1 02       		.byte	0x2
 8857 0ec2 40       		.byte	0x40
 8858 0ec3 24       		.byte	0x24
 8859 0ec4 40       		.byte	0x40
 8860 0ec5 26       		.byte	0x26
 8861 0ec6 74       		.byte	0x74
ARM GAS  C:\Users\acer\AppData\Local\Temp\ccmxYZNb.s 			page 178


 8862 0ec7 00       		.sleb128 0
 8863 0ec8 1E       		.byte	0x1e
 8864 0ec9 3B       		.byte	0x3b
 8865 0eca 26       		.byte	0x26
 8866 0ecb 22       		.byte	0x22
 8867 0ecc 03       		.byte	0x3
 8868 0ecd 00000000 		.4byte	AC1
 8869 0ed1 94       		.byte	0x94
 8870 0ed2 02       		.byte	0x2
 8871 0ed3 40       		.byte	0x40
 8872 0ed4 24       		.byte	0x24
 8873 0ed5 40       		.byte	0x40
 8874 0ed6 26       		.byte	0x26
 8875 0ed7 32       		.byte	0x32
 8876 0ed8 24       		.byte	0x24
 8877 0ed9 22       		.byte	0x22
 8878 0eda 75       		.byte	0x75
 8879 0edb 00       		.sleb128 0
 8880 0edc 24       		.byte	0x24
 8881 0edd 23       		.byte	0x23
 8882 0ede 02       		.uleb128 0x2
 8883 0edf 32       		.byte	0x32
 8884 0ee0 26       		.byte	0x26
 8885 0ee1 9F       		.byte	0x9f
 8886 0ee2 54000000 		.4byte	.LVL297
 8887 0ee6 58000000 		.4byte	.LVL298
 8888 0eea 3C00     		.2byte	0x3c
 8889 0eec 74       		.byte	0x74
 8890 0eed 00       		.sleb128 0
 8891 0eee 74       		.byte	0x74
 8892 0eef 00       		.sleb128 0
 8893 0ef0 1E       		.byte	0x1e
 8894 0ef1 3C       		.byte	0x3c
 8895 0ef2 26       		.byte	0x26
 8896 0ef3 03       		.byte	0x3
 8897 0ef4 00000000 		.4byte	B2
 8898 0ef8 94       		.byte	0x94
 8899 0ef9 02       		.byte	0x2
 8900 0efa 40       		.byte	0x40
 8901 0efb 24       		.byte	0x24
 8902 0efc 40       		.byte	0x40
 8903 0efd 26       		.byte	0x26
 8904 0efe 1E       		.byte	0x1e
 8905 0eff 3B       		.byte	0x3b
 8906 0f00 26       		.byte	0x26
 8907 0f01 03       		.byte	0x3
 8908 0f02 00000000 		.4byte	AC2
 8909 0f06 94       		.byte	0x94
 8910 0f07 02       		.byte	0x2
 8911 0f08 40       		.byte	0x40
 8912 0f09 24       		.byte	0x24
 8913 0f0a 40       		.byte	0x40
 8914 0f0b 26       		.byte	0x26
 8915 0f0c 74       		.byte	0x74
 8916 0f0d 00       		.sleb128 0
 8917 0f0e 1E       		.byte	0x1e
 8918 0f0f 3B       		.byte	0x3b
ARM GAS  C:\Users\acer\AppData\Local\Temp\ccmxYZNb.s 			page 179


 8919 0f10 26       		.byte	0x26
 8920 0f11 22       		.byte	0x22
 8921 0f12 03       		.byte	0x3
 8922 0f13 00000000 		.4byte	AC1
 8923 0f17 94       		.byte	0x94
 8924 0f18 02       		.byte	0x2
 8925 0f19 40       		.byte	0x40
 8926 0f1a 24       		.byte	0x24
 8927 0f1b 40       		.byte	0x40
 8928 0f1c 26       		.byte	0x26
 8929 0f1d 32       		.byte	0x32
 8930 0f1e 24       		.byte	0x24
 8931 0f1f 22       		.byte	0x22
 8932 0f20 75       		.byte	0x75
 8933 0f21 00       		.sleb128 0
 8934 0f22 24       		.byte	0x24
 8935 0f23 23       		.byte	0x23
 8936 0f24 02       		.uleb128 0x2
 8937 0f25 32       		.byte	0x32
 8938 0f26 26       		.byte	0x26
 8939 0f27 9F       		.byte	0x9f
 8940 0f28 58000000 		.4byte	.LVL298
 8941 0f2c 5A000000 		.4byte	.LVL299
 8942 0f30 3C00     		.2byte	0x3c
 8943 0f32 74       		.byte	0x74
 8944 0f33 00       		.sleb128 0
 8945 0f34 74       		.byte	0x74
 8946 0f35 00       		.sleb128 0
 8947 0f36 1E       		.byte	0x1e
 8948 0f37 3C       		.byte	0x3c
 8949 0f38 26       		.byte	0x26
 8950 0f39 03       		.byte	0x3
 8951 0f3a 00000000 		.4byte	B2
 8952 0f3e 94       		.byte	0x94
 8953 0f3f 02       		.byte	0x2
 8954 0f40 40       		.byte	0x40
 8955 0f41 24       		.byte	0x24
 8956 0f42 40       		.byte	0x40
 8957 0f43 26       		.byte	0x26
 8958 0f44 1E       		.byte	0x1e
 8959 0f45 3B       		.byte	0x3b
 8960 0f46 26       		.byte	0x26
 8961 0f47 03       		.byte	0x3
 8962 0f48 00000000 		.4byte	AC2
 8963 0f4c 94       		.byte	0x94
 8964 0f4d 02       		.byte	0x2
 8965 0f4e 40       		.byte	0x40
 8966 0f4f 24       		.byte	0x24
 8967 0f50 40       		.byte	0x40
 8968 0f51 26       		.byte	0x26
 8969 0f52 74       		.byte	0x74
 8970 0f53 00       		.sleb128 0
 8971 0f54 1E       		.byte	0x1e
 8972 0f55 3B       		.byte	0x3b
 8973 0f56 26       		.byte	0x26
 8974 0f57 22       		.byte	0x22
 8975 0f58 03       		.byte	0x3
ARM GAS  C:\Users\acer\AppData\Local\Temp\ccmxYZNb.s 			page 180


 8976 0f59 00000000 		.4byte	AC1
 8977 0f5d 94       		.byte	0x94
 8978 0f5e 02       		.byte	0x2
 8979 0f5f 40       		.byte	0x40
 8980 0f60 24       		.byte	0x24
 8981 0f61 40       		.byte	0x40
 8982 0f62 26       		.byte	0x26
 8983 0f63 32       		.byte	0x32
 8984 0f64 24       		.byte	0x24
 8985 0f65 22       		.byte	0x22
 8986 0f66 75       		.byte	0x75
 8987 0f67 00       		.sleb128 0
 8988 0f68 24       		.byte	0x24
 8989 0f69 23       		.byte	0x23
 8990 0f6a 02       		.uleb128 0x2
 8991 0f6b 32       		.byte	0x32
 8992 0f6c 26       		.byte	0x26
 8993 0f6d 9F       		.byte	0x9f
 8994 0f6e 5A000000 		.4byte	.LVL299
 8995 0f72 A0000000 		.4byte	.LVL310
 8996 0f76 5400     		.2byte	0x54
 8997 0f78 03       		.byte	0x3
 8998 0f79 00000000 		.4byte	B5
 8999 0f7d 06       		.byte	0x6
 9000 0f7e 0A       		.byte	0xa
 9001 0f7f A00F     		.2byte	0xfa0
 9002 0f81 1C       		.byte	0x1c
 9003 0f82 03       		.byte	0x3
 9004 0f83 00000000 		.4byte	B5
 9005 0f87 06       		.byte	0x6
 9006 0f88 0A       		.byte	0xa
 9007 0f89 A00F     		.2byte	0xfa0
 9008 0f8b 1C       		.byte	0x1c
 9009 0f8c 1E       		.byte	0x1e
 9010 0f8d 3C       		.byte	0x3c
 9011 0f8e 26       		.byte	0x26
 9012 0f8f 03       		.byte	0x3
 9013 0f90 00000000 		.4byte	B2
 9014 0f94 94       		.byte	0x94
 9015 0f95 02       		.byte	0x2
 9016 0f96 40       		.byte	0x40
 9017 0f97 24       		.byte	0x24
 9018 0f98 40       		.byte	0x40
 9019 0f99 26       		.byte	0x26
 9020 0f9a 1E       		.byte	0x1e
 9021 0f9b 3B       		.byte	0x3b
 9022 0f9c 26       		.byte	0x26
 9023 0f9d 03       		.byte	0x3
 9024 0f9e 00000000 		.4byte	B5
 9025 0fa2 06       		.byte	0x6
 9026 0fa3 0A       		.byte	0xa
 9027 0fa4 A00F     		.2byte	0xfa0
 9028 0fa6 1C       		.byte	0x1c
 9029 0fa7 03       		.byte	0x3
 9030 0fa8 00000000 		.4byte	AC2
 9031 0fac 94       		.byte	0x94
 9032 0fad 02       		.byte	0x2
ARM GAS  C:\Users\acer\AppData\Local\Temp\ccmxYZNb.s 			page 181


 9033 0fae 40       		.byte	0x40
 9034 0faf 24       		.byte	0x24
 9035 0fb0 40       		.byte	0x40
 9036 0fb1 26       		.byte	0x26
 9037 0fb2 1E       		.byte	0x1e
 9038 0fb3 3B       		.byte	0x3b
 9039 0fb4 26       		.byte	0x26
 9040 0fb5 22       		.byte	0x22
 9041 0fb6 03       		.byte	0x3
 9042 0fb7 00000000 		.4byte	AC1
 9043 0fbb 94       		.byte	0x94
 9044 0fbc 02       		.byte	0x2
 9045 0fbd 40       		.byte	0x40
 9046 0fbe 24       		.byte	0x24
 9047 0fbf 40       		.byte	0x40
 9048 0fc0 26       		.byte	0x26
 9049 0fc1 32       		.byte	0x32
 9050 0fc2 24       		.byte	0x24
 9051 0fc3 22       		.byte	0x22
 9052 0fc4 75       		.byte	0x75
 9053 0fc5 00       		.sleb128 0
 9054 0fc6 24       		.byte	0x24
 9055 0fc7 23       		.byte	0x23
 9056 0fc8 02       		.uleb128 0x2
 9057 0fc9 32       		.byte	0x32
 9058 0fca 26       		.byte	0x26
 9059 0fcb 9F       		.byte	0x9f
 9060 0fcc 00000000 		.4byte	0
 9061 0fd0 00000000 		.4byte	0
 9062              	.LLST62:
 9063 0fd4 0C000000 		.4byte	.LVL283
 9064 0fd8 5A000000 		.4byte	.LVL299
 9065 0fdc 0100     		.2byte	0x1
 9066 0fde 54       		.byte	0x54
 9067 0fdf 5A000000 		.4byte	.LVL299
 9068 0fe3 A0000000 		.4byte	.LVL310
 9069 0fe7 0B00     		.2byte	0xb
 9070 0fe9 03       		.byte	0x3
 9071 0fea 00000000 		.4byte	B5
 9072 0fee 06       		.byte	0x6
 9073 0fef 0A       		.byte	0xa
 9074 0ff0 A00F     		.2byte	0xfa0
 9075 0ff2 1C       		.byte	0x1c
 9076 0ff3 9F       		.byte	0x9f
 9077 0ff4 00000000 		.4byte	0
 9078 0ff8 00000000 		.4byte	0
 9079              	.LLST63:
 9080 0ffc 86000000 		.4byte	.LVL303
 9081 1000 9E000000 		.4byte	.LVL309
 9082 1004 0100     		.2byte	0x1
 9083 1006 53       		.byte	0x53
 9084 1007 00000000 		.4byte	0
 9085 100b 00000000 		.4byte	0
 9086              	.LLST64:
 9087 100f 1C000000 		.4byte	.LVL284
 9088 1013 44000000 		.4byte	.LVL293
 9089 1017 3300     		.2byte	0x33
ARM GAS  C:\Users\acer\AppData\Local\Temp\ccmxYZNb.s 			page 182


 9090 1019 03       		.byte	0x3
 9091 101a 00000000 		.4byte	B2
 9092 101e 94       		.byte	0x94
 9093 101f 02       		.byte	0x2
 9094 1020 40       		.byte	0x40
 9095 1021 24       		.byte	0x24
 9096 1022 40       		.byte	0x40
 9097 1023 26       		.byte	0x26
 9098 1024 77       		.byte	0x77
 9099 1025 00       		.sleb128 0
 9100 1026 1E       		.byte	0x1e
 9101 1027 3B       		.byte	0x3b
 9102 1028 26       		.byte	0x26
 9103 1029 03       		.byte	0x3
 9104 102a 00000000 		.4byte	AC2
 9105 102e 94       		.byte	0x94
 9106 102f 02       		.byte	0x2
 9107 1030 40       		.byte	0x40
 9108 1031 24       		.byte	0x24
 9109 1032 40       		.byte	0x40
 9110 1033 26       		.byte	0x26
 9111 1034 74       		.byte	0x74
 9112 1035 00       		.sleb128 0
 9113 1036 1E       		.byte	0x1e
 9114 1037 3B       		.byte	0x3b
 9115 1038 26       		.byte	0x26
 9116 1039 22       		.byte	0x22
 9117 103a 03       		.byte	0x3
 9118 103b 00000000 		.4byte	AC1
 9119 103f 94       		.byte	0x94
 9120 1040 02       		.byte	0x2
 9121 1041 40       		.byte	0x40
 9122 1042 24       		.byte	0x24
 9123 1043 40       		.byte	0x40
 9124 1044 26       		.byte	0x26
 9125 1045 32       		.byte	0x32
 9126 1046 24       		.byte	0x24
 9127 1047 22       		.byte	0x22
 9128 1048 75       		.byte	0x75
 9129 1049 00       		.sleb128 0
 9130 104a 24       		.byte	0x24
 9131 104b 9F       		.byte	0x9f
 9132 104c 44000000 		.4byte	.LVL293
 9133 1050 4C000000 		.4byte	.LVL294
 9134 1054 3300     		.2byte	0x33
 9135 1056 03       		.byte	0x3
 9136 1057 00000000 		.4byte	B2
 9137 105b 94       		.byte	0x94
 9138 105c 02       		.byte	0x2
 9139 105d 40       		.byte	0x40
 9140 105e 24       		.byte	0x24
 9141 105f 40       		.byte	0x40
 9142 1060 26       		.byte	0x26
 9143 1061 77       		.byte	0x77
 9144 1062 00       		.sleb128 0
 9145 1063 1E       		.byte	0x1e
 9146 1064 3B       		.byte	0x3b
ARM GAS  C:\Users\acer\AppData\Local\Temp\ccmxYZNb.s 			page 183


 9147 1065 26       		.byte	0x26
 9148 1066 03       		.byte	0x3
 9149 1067 00000000 		.4byte	AC2
 9150 106b 94       		.byte	0x94
 9151 106c 02       		.byte	0x2
 9152 106d 40       		.byte	0x40
 9153 106e 24       		.byte	0x24
 9154 106f 40       		.byte	0x40
 9155 1070 26       		.byte	0x26
 9156 1071 74       		.byte	0x74
 9157 1072 00       		.sleb128 0
 9158 1073 1E       		.byte	0x1e
 9159 1074 3B       		.byte	0x3b
 9160 1075 26       		.byte	0x26
 9161 1076 22       		.byte	0x22
 9162 1077 03       		.byte	0x3
 9163 1078 00000000 		.4byte	AC1
 9164 107c 94       		.byte	0x94
 9165 107d 02       		.byte	0x2
 9166 107e 40       		.byte	0x40
 9167 107f 24       		.byte	0x24
 9168 1080 40       		.byte	0x40
 9169 1081 26       		.byte	0x26
 9170 1082 32       		.byte	0x32
 9171 1083 24       		.byte	0x24
 9172 1084 22       		.byte	0x22
 9173 1085 75       		.byte	0x75
 9174 1086 00       		.sleb128 0
 9175 1087 24       		.byte	0x24
 9176 1088 9F       		.byte	0x9f
 9177 1089 4C000000 		.4byte	.LVL294
 9178 108d 50000000 		.4byte	.LVL295
 9179 1091 3300     		.2byte	0x33
 9180 1093 03       		.byte	0x3
 9181 1094 00000000 		.4byte	B2
 9182 1098 94       		.byte	0x94
 9183 1099 02       		.byte	0x2
 9184 109a 40       		.byte	0x40
 9185 109b 24       		.byte	0x24
 9186 109c 40       		.byte	0x40
 9187 109d 26       		.byte	0x26
 9188 109e 77       		.byte	0x77
 9189 109f 00       		.sleb128 0
 9190 10a0 1E       		.byte	0x1e
 9191 10a1 3B       		.byte	0x3b
 9192 10a2 26       		.byte	0x26
 9193 10a3 03       		.byte	0x3
 9194 10a4 00000000 		.4byte	AC2
 9195 10a8 94       		.byte	0x94
 9196 10a9 02       		.byte	0x2
 9197 10aa 40       		.byte	0x40
 9198 10ab 24       		.byte	0x24
 9199 10ac 40       		.byte	0x40
 9200 10ad 26       		.byte	0x26
 9201 10ae 74       		.byte	0x74
 9202 10af 00       		.sleb128 0
 9203 10b0 1E       		.byte	0x1e
ARM GAS  C:\Users\acer\AppData\Local\Temp\ccmxYZNb.s 			page 184


 9204 10b1 3B       		.byte	0x3b
 9205 10b2 26       		.byte	0x26
 9206 10b3 22       		.byte	0x22
 9207 10b4 03       		.byte	0x3
 9208 10b5 00000000 		.4byte	AC1
 9209 10b9 94       		.byte	0x94
 9210 10ba 02       		.byte	0x2
 9211 10bb 40       		.byte	0x40
 9212 10bc 24       		.byte	0x24
 9213 10bd 40       		.byte	0x40
 9214 10be 26       		.byte	0x26
 9215 10bf 32       		.byte	0x32
 9216 10c0 24       		.byte	0x24
 9217 10c1 22       		.byte	0x22
 9218 10c2 75       		.byte	0x75
 9219 10c3 00       		.sleb128 0
 9220 10c4 24       		.byte	0x24
 9221 10c5 9F       		.byte	0x9f
 9222 10c6 50000000 		.4byte	.LVL295
 9223 10ca 52000000 		.4byte	.LVL296
 9224 10ce 3300     		.2byte	0x33
 9225 10d0 03       		.byte	0x3
 9226 10d1 00000000 		.4byte	B2
 9227 10d5 94       		.byte	0x94
 9228 10d6 02       		.byte	0x2
 9229 10d7 40       		.byte	0x40
 9230 10d8 24       		.byte	0x24
 9231 10d9 40       		.byte	0x40
 9232 10da 26       		.byte	0x26
 9233 10db 77       		.byte	0x77
 9234 10dc 00       		.sleb128 0
 9235 10dd 1E       		.byte	0x1e
 9236 10de 3B       		.byte	0x3b
 9237 10df 26       		.byte	0x26
 9238 10e0 03       		.byte	0x3
 9239 10e1 00000000 		.4byte	AC2
 9240 10e5 94       		.byte	0x94
 9241 10e6 02       		.byte	0x2
 9242 10e7 40       		.byte	0x40
 9243 10e8 24       		.byte	0x24
 9244 10e9 40       		.byte	0x40
 9245 10ea 26       		.byte	0x26
 9246 10eb 74       		.byte	0x74
 9247 10ec 00       		.sleb128 0
 9248 10ed 1E       		.byte	0x1e
 9249 10ee 3B       		.byte	0x3b
 9250 10ef 26       		.byte	0x26
 9251 10f0 22       		.byte	0x22
 9252 10f1 03       		.byte	0x3
 9253 10f2 00000000 		.4byte	AC1
 9254 10f6 94       		.byte	0x94
 9255 10f7 02       		.byte	0x2
 9256 10f8 40       		.byte	0x40
 9257 10f9 24       		.byte	0x24
 9258 10fa 40       		.byte	0x40
 9259 10fb 26       		.byte	0x26
 9260 10fc 32       		.byte	0x32
ARM GAS  C:\Users\acer\AppData\Local\Temp\ccmxYZNb.s 			page 185


 9261 10fd 24       		.byte	0x24
 9262 10fe 22       		.byte	0x22
 9263 10ff 75       		.byte	0x75
 9264 1100 00       		.sleb128 0
 9265 1101 24       		.byte	0x24
 9266 1102 9F       		.byte	0x9f
 9267 1103 52000000 		.4byte	.LVL296
 9268 1107 54000000 		.4byte	.LVL297
 9269 110b 2700     		.2byte	0x27
 9270 110d 77       		.byte	0x77
 9271 110e 00       		.sleb128 0
 9272 110f 3B       		.byte	0x3b
 9273 1110 26       		.byte	0x26
 9274 1111 03       		.byte	0x3
 9275 1112 00000000 		.4byte	AC2
 9276 1116 94       		.byte	0x94
 9277 1117 02       		.byte	0x2
 9278 1118 40       		.byte	0x40
 9279 1119 24       		.byte	0x24
 9280 111a 40       		.byte	0x40
 9281 111b 26       		.byte	0x26
 9282 111c 74       		.byte	0x74
 9283 111d 00       		.sleb128 0
 9284 111e 1E       		.byte	0x1e
 9285 111f 3B       		.byte	0x3b
 9286 1120 26       		.byte	0x26
 9287 1121 22       		.byte	0x22
 9288 1122 03       		.byte	0x3
 9289 1123 00000000 		.4byte	AC1
 9290 1127 94       		.byte	0x94
 9291 1128 02       		.byte	0x2
 9292 1129 40       		.byte	0x40
 9293 112a 24       		.byte	0x24
 9294 112b 40       		.byte	0x40
 9295 112c 26       		.byte	0x26
 9296 112d 32       		.byte	0x32
 9297 112e 24       		.byte	0x24
 9298 112f 22       		.byte	0x22
 9299 1130 75       		.byte	0x75
 9300 1131 00       		.sleb128 0
 9301 1132 24       		.byte	0x24
 9302 1133 9F       		.byte	0x9f
 9303 1134 54000000 		.4byte	.LVL297
 9304 1138 58000000 		.4byte	.LVL298
 9305 113c 2700     		.2byte	0x27
 9306 113e 77       		.byte	0x77
 9307 113f 00       		.sleb128 0
 9308 1140 3B       		.byte	0x3b
 9309 1141 26       		.byte	0x26
 9310 1142 03       		.byte	0x3
 9311 1143 00000000 		.4byte	AC2
 9312 1147 94       		.byte	0x94
 9313 1148 02       		.byte	0x2
 9314 1149 40       		.byte	0x40
 9315 114a 24       		.byte	0x24
 9316 114b 40       		.byte	0x40
 9317 114c 26       		.byte	0x26
ARM GAS  C:\Users\acer\AppData\Local\Temp\ccmxYZNb.s 			page 186


 9318 114d 74       		.byte	0x74
 9319 114e 00       		.sleb128 0
 9320 114f 1E       		.byte	0x1e
 9321 1150 3B       		.byte	0x3b
 9322 1151 26       		.byte	0x26
 9323 1152 22       		.byte	0x22
 9324 1153 03       		.byte	0x3
 9325 1154 00000000 		.4byte	AC1
 9326 1158 94       		.byte	0x94
 9327 1159 02       		.byte	0x2
 9328 115a 40       		.byte	0x40
 9329 115b 24       		.byte	0x24
 9330 115c 40       		.byte	0x40
 9331 115d 26       		.byte	0x26
 9332 115e 32       		.byte	0x32
 9333 115f 24       		.byte	0x24
 9334 1160 22       		.byte	0x22
 9335 1161 75       		.byte	0x75
 9336 1162 00       		.sleb128 0
 9337 1163 24       		.byte	0x24
 9338 1164 9F       		.byte	0x9f
 9339 1165 58000000 		.4byte	.LVL298
 9340 1169 5A000000 		.4byte	.LVL299
 9341 116d 2700     		.2byte	0x27
 9342 116f 77       		.byte	0x77
 9343 1170 00       		.sleb128 0
 9344 1171 3B       		.byte	0x3b
 9345 1172 26       		.byte	0x26
 9346 1173 03       		.byte	0x3
 9347 1174 00000000 		.4byte	AC2
 9348 1178 94       		.byte	0x94
 9349 1179 02       		.byte	0x2
 9350 117a 40       		.byte	0x40
 9351 117b 24       		.byte	0x24
 9352 117c 40       		.byte	0x40
 9353 117d 26       		.byte	0x26
 9354 117e 74       		.byte	0x74
 9355 117f 00       		.sleb128 0
 9356 1180 1E       		.byte	0x1e
 9357 1181 3B       		.byte	0x3b
 9358 1182 26       		.byte	0x26
 9359 1183 22       		.byte	0x22
 9360 1184 03       		.byte	0x3
 9361 1185 00000000 		.4byte	AC1
 9362 1189 94       		.byte	0x94
 9363 118a 02       		.byte	0x2
 9364 118b 40       		.byte	0x40
 9365 118c 24       		.byte	0x24
 9366 118d 40       		.byte	0x40
 9367 118e 26       		.byte	0x26
 9368 118f 32       		.byte	0x32
 9369 1190 24       		.byte	0x24
 9370 1191 22       		.byte	0x22
 9371 1192 75       		.byte	0x75
 9372 1193 00       		.sleb128 0
 9373 1194 24       		.byte	0x24
 9374 1195 9F       		.byte	0x9f
ARM GAS  C:\Users\acer\AppData\Local\Temp\ccmxYZNb.s 			page 187


 9375 1196 5A000000 		.4byte	.LVL299
 9376 119a 5C000000 		.4byte	.LVL300
 9377 119e 1B00     		.2byte	0x1b
 9378 11a0 77       		.byte	0x77
 9379 11a1 00       		.sleb128 0
 9380 11a2 3B       		.byte	0x3b
 9381 11a3 26       		.byte	0x26
 9382 11a4 74       		.byte	0x74
 9383 11a5 00       		.sleb128 0
 9384 11a6 3B       		.byte	0x3b
 9385 11a7 26       		.byte	0x26
 9386 11a8 22       		.byte	0x22
 9387 11a9 03       		.byte	0x3
 9388 11aa 00000000 		.4byte	AC1
 9389 11ae 94       		.byte	0x94
 9390 11af 02       		.byte	0x2
 9391 11b0 40       		.byte	0x40
 9392 11b1 24       		.byte	0x24
 9393 11b2 40       		.byte	0x40
 9394 11b3 26       		.byte	0x26
 9395 11b4 32       		.byte	0x32
 9396 11b5 24       		.byte	0x24
 9397 11b6 22       		.byte	0x22
 9398 11b7 75       		.byte	0x75
 9399 11b8 00       		.sleb128 0
 9400 11b9 24       		.byte	0x24
 9401 11ba 9F       		.byte	0x9f
 9402 11bb 5C000000 		.4byte	.LVL300
 9403 11bf A0000000 		.4byte	.LVL310
 9404 11c3 2F00     		.2byte	0x2f
 9405 11c5 77       		.byte	0x77
 9406 11c6 00       		.sleb128 0
 9407 11c7 3B       		.byte	0x3b
 9408 11c8 26       		.byte	0x26
 9409 11c9 03       		.byte	0x3
 9410 11ca 00000000 		.4byte	B5
 9411 11ce 06       		.byte	0x6
 9412 11cf 0A       		.byte	0xa
 9413 11d0 A00F     		.2byte	0xfa0
 9414 11d2 1C       		.byte	0x1c
 9415 11d3 03       		.byte	0x3
 9416 11d4 00000000 		.4byte	AC2
 9417 11d8 94       		.byte	0x94
 9418 11d9 02       		.byte	0x2
 9419 11da 40       		.byte	0x40
 9420 11db 24       		.byte	0x24
 9421 11dc 40       		.byte	0x40
 9422 11dd 26       		.byte	0x26
 9423 11de 1E       		.byte	0x1e
 9424 11df 3B       		.byte	0x3b
 9425 11e0 26       		.byte	0x26
 9426 11e1 22       		.byte	0x22
 9427 11e2 03       		.byte	0x3
 9428 11e3 00000000 		.4byte	AC1
 9429 11e7 94       		.byte	0x94
 9430 11e8 02       		.byte	0x2
 9431 11e9 40       		.byte	0x40
ARM GAS  C:\Users\acer\AppData\Local\Temp\ccmxYZNb.s 			page 188


 9432 11ea 24       		.byte	0x24
 9433 11eb 40       		.byte	0x40
 9434 11ec 26       		.byte	0x26
 9435 11ed 32       		.byte	0x32
 9436 11ee 24       		.byte	0x24
 9437 11ef 22       		.byte	0x22
 9438 11f0 75       		.byte	0x75
 9439 11f1 00       		.sleb128 0
 9440 11f2 24       		.byte	0x24
 9441 11f3 9F       		.byte	0x9f
 9442 11f4 00000000 		.4byte	0
 9443 11f8 00000000 		.4byte	0
 9444              	.LLST65:
 9445 11fc 42000000 		.4byte	.LVL292
 9446 1200 A2000000 		.4byte	.LVL311
 9447 1204 0100     		.2byte	0x1
 9448 1206 56       		.byte	0x56
 9449 1207 00000000 		.4byte	0
 9450 120b 00000000 		.4byte	0
 9451              	.LLST66:
 9452 120f 70000000 		.4byte	.LVL301
 9453 1213 72000000 		.4byte	.LVL302
 9454 1217 0600     		.2byte	0x6
 9455 1219 72       		.byte	0x72
 9456 121a 00       		.sleb128 0
 9457 121b 71       		.byte	0x71
 9458 121c 00       		.sleb128 0
 9459 121d 1E       		.byte	0x1e
 9460 121e 9F       		.byte	0x9f
 9461 121f 72000000 		.4byte	.LVL302
 9462 1223 88000000 		.4byte	.LVL304
 9463 1227 0100     		.2byte	0x1
 9464 1229 52       		.byte	0x52
 9465 122a 88000000 		.4byte	.LVL304
 9466 122e A0000000 		.4byte	.LVL310
 9467 1232 3D00     		.2byte	0x3d
 9468 1234 0A       		.byte	0xa
 9469 1235 50C3     		.2byte	0xc350
 9470 1237 75       		.byte	0x75
 9471 1238 00       		.sleb128 0
 9472 1239 26       		.byte	0x26
 9473 123a 74       		.byte	0x74
 9474 123b 00       		.sleb128 0
 9475 123c 77       		.byte	0x77
 9476 123d 00       		.sleb128 0
 9477 123e 3B       		.byte	0x3b
 9478 123f 26       		.byte	0x26
 9479 1240 03       		.byte	0x3
 9480 1241 00000000 		.4byte	B5
 9481 1245 06       		.byte	0x6
 9482 1246 0A       		.byte	0xa
 9483 1247 A00F     		.2byte	0xfa0
 9484 1249 1C       		.byte	0x1c
 9485 124a 03       		.byte	0x3
 9486 124b 00000000 		.4byte	AC2
 9487 124f 94       		.byte	0x94
 9488 1250 02       		.byte	0x2
ARM GAS  C:\Users\acer\AppData\Local\Temp\ccmxYZNb.s 			page 189


 9489 1251 40       		.byte	0x40
 9490 1252 24       		.byte	0x24
 9491 1253 40       		.byte	0x40
 9492 1254 26       		.byte	0x26
 9493 1255 1E       		.byte	0x1e
 9494 1256 3B       		.byte	0x3b
 9495 1257 26       		.byte	0x26
 9496 1258 22       		.byte	0x22
 9497 1259 03       		.byte	0x3
 9498 125a 00000000 		.4byte	AC1
 9499 125e 94       		.byte	0x94
 9500 125f 02       		.byte	0x2
 9501 1260 40       		.byte	0x40
 9502 1261 24       		.byte	0x24
 9503 1262 40       		.byte	0x40
 9504 1263 26       		.byte	0x26
 9505 1264 32       		.byte	0x32
 9506 1265 24       		.byte	0x24
 9507 1266 22       		.byte	0x22
 9508 1267 75       		.byte	0x75
 9509 1268 00       		.sleb128 0
 9510 1269 24       		.byte	0x24
 9511 126a 23       		.byte	0x23
 9512 126b 02       		.uleb128 0x2
 9513 126c 32       		.byte	0x32
 9514 126d 26       		.byte	0x26
 9515 126e 1C       		.byte	0x1c
 9516 126f 1E       		.byte	0x1e
 9517 1270 9F       		.byte	0x9f
 9518 1271 00000000 		.4byte	0
 9519 1275 00000000 		.4byte	0
 9520              	.LLST67:
 9521 1279 C6000000 		.4byte	.LVL315
 9522 127d D2000000 		.4byte	.LVL316
 9523 1281 0200     		.2byte	0x2
 9524 1283 30       		.byte	0x30
 9525 1284 9F       		.byte	0x9f
 9526 1285 D2000000 		.4byte	.LVL316
 9527 1289 E2000000 		.4byte	.LVL317
 9528 128d 0200     		.2byte	0x2
 9529 128f 31       		.byte	0x31
 9530 1290 9F       		.byte	0x9f
 9531 1291 E2000000 		.4byte	.LVL317
 9532 1295 F2000000 		.4byte	.LVL318
 9533 1299 0200     		.2byte	0x2
 9534 129b 32       		.byte	0x32
 9535 129c 9F       		.byte	0x9f
 9536 129d F2000000 		.4byte	.LVL318
 9537 12a1 4E010000 		.4byte	.LVL319
 9538 12a5 0200     		.2byte	0x2
 9539 12a7 33       		.byte	0x33
 9540 12a8 9F       		.byte	0x9f
 9541 12a9 AA010000 		.4byte	.LVL322
 9542 12ad B4010000 		.4byte	.LVL323
 9543 12b1 0200     		.2byte	0x2
 9544 12b3 30       		.byte	0x30
 9545 12b4 9F       		.byte	0x9f
ARM GAS  C:\Users\acer\AppData\Local\Temp\ccmxYZNb.s 			page 190


 9546 12b5 B4010000 		.4byte	.LVL323
 9547 12b9 C4010000 		.4byte	.LVL324
 9548 12bd 0200     		.2byte	0x2
 9549 12bf 31       		.byte	0x31
 9550 12c0 9F       		.byte	0x9f
 9551 12c1 C4010000 		.4byte	.LVL324
 9552 12c5 D4010000 		.4byte	.LVL325
 9553 12c9 0200     		.2byte	0x2
 9554 12cb 32       		.byte	0x32
 9555 12cc 9F       		.byte	0x9f
 9556 12cd D4010000 		.4byte	.LVL325
 9557 12d1 EA010000 		.4byte	.LVL326
 9558 12d5 0200     		.2byte	0x2
 9559 12d7 33       		.byte	0x33
 9560 12d8 9F       		.byte	0x9f
 9561 12d9 00000000 		.4byte	0
 9562 12dd 00000000 		.4byte	0
 9563              	.LLST68:
 9564 12e1 00000000 		.4byte	.LVL334
 9565 12e5 06000000 		.4byte	.LVL335
 9566 12e9 0100     		.2byte	0x1
 9567 12eb 50       		.byte	0x50
 9568 12ec 06000000 		.4byte	.LVL335
 9569 12f0 48000000 		.4byte	.LVL344
 9570 12f4 0100     		.2byte	0x1
 9571 12f6 54       		.byte	0x54
 9572 12f7 48000000 		.4byte	.LVL344
 9573 12fb 60000000 		.4byte	.LFE10
 9574 12ff 0400     		.2byte	0x4
 9575 1301 F3       		.byte	0xf3
 9576 1302 01       		.uleb128 0x1
 9577 1303 50       		.byte	0x50
 9578 1304 9F       		.byte	0x9f
 9579 1305 00000000 		.4byte	0
 9580 1309 00000000 		.4byte	0
 9581              	.LLST69:
 9582 130d 00000000 		.4byte	.LVL334
 9583 1311 09000000 		.4byte	.LVL336-1
 9584 1315 0100     		.2byte	0x1
 9585 1317 51       		.byte	0x51
 9586 1318 09000000 		.4byte	.LVL336-1
 9587 131c 60000000 		.4byte	.LFE10
 9588 1320 0400     		.2byte	0x4
 9589 1322 F3       		.byte	0xf3
 9590 1323 01       		.uleb128 0x1
 9591 1324 51       		.byte	0x51
 9592 1325 9F       		.byte	0x9f
 9593 1326 00000000 		.4byte	0
 9594 132a 00000000 		.4byte	0
 9595              	.LLST70:
 9596 132e 00000000 		.4byte	.LVL345
 9597 1332 18000000 		.4byte	.LVL348
 9598 1336 0100     		.2byte	0x1
 9599 1338 50       		.byte	0x50
 9600 1339 18000000 		.4byte	.LVL348
 9601 133d 30000000 		.4byte	.LFE11
 9602 1341 0400     		.2byte	0x4
ARM GAS  C:\Users\acer\AppData\Local\Temp\ccmxYZNb.s 			page 191


 9603 1343 F3       		.byte	0xf3
 9604 1344 01       		.uleb128 0x1
 9605 1345 50       		.byte	0x50
 9606 1346 9F       		.byte	0x9f
 9607 1347 00000000 		.4byte	0
 9608 134b 00000000 		.4byte	0
 9609              	.LLST71:
 9610 134f 00000000 		.4byte	.LVL345
 9611 1353 1C000000 		.4byte	.LVL350
 9612 1357 0100     		.2byte	0x1
 9613 1359 51       		.byte	0x51
 9614 135a 1C000000 		.4byte	.LVL350
 9615 135e 30000000 		.4byte	.LFE11
 9616 1362 0300     		.2byte	0x3
 9617 1364 71       		.byte	0x71
 9618 1365 64       		.sleb128 -28
 9619 1366 9F       		.byte	0x9f
 9620 1367 00000000 		.4byte	0
 9621 136b 00000000 		.4byte	0
 9622              	.LLST72:
 9623 136f 00000000 		.4byte	.LVL345
 9624 1373 0E000000 		.4byte	.LVL346
 9625 1377 0100     		.2byte	0x1
 9626 1379 52       		.byte	0x52
 9627 137a 0E000000 		.4byte	.LVL346
 9628 137e 14000000 		.4byte	.LVL347
 9629 1382 0700     		.2byte	0x7
 9630 1384 74       		.byte	0x74
 9631 1385 00       		.sleb128 0
 9632 1386 32       		.byte	0x32
 9633 1387 24       		.byte	0x24
 9634 1388 71       		.byte	0x71
 9635 1389 00       		.sleb128 0
 9636 138a 22       		.byte	0x22
 9637 138b 14000000 		.4byte	.LVL347
 9638 138f 30000000 		.4byte	.LFE11
 9639 1393 0400     		.2byte	0x4
 9640 1395 F3       		.byte	0xf3
 9641 1396 01       		.uleb128 0x1
 9642 1397 52       		.byte	0x52
 9643 1398 9F       		.byte	0x9f
 9644 1399 00000000 		.4byte	0
 9645 139d 00000000 		.4byte	0
 9646              	.LLST73:
 9647 13a1 1A000000 		.4byte	.LVL349
 9648 13a5 1C000000 		.4byte	.LVL350
 9649 13a9 0200     		.2byte	0x2
 9650 13ab 30       		.byte	0x30
 9651 13ac 9F       		.byte	0x9f
 9652 13ad 00000000 		.4byte	0
 9653 13b1 00000000 		.4byte	0
 9654              	.LLST74:
 9655 13b5 80000000 		.4byte	.LVL352
 9656 13b9 8C000000 		.4byte	.LVL353
 9657 13bd 0200     		.2byte	0x2
 9658 13bf 30       		.byte	0x30
 9659 13c0 9F       		.byte	0x9f
ARM GAS  C:\Users\acer\AppData\Local\Temp\ccmxYZNb.s 			page 192


 9660 13c1 8C000000 		.4byte	.LVL353
 9661 13c5 9C000000 		.4byte	.LVL354
 9662 13c9 0200     		.2byte	0x2
 9663 13cb 31       		.byte	0x31
 9664 13cc 9F       		.byte	0x9f
 9665 13cd 9C000000 		.4byte	.LVL354
 9666 13d1 AC000000 		.4byte	.LVL355
 9667 13d5 0200     		.2byte	0x2
 9668 13d7 32       		.byte	0x32
 9669 13d8 9F       		.byte	0x9f
 9670 13d9 AC000000 		.4byte	.LVL355
 9671 13dd E0000000 		.4byte	.LVL356
 9672 13e1 0200     		.2byte	0x2
 9673 13e3 33       		.byte	0x33
 9674 13e4 9F       		.byte	0x9f
 9675 13e5 E0000000 		.4byte	.LVL356
 9676 13e9 EA000000 		.4byte	.LVL357
 9677 13ed 0200     		.2byte	0x2
 9678 13ef 30       		.byte	0x30
 9679 13f0 9F       		.byte	0x9f
 9680 13f1 EA000000 		.4byte	.LVL357
 9681 13f5 FA000000 		.4byte	.LVL358
 9682 13f9 0200     		.2byte	0x2
 9683 13fb 31       		.byte	0x31
 9684 13fc 9F       		.byte	0x9f
 9685 13fd FA000000 		.4byte	.LVL358
 9686 1401 0A010000 		.4byte	.LVL359
 9687 1405 0200     		.2byte	0x2
 9688 1407 32       		.byte	0x32
 9689 1408 9F       		.byte	0x9f
 9690 1409 0A010000 		.4byte	.LVL359
 9691 140d 26010000 		.4byte	.LVL360
 9692 1411 0200     		.2byte	0x2
 9693 1413 33       		.byte	0x33
 9694 1414 9F       		.byte	0x9f
 9695 1415 72010000 		.4byte	.LVL362
 9696 1419 7C010000 		.4byte	.LVL363
 9697 141d 0200     		.2byte	0x2
 9698 141f 30       		.byte	0x30
 9699 1420 9F       		.byte	0x9f
 9700 1421 7C010000 		.4byte	.LVL363
 9701 1425 8C010000 		.4byte	.LVL364
 9702 1429 0200     		.2byte	0x2
 9703 142b 31       		.byte	0x31
 9704 142c 9F       		.byte	0x9f
 9705 142d 8C010000 		.4byte	.LVL364
 9706 1431 9C010000 		.4byte	.LVL365
 9707 1435 0200     		.2byte	0x2
 9708 1437 32       		.byte	0x32
 9709 1438 9F       		.byte	0x9f
 9710 1439 9C010000 		.4byte	.LVL365
 9711 143d BE010000 		.4byte	.LVL366
 9712 1441 0200     		.2byte	0x2
 9713 1443 33       		.byte	0x33
 9714 1444 9F       		.byte	0x9f
 9715 1445 00000000 		.4byte	0
 9716 1449 00000000 		.4byte	0
ARM GAS  C:\Users\acer\AppData\Local\Temp\ccmxYZNb.s 			page 193


 9717              		.section	.debug_aranges,"",%progbits
 9718 0000 84000000 		.4byte	0x84
 9719 0004 0200     		.2byte	0x2
 9720 0006 00000000 		.4byte	.Ldebug_info0
 9721 000a 04       		.byte	0x4
 9722 000b 00       		.byte	0
 9723 000c 0000     		.2byte	0
 9724 000e 0000     		.2byte	0
 9725 0010 00000000 		.4byte	.LFB0
 9726 0014 98000000 		.4byte	.LFE0-.LFB0
 9727 0018 00000000 		.4byte	.LFB1
 9728 001c 38000000 		.4byte	.LFE1-.LFB1
 9729 0020 00000000 		.4byte	.LFB2
 9730 0024 4C000000 		.4byte	.LFE2-.LFB2
 9731 0028 00000000 		.4byte	.LFB5
 9732 002c 2A000000 		.4byte	.LFE5-.LFB5
 9733 0030 00000000 		.4byte	.LFB6
 9734 0034 34000000 		.4byte	.LFE6-.LFB6
 9735 0038 00000000 		.4byte	.LFB7
 9736 003c E0060000 		.4byte	.LFE7-.LFB7
 9737 0040 00000000 		.4byte	.LFB8
 9738 0044 4C000000 		.4byte	.LFE8-.LFB8
 9739 0048 00000000 		.4byte	.LFB9
 9740 004c CC000000 		.4byte	.LFE9-.LFB9
 9741 0050 00000000 		.4byte	.LFB3
 9742 0054 6C040000 		.4byte	.LFE3-.LFB3
 9743 0058 00000000 		.4byte	.LFB10
 9744 005c 60000000 		.4byte	.LFE10-.LFB10
 9745 0060 00000000 		.4byte	.LFB11
 9746 0064 30000000 		.4byte	.LFE11-.LFB11
 9747 0068 00000000 		.4byte	.LFB4
 9748 006c 04060000 		.4byte	.LFE4-.LFB4
 9749 0070 00000000 		.4byte	.LFB12
 9750 0074 38000000 		.4byte	.LFE12-.LFB12
 9751 0078 00000000 		.4byte	.LFB13
 9752 007c 0C000000 		.4byte	.LFE13-.LFB13
 9753 0080 00000000 		.4byte	0
 9754 0084 00000000 		.4byte	0
 9755              		.section	.debug_ranges,"",%progbits
 9756              	.Ldebug_ranges0:
 9757 0000 00000000 		.4byte	.LFB0
 9758 0004 98000000 		.4byte	.LFE0
 9759 0008 00000000 		.4byte	.LFB1
 9760 000c 38000000 		.4byte	.LFE1
 9761 0010 00000000 		.4byte	.LFB2
 9762 0014 4C000000 		.4byte	.LFE2
 9763 0018 00000000 		.4byte	.LFB5
 9764 001c 2A000000 		.4byte	.LFE5
 9765 0020 00000000 		.4byte	.LFB6
 9766 0024 34000000 		.4byte	.LFE6
 9767 0028 00000000 		.4byte	.LFB7
 9768 002c E0060000 		.4byte	.LFE7
 9769 0030 00000000 		.4byte	.LFB8
 9770 0034 4C000000 		.4byte	.LFE8
 9771 0038 00000000 		.4byte	.LFB9
 9772 003c CC000000 		.4byte	.LFE9
 9773 0040 00000000 		.4byte	.LFB3
ARM GAS  C:\Users\acer\AppData\Local\Temp\ccmxYZNb.s 			page 194


 9774 0044 6C040000 		.4byte	.LFE3
 9775 0048 00000000 		.4byte	.LFB10
 9776 004c 60000000 		.4byte	.LFE10
 9777 0050 00000000 		.4byte	.LFB11
 9778 0054 30000000 		.4byte	.LFE11
 9779 0058 00000000 		.4byte	.LFB4
 9780 005c 04060000 		.4byte	.LFE4
 9781 0060 00000000 		.4byte	.LFB12
 9782 0064 38000000 		.4byte	.LFE12
 9783 0068 00000000 		.4byte	.LFB13
 9784 006c 0C000000 		.4byte	.LFE13
 9785 0070 00000000 		.4byte	0
 9786 0074 00000000 		.4byte	0
 9787              		.section	.debug_line,"",%progbits
 9788              	.Ldebug_line0:
 9789 0000 E7040000 		.section	.debug_str,"MS",%progbits,1
 9789      02006601 
 9789      00000201 
 9789      FB0E0D00 
 9789      01010101 
 9790              	.LASF110:
 9791 0000 4D6F7469 		.ascii	"MotionVal\000"
 9791      6F6E5661 
 9791      6C00
 9792              	.LASF98:
 9793 000a 4779726F 		.ascii	"Gyro_Temp_Acc_Read_Data\000"
 9793      5F54656D 
 9793      705F4163 
 9793      635F5265 
 9793      61645F44 
 9794              	.LASF38:
 9795 0022 72644461 		.ascii	"rdData\000"
 9795      746100
 9796              	.LASF60:
 9797 0029 71327132 		.ascii	"q2q2\000"
 9797      00
 9798              	.LASF61:
 9799 002e 71327133 		.ascii	"q2q3\000"
 9799      00
 9800              	.LASF116:
 9801 0033 5F6F7373 		.ascii	"_oss\000"
 9801      00
 9802              	.LASF25:
 9803 0038 595F4F66 		.ascii	"Y_Off_Err\000"
 9803      665F4572 
 9803      7200
 9804              	.LASF10:
 9805 0042 756E7369 		.ascii	"unsigned int\000"
 9805      676E6564 
 9805      20696E74 
 9805      00
 9806              	.LASF113:
 9807 004f 54656D70 		.ascii	"TemperatureVal\000"
 9807      65726174 
 9807      75726556 
 9807      616C00
 9808              	.LASF99:
ARM GAS  C:\Users\acer\AppData\Local\Temp\ccmxYZNb.s 			page 195


 9809 005e 4F757442 		.ascii	"OutBuffer\000"
 9809      75666665 
 9809      7200
 9810              	.LASF18:
 9811 0068 5F55494E 		.ascii	"_UINT16\000"
 9811      54313600 
 9812              	.LASF125:
 9813 0070 6173696E 		.ascii	"asin\000"
 9813      00
 9814              	.LASF29:
 9815 0075 41766742 		.ascii	"AvgBuffer\000"
 9815      75666665 
 9815      7200
 9816              	.LASF114:
 9817 007f 416C7469 		.ascii	"AltitudeVal\000"
 9817      74756465 
 9817      56616C00 
 9818              	.LASF120:
 9819 008b 4932435F 		.ascii	"I2C_1_MasterReadBuf\000"
 9819      315F4D61 
 9819      73746572 
 9819      52656164 
 9819      42756600 
 9820              	.LASF66:
 9821 009f 70547275 		.ascii	"pTruePressure\000"
 9821      65507265 
 9821      73737572 
 9821      6500
 9822              	.LASF94:
 9823 00ad 50726573 		.ascii	"Pres_Reg\000"
 9823      5F526567 
 9823      00
 9824              	.LASF119:
 9825 00b6 74657374 		.ascii	"test_1\000"
 9825      5F3100
 9826              	.LASF65:
 9827 00bd 424D5031 		.ascii	"BMP180_CalculateTruePressure\000"
 9827      38305F43 
 9827      616C6375 
 9827      6C617465 
 9827      54727565 
 9828              	.LASF0:
 9829 00da 666C6F61 		.ascii	"float\000"
 9829      7400
 9830              	.LASF67:
 9831 00e0 54656D70 		.ascii	"Temp\000"
 9831      00
 9832              	.LASF124:
 9833 00e5 73717274 		.ascii	"sqrt\000"
 9833      00
 9834              	.LASF23:
 9835 00ea 4D505539 		.ascii	"MPU9250_TypeDef\000"
 9835      3235305F 
 9835      54797065 
 9835      44656600 
 9836              	.LASF84:
 9837 00fa 424D5031 		.ascii	"BMP180_Filter\000"
ARM GAS  C:\Users\acer\AppData\Local\Temp\ccmxYZNb.s 			page 196


 9837      38305F46 
 9837      696C7465 
 9837      7200
 9838              	.LASF9:
 9839 0108 6C6F6E67 		.ascii	"long long unsigned int\000"
 9839      206C6F6E 
 9839      6720756E 
 9839      7369676E 
 9839      65642069 
 9840              	.LASF20:
 9841 011f 5F55494E 		.ascii	"_UINT32\000"
 9841      54333200 
 9842              	.LASF33:
 9843 0127 77724461 		.ascii	"wrData\000"
 9843      746100
 9844              	.LASF53:
 9845 012e 71307130 		.ascii	"q0q0\000"
 9845      00
 9846              	.LASF54:
 9847 0133 71307131 		.ascii	"q0q1\000"
 9847      00
 9848              	.LASF55:
 9849 0138 71307132 		.ascii	"q0q2\000"
 9849      00
 9850              	.LASF56:
 9851 013d 71307133 		.ascii	"q0q3\000"
 9851      00
 9852              	.LASF79:
 9853 0142 61636365 		.ascii	"accel\000"
 9853      6C00
 9854              	.LASF49:
 9855 0148 6578496E 		.ascii	"exInt\000"
 9855      7400
 9856              	.LASF69:
 9857 014e 54656D70 		.ascii	"TempGx\000"
 9857      477800
 9858              	.LASF70:
 9859 0155 54656D70 		.ascii	"TempGy\000"
 9859      477900
 9860              	.LASF71:
 9861 015c 54656D70 		.ascii	"TempGz\000"
 9861      477A00
 9862              	.LASF52:
 9863 0163 68616C66 		.ascii	"halfT\000"
 9863      5400
 9864              	.LASF47:
 9865 0169 494D555F 		.ascii	"IMU_AHRSupdate\000"
 9865      41485253 
 9865      75706461 
 9865      746500
 9866              	.LASF123:
 9867 0178 4932435F 		.ascii	"I2C_1_MasterWriteBuf\000"
 9867      315F4D61 
 9867      73746572 
 9867      57726974 
 9867      65427566 
 9868              	.LASF81:
ARM GAS  C:\Users\acer\AppData\Local\Temp\ccmxYZNb.s 			page 197


 9869 018d 5056616C 		.ascii	"PVal\000"
 9869      00
 9870              	.LASF109:
 9871 0192 4D61675F 		.ascii	"Mag_Read_Data\000"
 9871      52656164 
 9871      5F446174 
 9871      6100
 9872              	.LASF46:
 9873 01a0 68616C66 		.ascii	"halfx\000"
 9873      7800
 9874              	.LASF88:
 9875 01a6 74656D70 		.ascii	"temp_rx_slv_reg\000"
 9875      5F72785F 
 9875      736C765F 
 9875      72656700 
 9876              	.LASF16:
 9877 01b6 5F554259 		.ascii	"_UBYTE\000"
 9877      544500
 9878              	.LASF93:
 9879 01bd 4D61675F 		.ascii	"Mag_Reg\000"
 9879      52656700 
 9880              	.LASF26:
 9881 01c5 5A5F4F66 		.ascii	"Z_Off_Err\000"
 9881      665F4572 
 9881      7200
 9882              	.LASF39:
 9883 01cf 4932435F 		.ascii	"I2C_Mgr\000"
 9883      4D677200 
 9884              	.LASF36:
 9885 01d7 4932435F 		.ascii	"I2C_READ\000"
 9885      52454144 
 9885      00
 9886              	.LASF68:
 9887 01e0 4D505539 		.ascii	"MPU9250_Init\000"
 9887      3235305F 
 9887      496E6974 
 9887      00
 9888              	.LASF28:
 9889 01ed 496E6465 		.ascii	"Index\000"
 9889      7800
 9890              	.LASF126:
 9891 01f3 474E5520 		.ascii	"GNU C 4.9.3 20150303 (release) [ARM/embedded-4_9-br"
 9891      4320342E 
 9891      392E3320 
 9891      32303135 
 9891      30333033 
 9892 0226 616E6368 		.ascii	"anch revision 221220] -mcpu=cortex-m3 -mthumb -g -O"
 9892      20726576 
 9892      6973696F 
 9892      6E203232 
 9892      31323230 
 9893 0259 73202D66 		.ascii	"s -ffunction-sections -ffat-lto-objects\000"
 9893      66756E63 
 9893      74696F6E 
 9893      2D736563 
 9893      74696F6E 
 9894              	.LASF130:
ARM GAS  C:\Users\acer\AppData\Local\Temp\ccmxYZNb.s 			page 198


 9895 0281 494D555F 		.ascii	"IMU_Read_St\000"
 9895      52656164 
 9895      5F537400 
 9896              	.LASF14:
 9897 028d 63686172 		.ascii	"char\000"
 9897      00
 9898              	.LASF51:
 9899 0292 657A496E 		.ascii	"ezInt\000"
 9899      7400
 9900              	.LASF105:
 9901 0298 4D505539 		.ascii	"MPU9250_Filter_Acc\000"
 9901      3235305F 
 9901      46696C74 
 9901      65725F41 
 9901      636300
 9902              	.LASF78:
 9903 02ab 52656164 		.ascii	"Read_From_ALL\000"
 9903      5F46726F 
 9903      6D5F414C 
 9903      4C00
 9904              	.LASF62:
 9905 02b9 71337133 		.ascii	"q3q3\000"
 9905      00
 9906              	.LASF12:
 9907 02be 75696E74 		.ascii	"uint8_t\000"
 9907      385F7400 
 9908              	.LASF44:
 9909 02c6 704F7574 		.ascii	"pOutVal\000"
 9909      56616C00 
 9910              	.LASF27:
 9911 02ce 4D505539 		.ascii	"MPU9250_TypeDef_Off\000"
 9911      3235305F 
 9911      54797065 
 9911      4465665F 
 9911      4F666600 
 9912              	.LASF129:
 9913 02e2 696E7653 		.ascii	"invSqrt\000"
 9913      71727400 
 9914              	.LASF8:
 9915 02ea 6C6F6E67 		.ascii	"long long int\000"
 9915      206C6F6E 
 9915      6720696E 
 9915      7400
 9916              	.LASF63:
 9917 02f8 424D5031 		.ascii	"BMP180_CalculateTrueTemperature\000"
 9917      38305F43 
 9917      616C6375 
 9917      6C617465 
 9917      54727565 
 9918              	.LASF108:
 9919 0318 4D505539 		.ascii	"MPU9250_Magn_Offset\000"
 9919      3235305F 
 9919      4D61676E 
 9919      5F4F6666 
 9919      73657400 
 9920              	.LASF73:
 9921 032c 4779726F 		.ascii	"Gyro_Temp_Check_Data\000"
ARM GAS  C:\Users\acer\AppData\Local\Temp\ccmxYZNb.s 			page 199


 9921      5F54656D 
 9921      705F4368 
 9921      65636B5F 
 9921      44617461 
 9922              	.LASF100:
 9923 0341 496E4275 		.ascii	"InBuffer\000"
 9923      66666572 
 9923      00
 9924              	.LASF74:
 9925 034a 424D5031 		.ascii	"BMP180_CalculateAbsoluteAltitude\000"
 9925      38305F43 
 9925      616C6375 
 9925      6C617465 
 9925      4162736F 
 9926              	.LASF103:
 9927 036b 4D505539 		.ascii	"MPU9250_Offset\000"
 9927      3235305F 
 9927      4F666673 
 9927      657400
 9928              	.LASF90:
 9929 037a 4779726F 		.ascii	"Gyro_Calib_Data\000"
 9929      5F43616C 
 9929      69625F44 
 9929      61746100 
 9930              	.LASF43:
 9931 038a 496E5661 		.ascii	"InVal\000"
 9931      6C00
 9932              	.LASF85:
 9933 0390 494D555F 		.ascii	"IMU_Command\000"
 9933      436F6D6D 
 9933      616E6400 
 9934              	.LASF112:
 9935 039c 50726573 		.ascii	"Pressure0\000"
 9935      73757265 
 9935      3000
 9936              	.LASF107:
 9937 03a6 6779726F 		.ascii	"gyro\000"
 9937      00
 9938              	.LASF101:
 9939 03ab 73745F49 		.ascii	"st_IMU\000"
 9939      4D5500
 9940              	.LASF35:
 9941 03b2 4932435F 		.ascii	"I2C_WRITE\000"
 9941      57524954 
 9941      4500
 9942              	.LASF83:
 9943 03bc 5456616C 		.ascii	"TVal\000"
 9943      00
 9944              	.LASF102:
 9945 03c1 73745F52 		.ascii	"st_Read\000"
 9945      65616400 
 9946              	.LASF91:
 9947 03c9 4779726F 		.ascii	"Gyro_Temp_Acc_Reg\000"
 9947      5F54656D 
 9947      705F4163 
 9947      635F5265 
 9947      6700
ARM GAS  C:\Users\acer\AppData\Local\Temp\ccmxYZNb.s 			page 200


 9948              	.LASF128:
 9949 03db 433A5C55 		.ascii	"C:\\Users\\acer\\Desktop\\Saura-master\\2_Psoc\\Pla"
 9949      73657273 
 9949      5C616365 
 9949      725C4465 
 9949      736B746F 
 9950 0408 74666F72 		.ascii	"tform\\Design02.cydsn\000"
 9950      6D5C4465 
 9950      7369676E 
 9950      30322E63 
 9950      7964736E 
 9951              	.LASF22:
 9952 041d 6C6F6E67 		.ascii	"long double\000"
 9952      20646F75 
 9952      626C6500 
 9953              	.LASF31:
 9954 0429 424D5031 		.ascii	"BMP180_AvgTypeDef\000"
 9954      38305F41 
 9954      76675479 
 9954      70654465 
 9954      6600
 9955              	.LASF48:
 9956 043b 6E6F726D 		.ascii	"norm\000"
 9956      00
 9957              	.LASF82:
 9958 0440 4156616C 		.ascii	"AVal\000"
 9958      00
 9959              	.LASF57:
 9960 0445 71317131 		.ascii	"q1q1\000"
 9960      00
 9961              	.LASF58:
 9962 044a 71317132 		.ascii	"q1q2\000"
 9962      00
 9963              	.LASF59:
 9964 044f 71317133 		.ascii	"q1q3\000"
 9964      00
 9965              	.LASF87:
 9966 0454 72785F53 		.ascii	"rx_Slv_add\000"
 9966      6C765F61 
 9966      646400
 9967              	.LASF118:
 9968 045f 63616C63 		.ascii	"calc_count2\000"
 9968      5F636F75 
 9968      6E743200 
 9969              	.LASF92:
 9970 046b 4D61675F 		.ascii	"Mag_Calib_Data\000"
 9970      43616C69 
 9970      625F4461 
 9970      746100
 9971              	.LASF4:
 9972 047a 73686F72 		.ascii	"short int\000"
 9972      7420696E 
 9972      7400
 9973              	.LASF75:
 9974 0484 70416C74 		.ascii	"pAltitude\000"
 9974      69747564 
 9974      6500
ARM GAS  C:\Users\acer\AppData\Local\Temp\ccmxYZNb.s 			page 201


 9975              	.LASF122:
 9976 048e 4932435F 		.ascii	"I2C_1_MasterClearStatus\000"
 9976      315F4D61 
 9976      73746572 
 9976      436C6561 
 9976      72537461 
 9977              	.LASF6:
 9978 04a6 6C6F6E67 		.ascii	"long int\000"
 9978      20696E74 
 9978      00
 9979              	.LASF115:
 9980 04af 416C745F 		.ascii	"Alt_Read_Data\000"
 9980      52656164 
 9980      5F446174 
 9980      6100
 9981              	.LASF117:
 9982 04bd 63616C63 		.ascii	"calc_count\000"
 9982      5F636F75 
 9982      6E7400
 9983              	.LASF86:
 9984 04c8 436F6D6D 		.ascii	"Command\000"
 9984      616E6400 
 9985              	.LASF104:
 9986 04d0 4D505539 		.ascii	"MPU9250_Filter_Gyro\000"
 9986      3235305F 
 9986      46696C74 
 9986      65725F47 
 9986      79726F00 
 9987              	.LASF41:
 9988 04e4 70496E64 		.ascii	"pIndex\000"
 9988      657800
 9989              	.LASF11:
 9990 04eb 5F5F7569 		.ascii	"__uint8_t\000"
 9990      6E74385F 
 9990      7400
 9991              	.LASF89:
 9992 04f5 72785F53 		.ascii	"rx_Slv_dta_lnt\000"
 9992      6C765F64 
 9992      74615F6C 
 9992      6E7400
 9993              	.LASF96:
 9994 0504 73744932 		.ascii	"stI2CMgr\000"
 9994      434D6772 
 9994      00
 9995              	.LASF127:
 9996 050d 2E5C696D 		.ascii	".\\imu_i2c.c\000"
 9996      755F6932 
 9996      632E6300 
 9997              	.LASF64:
 9998 0519 70547275 		.ascii	"pTrueTemperature\000"
 9998      6554656D 
 9998      70657261 
 9998      74757265 
 9998      00
 9999              	.LASF24:
 10000 052a 585F4F66 		.ascii	"X_Off_Err\000"
 10000      665F4572 
ARM GAS  C:\Users\acer\AppData\Local\Temp\ccmxYZNb.s 			page 202


 10000      7200
 10001              	.LASF45:
 10002 0534 6932635F 		.ascii	"i2c_timeout\000"
 10002      74696D65 
 10002      6F757400 
 10003              	.LASF15:
 10004 0540 73697A65 		.ascii	"sizetype\000"
 10004      74797065 
 10004      00
 10005              	.LASF76:
 10006 0549 50726573 		.ascii	"PressureVal\000"
 10006      73757265 
 10006      56616C00 
 10007              	.LASF7:
 10008 0555 6C6F6E67 		.ascii	"long unsigned int\000"
 10008      20756E73 
 10008      69676E65 
 10008      6420696E 
 10008      7400
 10009              	.LASF80:
 10010 0567 6D61676E 		.ascii	"magn\000"
 10010      00
 10011              	.LASF72:
 10012 056c 50726573 		.ascii	"Pres_Read_data\000"
 10012      5F526561 
 10012      645F6461 
 10012      746100
 10013              	.LASF34:
 10014 057b 44617461 		.ascii	"Data_length\000"
 10014      5F6C656E 
 10014      67746800 
 10015              	.LASF131:
 10016 0587 6174616E 		.ascii	"atan2\000"
 10016      3200
 10017              	.LASF3:
 10018 058d 756E7369 		.ascii	"unsigned char\000"
 10018      676E6564 
 10018      20636861 
 10018      7200
 10019              	.LASF121:
 10020 059b 4932435F 		.ascii	"I2C_1_MasterStatus\000"
 10020      315F4D61 
 10020      73746572 
 10020      53746174 
 10020      757300
 10021              	.LASF37:
 10022 05ae 53617665 		.ascii	"SaveReg\000"
 10022      52656700 
 10023              	.LASF50:
 10024 05b6 6579496E 		.ascii	"eyInt\000"
 10024      7400
 10025              	.LASF19:
 10026 05bc 5F53494E 		.ascii	"_SINT16\000"
 10026      54313600 
 10027              	.LASF40:
 10028 05c4 4D505539 		.ascii	"MPU9250_CalAvgValue\000"
 10028      3235305F 
ARM GAS  C:\Users\acer\AppData\Local\Temp\ccmxYZNb.s 			page 203


 10028      43616C41 
 10028      76675661 
 10028      6C756500 
 10029              	.LASF32:
 10030 05d8 53617665 		.ascii	"SaveAdress\000"
 10030      41647265 
 10030      737300
 10031              	.LASF95:
 10032 05e3 416C745F 		.ascii	"Alt_Calib_Data\000"
 10032      43616C69 
 10032      625F4461 
 10032      746100
 10033              	.LASF2:
 10034 05f2 7369676E 		.ascii	"signed char\000"
 10034      65642063 
 10034      68617200 
 10035              	.LASF42:
 10036 05fe 70417667 		.ascii	"pAvgBuffer\000"
 10036      42756666 
 10036      657200
 10037              	.LASF5:
 10038 0609 73686F72 		.ascii	"short unsigned int\000"
 10038      7420756E 
 10038      7369676E 
 10038      65642069 
 10038      6E7400
 10039              	.LASF111:
 10040 061c 616E676C 		.ascii	"angles\000"
 10040      657300
 10041              	.LASF30:
 10042 0623 4D505539 		.ascii	"MPU9250_AvgTypeDef\000"
 10042      3235305F 
 10042      41766754 
 10042      79706544 
 10042      656600
 10043              	.LASF13:
 10044 0636 75696E74 		.ascii	"uint8\000"
 10044      3800
 10045              	.LASF1:
 10046 063c 646F7562 		.ascii	"double\000"
 10046      6C6500
 10047              	.LASF106:
 10048 0643 4D505539 		.ascii	"MPU9250_Filter_Mag\000"
 10048      3235305F 
 10048      46696C74 
 10048      65725F4D 
 10048      616700
 10049              	.LASF97:
 10050 0656 72785F72 		.ascii	"rx_rd_data_ptr\000"
 10050      645F6461 
 10050      74615F70 
 10050      747200
 10051              	.LASF21:
 10052 0665 5F53494E 		.ascii	"_SINT32\000"
 10052      54333200 
 10053              	.LASF17:
 10054 066d 5F55494E 		.ascii	"_UINT8\000"
ARM GAS  C:\Users\acer\AppData\Local\Temp\ccmxYZNb.s 			page 204


 10054      543800
 10055              	.LASF77:
 10056 0674 424D5031 		.ascii	"BMP180_CalAvgValue\000"
 10056      38305F43 
 10056      616C4176 
 10056      6756616C 
 10056      756500
 10057              		.ident	"GCC: (GNU Tools for ARM Embedded Processors) 4.9.3 20150303 (release) [ARM/embedded-4_9-br
