ARM GAS  C:\Users\acer\AppData\Local\Temp\ccmxYZNb.s 			page 1


   1              		.syntax unified
   2              		.cpu cortex-m3
   3              		.fpu softvfp
   4              		.eabi_attribute 20, 1
   5              		.eabi_attribute 21, 1
   6              		.eabi_attribute 23, 3
   7              		.eabi_attribute 24, 1
   8              		.eabi_attribute 25, 1
   9              		.eabi_attribute 26, 1
  10              		.eabi_attribute 30, 4
  11              		.eabi_attribute 34, 1
  12              		.eabi_attribute 18, 4
  13              		.thumb
  14              		.file	"imu_i2c.c"
  15              		.text
  16              	.Ltext0:
  17              		.cfi_sections	.debug_frame
  18              		.section	.text.I2C_Mgr,"ax",%progbits
  19              		.align	1
  20              		.global	I2C_Mgr
  21              		.thumb
  22              		.thumb_func
  23              		.type	I2C_Mgr, %function
  24              	I2C_Mgr:
  25              	.LFB0:
  26              		.file 1 ".\\imu_i2c.c"
   1:.\imu_i2c.c   **** /* ========================================
   2:.\imu_i2c.c   ****  *
   3:.\imu_i2c.c   ****  * Copyright YOUR COMPANY, THE YEAR
   4:.\imu_i2c.c   ****  * All Rights Reserved
   5:.\imu_i2c.c   ****  * UNPUBLISHED, LICENSED SOFTWARE.
   6:.\imu_i2c.c   ****  *
   7:.\imu_i2c.c   ****  * CONFIDENTIAL AND PROPRIETARY INFORMATION
   8:.\imu_i2c.c   ****  * WHICH IS THE PROPERTY OF your company.
   9:.\imu_i2c.c   ****  *
  10:.\imu_i2c.c   ****  * ========================================
  11:.\imu_i2c.c   **** */
  12:.\imu_i2c.c   **** 
  13:.\imu_i2c.c   **** // read example @ http://www.lucidarme.me/?p=5057
  14:.\imu_i2c.c   **** #include "I2C_1.h"
  15:.\imu_i2c.c   **** #include "common.h"
  16:.\imu_i2c.c   **** 
  17:.\imu_i2c.c   **** //PressureVal     resolution in 1 pascal / bit
  18:.\imu_i2c.c   **** // TemperatureVal resolution is 0.1 deg c /bit
  19:.\imu_i2c.c   **** // AltitudeVal     0.01 m resolution
  20:.\imu_i2c.c   ****    
  21:.\imu_i2c.c   **** #if(IMU_SENSOR==ENABLE)
  22:.\imu_i2c.c   **** #include <math.h>    
  23:.\imu_i2c.c   **** #include "imu_i2c.h"
  24:.\imu_i2c.c   **** 
  25:.\imu_i2c.c   **** // I2C manager variables
  26:.\imu_i2c.c   **** volatile uint8 stI2CMgr;
  27:.\imu_i2c.c   **** static _UBYTE rx_Slv_add,temp_rx_slv_reg,rx_Slv_dta_lnt; // taperory value for rx function of i2c 
  28:.\imu_i2c.c   **** _UBYTE *rx_rd_data_ptr;
  29:.\imu_i2c.c   **** 
  30:.\imu_i2c.c   **** // IMU variables
  31:.\imu_i2c.c   **** _UINT8 Gyro_Temp_Acc_Read_Data[14]; // stores real time acc, die temp,gyro values receved from i2c
ARM GAS  C:\Users\acer\AppData\Local\Temp\ccmxYZNb.s 			page 2


  32:.\imu_i2c.c   **** _SINT32 OutBuffer[3] = {0,0,0}; // stores integrated gro values
  33:.\imu_i2c.c   **** _SINT16 InBuffer[3] = {0,0,0};  // stores temperory gyro data 
  34:.\imu_i2c.c   **** 
  35:.\imu_i2c.c   **** // manger states
  36:.\imu_i2c.c   **** _UINT8 st_IMU;  // keeps status of initialisation state machine
  37:.\imu_i2c.c   **** _UINT8 st_Read; // store state machine value 
  38:.\imu_i2c.c   **** 
  39:.\imu_i2c.c   **** // gyro globles
  40:.\imu_i2c.c   ****  MPU9250_TypeDef MPU9250_Offset={0,0,0};  // stores ofset perameter for 3 axis of gyro
  41:.\imu_i2c.c   ****  MPU9250_AvgTypeDef MPU9250_Filter_Gyro[3],MPU9250_Filter_Acc[3],MPU9250_Filter_Mag[3];  // buffer 
  42:.\imu_i2c.c   **** _SINT16 gyro[3];
  43:.\imu_i2c.c   **** 
  44:.\imu_i2c.c   **** //magneto
  45:.\imu_i2c.c   **** MPU9250_TypeDef_Off MPU9250_Magn_Offset={0,0,0};
  46:.\imu_i2c.c   **** _UINT8 Mag_Read_Data[7]; // stores magcompas data received and error status
  47:.\imu_i2c.c   ****     
  48:.\imu_i2c.c   **** // complex function variable for angle calculation
  49:.\imu_i2c.c   ****  volatile float q0, q1, q2, q3; 
  50:.\imu_i2c.c   **** 
  51:.\imu_i2c.c   **** // final values of interest
  52:.\imu_i2c.c   **** float MotionVal[9];    // contains final gyro acc,mag values
  53:.\imu_i2c.c   **** float angles[3];       // contains final pich yow roll
  54:.\imu_i2c.c   **** 
  55:.\imu_i2c.c   **** // pressure sensor fglobles
  56:.\imu_i2c.c   **** _SINT32 Pressure0 = MSLP; // pressure at sea level 
  57:.\imu_i2c.c   **** _SINT32 PressureVal, TemperatureVal, AltitudeVal; // stores final values of all
  58:.\imu_i2c.c   **** _UINT8 Alt_Read_Data[2][3]; // stores temperature data [0][] and pressure data [1][]
  59:.\imu_i2c.c   **** _SINT16 AC1, AC2, AC3, B1, B2, MB, MC, MD, _oss;  
  60:.\imu_i2c.c   **** _UINT16 AC4, AC5, AC6;
  61:.\imu_i2c.c   **** _SINT32 B5, UT, UP;
  62:.\imu_i2c.c   **** 
  63:.\imu_i2c.c   **** _UINT8 calc_count,calc_count2; // keeps counter value while calculating average
  64:.\imu_i2c.c   **** const uint8 test_1 =0xD0;  // test register value for pressure sensor, on read shuld give data 0x55
  65:.\imu_i2c.c   **** 
  66:.\imu_i2c.c   **** void I2C_Mgr(void) // 1ms task
  67:.\imu_i2c.c   **** {
  27              		.loc 1 67 0
  28              		.cfi_startproc
  29              		@ args = 0, pretend = 0, frame = 0
  30              		@ frame_needed = 0, uses_anonymous_args = 0
  31 0000 38B5     		push	{r3, r4, r5, lr}
  32              		.cfi_def_cfa_offset 16
  33              		.cfi_offset 3, -16
  34              		.cfi_offset 4, -12
  35              		.cfi_offset 5, -8
  36              		.cfi_offset 14, -4
  68:.\imu_i2c.c   ****     static uint8 i2c_timeout;
  69:.\imu_i2c.c   ****     switch(stI2CMgr)
  37              		.loc 1 69 0
  38 0002 224C     		ldr	r4, .L24
  39 0004 2378     		ldrb	r3, [r4]	@ zero_extendqisi2
  40 0006 013B     		subs	r3, r3, #1
  41 0008 042B     		cmp	r3, #4
  42 000a 3BD8     		bhi	.L2
  43 000c DFE803F0 		tbb	[pc, r3]
  44              	.L4:
  45 0010 03       		.byte	(.L3-.L4)/2
ARM GAS  C:\Users\acer\AppData\Local\Temp\ccmxYZNb.s 			page 3


  46 0011 28       		.byte	(.L5-.L4)/2
  47 0012 0E       		.byte	(.L6-.L4)/2
  48 0013 28       		.byte	(.L5-.L4)/2
  49 0014 3C       		.byte	(.L1-.L4)/2
  50 0015 00       		.p2align 1
  51              	.L3:
  70:.\imu_i2c.c   ****     {
  71:.\imu_i2c.c   ****         case WAIT_FOR_TX: 
  72:.\imu_i2c.c   ****         if(0u != (I2C_1_MasterStatus() & I2C_1_MSTAT_WR_CMPLT))
  52              		.loc 1 72 0
  53 0016 FFF7FEFF 		bl	I2C_1_MasterStatus
  54              	.LVL0:
  55 001a 10F0020F 		tst	r0, #2
  56 001e 1C4A     		ldr	r2, .L24+4
  57 0020 24D1     		bne	.L15
  73:.\imu_i2c.c   ****         {
  74:.\imu_i2c.c   ****             stI2CMgr=IDLE;
  75:.\imu_i2c.c   ****             i2c_timeout=0;
  76:.\imu_i2c.c   ****         }
  77:.\imu_i2c.c   ****         else  // exception handling
  78:.\imu_i2c.c   ****         {
  79:.\imu_i2c.c   ****            i2c_timeout++;
  58              		.loc 1 79 0
  59 0022 1378     		ldrb	r3, [r2]	@ zero_extendqisi2
  60 0024 0133     		adds	r3, r3, #1
  61 0026 DBB2     		uxtb	r3, r3
  62 0028 1370     		strb	r3, [r2]
  63 002a 15E0     		b	.L21
  64              	.L6:
  80:.\imu_i2c.c   ****            if(i2c_timeout>MAX_WR_WAIT)
  81:.\imu_i2c.c   ****            {
  82:.\imu_i2c.c   ****             stI2CMgr=Tx_ERR;
  83:.\imu_i2c.c   ****            }
  84:.\imu_i2c.c   ****         }
  85:.\imu_i2c.c   ****         break;
  86:.\imu_i2c.c   ****         case START_RECEIVE_SEQ_WR_REG:
  87:.\imu_i2c.c   ****                 if(0u != (I2C_1_MasterStatus() & I2C_1_MSTAT_WR_CMPLT))
  65              		.loc 1 87 0
  66 002c FFF7FEFF 		bl	I2C_1_MasterStatus
  67              	.LVL1:
  68 0030 10F0020F 		tst	r0, #2
  69 0034 164D     		ldr	r5, .L24+4
  70 0036 0BD0     		beq	.L11
  88:.\imu_i2c.c   ****                 {
  89:.\imu_i2c.c   ****                     // I2C_1_MasterClearStatus();
  90:.\imu_i2c.c   ****                     I2C_1_MasterReadBuf(rx_Slv_add, rx_rd_data_ptr, rx_Slv_dta_lnt, I2C_1_MODE_REPE
  71              		.loc 1 90 0
  72 0038 164B     		ldr	r3, .L24+8
  73 003a 6878     		ldrb	r0, [r5, #1]	@ zero_extendqisi2
  74 003c 1968     		ldr	r1, [r3]
  75 003e AA78     		ldrb	r2, [r5, #2]	@ zero_extendqisi2
  76 0040 0123     		movs	r3, #1
  77 0042 FFF7FEFF 		bl	I2C_1_MasterReadBuf
  78              	.LVL2:
  91:.\imu_i2c.c   ****                 
  92:.\imu_i2c.c   ****                     stI2CMgr=START_RECEIVE_SEQ_RD_DATA;
  79              		.loc 1 92 0
ARM GAS  C:\Users\acer\AppData\Local\Temp\ccmxYZNb.s 			page 4


  80 0046 0423     		movs	r3, #4
  81 0048 2370     		strb	r3, [r4]
  93:.\imu_i2c.c   ****                     i2c_timeout=0;
  82              		.loc 1 93 0
  83 004a 0023     		movs	r3, #0
  84 004c 2B70     		strb	r3, [r5]
  85 004e 38BD     		pop	{r3, r4, r5, pc}
  86              	.L11:
  94:.\imu_i2c.c   ****                 }
  95:.\imu_i2c.c   ****                 else  // exception handling
  96:.\imu_i2c.c   ****                 {
  97:.\imu_i2c.c   ****                    i2c_timeout++;
  87              		.loc 1 97 0
  88 0050 2B78     		ldrb	r3, [r5]	@ zero_extendqisi2
  89 0052 0133     		adds	r3, r3, #1
  90 0054 DBB2     		uxtb	r3, r3
  91 0056 2B70     		strb	r3, [r5]
  92              	.L21:
  98:.\imu_i2c.c   ****                    if(i2c_timeout>MAX_WR_WAIT)
  93              		.loc 1 98 0
  94 0058 052B     		cmp	r3, #5
  95 005a 15D9     		bls	.L1
  99:.\imu_i2c.c   ****                    {
 100:.\imu_i2c.c   ****                         stI2CMgr=Tx_ERR;
  96              		.loc 1 100 0
  97 005c 0523     		movs	r3, #5
  98 005e 12E0     		b	.L16
  99              	.L5:
 101:.\imu_i2c.c   ****                    }
 102:.\imu_i2c.c   ****                 }
 103:.\imu_i2c.c   ****                 
 104:.\imu_i2c.c   ****         break;
 105:.\imu_i2c.c   ****         case START_RECEIVE_SEQ_RD_DATA:
 106:.\imu_i2c.c   ****              if(0u != (I2C_1_MasterStatus() & I2C_1_MSTAT_RD_CMPLT))
 107:.\imu_i2c.c   ****             {
 108:.\imu_i2c.c   ****               stI2CMgr=IDLE;
 109:.\imu_i2c.c   ****               i2c_timeout=0;
 110:.\imu_i2c.c   ****             }
 111:.\imu_i2c.c   ****             else  // exception handling
 112:.\imu_i2c.c   ****             {
 113:.\imu_i2c.c   ****                i2c_timeout++;
 114:.\imu_i2c.c   ****                if(i2c_timeout>MAX_RD_WAIT)
 115:.\imu_i2c.c   ****                {
 116:.\imu_i2c.c   ****                 stI2CMgr=IDLE;
 117:.\imu_i2c.c   ****                }  
 118:.\imu_i2c.c   ****             }
 119:.\imu_i2c.c   ****         break;
 120:.\imu_i2c.c   ****         case WAIT_FOR_RX:
 121:.\imu_i2c.c   ****         if(0u != (I2C_1_MasterStatus() & I2C_1_MSTAT_RD_CMPLT))
 100              		.loc 1 121 0
 101 0060 FFF7FEFF 		bl	I2C_1_MasterStatus
 102              	.LVL3:
 103 0064 10F00100 		ands	r0, r0, #1
 104 0068 094A     		ldr	r2, .L24+4
 105 006a 03D0     		beq	.L14
 106              	.L15:
 122:.\imu_i2c.c   ****         {
ARM GAS  C:\Users\acer\AppData\Local\Temp\ccmxYZNb.s 			page 5


 123:.\imu_i2c.c   ****           stI2CMgr=IDLE;
 107              		.loc 1 123 0
 108 006c 0023     		movs	r3, #0
 109 006e 2370     		strb	r3, [r4]
 124:.\imu_i2c.c   ****           i2c_timeout=0;
 110              		.loc 1 124 0
 111 0070 1370     		strb	r3, [r2]
 112 0072 38BD     		pop	{r3, r4, r5, pc}
 113              	.L14:
 125:.\imu_i2c.c   ****         }
 126:.\imu_i2c.c   ****         else  // exception handling
 127:.\imu_i2c.c   ****         {
 128:.\imu_i2c.c   ****            i2c_timeout++;
 114              		.loc 1 128 0
 115 0074 1378     		ldrb	r3, [r2]	@ zero_extendqisi2
 116 0076 0133     		adds	r3, r3, #1
 117 0078 DBB2     		uxtb	r3, r3
 129:.\imu_i2c.c   ****            if(i2c_timeout>MAX_RD_WAIT)
 118              		.loc 1 129 0
 119 007a 052B     		cmp	r3, #5
 128:.\imu_i2c.c   ****            if(i2c_timeout>MAX_RD_WAIT)
 120              		.loc 1 128 0
 121 007c 1370     		strb	r3, [r2]
 122              		.loc 1 129 0
 123 007e 03D9     		bls	.L1
 130:.\imu_i2c.c   ****            {
 131:.\imu_i2c.c   ****             stI2CMgr=IDLE;
 124              		.loc 1 131 0
 125 0080 2070     		strb	r0, [r4]
 126 0082 38BD     		pop	{r3, r4, r5, pc}
 127              	.L2:
 132:.\imu_i2c.c   ****            }  
 133:.\imu_i2c.c   ****         }
 134:.\imu_i2c.c   ****         break;
 135:.\imu_i2c.c   ****         case Tx_ERR: break;
 136:.\imu_i2c.c   ****         case IDLE:
 137:.\imu_i2c.c   ****         default: stI2CMgr=IDLE;break;
 128              		.loc 1 137 0
 129 0084 0023     		movs	r3, #0
 130              	.L16:
 131 0086 2370     		strb	r3, [r4]
 132              	.L1:
 133 0088 38BD     		pop	{r3, r4, r5, pc}
 134              	.L25:
 135 008a 00BF     		.align	2
 136              	.L24:
 137 008c 00000000 		.word	stI2CMgr
 138 0090 00000000 		.word	.LANCHOR0
 139 0094 00000000 		.word	rx_rd_data_ptr
 140              		.cfi_endproc
 141              	.LFE0:
 142              		.size	I2C_Mgr, .-I2C_Mgr
 143              		.section	.text.I2C_WRITE,"ax",%progbits
 144              		.align	1
 145              		.global	I2C_WRITE
 146              		.thumb
 147              		.thumb_func
ARM GAS  C:\Users\acer\AppData\Local\Temp\ccmxYZNb.s 			page 6


 148              		.type	I2C_WRITE, %function
 149              	I2C_WRITE:
 150              	.LFB1:
 138:.\imu_i2c.c   ****     }
 139:.\imu_i2c.c   ****     
 140:.\imu_i2c.c   **** }
 141:.\imu_i2c.c   **** _UBYTE I2C_WRITE(_UINT8 SaveAdress,_UINT8 *wrData, _UINT8 Data_length) // sends bytes to slave
 142:.\imu_i2c.c   **** {
 151              		.loc 1 142 0
 152              		.cfi_startproc
 153              		@ args = 0, pretend = 0, frame = 0
 154              		@ frame_needed = 0, uses_anonymous_args = 0
 155              	.LVL4:
 156 0000 2DE9F041 		push	{r4, r5, r6, r7, r8, lr}
 157              		.cfi_def_cfa_offset 24
 158              		.cfi_offset 4, -24
 159              		.cfi_offset 5, -20
 160              		.cfi_offset 6, -16
 161              		.cfi_offset 7, -12
 162              		.cfi_offset 8, -8
 163              		.cfi_offset 14, -4
 143:.\imu_i2c.c   ****     if(stI2CMgr==IDLE)
 164              		.loc 1 143 0
 165 0004 0B4C     		ldr	r4, .L29
 142:.\imu_i2c.c   ****     if(stI2CMgr==IDLE)
 166              		.loc 1 142 0
 167 0006 8046     		mov	r8, r0
 168              		.loc 1 143 0
 169 0008 2078     		ldrb	r0, [r4]	@ zero_extendqisi2
 170              	.LVL5:
 142:.\imu_i2c.c   ****     if(stI2CMgr==IDLE)
 171              		.loc 1 142 0
 172 000a 0F46     		mov	r7, r1
 173 000c 1646     		mov	r6, r2
 174              		.loc 1 143 0
 175 000e 00F0FF05 		and	r5, r0, #255
 176 0012 58B9     		cbnz	r0, .L28
 177              	.LVL6:
 178              	.LBB4:
 179              	.LBB5:
 144:.\imu_i2c.c   ****     {
 145:.\imu_i2c.c   ****       I2C_1_MasterClearStatus(); /* Clear any previous status */
 180              		.loc 1 145 0
 181 0014 FFF7FEFF 		bl	I2C_1_MasterClearStatus
 182              	.LVL7:
 146:.\imu_i2c.c   ****       I2C_1_MasterWriteBuf(SaveAdress,wrData, Data_length, I2C_1_MODE_COMPLETE_XFER);
 183              		.loc 1 146 0
 184 0018 4046     		mov	r0, r8
 185 001a 3946     		mov	r1, r7
 186 001c 3246     		mov	r2, r6
 187 001e 2B46     		mov	r3, r5
 188 0020 FFF7FEFF 		bl	I2C_1_MasterWriteBuf
 189              	.LVL8:
 147:.\imu_i2c.c   ****       stI2CMgr=WAIT_FOR_TX;    
 190              		.loc 1 147 0
 191 0024 0120     		movs	r0, #1
 192 0026 2070     		strb	r0, [r4]
ARM GAS  C:\Users\acer\AppData\Local\Temp\ccmxYZNb.s 			page 7


 193 0028 BDE8F081 		pop	{r4, r5, r6, r7, r8, pc}
 194              	.LVL9:
 195              	.L28:
 196              	.LBE5:
 197              	.LBE4:
 148:.\imu_i2c.c   **** 	  return(1);
 149:.\imu_i2c.c   ****     }
 150:.\imu_i2c.c   **** 	else
 151:.\imu_i2c.c   **** 	{
 152:.\imu_i2c.c   **** 	  
 153:.\imu_i2c.c   ****         return(0);
 198              		.loc 1 153 0
 199 002c 0020     		movs	r0, #0
 154:.\imu_i2c.c   **** 	}
 155:.\imu_i2c.c   **** }
 200              		.loc 1 155 0
 201 002e BDE8F081 		pop	{r4, r5, r6, r7, r8, pc}
 202              	.L30:
 203 0032 00BF     		.align	2
 204              	.L29:
 205 0034 00000000 		.word	stI2CMgr
 206              		.cfi_endproc
 207              	.LFE1:
 208              		.size	I2C_WRITE, .-I2C_WRITE
 209              		.section	.text.I2C_READ,"ax",%progbits
 210              		.align	1
 211              		.global	I2C_READ
 212              		.thumb
 213              		.thumb_func
 214              		.type	I2C_READ, %function
 215              	I2C_READ:
 216              	.LFB2:
 156:.\imu_i2c.c   **** 
 157:.\imu_i2c.c   **** 
 158:.\imu_i2c.c   **** _UBYTE I2C_READ(_UINT8 SaveAdress,_UINT8 SaveReg,_UINT8 *rdData, _UINT8 Data_length) // sends bytes
 159:.\imu_i2c.c   **** {
 217              		.loc 1 159 0
 218              		.cfi_startproc
 219              		@ args = 0, pretend = 0, frame = 0
 220              		@ frame_needed = 0, uses_anonymous_args = 0
 221              	.LVL10:
 222 0000 2DE9F042 		push	{r4, r5, r6, r7, r9, lr}
 223              		.cfi_def_cfa_offset 24
 224              		.cfi_offset 4, -24
 225              		.cfi_offset 5, -20
 226              		.cfi_offset 6, -16
 227              		.cfi_offset 7, -12
 228              		.cfi_offset 9, -8
 229              		.cfi_offset 14, -4
 160:.\imu_i2c.c   ****   
 161:.\imu_i2c.c   ****     
 162:.\imu_i2c.c   ****     if(stI2CMgr==IDLE)
 230              		.loc 1 162 0
 231 0004 0E4D     		ldr	r5, .L34
 159:.\imu_i2c.c   ****   
 232              		.loc 1 159 0
 233 0006 1F46     		mov	r7, r3
ARM GAS  C:\Users\acer\AppData\Local\Temp\ccmxYZNb.s 			page 8


 234              		.loc 1 162 0
 235 0008 2B78     		ldrb	r3, [r5]	@ zero_extendqisi2
 236              	.LVL11:
 159:.\imu_i2c.c   ****   
 237              		.loc 1 159 0
 238 000a 0646     		mov	r6, r0
 239 000c 8946     		mov	r9, r1
 240 000e 1446     		mov	r4, r2
 241              		.loc 1 162 0
 242 0010 9BB9     		cbnz	r3, .L33
 243              	.LVL12:
 244              	.LBB8:
 245              	.LBB9:
 163:.\imu_i2c.c   ****     {
 164:.\imu_i2c.c   ****       I2C_1_MasterClearStatus(); /* Clear any previous status */
 246              		.loc 1 164 0
 247 0012 FFF7FEFF 		bl	I2C_1_MasterClearStatus
 248              	.LVL13:
 165:.\imu_i2c.c   ****       temp_rx_slv_reg=SaveReg;
 249              		.loc 1 165 0
 250 0016 0B49     		ldr	r1, .L34+4
 166:.\imu_i2c.c   ****       rx_Slv_add=SaveAdress;
 167:.\imu_i2c.c   ****       rx_rd_data_ptr=rdData;  
 251              		.loc 1 167 0
 252 0018 0B4B     		ldr	r3, .L34+8
 165:.\imu_i2c.c   ****       temp_rx_slv_reg=SaveReg;
 253              		.loc 1 165 0
 254 001a 81F80390 		strb	r9, [r1, #3]
 166:.\imu_i2c.c   ****       rx_Slv_add=SaveAdress;
 255              		.loc 1 166 0
 256 001e 4E70     		strb	r6, [r1, #1]
 257              		.loc 1 167 0
 258 0020 1C60     		str	r4, [r3]
 168:.\imu_i2c.c   ****       rx_Slv_dta_lnt=Data_length;
 259              		.loc 1 168 0
 260 0022 8F70     		strb	r7, [r1, #2]
 169:.\imu_i2c.c   ****       // select the register to be read
 170:.\imu_i2c.c   ****       I2C_1_MasterWriteBuf(SaveAdress,&temp_rx_slv_reg, 1, I2C_1_MODE_NO_STOP);   
 261              		.loc 1 170 0
 262 0024 3046     		mov	r0, r6
 263 0026 0331     		adds	r1, r1, #3
 264 0028 0122     		movs	r2, #1
 265 002a 0223     		movs	r3, #2
 266 002c FFF7FEFF 		bl	I2C_1_MasterWriteBuf
 267              	.LVL14:
 171:.\imu_i2c.c   ****       // read the alue afr acc  
 172:.\imu_i2c.c   ****       stI2CMgr=START_RECEIVE_SEQ_WR_REG;
 268              		.loc 1 172 0
 269 0030 0323     		movs	r3, #3
 270 0032 2B70     		strb	r3, [r5]
 271 0034 0120     		movs	r0, #1
 272 0036 BDE8F082 		pop	{r4, r5, r6, r7, r9, pc}
 273              	.LVL15:
 274              	.L33:
 275              	.LBE9:
 276              	.LBE8:
 173:.\imu_i2c.c   ****     
ARM GAS  C:\Users\acer\AppData\Local\Temp\ccmxYZNb.s 			page 9


 174:.\imu_i2c.c   ****       return(1);
 175:.\imu_i2c.c   **** 	}
 176:.\imu_i2c.c   **** 	else
 177:.\imu_i2c.c   **** 	{
 178:.\imu_i2c.c   **** 	  return(0);
 277              		.loc 1 178 0
 278 003a 0020     		movs	r0, #0
 279              	.LVL16:
 179:.\imu_i2c.c   **** 	}
 180:.\imu_i2c.c   **** }
 280              		.loc 1 180 0
 281 003c BDE8F082 		pop	{r4, r5, r6, r7, r9, pc}
 282              	.L35:
 283              		.align	2
 284              	.L34:
 285 0040 00000000 		.word	stI2CMgr
 286 0044 00000000 		.word	.LANCHOR0
 287 0048 00000000 		.word	rx_rd_data_ptr
 288              		.cfi_endproc
 289              	.LFE2:
 290              		.size	I2C_READ, .-I2C_READ
 291              		.section	.text.MPU9250_CalAvgValue,"ax",%progbits
 292              		.align	1
 293              		.global	MPU9250_CalAvgValue
 294              		.thumb
 295              		.thumb_func
 296              		.type	MPU9250_CalAvgValue, %function
 297              	MPU9250_CalAvgValue:
 298              	.LFB5:
 181:.\imu_i2c.c   **** 
 182:.\imu_i2c.c   **** 
 183:.\imu_i2c.c   **** void MPU9250_Init(void) // should be called when os is running 50 ms task
 184:.\imu_i2c.c   **** {
 185:.\imu_i2c.c   ****     
 186:.\imu_i2c.c   ****     static _SINT32	TempGx = 0, TempGy = 0, TempGz = 0; // stores added gyrovalue for avraging purpo
 187:.\imu_i2c.c   **** 	
 188:.\imu_i2c.c   ****     // pressure sensor variables
 189:.\imu_i2c.c   ****     static _UINT8 Pres_Read_data[22]; // stores temporory pressure sensor data
 190:.\imu_i2c.c   ****     static _SINT32 Sum = 0;
 191:.\imu_i2c.c   ****    // static _UINT8 reg_count; // stores count vaue for rx register read
 192:.\imu_i2c.c   ****    // float Temp = 0.0f;
 193:.\imu_i2c.c   ****     
 194:.\imu_i2c.c   ****     _UINT8 i;  // for for loop purpose
 195:.\imu_i2c.c   ****    
 196:.\imu_i2c.c   ****     static _UBYTE Gyro_Temp_Check_Data;  
 197:.\imu_i2c.c   **** 	switch(st_IMU)
 198:.\imu_i2c.c   **** 	{
 199:.\imu_i2c.c   **** 		case IMU_INIT:	// below case configures gyro and accelrometer
 200:.\imu_i2c.c   **** 					    if(I2C_WRITE(GYRO_ADDRESS, &Gyro_Calib_Data[calc_count][0], 2))  // send first 10 bytes fo
 201:.\imu_i2c.c   **** 						{
 202:.\imu_i2c.c   **** 						    calc_count++;
 203:.\imu_i2c.c   ****                             
 204:.\imu_i2c.c   ****                             if(calc_count>=6)
 205:.\imu_i2c.c   ****                             {
 206:.\imu_i2c.c   ****                                // st_IMU=IMU_INIT_CHECK; 
 207:.\imu_i2c.c   ****                                 st_IMU=IMU_INIT_CHECK;
 208:.\imu_i2c.c   ****                                 calc_count=0;
ARM GAS  C:\Users\acer\AppData\Local\Temp\ccmxYZNb.s 			page 10


 209:.\imu_i2c.c   ****                             }
 210:.\imu_i2c.c   **** 						}	
 211:.\imu_i2c.c   ****                         // configur 20mhz as internal oscillator
 212:.\imu_i2c.c   ****                         // gyro, accelro resolutions
 213:.\imu_i2c.c   ****                        	break;
 214:.\imu_i2c.c   ****                         
 215:.\imu_i2c.c   ****         case IMU_INIT_CHECK: 
 216:.\imu_i2c.c   ****                            // check last write data   
 217:.\imu_i2c.c   ****                            if(I2C_READ(GYRO_ADDRESS,0x37,&Gyro_Temp_Check_Data,1))  // read all gyr
 218:.\imu_i2c.c   **** 						   { 
 219:.\imu_i2c.c   ****                              st_IMU=IMU_CALIB_READ;    
 220:.\imu_i2c.c   ****                            }
 221:.\imu_i2c.c   **** 						   break;                       
 222:.\imu_i2c.c   ****                         case IMU_CALIB_READ:/*
 223:.\imu_i2c.c   ****                         if(I2C_READ(GYRO_ADDRESS,Gyro_Temp_Acc_Reg[calc_count2+8],&Gyro_Temp_Acc_Re
 224:.\imu_i2c.c   **** 						   { 
 225:.\imu_i2c.c   ****                                  if(Gyro_Temp_Check_Data==BYPASS_EN)// config check ok, by reading 
 226:.\imu_i2c.c   ****                                  {
 227:.\imu_i2c.c   ****                                     calc_count2++;
 228:.\imu_i2c.c   ****                                     if(calc_count2>=3)
 229:.\imu_i2c.c   ****                                     {
 230:.\imu_i2c.c   ****                                         st_IMU=IMU_CALIB_CALC;   
 231:.\imu_i2c.c   ****                                         calc_count2=0;
 232:.\imu_i2c.c   ****                                         //  DiagMgr.ErrSt= clear IMU error bit
 233:.\imu_i2c.c   ****                                     }
 234:.\imu_i2c.c   ****                                  }                                
 235:.\imu_i2c.c   ****                                  else
 236:.\imu_i2c.c   ****                                  {
 237:.\imu_i2c.c   ****                                     st_IMU=IMU_INIT;
 238:.\imu_i2c.c   ****                                    //  DiagMgr.ErrSt= set IMU error bit
 239:.\imu_i2c.c   ****                                  }                           
 240:.\imu_i2c.c   ****                             }*/
 241:.\imu_i2c.c   ****                            
 242:.\imu_i2c.c   ****                            if(I2C_READ(GYRO_ADDRESS,Gyro_Temp_Acc_Reg[0],&Gyro_Temp_Acc_Read_Data[0
 243:.\imu_i2c.c   **** 						   { 
 244:.\imu_i2c.c   ****                              st_IMU=IMU_CALIB_CALC;   
 245:.\imu_i2c.c   ****                             // to read temperature from raw value = =( temperature + 12412.0) / 340
 246:.\imu_i2c.c   ****                            }
 247:.\imu_i2c.c   **** 						    break;
 248:.\imu_i2c.c   **** 		case IMU_CALIB_CALC: 
 249:.\imu_i2c.c   **** 							// read 32 gyro readings 
 250:.\imu_i2c.c   **** 						    // add them all and find average              
 251:.\imu_i2c.c   **** 							
 252:.\imu_i2c.c   ****                             if(stI2CMgr==IDLE)	 // if reading data is completed by I2C
 253:.\imu_i2c.c   ****                             { 
 254:.\imu_i2c.c   ****                                 InBuffer[0]=(Gyro_Temp_Acc_Read_Data[8]<<8)|Gyro_Temp_Acc_Read_Data
 255:.\imu_i2c.c   **** 								InBuffer[1]=(Gyro_Temp_Acc_Read_Data[10]<<8)|Gyro_Temp_Acc_Read_Data[11];
 256:.\imu_i2c.c   **** 								InBuffer[2]=(Gyro_Temp_Acc_Read_Data[12]<<8)|Gyro_Temp_Acc_Read_Data[13];
 257:.\imu_i2c.c   **** 								
 258:.\imu_i2c.c   ****                                 for(i = 0; i < 3; i ++)	
 259:.\imu_i2c.c   **** 								{
 260:.\imu_i2c.c   **** 								   MPU9250_CalAvgValue(&MPU9250_Filter_Gyro[i].Index, MPU9250_Filter_Gyro[i].AvgBuffer, InB
 261:.\imu_i2c.c   **** 								}
 262:.\imu_i2c.c   ****                                 
 263:.\imu_i2c.c   ****                                 gyro[0] = *(OutBuffer + 0) - MPU9250_Offset.X;
 264:.\imu_i2c.c   **** 								gyro[1] = *(OutBuffer + 1) - MPU9250_Offset.Y;
 265:.\imu_i2c.c   **** 								gyro[2] = *(OutBuffer + 2) - MPU9250_Offset.Z;
ARM GAS  C:\Users\acer\AppData\Local\Temp\ccmxYZNb.s 			page 11


 266:.\imu_i2c.c   **** 						        
 267:.\imu_i2c.c   **** 								TempGx += gyro[0];
 268:.\imu_i2c.c   **** 								TempGy += gyro[1];
 269:.\imu_i2c.c   **** 								TempGz += gyro[2];
 270:.\imu_i2c.c   **** 						        
 271:.\imu_i2c.c   **** 								// do this 32 times
 272:.\imu_i2c.c   **** 							    if(calc_count<31)
 273:.\imu_i2c.c   **** 								{
 274:.\imu_i2c.c   **** 								  st_IMU=IMU_CALIB_READ;
 275:.\imu_i2c.c   **** 								  calc_count++;
 276:.\imu_i2c.c   **** 								}
 277:.\imu_i2c.c   **** 								else
 278:.\imu_i2c.c   **** 								{
 279:.\imu_i2c.c   **** 									calc_count=0;
 280:.\imu_i2c.c   ****                                     // TODO: check the gyro offset value
 281:.\imu_i2c.c   ****                                     // take average of all readings 
 282:.\imu_i2c.c   ****         		                    MPU9250_Offset.X = TempGx >> 5;   // note : they are row offset value
 283:.\imu_i2c.c   ****         		                    MPU9250_Offset.Y = TempGy >> 5;
 284:.\imu_i2c.c   ****         		                    MPU9250_Offset.Z = TempGz >> 5;
 285:.\imu_i2c.c   ****         		
 286:.\imu_i2c.c   ****         		                    st_IMU=IMU_MAG;
 287:.\imu_i2c.c   **** 								}
 288:.\imu_i2c.c   **** 								
 289:.\imu_i2c.c   **** 							}
 290:.\imu_i2c.c   **** 							break;
 291:.\imu_i2c.c   **** 	    case IMU_MAG:
 292:.\imu_i2c.c   **** 					  if(I2C_WRITE(MAG_ADDRESS, &Mag_Calib_Data[0][0],2))   // select 14-bit output , Single measu
 293:.\imu_i2c.c   **** 					  {
 294:.\imu_i2c.c   **** 						
 295:.\imu_i2c.c   ****         		             st_IMU=READ_MAG;      
 296:.\imu_i2c.c   **** 					  }
 297:.\imu_i2c.c   **** 					 break; //MAG_ADDRESS,0x0A,0x01
 298:.\imu_i2c.c   ****                     
 299:.\imu_i2c.c   ****         		case READ_MAG: 
 300:.\imu_i2c.c   **** 					if(I2C_READ(MAG_ADDRESS,Mag_Reg[0], &Mag_Read_Data[0], 7))  // read all gyro values in Mag_Rea
 301:.\imu_i2c.c   **** 					{				
 302:.\imu_i2c.c   ****                          st_IMU=CALC_MAG;  
 303:.\imu_i2c.c   **** 					}
 304:.\imu_i2c.c   **** 					break;
 305:.\imu_i2c.c   ****                     
 306:.\imu_i2c.c   **** 				case CALC_MAG: 
 307:.\imu_i2c.c   **** 					if(stI2CMgr==IDLE)	             
 308:.\imu_i2c.c   **** 					   {
 309:.\imu_i2c.c   **** 							if(Mag_Read_Data[6] & AK8963_STATUS_2_HOFL_BIT)
 310:.\imu_i2c.c   ****                             {
 311:.\imu_i2c.c   ****                              //Magnetic sensor overflow occurred print   
 312:.\imu_i2c.c   ****                             }
 313:.\imu_i2c.c   ****                             InBuffer[1]=(Mag_Read_Data[1]<<8)|Mag_Read_Data[0];   // byte seq is di
 314:.\imu_i2c.c   **** 							InBuffer[0]=(Mag_Read_Data[3]<<8)|Mag_Read_Data[2];
 315:.\imu_i2c.c   **** 							InBuffer[2]=-((Mag_Read_Data[5]<<8)|Mag_Read_Data[4]);
 316:.\imu_i2c.c   **** 					
 317:.\imu_i2c.c   **** 							 for( i = 0; i < 3; i ++)	
 318:.\imu_i2c.c   **** 							{
 319:.\imu_i2c.c   **** 								MPU9250_CalAvgValue(&MPU9250_Filter_Mag[i].Index, MPU9250_Filter_Mag[i].AvgBuffer, InBuffer
 320:.\imu_i2c.c   **** 							} 
 321:.\imu_i2c.c   ****                             MPU9250_Magn_Offset.X_Off_Err = *(OutBuffer + 0);
 322:.\imu_i2c.c   **** 							MPU9250_Magn_Offset.Y_Off_Err = *(OutBuffer + 1);  // TODO check what it is
ARM GAS  C:\Users\acer\AppData\Local\Temp\ccmxYZNb.s 			page 12


 323:.\imu_i2c.c   **** 							MPU9250_Magn_Offset.Z_Off_Err = *(OutBuffer + 2);
 324:.\imu_i2c.c   ****                             
 325:.\imu_i2c.c   ****                             
 326:.\imu_i2c.c   ****                              _oss = MODE_STANDARD; // initialsie pressure sensor value	 
 327:.\imu_i2c.c   ****                               st_IMU=IMU_PRES;
 328:.\imu_i2c.c   ****                             
 329:.\imu_i2c.c   ****                        }     
 330:.\imu_i2c.c   ****                             break;
 331:.\imu_i2c.c   **** 	    case IMU_PRES: 
 332:.\imu_i2c.c   ****       
 333:.\imu_i2c.c   ****             	// BMP180_ReadCalibrationData
 334:.\imu_i2c.c   ****                 if(I2C_READ(BMP180_ADDR,Pres_Reg[0],&Pres_Read_data[0],22))  // CAL_AC1 to MD see b
 335:.\imu_i2c.c   ****             	{
 336:.\imu_i2c.c   ****                         st_IMU=CALIB_PRES;    
 337:.\imu_i2c.c   ****             	}
 338:.\imu_i2c.c   ****         	break; 
 339:.\imu_i2c.c   ****             
 340:.\imu_i2c.c   ****     case CALIB_PRES:
 341:.\imu_i2c.c   **** 	if(stI2CMgr==IDLE)	
 342:.\imu_i2c.c   ****     {
 343:.\imu_i2c.c   **** 							
 344:.\imu_i2c.c   ****           	AC1 = ((_SINT16)Pres_Read_data[0] <<8 | ((_SINT16)Pres_Read_data[1]));
 345:.\imu_i2c.c   **** 
 346:.\imu_i2c.c   ****           	AC2 = ((_SINT16)Pres_Read_data[2] <<8 | ((_SINT16)Pres_Read_data[3]));
 347:.\imu_i2c.c   ****           	
 348:.\imu_i2c.c   ****           	AC3 = ((_SINT16)Pres_Read_data[4] <<8 | ((_SINT16)Pres_Read_data[5]));
 349:.\imu_i2c.c   ****           	
 350:.\imu_i2c.c   ****           	AC4 = ((_UINT16)Pres_Read_data[6] <<8 | ((_UINT16)Pres_Read_data[7]));
 351:.\imu_i2c.c   ****          
 352:.\imu_i2c.c   ****           	AC5 = ((_UINT16)Pres_Read_data[8] <<8 | ((_UINT16)Pres_Read_data[9]));
 353:.\imu_i2c.c   ****           
 354:.\imu_i2c.c   ****           	AC6 = ((_UINT16)Pres_Read_data[10] <<8 | ((_UINT16)Pres_Read_data[11])); 
 355:.\imu_i2c.c   **** 
 356:.\imu_i2c.c   ****           	B1 = ((_SINT16)Pres_Read_data[12] <<8 | ((_SINT16)Pres_Read_data[13])); 
 357:.\imu_i2c.c   **** 
 358:.\imu_i2c.c   ****           	B2 = ((_SINT16)Pres_Read_data[14] <<8 | ((_SINT16)Pres_Read_data[15])); 
 359:.\imu_i2c.c   ****           	
 360:.\imu_i2c.c   ****           	MB = ((_SINT16)Pres_Read_data[16] <<8 | ((_SINT16)Pres_Read_data[17]));
 361:.\imu_i2c.c   ****          
 362:.\imu_i2c.c   ****           	MC = ((_SINT16)Pres_Read_data[18] <<8 | ((_SINT16)Pres_Read_data[19]));
 363:.\imu_i2c.c   **** 
 364:.\imu_i2c.c   ****           	MD = ((_SINT16)Pres_Read_data[20] <<8 | ((_SINT16)Pres_Read_data[21]));
 365:.\imu_i2c.c   ****             
 366:.\imu_i2c.c   **** 	        st_IMU=SEL_TEMP;
 367:.\imu_i2c.c   **** 	}
 368:.\imu_i2c.c   ****     break;
 369:.\imu_i2c.c   **** 	
 370:.\imu_i2c.c   ****    case SEL_TEMP: 
 371:.\imu_i2c.c   **** 				if(I2C_WRITE(BMP180_ADDR, &Alt_Calib_Data[0][0],2))  // CONTROL,READ_TEMPERATURE 
 372:.\imu_i2c.c   **** 				{
 373:.\imu_i2c.c   **** 						st_IMU=READ_TEMP;
 374:.\imu_i2c.c   **** 				}
 375:.\imu_i2c.c   **** 	break;
 376:.\imu_i2c.c   **** 	case READ_TEMP: 
 377:.\imu_i2c.c   **** 				
 378:.\imu_i2c.c   **** 				if(I2C_READ(BMP180_ADDR,CONTROL_OUTPUT, &Alt_Read_Data[0][0],2))
 379:.\imu_i2c.c   **** 				{
ARM GAS  C:\Users\acer\AppData\Local\Temp\ccmxYZNb.s 			page 13


 380:.\imu_i2c.c   **** 				   // read pressure
 381:.\imu_i2c.c   **** 				   st_IMU=CALC_TEMP;
 382:.\imu_i2c.c   **** 				}
 383:.\imu_i2c.c   **** 					
 384:.\imu_i2c.c   **** 				  break;
 385:.\imu_i2c.c   **** 	case CALC_TEMP:
 386:.\imu_i2c.c   **** 			    if(stI2CMgr==IDLE)	               
 387:.\imu_i2c.c   **** 				   {
 388:.\imu_i2c.c   **** 				     UT = ((_SINT32)Alt_Read_Data[0][0] << 8) + (_SINT32)Alt_Read_Data[0][1]; 
 389:.\imu_i2c.c   **** 				     st_IMU=SEL_PRES;
 390:.\imu_i2c.c   **** 				   }
 391:.\imu_i2c.c   **** 				break;
 392:.\imu_i2c.c   ****     case SEL_PRES:
 393:.\imu_i2c.c   **** 			    //BMP180_WriteReg(CONTROL, READ_PRESSURE + (_oss << 6)); 
 394:.\imu_i2c.c   **** 				if(I2C_WRITE(BMP180_ADDR, &Alt_Calib_Data[1][0],2))  // CONTROL,READ_Pressure 
 395:.\imu_i2c.c   **** 					{
 396:.\imu_i2c.c   **** 							st_IMU=READ_PRES;
 397:.\imu_i2c.c   **** 					}
 398:.\imu_i2c.c   **** 					break;
 399:.\imu_i2c.c   **** 			
 400:.\imu_i2c.c   **** 	case READ_PRES:  // TODO: oos = 3 its high sampling rate and pressure calculation need 70 ms by se
 401:.\imu_i2c.c   **** 				if(I2C_READ(BMP180_ADDR, CONTROL_OUTPUT, &Alt_Read_Data[1][0],3))  // BMP180_ReadReg(CONTROL_OU
 402:.\imu_i2c.c   **** 				{
 403:.\imu_i2c.c   **** 				   // read pressure
 404:.\imu_i2c.c   **** 				   st_IMU=CALC_PRES;
 405:.\imu_i2c.c   **** 				}
 406:.\imu_i2c.c   **** 				break;
 407:.\imu_i2c.c   **** 	case CALC_PRES : 
 408:.\imu_i2c.c   **** 		        if(stI2CMgr==IDLE)	               	   
 409:.\imu_i2c.c   **** 				{
 410:.\imu_i2c.c   **** 				   UP = ((((_SINT32)Alt_Read_Data[1][0] << 16) + ((_SINT32)Alt_Read_Data[1][1] << 8) + ((_SINT3
 411:.\imu_i2c.c   **** 				   
 412:.\imu_i2c.c   ****                    BMP180_CalculateTruePressure(&PressureVal);
 413:.\imu_i2c.c   ****             	   BMP180_CalculateTrueTemperature(&TemperatureVal);
 414:.\imu_i2c.c   **** 				   
 415:.\imu_i2c.c   ****                    if(calc_count<5)
 416:.\imu_i2c.c   ****                    {
 417:.\imu_i2c.c   ****                         
 418:.\imu_i2c.c   ****                         if(calc_count >= 2)
 419:.\imu_i2c.c   **** 		                {
 420:.\imu_i2c.c   **** 			                Sum += PressureVal;
 421:.\imu_i2c.c   **** 		                }
 422:.\imu_i2c.c   ****                         calc_count=calc_count+1;
 423:.\imu_i2c.c   ****                         st_IMU=SEL_TEMP;
 424:.\imu_i2c.c   ****                    }
 425:.\imu_i2c.c   ****                    else
 426:.\imu_i2c.c   ****                    {
 427:.\imu_i2c.c   ****                                 PressureVal= Sum / 3;               
 428:.\imu_i2c.c   ****                     	//Temp = (float)LOCAL_ADS_ALTITUDE / 4433000;
 429:.\imu_i2c.c   ****                     	//Temp = (float)pow((1 - Temp), 5.255f);
 430:.\imu_i2c.c   ****                     	//Pressure0 = (PressureVal - PRESSURE_OFFSET) / Temp;
 431:.\imu_i2c.c   ****                         
 432:.\imu_i2c.c   ****                         Pressure0=PressureVal; // may be solution for relative altitude
 433:.\imu_i2c.c   ****                         q0 = 1.0f;  
 434:.\imu_i2c.c   ****                       	q1 = 0.0f;
 435:.\imu_i2c.c   ****                       	q2 = 0.0f;
 436:.\imu_i2c.c   ****                       	q3 = 0.0f;
ARM GAS  C:\Users\acer\AppData\Local\Temp\ccmxYZNb.s 			page 14


 437:.\imu_i2c.c   ****                         st_IMU=INIT_COMP;
 438:.\imu_i2c.c   ****                         // TODO: remove it from task once initialisation is complete
 439:.\imu_i2c.c   ****                         
 440:.\imu_i2c.c   ****                        calc_count=0;
 441:.\imu_i2c.c   ****                    }
 442:.\imu_i2c.c   ****                 
 443:.\imu_i2c.c   ****                 }
 444:.\imu_i2c.c   ****                 break;
 445:.\imu_i2c.c   ****   
 446:.\imu_i2c.c   ****     case INIT_COMP:
 447:.\imu_i2c.c   ****     case IDLE: 
 448:.\imu_i2c.c   ****     default:break;
 449:.\imu_i2c.c   **** }
 450:.\imu_i2c.c   **** }
 451:.\imu_i2c.c   **** // read from slave
 452:.\imu_i2c.c   **** 
 453:.\imu_i2c.c   **** void Read_From_ALL(void)
 454:.\imu_i2c.c   **** {
 455:.\imu_i2c.c   ****     
 456:.\imu_i2c.c   ****     // accelrometer
 457:.\imu_i2c.c   ****      static _SINT16 accel[3]={0,0,0}; 
 458:.\imu_i2c.c   ****     
 459:.\imu_i2c.c   ****     static _SINT16 magn[3];
 460:.\imu_i2c.c   ****     // pressure sens
 461:.\imu_i2c.c   ****     _SINT32 PVal,AVal, TVal;
 462:.\imu_i2c.c   ****     
 463:.\imu_i2c.c   ****    
 464:.\imu_i2c.c   ****     static BMP180_AvgTypeDef BMP180_Filter[3];
 465:.\imu_i2c.c   **** 	//static _UINT8 reg_count; // stores tx reg counts 
 466:.\imu_i2c.c   ****     
 467:.\imu_i2c.c   ****     _UBYTE i;
 468:.\imu_i2c.c   **** 			switch(st_Read)
 469:.\imu_i2c.c   **** 			{
 470:.\imu_i2c.c   **** 				case READ_GYRO: 
 471:.\imu_i2c.c   **** 					if(I2C_READ(GYRO_ADDRESS,Gyro_Temp_Acc_Reg[0],&Gyro_Temp_Acc_Read_Data[0],14))  // read all gy
 472:.\imu_i2c.c   **** 						   { 
 473:.\imu_i2c.c   ****                              st_Read=CALC_GYRO;   
 474:.\imu_i2c.c   ****                             // to read temperature from raw value = =( temperature + 12412.0) / 340
 475:.\imu_i2c.c   ****                            }
 476:.\imu_i2c.c   ****                     // TODO: check if all sensor on imu can be red in one shot in doc the is image 
 477:.\imu_i2c.c   **** 					break;
 478:.\imu_i2c.c   **** 				case CALC_GYRO: 
 479:.\imu_i2c.c   **** 					if(stI2CMgr==IDLE)              
 480:.\imu_i2c.c   **** 					   {
 481:.\imu_i2c.c   **** 							 // acclro meter calculation
 482:.\imu_i2c.c   ****                             InBuffer[0]=(Gyro_Temp_Acc_Read_Data[0]<<8)|Gyro_Temp_Acc_Read_Data[1];
 483:.\imu_i2c.c   **** 							InBuffer[1]=(Gyro_Temp_Acc_Read_Data[2]<<8)|Gyro_Temp_Acc_Read_Data[3];
 484:.\imu_i2c.c   **** 							InBuffer[2]=(Gyro_Temp_Acc_Read_Data[4]<<8)|Gyro_Temp_Acc_Read_Data[5];
 485:.\imu_i2c.c   **** 					
 486:.\imu_i2c.c   **** 							for( i = 0; i < 3; i ++)	
 487:.\imu_i2c.c   **** 							{
 488:.\imu_i2c.c   **** 								MPU9250_CalAvgValue(&MPU9250_Filter_Acc[i].Index, MPU9250_Filter_Acc[i].AvgBuffer, InBuffer
 489:.\imu_i2c.c   **** 							}
 490:.\imu_i2c.c   ****                            
 491:.\imu_i2c.c   **** 						   accel[0] = *(OutBuffer + 0);
 492:.\imu_i2c.c   **** 						   accel[1] = *(OutBuffer + 1);
 493:.\imu_i2c.c   ****                            accel[2] = *(OutBuffer + 2);
ARM GAS  C:\Users\acer\AppData\Local\Temp\ccmxYZNb.s 			page 15


 494:.\imu_i2c.c   ****                         
 495:.\imu_i2c.c   **** 							
 496:.\imu_i2c.c   **** 							// temperatur read out : its die temeratur so not used
 497:.\imu_i2c.c   ****                             
 498:.\imu_i2c.c   ****                             // gyro meter calculation
 499:.\imu_i2c.c   ****                             InBuffer[0]=(Gyro_Temp_Acc_Read_Data[8]<<8)|Gyro_Temp_Acc_Read_Data[9];
 500:.\imu_i2c.c   **** 							InBuffer[1]=(Gyro_Temp_Acc_Read_Data[10]<<8)|Gyro_Temp_Acc_Read_Data[11];
 501:.\imu_i2c.c   **** 							InBuffer[2]=(Gyro_Temp_Acc_Read_Data[12]<<8)|Gyro_Temp_Acc_Read_Data[13];
 502:.\imu_i2c.c   **** 					        for( i = 0; i < 3; i ++)	
 503:.\imu_i2c.c   ****     						   {
 504:.\imu_i2c.c   ****     							  MPU9250_CalAvgValue(&MPU9250_Filter_Gyro[i].Index, MPU9250_Filter_Gyro[i].AvgBuffer, I
 505:.\imu_i2c.c   ****     						   }
 506:.\imu_i2c.c   ****                         
 507:.\imu_i2c.c   **** 							gyro[0] = *(OutBuffer + 0) - MPU9250_Offset.X;
 508:.\imu_i2c.c   **** 							gyro[1] = *(OutBuffer + 1) - MPU9250_Offset.Y;
 509:.\imu_i2c.c   **** 							gyro[2] = *(OutBuffer + 2) - MPU9250_Offset.Z;
 510:.\imu_i2c.c   ****                             
 511:.\imu_i2c.c   ****                            st_Read=READ_MAG;
 512:.\imu_i2c.c   ****                            
 513:.\imu_i2c.c   **** 						}
 514:.\imu_i2c.c   **** 					 break;
 515:.\imu_i2c.c   ****            
 516:.\imu_i2c.c   **** 				case READ_MAG: 
 517:.\imu_i2c.c   **** 					if(I2C_READ(MAG_ADDRESS,0x00, &Mag_Read_Data[0], 1)) 
 518:.\imu_i2c.c   ****                     //if(I2C_READ(MAG_ADDRESS,Mag_Reg[0], &Mag_Read_Data[0], 7))  // read all gyro 
 519:.\imu_i2c.c   **** 					{				
 520:.\imu_i2c.c   ****                          st_Read=CALC_MAG;  
 521:.\imu_i2c.c   **** 					}
 522:.\imu_i2c.c   **** 					break;
 523:.\imu_i2c.c   **** 				case CALC_MAG: 
 524:.\imu_i2c.c   **** 					if(stI2CMgr==IDLE)	             
 525:.\imu_i2c.c   **** 					   {
 526:.\imu_i2c.c   **** 							if(Mag_Read_Data[6] & AK8963_STATUS_2_HOFL_BIT)
 527:.\imu_i2c.c   ****                             {
 528:.\imu_i2c.c   ****                              //Magnetic sensor overflow occurred print   
 529:.\imu_i2c.c   ****                             }
 530:.\imu_i2c.c   ****                             InBuffer[1]=(Mag_Read_Data[1]<<8)|Mag_Read_Data[0];   // byte seq is di
 531:.\imu_i2c.c   **** 							InBuffer[0]=(Mag_Read_Data[3]<<8)|Mag_Read_Data[2];
 532:.\imu_i2c.c   **** 							InBuffer[2]=-((Mag_Read_Data[5]<<8)|Mag_Read_Data[4]);
 533:.\imu_i2c.c   **** 					
 534:.\imu_i2c.c   **** 							 for( i = 0; i < 3; i ++)	
 535:.\imu_i2c.c   **** 							{
 536:.\imu_i2c.c   **** 								MPU9250_CalAvgValue(&MPU9250_Filter_Mag[i].Index, MPU9250_Filter_Mag[i].AvgBuffer, InBuffer
 537:.\imu_i2c.c   **** 							} 
 538:.\imu_i2c.c   **** 							magn[0] = *(OutBuffer + 0)-MPU9250_Magn_Offset.X_Off_Err;
 539:.\imu_i2c.c   **** 							magn[1] = *(OutBuffer + 1)-MPU9250_Magn_Offset.Y_Off_Err;  // TODO check what it is
 540:.\imu_i2c.c   **** 							magn[2] = *(OutBuffer + 2)-MPU9250_Magn_Offset.Z_Off_Err;
 541:.\imu_i2c.c   **** 							st_Read=SEL_TEMP;
 542:.\imu_i2c.c   **** 						}
 543:.\imu_i2c.c   **** 					  break;
 544:.\imu_i2c.c   **** 			   // altitube measurment sensor
 545:.\imu_i2c.c   **** 			   case SEL_TEMP: ///TODO:  temperature measurment 1 reading per second is enough 
 546:.\imu_i2c.c   **** 					if(I2C_WRITE(BMP180_ADDR, &Alt_Calib_Data[0][0],2))  // CONTROL,READ_TEMPERATURE 
 547:.\imu_i2c.c   **** 					{
 548:.\imu_i2c.c   **** 							st_Read=READ_TEMP;
 549:.\imu_i2c.c   **** 					}
 550:.\imu_i2c.c   **** 					break;
ARM GAS  C:\Users\acer\AppData\Local\Temp\ccmxYZNb.s 			page 16


 551:.\imu_i2c.c   **** 				case READ_TEMP: 
 552:.\imu_i2c.c   ****                    
 553:.\imu_i2c.c   **** 					/*if(I2C_READ(BMP180_ADDR,test_1, &Alt_Read_Data[0][0],1))
 554:.\imu_i2c.c   **** 					{
 555:.\imu_i2c.c   ****                         // read pressure
 556:.\imu_i2c.c   **** 					   st_Read=CALC_TEMP;
 557:.\imu_i2c.c   ****                     }*/
 558:.\imu_i2c.c   ****                     
 559:.\imu_i2c.c   **** 					if(I2C_READ(BMP180_ADDR,CONTROL_OUTPUT, &Alt_Read_Data[0][0],2))
 560:.\imu_i2c.c   **** 					{
 561:.\imu_i2c.c   **** 					   // read pressure
 562:.\imu_i2c.c   **** 					   st_Read=CALC_TEMP;
 563:.\imu_i2c.c   **** 					}
 564:.\imu_i2c.c   **** 						
 565:.\imu_i2c.c   **** 					  break;
 566:.\imu_i2c.c   **** 				case CALC_TEMP:
 567:.\imu_i2c.c   **** 				       if(stI2CMgr==IDLE)	               
 568:.\imu_i2c.c   **** 					   {
 569:.\imu_i2c.c   **** 					     UT = ((_UINT32)Alt_Read_Data[0][0] << 8) + (_UINT32)Alt_Read_Data[0][1]; 
 570:.\imu_i2c.c   **** 					     st_Read=SEL_PRES;
 571:.\imu_i2c.c   **** 					   }
 572:.\imu_i2c.c   **** 					   break;
 573:.\imu_i2c.c   **** 				case SEL_PRES:
 574:.\imu_i2c.c   **** 				                         //BMP180_WriteReg(CONTROL, READ_PRESSURE + (_oss << 6)); 
 575:.\imu_i2c.c   **** 					if(I2C_WRITE(BMP180_ADDR, &Alt_Calib_Data[1][0],2))  // CONTROL,READ_TEMPERATURE 
 576:.\imu_i2c.c   **** 						{
 577:.\imu_i2c.c   **** 								st_Read=READ_PRES;
 578:.\imu_i2c.c   **** 						}
 579:.\imu_i2c.c   **** 						break;
 580:.\imu_i2c.c   **** 				
 581:.\imu_i2c.c   **** 				case READ_PRES:
 582:.\imu_i2c.c   **** 				     
 583:.\imu_i2c.c   **** 					if(I2C_READ(BMP180_ADDR, CONTROL_OUTPUT, &Alt_Read_Data[1][0],3))  // BMP180_ReadReg(CONTROL_O
 584:.\imu_i2c.c   **** 					{
 585:.\imu_i2c.c   **** 					   // read pressure
 586:.\imu_i2c.c   **** 					   st_Read=CALC_PRES;
 587:.\imu_i2c.c   **** 					}
 588:.\imu_i2c.c   **** 					break;
 589:.\imu_i2c.c   **** 				case CALC_PRES : 
 590:.\imu_i2c.c   **** 			        if(stI2CMgr==IDLE)	               
 591:.\imu_i2c.c   **** 					   
 592:.\imu_i2c.c   **** 					{
 593:.\imu_i2c.c   **** 					    UP = (((_UINT32)Alt_Read_Data[1][0] << 16) + ((_UINT32)Alt_Read_Data[1][1] << 8) + ((_UINT
 594:.\imu_i2c.c   **** 					    
 595:.\imu_i2c.c   ****                         BMP180_CalculateTruePressure(&PVal);
 596:.\imu_i2c.c   **** 						BMP180_CalAvgValue(&BMP180_Filter[0].Index, BMP180_Filter[0].AvgBuffer, PVal - PRESSURE_OFFSE
 597:.\imu_i2c.c   **** 
 598:.\imu_i2c.c   **** 						BMP180_CalculateAbsoluteAltitude(&AVal, PVal - PRESSURE_OFFSET);
 599:.\imu_i2c.c   **** 						BMP180_CalAvgValue(&BMP180_Filter[1].Index, BMP180_Filter[1].AvgBuffer, AVal, &AltitudeVal);
 600:.\imu_i2c.c   **** 
 601:.\imu_i2c.c   **** 						BMP180_CalculateTrueTemperature(&TVal);
 602:.\imu_i2c.c   **** 						BMP180_CalAvgValue(&BMP180_Filter[2].Index, BMP180_Filter[2].AvgBuffer, TVal, &TemperatureVal
 603:.\imu_i2c.c   **** 						
 604:.\imu_i2c.c   **** 						// do all angle measurments
 605:.\imu_i2c.c   **** 						MotionVal[0]=gyro[0]/32.8;
 606:.\imu_i2c.c   **** 						MotionVal[1]=gyro[1]/32.8;
 607:.\imu_i2c.c   **** 						MotionVal[2]=gyro[2]/32.8;  // as sensitivity of gyro is selected as 32.8 
ARM GAS  C:\Users\acer\AppData\Local\Temp\ccmxYZNb.s 			page 17


 608:.\imu_i2c.c   ****                         
 609:.\imu_i2c.c   ****                        // rawvalue_16*1000/32767 = deg/sec 
 610:.\imu_i2c.c   ****                         
 611:.\imu_i2c.c   **** 						MotionVal[3]=accel[0];
 612:.\imu_i2c.c   **** 						MotionVal[4]=accel[1];
 613:.\imu_i2c.c   **** 						MotionVal[5]=accel[2];
 614:.\imu_i2c.c   ****                         
 615:.\imu_i2c.c   ****                        // rawvalue_16*2/32767 = g 
 616:.\imu_i2c.c   ****                         
 617:.\imu_i2c.c   **** 						MotionVal[6]=magn[0];
 618:.\imu_i2c.c   **** 						MotionVal[7]=magn[1];
 619:.\imu_i2c.c   **** 						MotionVal[8]=magn[2];
 620:.\imu_i2c.c   **** 						
 621:.\imu_i2c.c   **** 						IMU_AHRSupdate((float)MotionVal[0] * 0.0175, (float)MotionVal[1] * 0.0175, (float)MotionVal[2
 622:.\imu_i2c.c   **** 						(float)MotionVal[3], (float)MotionVal[4], (float)MotionVal[5], (float)MotionVal[6], (float)Mo
 623:.\imu_i2c.c   **** 						
 624:.\imu_i2c.c   **** 						// calculate angles
 625:.\imu_i2c.c   **** 						angles[1] = asin(-2 * q1 * q3 + 2 * q0* q2)* 57.3; // pitch
 626:.\imu_i2c.c   **** 						angles[2] = atan2(2 * q2 * q3 + 2 * q0 * q1, -2 * q1 * q1 - 2 * q2* q2 + 1)* 57.3; // roll
 627:.\imu_i2c.c   **** 						angles[0] = atan2(-2 * q1 * q2 - 2 * q0 * q3, 2 * q2 * q2 + 2 * q3 * q3 - 1) * 57.3;   
 628:.\imu_i2c.c   **** 						
 629:.\imu_i2c.c   ****                         // repet the process
 630:.\imu_i2c.c   ****                         st_Read=READ_GYRO;
 631:.\imu_i2c.c   **** 
 632:.\imu_i2c.c   **** 					}
 633:.\imu_i2c.c   **** 	
 634:.\imu_i2c.c   ****   	
 635:.\imu_i2c.c   **** 				break;
 636:.\imu_i2c.c   ****              case IDLE:
 637:.\imu_i2c.c   ****              default : break;      
 638:.\imu_i2c.c   **** 			}						
 639:.\imu_i2c.c   **** }
 640:.\imu_i2c.c   ****   
 641:.\imu_i2c.c   **** /**
 642:.\imu_i2c.c   ****   * @brief  Digital filter
 643:.\imu_i2c.c   ****   * @param *pIndex:
 644:.\imu_i2c.c   ****   * @param *pAvgBuffer:
 645:.\imu_i2c.c   ****   * @param InVal:
 646:.\imu_i2c.c   ****   * @param pOutVal:
 647:.\imu_i2c.c   ****   *
 648:.\imu_i2c.c   ****   * @retval None
 649:.\imu_i2c.c   ****   *               
 650:.\imu_i2c.c   ****   */
 651:.\imu_i2c.c   **** void MPU9250_CalAvgValue(_UINT8 *pIndex, _SINT16 *pAvgBuffer, _SINT16 InVal, _SINT32 *pOutVal)
 652:.\imu_i2c.c   **** {	
 299              		.loc 1 652 0
 300              		.cfi_startproc
 301              		@ args = 0, pretend = 0, frame = 0
 302              		@ frame_needed = 0, uses_anonymous_args = 0
 303              	.LVL17:
 304 0000 30B5     		push	{r4, r5, lr}
 305              		.cfi_def_cfa_offset 12
 306              		.cfi_offset 4, -12
 307              		.cfi_offset 5, -8
 308              		.cfi_offset 14, -4
 653:.\imu_i2c.c   **** 	uint8_t i;
 654:.\imu_i2c.c   **** 	
ARM GAS  C:\Users\acer\AppData\Local\Temp\ccmxYZNb.s 			page 18


 655:.\imu_i2c.c   **** 	*(pAvgBuffer + ((*pIndex) ++)) = InVal;
 309              		.loc 1 655 0
 310 0002 0478     		ldrb	r4, [r0]	@ zero_extendqisi2
 311 0004 651C     		adds	r5, r4, #1
 312 0006 0570     		strb	r5, [r0]
 313 0008 21F81420 		strh	r2, [r1, r4, lsl #1]	@ movhi
 656:.\imu_i2c.c   ****     // pAvgBuffer[pIndex[0]]=InVal;
 657:.\imu_i2c.c   ****     // pIndex[0]++;
 658:.\imu_i2c.c   ****     
 659:.\imu_i2c.c   ****   	*pIndex &= 0x07;  // pIndex[0]=pIndex[0] & 0x07;
 314              		.loc 1 659 0
 315 000c 0278     		ldrb	r2, [r0]	@ zero_extendqisi2
 316              	.LVL18:
 317 000e 02F00702 		and	r2, r2, #7
 318 0012 0270     		strb	r2, [r0]
 319              	.LVL19:
 320 0014 881E     		subs	r0, r1, #2
 321              	.LVL20:
 322 0016 0022     		movs	r2, #0
 323 0018 0E31     		adds	r1, r1, #14
 324              	.LVL21:
 325              	.L37:
 660:.\imu_i2c.c   ****   	
 661:.\imu_i2c.c   ****   	*pOutVal = 0;
 662:.\imu_i2c.c   **** 	for(i = 0; i < 8; i ++) 
 663:.\imu_i2c.c   ****   	{
 664:.\imu_i2c.c   ****     	*pOutVal += *(pAvgBuffer + i); ////      pOutVal[0]=pOutVal[0] + pAvgBuffer[i];
 326              		.loc 1 664 0 discriminator 3
 327 001a 30F9024F 		ldrsh	r4, [r0, #2]!
 662:.\imu_i2c.c   ****   	{
 328              		.loc 1 662 0 discriminator 3
 329 001e 8842     		cmp	r0, r1
 330              		.loc 1 664 0 discriminator 3
 331 0020 2244     		add	r2, r2, r4
 662:.\imu_i2c.c   ****   	{
 332              		.loc 1 662 0 discriminator 3
 333 0022 FAD1     		bne	.L37
 665:.\imu_i2c.c   ****         
 666:.\imu_i2c.c   ****   	}
 667:.\imu_i2c.c   ****   	*pOutVal >>= 3; //pOutVal[0]=pOutVal[0] >> 3;
 334              		.loc 1 667 0
 335 0024 D210     		asrs	r2, r2, #3
 336 0026 1A60     		str	r2, [r3]
 337 0028 30BD     		pop	{r4, r5, pc}
 338              		.cfi_endproc
 339              	.LFE5:
 340              		.size	MPU9250_CalAvgValue, .-MPU9250_CalAvgValue
 341              		.global	__aeabi_fmul
 342              		.global	__aeabi_fsub
 343              		.section	.text.invSqrt,"ax",%progbits
 344              		.align	1
 345              		.global	invSqrt
 346              		.thumb
 347              		.thumb_func
 348              		.type	invSqrt, %function
 349              	invSqrt:
 350              	.LFB6:
ARM GAS  C:\Users\acer\AppData\Local\Temp\ccmxYZNb.s 			page 19


 668:.\imu_i2c.c   **** }
 669:.\imu_i2c.c   **** // IMU APllication layer
 670:.\imu_i2c.c   **** //_SINT16 accel[3], gyro[3];
 671:.\imu_i2c.c   **** 
 672:.\imu_i2c.c   **** 
 673:.\imu_i2c.c   **** 
 674:.\imu_i2c.c   **** /**
 675:.\imu_i2c.c   ****   * @brief  invSqrt
 676:.\imu_i2c.c   ****   * @param  
 677:.\imu_i2c.c   ****   * @retval 
 678:.\imu_i2c.c   ****   */
 679:.\imu_i2c.c   **** 
 680:.\imu_i2c.c   **** float invSqrt(float x) 
 681:.\imu_i2c.c   **** {
 351              		.loc 1 681 0
 352              		.cfi_startproc
 353              		@ args = 0, pretend = 0, frame = 0
 354              		@ frame_needed = 0, uses_anonymous_args = 0
 355              	.LVL22:
 356 0000 10B5     		push	{r4, lr}
 357              		.cfi_def_cfa_offset 8
 358              		.cfi_offset 4, -8
 359              		.cfi_offset 14, -4
 682:.\imu_i2c.c   **** 	float halfx = 0.5f * x;
 683:.\imu_i2c.c   **** 	float y = x;
 684:.\imu_i2c.c   **** 	
 685:.\imu_i2c.c   **** 	//long i = *(long*)&y;                //get bits for floating value
 686:.\imu_i2c.c   **** 	long i = (union { float f; long l; }) {y} .l;
 687:.\imu_i2c.c   ****     
 688:.\imu_i2c.c   ****     i = 0x5f3759df - (i >> 1);          //gives initial guss you
 689:.\imu_i2c.c   **** 	
 690:.\imu_i2c.c   ****     //y = *(float*)&i;                    //convert bits back to float
 691:.\imu_i2c.c   **** 	y = (union { long l; float f; }) {i} .f;
 360              		.loc 1 691 0
 361 0002 0B4C     		ldr	r4, .L40
 682:.\imu_i2c.c   **** 	float halfx = 0.5f * x;
 362              		.loc 1 682 0
 363 0004 4FF07C51 		mov	r1, #1056964608
 364              		.loc 1 691 0
 365 0008 A4EB6004 		sub	r4, r4, r0, asr #1
 366              	.LVL23:
 682:.\imu_i2c.c   **** 	float halfx = 0.5f * x;
 367              		.loc 1 682 0
 368 000c FFF7FEFF 		bl	__aeabi_fmul
 369              	.LVL24:
 692:.\imu_i2c.c   ****     y = y * (1.5f - (halfx * y * y));   //newtop step, repeating increases accuracy
 370              		.loc 1 692 0
 371 0010 2146     		mov	r1, r4
 372 0012 FFF7FEFF 		bl	__aeabi_fmul
 373              	.LVL25:
 374 0016 2146     		mov	r1, r4
 375 0018 FFF7FEFF 		bl	__aeabi_fmul
 376              	.LVL26:
 377 001c 0146     		mov	r1, r0
 378 001e 4FF07F50 		mov	r0, #1069547520
 379 0022 FFF7FEFF 		bl	__aeabi_fsub
 380              	.LVL27:
ARM GAS  C:\Users\acer\AppData\Local\Temp\ccmxYZNb.s 			page 20


 381 0026 0146     		mov	r1, r0
 382              	.LVL28:
 383 0028 2046     		mov	r0, r4
 384              	.LVL29:
 385 002a FFF7FEFF 		bl	__aeabi_fmul
 386              	.LVL30:
 693:.\imu_i2c.c   **** 	
 694:.\imu_i2c.c   **** 	return y;
 695:.\imu_i2c.c   **** }
 387              		.loc 1 695 0
 388 002e 10BD     		pop	{r4, pc}
 389              	.LVL31:
 390              	.L41:
 391              		.align	2
 392              	.L40:
 393 0030 DF59375F 		.word	1597463007
 394              		.cfi_endproc
 395              	.LFE6:
 396              		.size	invSqrt, .-invSqrt
 397              		.global	__aeabi_fadd
 398              		.global	__aeabi_f2d
 399              		.global	__aeabi_d2f
 400              		.global	__aeabi_dsub
 401              		.global	__aeabi_dmul
 402              		.global	__aeabi_dadd
 403              		.global	__aeabi_fcmpeq
 404              		.section	.text.IMU_AHRSupdate,"ax",%progbits
 405              		.align	1
 406              		.global	IMU_AHRSupdate
 407              		.thumb
 408              		.thumb_func
 409              		.type	IMU_AHRSupdate, %function
 410              	IMU_AHRSupdate:
 411              	.LFB7:
 696:.\imu_i2c.c   **** 
 697:.\imu_i2c.c   **** 
 698:.\imu_i2c.c   **** /**
 699:.\imu_i2c.c   ****   * @brief  Updata attitude and heading 
 700:.\imu_i2c.c   ****   * @param  ax: accelerometer X
 701:.\imu_i2c.c   ****   * @param  ay: accelerometer Y
 702:.\imu_i2c.c   ****   * @param  az: accelerometer Z
 703:.\imu_i2c.c   ****   * @param  gx: gyroscopes X
 704:.\imu_i2c.c   ****   * @param  gy: gyroscopes Y
 705:.\imu_i2c.c   ****   * @param  gz: gyroscopes Z
 706:.\imu_i2c.c   ****   * @param  mx: magnetometer X
 707:.\imu_i2c.c   ****   * @param  my: magnetometer Y
 708:.\imu_i2c.c   ****   * @param  mz: magnetometer Z
 709:.\imu_i2c.c   ****   * @retval None
 710:.\imu_i2c.c   ****   */
 711:.\imu_i2c.c   **** void IMU_AHRSupdate(float gx, float gy, float gz, float ax, float ay, float az, float mx, float my,
 712:.\imu_i2c.c   **** {
 412              		.loc 1 712 0
 413              		.cfi_startproc
 414              		@ args = 20, pretend = 0, frame = 96
 415              		@ frame_needed = 0, uses_anonymous_args = 0
 416              	.LVL32:
 417 0000 2DE9F04F 		push	{r4, r5, r6, r7, r8, r9, r10, fp, lr}
ARM GAS  C:\Users\acer\AppData\Local\Temp\ccmxYZNb.s 			page 21


 418              		.cfi_def_cfa_offset 36
 419              		.cfi_offset 4, -36
 420              		.cfi_offset 5, -32
 421              		.cfi_offset 6, -28
 422              		.cfi_offset 7, -24
 423              		.cfi_offset 8, -20
 424              		.cfi_offset 9, -16
 425              		.cfi_offset 10, -12
 426              		.cfi_offset 11, -8
 427              		.cfi_offset 14, -4
 713:.\imu_i2c.c   **** 	float norm;
 714:.\imu_i2c.c   **** 	float hx, hy, hz, bx, bz;
 715:.\imu_i2c.c   **** 	float vx, vy, vz, wx, wy, wz;
 716:.\imu_i2c.c   **** 	float exInt = 0.0, eyInt = 0.0, ezInt = 0.0;
 717:.\imu_i2c.c   **** 	float ex, ey, ez, halfT = 0.024f;
 718:.\imu_i2c.c   **** 
 719:.\imu_i2c.c   **** 	float q0q0 = q0 * q0;
 428              		.loc 1 719 0
 429 0004 DFF8D4B2 		ldr	fp, .L50+8
 712:.\imu_i2c.c   **** 	float norm;
 430              		.loc 1 712 0
 431 0008 99B0     		sub	sp, sp, #100
 432              		.cfi_def_cfa_offset 136
 712:.\imu_i2c.c   **** 	float norm;
 433              		.loc 1 712 0
 434 000a 0190     		str	r0, [sp, #4]	@ float
 435 000c 0291     		str	r1, [sp, #8]	@ float
 436              		.loc 1 719 0
 437 000e DBF80000 		ldr	r0, [fp]	@ float
 438              	.LVL33:
 439 0012 DBF80010 		ldr	r1, [fp]	@ float
 440              	.LVL34:
 712:.\imu_i2c.c   **** 	float norm;
 441              		.loc 1 712 0
 442 0016 0392     		str	r2, [sp, #12]	@ float
 443 0018 0893     		str	r3, [sp, #32]	@ float
 444              		.loc 1 719 0
 445 001a FFF7FEFF 		bl	__aeabi_fmul
 446              	.LVL35:
 720:.\imu_i2c.c   **** 	float q0q1 = q0 * q1;
 447              		.loc 1 720 0
 448 001e DFF8C092 		ldr	r9, .L50+12
 719:.\imu_i2c.c   **** 	float q0q1 = q0 * q1;
 449              		.loc 1 719 0
 450 0022 1590     		str	r0, [sp, #84]	@ float
 451              	.LVL36:
 452              		.loc 1 720 0
 453 0024 DBF80000 		ldr	r0, [fp]	@ float
 454              	.LVL37:
 455 0028 D9F80010 		ldr	r1, [r9]	@ float
 456 002c FFF7FEFF 		bl	__aeabi_fmul
 457              	.LVL38:
 721:.\imu_i2c.c   **** 	float q0q2 = q0 * q2;
 458              		.loc 1 721 0
 459 0030 A84C     		ldr	r4, .L50
 720:.\imu_i2c.c   **** 	float q0q1 = q0 * q1;
 460              		.loc 1 720 0
ARM GAS  C:\Users\acer\AppData\Local\Temp\ccmxYZNb.s 			page 22


 461 0032 0C90     		str	r0, [sp, #48]	@ float
 462              	.LVL39:
 463              		.loc 1 721 0
 464 0034 DBF80000 		ldr	r0, [fp]	@ float
 465              	.LVL40:
 466 0038 2168     		ldr	r1, [r4]	@ float
 467 003a FFF7FEFF 		bl	__aeabi_fmul
 468              	.LVL41:
 722:.\imu_i2c.c   **** 	float q0q3 = q0 * q3;
 469              		.loc 1 722 0
 470 003e A64E     		ldr	r6, .L50+4
 721:.\imu_i2c.c   **** 	float q0q2 = q0 * q2;
 471              		.loc 1 721 0
 472 0040 0A90     		str	r0, [sp, #40]	@ float
 473              	.LVL42:
 474              		.loc 1 722 0
 475 0042 DBF80000 		ldr	r0, [fp]	@ float
 476              	.LVL43:
 477 0046 3168     		ldr	r1, [r6]	@ float
 478 0048 FFF7FEFF 		bl	__aeabi_fmul
 479              	.LVL44:
 480 004c 0F90     		str	r0, [sp, #60]	@ float
 481              	.LVL45:
 723:.\imu_i2c.c   **** 	float q1q1 = q1 * q1;
 482              		.loc 1 723 0
 483 004e D9F80000 		ldr	r0, [r9]	@ float
 484              	.LVL46:
 485 0052 D9F80010 		ldr	r1, [r9]	@ float
 486 0056 FFF7FEFF 		bl	__aeabi_fmul
 487              	.LVL47:
 488 005a 0B90     		str	r0, [sp, #44]	@ float
 489              	.LVL48:
 724:.\imu_i2c.c   **** 	float q1q2 = q1 * q2;
 490              		.loc 1 724 0
 491 005c D9F80000 		ldr	r0, [r9]	@ float
 492              	.LVL49:
 493 0060 2168     		ldr	r1, [r4]	@ float
 494 0062 FFF7FEFF 		bl	__aeabi_fmul
 495              	.LVL50:
 496 0066 8046     		mov	r8, r0
 497              	.LVL51:
 725:.\imu_i2c.c   **** 	float q1q3 = q1 * q3;
 498              		.loc 1 725 0
 499 0068 D9F80000 		ldr	r0, [r9]	@ float
 500              	.LVL52:
 501 006c 3168     		ldr	r1, [r6]	@ float
 502 006e FFF7FEFF 		bl	__aeabi_fmul
 503              	.LVL53:
 504 0072 1090     		str	r0, [sp, #64]	@ float
 505              	.LVL54:
 726:.\imu_i2c.c   **** 	float q2q2 = q2 * q2;   
 506              		.loc 1 726 0
 507 0074 2068     		ldr	r0, [r4]	@ float
 508              	.LVL55:
 509 0076 2168     		ldr	r1, [r4]	@ float
 510 0078 FFF7FEFF 		bl	__aeabi_fmul
 511              	.LVL56:
ARM GAS  C:\Users\acer\AppData\Local\Temp\ccmxYZNb.s 			page 23


 512 007c 0546     		mov	r5, r0
 513              	.LVL57:
 727:.\imu_i2c.c   **** 	float q2q3 = q2 * q3;
 514              		.loc 1 727 0
 515 007e 2068     		ldr	r0, [r4]	@ float
 516              	.LVL58:
 517 0080 3168     		ldr	r1, [r6]	@ float
 518 0082 FFF7FEFF 		bl	__aeabi_fmul
 519              	.LVL59:
 520 0086 0446     		mov	r4, r0
 521              	.LVL60:
 728:.\imu_i2c.c   **** 	float q3q3 = q3 * q3;          
 522              		.loc 1 728 0
 523 0088 3068     		ldr	r0, [r6]	@ float
 524              	.LVL61:
 525 008a 3168     		ldr	r1, [r6]	@ float
 526 008c FFF7FEFF 		bl	__aeabi_fmul
 527              	.LVL62:
 528 0090 0490     		str	r0, [sp, #16]	@ float
 529              	.LVL63:
 729:.\imu_i2c.c   **** 
 730:.\imu_i2c.c   **** 	norm = invSqrt(ax * ax + ay * ay + az * az);       
 530              		.loc 1 730 0
 531 0092 0898     		ldr	r0, [sp, #32]	@ float
 532              	.LVL64:
 533 0094 0146     		mov	r1, r0
 534 0096 FFF7FEFF 		bl	__aeabi_fmul
 535              	.LVL65:
 536 009a 0646     		mov	r6, r0
 537 009c 2298     		ldr	r0, [sp, #136]	@ float
 538 009e 0146     		mov	r1, r0
 539 00a0 FFF7FEFF 		bl	__aeabi_fmul
 540              	.LVL66:
 541 00a4 0146     		mov	r1, r0
 542 00a6 3046     		mov	r0, r6
 543 00a8 FFF7FEFF 		bl	__aeabi_fadd
 544              	.LVL67:
 545 00ac 0646     		mov	r6, r0
 546 00ae 2398     		ldr	r0, [sp, #140]	@ float
 547 00b0 0146     		mov	r1, r0
 548 00b2 FFF7FEFF 		bl	__aeabi_fmul
 549              	.LVL68:
 550 00b6 0146     		mov	r1, r0
 551 00b8 3046     		mov	r0, r6
 552 00ba FFF7FEFF 		bl	__aeabi_fadd
 553              	.LVL69:
 554 00be FFF7FEFF 		bl	invSqrt
 555              	.LVL70:
 556 00c2 8446     		mov	ip, r0
 557              	.LVL71:
 731:.\imu_i2c.c   **** 	ax = ax * norm;
 732:.\imu_i2c.c   **** 	ay = ay * norm;
 558              		.loc 1 732 0
 559 00c4 2298     		ldr	r0, [sp, #136]	@ float
 560              	.LVL72:
 561 00c6 6146     		mov	r1, ip
 562 00c8 CDF814C0 		str	ip, [sp, #20]
ARM GAS  C:\Users\acer\AppData\Local\Temp\ccmxYZNb.s 			page 24


 563 00cc FFF7FEFF 		bl	__aeabi_fmul
 564              	.LVL73:
 733:.\imu_i2c.c   **** 	az = az * norm;
 565              		.loc 1 733 0
 566 00d0 DDF814C0 		ldr	ip, [sp, #20]
 732:.\imu_i2c.c   **** 	az = az * norm;
 567              		.loc 1 732 0
 568 00d4 1190     		str	r0, [sp, #68]	@ float
 569              	.LVL74:
 570              		.loc 1 733 0
 571 00d6 6146     		mov	r1, ip
 572 00d8 2398     		ldr	r0, [sp, #140]	@ float
 573              	.LVL75:
 574 00da CDF85CC0 		str	ip, [sp, #92]
 575 00de FFF7FEFF 		bl	__aeabi_fmul
 576              	.LVL76:
 577 00e2 1290     		str	r0, [sp, #72]	@ float
 578              	.LVL77:
 734:.\imu_i2c.c   **** 
 735:.\imu_i2c.c   **** 	norm = invSqrt(mx * mx + my * my + mz * mz);          
 579              		.loc 1 735 0
 580 00e4 2498     		ldr	r0, [sp, #144]	@ float
 581              	.LVL78:
 582 00e6 0146     		mov	r1, r0
 583 00e8 FFF7FEFF 		bl	__aeabi_fmul
 584              	.LVL79:
 585 00ec 0646     		mov	r6, r0
 586 00ee 2598     		ldr	r0, [sp, #148]	@ float
 587 00f0 0146     		mov	r1, r0
 588 00f2 FFF7FEFF 		bl	__aeabi_fmul
 589              	.LVL80:
 590 00f6 0146     		mov	r1, r0
 591 00f8 3046     		mov	r0, r6
 592 00fa FFF7FEFF 		bl	__aeabi_fadd
 593              	.LVL81:
 594 00fe 0646     		mov	r6, r0
 595 0100 2698     		ldr	r0, [sp, #152]	@ float
 596 0102 0146     		mov	r1, r0
 597 0104 FFF7FEFF 		bl	__aeabi_fmul
 598              	.LVL82:
 599 0108 0146     		mov	r1, r0
 600 010a 3046     		mov	r0, r6
 601 010c FFF7FEFF 		bl	__aeabi_fadd
 602              	.LVL83:
 603 0110 FFF7FEFF 		bl	invSqrt
 604              	.LVL84:
 605 0114 0646     		mov	r6, r0
 606              	.LVL85:
 736:.\imu_i2c.c   **** 	mx = mx * norm;
 607              		.loc 1 736 0
 608 0116 2498     		ldr	r0, [sp, #144]	@ float
 609              	.LVL86:
 610 0118 3146     		mov	r1, r6
 611 011a FFF7FEFF 		bl	__aeabi_fmul
 612              	.LVL87:
 737:.\imu_i2c.c   **** 	my = my * norm;
 613              		.loc 1 737 0
ARM GAS  C:\Users\acer\AppData\Local\Temp\ccmxYZNb.s 			page 25


 614 011e 3146     		mov	r1, r6
 736:.\imu_i2c.c   **** 	mx = mx * norm;
 615              		.loc 1 736 0
 616 0120 0590     		str	r0, [sp, #20]	@ float
 617              	.LVL88:
 618              		.loc 1 737 0
 619 0122 2598     		ldr	r0, [sp, #148]	@ float
 620              	.LVL89:
 621 0124 FFF7FEFF 		bl	__aeabi_fmul
 622              	.LVL90:
 738:.\imu_i2c.c   **** 	mz = mz * norm;
 623              		.loc 1 738 0
 624 0128 3146     		mov	r1, r6
 737:.\imu_i2c.c   **** 	my = my * norm;
 625              		.loc 1 737 0
 626 012a 0690     		str	r0, [sp, #24]	@ float
 627              	.LVL91:
 628              		.loc 1 738 0
 629 012c 2698     		ldr	r0, [sp, #152]	@ float
 630              	.LVL92:
 631 012e FFF7FEFF 		bl	__aeabi_fmul
 632              	.LVL93:
 633 0132 0790     		str	r0, [sp, #28]	@ float
 634              	.LVL94:
 739:.\imu_i2c.c   **** 
 740:.\imu_i2c.c   **** 	// compute reference direction of flux
 741:.\imu_i2c.c   **** 	hx = 2 * mx * (0.5f - q2q2 - q3q3) + 2 * my * (q1q2 - q0q3) + 2 * mz * (q1q3 + q0q2);
 635              		.loc 1 741 0
 636 0134 0598     		ldr	r0, [sp, #20]	@ float
 637              	.LVL95:
 638 0136 0146     		mov	r1, r0
 639 0138 FFF7FEFF 		bl	__aeabi_fadd
 640              	.LVL96:
 641 013c 0E90     		str	r0, [sp, #56]	@ float
 642 013e 0698     		ldr	r0, [sp, #24]	@ float
 643 0140 0146     		mov	r1, r0
 644 0142 FFF7FEFF 		bl	__aeabi_fadd
 645              	.LVL97:
 646 0146 0F99     		ldr	r1, [sp, #60]	@ float
 647 0148 0746     		mov	r7, r0
 648 014a 4046     		mov	r0, r8
 649 014c FFF7FEFF 		bl	__aeabi_fsub
 650              	.LVL98:
 651 0150 1390     		str	r0, [sp, #76]	@ float
 652 0152 0798     		ldr	r0, [sp, #28]	@ float
 653 0154 0146     		mov	r1, r0
 654 0156 FFF7FEFF 		bl	__aeabi_fadd
 655              	.LVL99:
 656 015a 0A99     		ldr	r1, [sp, #40]	@ float
 657 015c 0646     		mov	r6, r0
 658              	.LVL100:
 659 015e 1098     		ldr	r0, [sp, #64]	@ float
 660 0160 FFF7FEFF 		bl	__aeabi_fadd
 661              	.LVL101:
 662 0164 2946     		mov	r1, r5
 663 0166 1490     		str	r0, [sp, #80]	@ float
 664 0168 4FF07C50 		mov	r0, #1056964608
ARM GAS  C:\Users\acer\AppData\Local\Temp\ccmxYZNb.s 			page 26


 665 016c FFF7FEFF 		bl	__aeabi_fsub
 666              	.LVL102:
 667 0170 0499     		ldr	r1, [sp, #16]	@ float
 668 0172 FFF7FEFF 		bl	__aeabi_fsub
 669              	.LVL103:
 670 0176 0146     		mov	r1, r0
 671 0178 0E98     		ldr	r0, [sp, #56]	@ float
 672 017a FFF7FEFF 		bl	__aeabi_fmul
 673              	.LVL104:
 674 017e 1399     		ldr	r1, [sp, #76]	@ float
 675 0180 8246     		mov	r10, r0
 676 0182 3846     		mov	r0, r7
 677 0184 FFF7FEFF 		bl	__aeabi_fmul
 678              	.LVL105:
 679 0188 0146     		mov	r1, r0
 680 018a 5046     		mov	r0, r10
 681 018c FFF7FEFF 		bl	__aeabi_fadd
 682              	.LVL106:
 683 0190 1499     		ldr	r1, [sp, #80]	@ float
 684 0192 8246     		mov	r10, r0
 685 0194 3046     		mov	r0, r6
 686 0196 FFF7FEFF 		bl	__aeabi_fmul
 687              	.LVL107:
 688 019a 0146     		mov	r1, r0
 689 019c 5046     		mov	r0, r10
 690 019e FFF7FEFF 		bl	__aeabi_fadd
 691              	.LVL108:
 742:.\imu_i2c.c   **** 	hy = 2 * mx * (q1q2 + q0q3) + 2 * my * (0.5f - q1q1 - q3q3) + 2 * mz * (q2q3 - q0q1);
 692              		.loc 1 742 0
 693 01a2 0B99     		ldr	r1, [sp, #44]	@ float
 741:.\imu_i2c.c   **** 	hy = 2 * mx * (q1q2 + q0q3) + 2 * my * (0.5f - q1q1 - q3q3) + 2 * mz * (q2q3 - q0q1);
 694              		.loc 1 741 0
 695 01a4 1690     		str	r0, [sp, #88]
 696              	.LVL109:
 697              		.loc 1 742 0
 698 01a6 4FF07C50 		mov	r0, #1056964608
 699 01aa FFF7FEFF 		bl	__aeabi_fsub
 700              	.LVL110:
 701 01ae 0F99     		ldr	r1, [sp, #60]	@ float
 702 01b0 8246     		mov	r10, r0
 703 01b2 4046     		mov	r0, r8
 704 01b4 FFF7FEFF 		bl	__aeabi_fadd
 705              	.LVL111:
 706 01b8 0146     		mov	r1, r0
 707 01ba 0E98     		ldr	r0, [sp, #56]	@ float
 708 01bc FFF7FEFF 		bl	__aeabi_fmul
 709              	.LVL112:
 710 01c0 0499     		ldr	r1, [sp, #16]	@ float
 711 01c2 8046     		mov	r8, r0
 712              	.LVL113:
 713 01c4 5046     		mov	r0, r10
 714 01c6 FFF7FEFF 		bl	__aeabi_fsub
 715              	.LVL114:
 716 01ca 0146     		mov	r1, r0
 717 01cc 3846     		mov	r0, r7
 718 01ce FFF7FEFF 		bl	__aeabi_fmul
 719              	.LVL115:
ARM GAS  C:\Users\acer\AppData\Local\Temp\ccmxYZNb.s 			page 27


 720 01d2 0146     		mov	r1, r0
 721 01d4 4046     		mov	r0, r8
 722 01d6 FFF7FEFF 		bl	__aeabi_fadd
 723              	.LVL116:
 724 01da 0C99     		ldr	r1, [sp, #48]	@ float
 725 01dc 8046     		mov	r8, r0
 726 01de 2046     		mov	r0, r4
 727 01e0 FFF7FEFF 		bl	__aeabi_fsub
 728              	.LVL117:
 729 01e4 0146     		mov	r1, r0
 730 01e6 3046     		mov	r0, r6
 731 01e8 FFF7FEFF 		bl	__aeabi_fmul
 732              	.LVL118:
 733 01ec 0146     		mov	r1, r0
 734 01ee 4046     		mov	r0, r8
 735 01f0 FFF7FEFF 		bl	__aeabi_fadd
 736              	.LVL119:
 743:.\imu_i2c.c   **** 	hz = 2 * mx * (q1q3 - q0q2) + 2 * my * (q2q3 + q0q1) + 2 * mz * (0.5f - q1q1 - q2q2);         
 737              		.loc 1 743 0
 738 01f4 0A99     		ldr	r1, [sp, #40]	@ float
 742:.\imu_i2c.c   **** 	hy = 2 * mx * (q1q2 + q0q3) + 2 * my * (0.5f - q1q1 - q3q3) + 2 * mz * (q2q3 - q0q1);
 739              		.loc 1 742 0
 740 01f6 0F90     		str	r0, [sp, #60]
 741              	.LVL120:
 742              		.loc 1 743 0
 743 01f8 1098     		ldr	r0, [sp, #64]	@ float
 744 01fa FFF7FEFF 		bl	__aeabi_fsub
 745              	.LVL121:
 746 01fe 0C99     		ldr	r1, [sp, #48]	@ float
 747 0200 0A90     		str	r0, [sp, #40]	@ float
 748              	.LVL122:
 749 0202 2046     		mov	r0, r4
 750 0204 FFF7FEFF 		bl	__aeabi_fadd
 751              	.LVL123:
 744:.\imu_i2c.c   **** 	bx = sqrt((hx * hx) + (hy * hy));
 752              		.loc 1 744 0
 753 0208 169A     		ldr	r2, [sp, #88]
 743:.\imu_i2c.c   **** 	hz = 2 * mx * (q1q3 - q0q2) + 2 * my * (q2q3 + q0q1) + 2 * mz * (0.5f - q1q1 - q2q2);         
 754              		.loc 1 743 0
 755 020a 0446     		mov	r4, r0
 756              	.LVL124:
 757              		.loc 1 744 0
 758 020c 1146     		mov	r1, r2
 759 020e 1046     		mov	r0, r2
 760              	.LVL125:
 761 0210 FFF7FEFF 		bl	__aeabi_fmul
 762              	.LVL126:
 763 0214 0F9B     		ldr	r3, [sp, #60]
 764 0216 8046     		mov	r8, r0
 765 0218 1946     		mov	r1, r3
 766 021a 1846     		mov	r0, r3
 767 021c FFF7FEFF 		bl	__aeabi_fmul
 768              	.LVL127:
 769 0220 0146     		mov	r1, r0
 770 0222 4046     		mov	r0, r8
 771 0224 FFF7FEFF 		bl	__aeabi_fadd
 772              	.LVL128:
ARM GAS  C:\Users\acer\AppData\Local\Temp\ccmxYZNb.s 			page 28


 773 0228 FFF7FEFF 		bl	__aeabi_f2d
 774              	.LVL129:
 775 022c FFF7FEFF 		bl	sqrt
 776              	.LVL130:
 777 0230 0246     		mov	r2, r0
 778 0232 0B46     		mov	r3, r1
 745:.\imu_i2c.c   **** 	bz = hz;     
 746:.\imu_i2c.c   **** 
 747:.\imu_i2c.c   **** 	// estimated direction of gravity and flux (v and w)
 748:.\imu_i2c.c   **** 	vx = 2 * (q1q3 - q0q2);
 749:.\imu_i2c.c   **** 	vy = 2 * (q0q1 + q2q3);
 779              		.loc 1 749 0
 780 0234 2046     		mov	r0, r4
 781 0236 2146     		mov	r1, r4
 744:.\imu_i2c.c   **** 	bx = sqrt((hx * hx) + (hy * hy));
 782              		.loc 1 744 0
 783 0238 CDE90C23 		strd	r2, [sp, #48]
 784              	.LVL131:
 785              		.loc 1 749 0
 786 023c FFF7FEFF 		bl	__aeabi_fadd
 787              	.LVL132:
 750:.\imu_i2c.c   **** 	vz = q0q0 - q1q1 - q2q2 + q3q3;
 788              		.loc 1 750 0
 789 0240 0B99     		ldr	r1, [sp, #44]	@ float
 749:.\imu_i2c.c   **** 	vz = q0q0 - q1q1 - q2q2 + q3q3;
 790              		.loc 1 749 0
 791 0242 0F90     		str	r0, [sp, #60]	@ float
 792              	.LVL133:
 793              		.loc 1 750 0
 794 0244 1598     		ldr	r0, [sp, #84]	@ float
 795              	.LVL134:
 796 0246 FFF7FEFF 		bl	__aeabi_fsub
 797              	.LVL135:
 798 024a 2946     		mov	r1, r5
 799 024c FFF7FEFF 		bl	__aeabi_fsub
 800              	.LVL136:
 801 0250 0499     		ldr	r1, [sp, #16]	@ float
 802 0252 FFF7FEFF 		bl	__aeabi_fadd
 803              	.LVL137:
 744:.\imu_i2c.c   **** 	bz = hz;     
 804              		.loc 1 744 0
 805 0256 DDE90C23 		ldrd	r2, [sp, #48]
 806              		.loc 1 750 0
 807 025a 1090     		str	r0, [sp, #64]	@ float
 808              	.LVL138:
 744:.\imu_i2c.c   **** 	bz = hz;     
 809              		.loc 1 744 0
 810 025c 1946     		mov	r1, r3
 811 025e 1046     		mov	r0, r2
 812              	.LVL139:
 813 0260 FFF7FEFF 		bl	__aeabi_d2f
 814              	.LVL140:
 751:.\imu_i2c.c   **** 	wx = 2 * bx * (0.5 - q2q2 - q3q3) + 2 * bz * (q1q3 - q0q2);
 815              		.loc 1 751 0
 816 0264 0146     		mov	r1, r0
 817 0266 FFF7FEFF 		bl	__aeabi_fadd
 818              	.LVL141:
ARM GAS  C:\Users\acer\AppData\Local\Temp\ccmxYZNb.s 			page 29


 819 026a 8046     		mov	r8, r0
 820 026c 2846     		mov	r0, r5
 821 026e FFF7FEFF 		bl	__aeabi_f2d
 822              	.LVL142:
 823 0272 CDE90C01 		strd	r0, [sp, #48]
 824              	.LVL143:
 743:.\imu_i2c.c   **** 	bx = sqrt((hx * hx) + (hy * hy));
 825              		.loc 1 743 0
 826 0276 0E98     		ldr	r0, [sp, #56]	@ float
 827 0278 0A99     		ldr	r1, [sp, #40]	@ float
 828 027a FFF7FEFF 		bl	__aeabi_fmul
 829              	.LVL144:
 830 027e 2146     		mov	r1, r4
 831 0280 0E90     		str	r0, [sp, #56]
 832              	.LVL145:
 833 0282 3846     		mov	r0, r7
 834 0284 FFF7FEFF 		bl	__aeabi_fmul
 835              	.LVL146:
 836 0288 0E9B     		ldr	r3, [sp, #56]
 837 028a 0146     		mov	r1, r0
 838 028c 1846     		mov	r0, r3
 839 028e FFF7FEFF 		bl	__aeabi_fadd
 840              	.LVL147:
 841 0292 2946     		mov	r1, r5
 842 0294 0746     		mov	r7, r0
 843 0296 5046     		mov	r0, r10
 844 0298 FFF7FEFF 		bl	__aeabi_fsub
 845              	.LVL148:
 846 029c 0146     		mov	r1, r0
 847 029e 3046     		mov	r0, r6
 848 02a0 FFF7FEFF 		bl	__aeabi_fmul
 849              	.LVL149:
 850 02a4 0146     		mov	r1, r0
 851 02a6 3846     		mov	r0, r7
 852 02a8 FFF7FEFF 		bl	__aeabi_fadd
 853              	.LVL150:
 854              		.loc 1 751 0
 855 02ac 0146     		mov	r1, r0
 856 02ae FFF7FEFF 		bl	__aeabi_fadd
 857              	.LVL151:
 752:.\imu_i2c.c   **** 	wy = 2 * bx * (q1q2 - q0q3) + 2 * bz * (q0q1 + q2q3);
 858              		.loc 1 752 0
 859 02b2 1399     		ldr	r1, [sp, #76]	@ float
 751:.\imu_i2c.c   **** 	wx = 2 * bx * (0.5 - q2q2 - q3q3) + 2 * bz * (q1q3 - q0q2);
 860              		.loc 1 751 0
 861 02b4 8246     		mov	r10, r0
 862              	.LVL152:
 863              		.loc 1 752 0
 864 02b6 4046     		mov	r0, r8
 865              	.LVL153:
 866 02b8 FFF7FEFF 		bl	__aeabi_fmul
 867              	.LVL154:
 868 02bc 2146     		mov	r1, r4
 869 02be 0546     		mov	r5, r0
 870              	.LVL155:
 871 02c0 5046     		mov	r0, r10
 872 02c2 FFF7FEFF 		bl	__aeabi_fmul
ARM GAS  C:\Users\acer\AppData\Local\Temp\ccmxYZNb.s 			page 30


 873              	.LVL156:
 874 02c6 0146     		mov	r1, r0
 875 02c8 2846     		mov	r0, r5
 876 02ca FFF7FEFF 		bl	__aeabi_fadd
 877              	.LVL157:
 753:.\imu_i2c.c   **** 	wz = 2 * bx * (q0q2 + q1q3) + 2 * bz * (0.5 - q1q1 - q2q2);  
 878              		.loc 1 753 0
 879 02ce 1499     		ldr	r1, [sp, #80]	@ float
 752:.\imu_i2c.c   **** 	wy = 2 * bx * (q1q2 - q0q3) + 2 * bz * (q0q1 + q2q3);
 880              		.loc 1 752 0
 881 02d0 0E90     		str	r0, [sp, #56]	@ float
 882 02d2 07E0     		b	.L51
 883              	.L52:
 884              		.align	2
 885              	.L50:
 886 02d4 00000000 		.word	q2
 887 02d8 00000000 		.word	q3
 888 02dc 00000000 		.word	q0
 889 02e0 00000000 		.word	q1
 890              	.L51:
 891              	.LVL158:
 892              		.loc 1 753 0
 893 02e4 4046     		mov	r0, r8
 894              	.LVL159:
 895 02e6 FFF7FEFF 		bl	__aeabi_fmul
 896              	.LVL160:
 897 02ea FFF7FEFF 		bl	__aeabi_f2d
 898              	.LVL161:
 899 02ee 0646     		mov	r6, r0
 900 02f0 5046     		mov	r0, r10
 901 02f2 0F46     		mov	r7, r1
 902 02f4 FFF7FEFF 		bl	__aeabi_f2d
 903              	.LVL162:
 904 02f8 0446     		mov	r4, r0
 905 02fa 0B98     		ldr	r0, [sp, #44]	@ float
 906 02fc 0D46     		mov	r5, r1
 907 02fe FFF7FEFF 		bl	__aeabi_f2d
 908              	.LVL163:
 909 0302 0246     		mov	r2, r0
 910 0304 0B46     		mov	r3, r1
 911 0306 0020     		movs	r0, #0
 912 0308 B049     		ldr	r1, .L53
 913 030a FFF7FEFF 		bl	__aeabi_dsub
 914              	.LVL164:
 915 030e DDE90C23 		ldrd	r2, [sp, #48]
 916 0312 FFF7FEFF 		bl	__aeabi_dsub
 917              	.LVL165:
 918 0316 0246     		mov	r2, r0
 919 0318 0B46     		mov	r3, r1
 920 031a 2046     		mov	r0, r4
 921 031c 2946     		mov	r1, r5
 922 031e FFF7FEFF 		bl	__aeabi_dmul
 923              	.LVL166:
 924 0322 0246     		mov	r2, r0
 925 0324 0B46     		mov	r3, r1
 926 0326 3046     		mov	r0, r6
 927 0328 3946     		mov	r1, r7
ARM GAS  C:\Users\acer\AppData\Local\Temp\ccmxYZNb.s 			page 31


 928 032a FFF7FEFF 		bl	__aeabi_dadd
 929              	.LVL167:
 930 032e FFF7FEFF 		bl	__aeabi_d2f
 931              	.LVL168:
 754:.\imu_i2c.c   **** 
 755:.\imu_i2c.c   **** 	// error is sum of cross product between reference direction of fields and direction measured by s
 756:.\imu_i2c.c   **** 	ex = (ay * vz - az * vy) + (my * wz - mz * wy);
 932              		.loc 1 756 0
 933 0332 1099     		ldr	r1, [sp, #64]	@ float
 753:.\imu_i2c.c   **** 	wz = 2 * bx * (q0q2 + q1q3) + 2 * bz * (0.5 - q1q1 - q2q2);  
 934              		.loc 1 753 0
 935 0334 0B90     		str	r0, [sp, #44]	@ float
 936              	.LVL169:
 937              		.loc 1 756 0
 938 0336 1198     		ldr	r0, [sp, #68]	@ float
 939              	.LVL170:
 940 0338 FFF7FEFF 		bl	__aeabi_fmul
 941              	.LVL171:
 942 033c 0F99     		ldr	r1, [sp, #60]	@ float
 943 033e 0446     		mov	r4, r0
 944 0340 1298     		ldr	r0, [sp, #72]	@ float
 945 0342 FFF7FEFF 		bl	__aeabi_fmul
 946              	.LVL172:
 947 0346 0146     		mov	r1, r0
 948 0348 2046     		mov	r0, r4
 949 034a FFF7FEFF 		bl	__aeabi_fsub
 950              	.LVL173:
 951 034e 0B99     		ldr	r1, [sp, #44]	@ float
 952 0350 0446     		mov	r4, r0
 953 0352 0698     		ldr	r0, [sp, #24]	@ float
 954 0354 FFF7FEFF 		bl	__aeabi_fmul
 955              	.LVL174:
 956 0358 0E99     		ldr	r1, [sp, #56]	@ float
 957 035a 0546     		mov	r5, r0
 958 035c 0798     		ldr	r0, [sp, #28]	@ float
 959 035e FFF7FEFF 		bl	__aeabi_fmul
 960              	.LVL175:
 961 0362 0146     		mov	r1, r0
 962 0364 2846     		mov	r0, r5
 963 0366 FFF7FEFF 		bl	__aeabi_fsub
 964              	.LVL176:
 965 036a 0146     		mov	r1, r0
 966 036c 2046     		mov	r0, r4
 967 036e FFF7FEFF 		bl	__aeabi_fadd
 968              	.LVL177:
 757:.\imu_i2c.c   **** 	ey = (az * vx - ax * vz) + (mz * wx - mx * wz);
 758:.\imu_i2c.c   **** 	ez = (ax * vy - ay * vx) + (mx * wy - my * wx);
 759:.\imu_i2c.c   **** 
 760:.\imu_i2c.c   **** 	if(ex != 0.0f && ey != 0.0f && ez != 0.0f)
 969              		.loc 1 760 0
 970 0372 0021     		movs	r1, #0
 756:.\imu_i2c.c   **** 	ey = (az * vx - ax * vz) + (mz * wx - mx * wz);
 971              		.loc 1 756 0
 972 0374 1390     		str	r0, [sp, #76]	@ float
 973              	.LVL178:
 974              		.loc 1 760 0
 975 0376 FFF7FEFF 		bl	__aeabi_fcmpeq
ARM GAS  C:\Users\acer\AppData\Local\Temp\ccmxYZNb.s 			page 32


 976              	.LVL179:
 977 037a 5D46     		mov	r5, fp
 978 037c 4C46     		mov	r4, r9
 979 037e 0028     		cmp	r0, #0
 980 0380 40F0C280 		bne	.L43
 731:.\imu_i2c.c   **** 	ay = ay * norm;
 981              		.loc 1 731 0 discriminator 1
 982 0384 DDF85CC0 		ldr	ip, [sp, #92]
 983 0388 0898     		ldr	r0, [sp, #32]	@ float
 984 038a 6146     		mov	r1, ip
 985 038c FFF7FEFF 		bl	__aeabi_fmul
 986              	.LVL180:
 987 0390 0646     		mov	r6, r0
 748:.\imu_i2c.c   **** 	vy = 2 * (q0q1 + q2q3);
 988              		.loc 1 748 0 discriminator 1
 989 0392 0A98     		ldr	r0, [sp, #40]	@ float
 990 0394 0146     		mov	r1, r0
 991 0396 FFF7FEFF 		bl	__aeabi_fadd
 992              	.LVL181:
 993 039a 0746     		mov	r7, r0
 751:.\imu_i2c.c   **** 	wy = 2 * bx * (q1q2 - q0q3) + 2 * bz * (q0q1 + q2q3);
 994              		.loc 1 751 0 discriminator 1
 995 039c 4046     		mov	r0, r8
 996 039e FFF7FEFF 		bl	__aeabi_f2d
 997              	.LVL182:
 998 03a2 DDE90C23 		ldrd	r2, [sp, #48]
 999 03a6 CDE90801 		strd	r0, [sp, #32]
 1000 03aa 0020     		movs	r0, #0
 1001 03ac 8749     		ldr	r1, .L53
 1002 03ae FFF7FEFF 		bl	__aeabi_dsub
 1003              	.LVL183:
 1004 03b2 8046     		mov	r8, r0
 1005              	.LVL184:
 1006 03b4 0498     		ldr	r0, [sp, #16]	@ float
 1007 03b6 8946     		mov	r9, r1
 1008 03b8 FFF7FEFF 		bl	__aeabi_f2d
 1009              	.LVL185:
 1010 03bc 0246     		mov	r2, r0
 1011 03be 0B46     		mov	r3, r1
 1012 03c0 4046     		mov	r0, r8
 1013 03c2 4946     		mov	r1, r9
 1014 03c4 FFF7FEFF 		bl	__aeabi_dsub
 1015              	.LVL186:
 1016 03c8 0246     		mov	r2, r0
 1017 03ca 0B46     		mov	r3, r1
 1018 03cc DDE90801 		ldrd	r0, [sp, #32]
 1019 03d0 FFF7FEFF 		bl	__aeabi_dmul
 1020              	.LVL187:
 1021 03d4 8046     		mov	r8, r0
 1022 03d6 8946     		mov	r9, r1
 1023 03d8 5046     		mov	r0, r10
 1024 03da 0A99     		ldr	r1, [sp, #40]	@ float
 1025 03dc FFF7FEFF 		bl	__aeabi_fmul
 1026              	.LVL188:
 1027 03e0 FFF7FEFF 		bl	__aeabi_f2d
 1028              	.LVL189:
 1029 03e4 0246     		mov	r2, r0
ARM GAS  C:\Users\acer\AppData\Local\Temp\ccmxYZNb.s 			page 33


 1030 03e6 0B46     		mov	r3, r1
 1031 03e8 4046     		mov	r0, r8
 1032 03ea 4946     		mov	r1, r9
 1033 03ec FFF7FEFF 		bl	__aeabi_dadd
 1034              	.LVL190:
 1035 03f0 FFF7FEFF 		bl	__aeabi_d2f
 1036              	.LVL191:
 757:.\imu_i2c.c   **** 	ez = (ax * vy - ay * vx) + (mx * wy - my * wx);
 1037              		.loc 1 757 0 discriminator 1
 1038 03f4 3946     		mov	r1, r7
 751:.\imu_i2c.c   **** 	wy = 2 * bx * (q1q2 - q0q3) + 2 * bz * (q0q1 + q2q3);
 1039              		.loc 1 751 0 discriminator 1
 1040 03f6 8046     		mov	r8, r0
 757:.\imu_i2c.c   **** 	ez = (ax * vy - ay * vx) + (mx * wy - my * wx);
 1041              		.loc 1 757 0 discriminator 1
 1042 03f8 1298     		ldr	r0, [sp, #72]	@ float
 1043 03fa FFF7FEFF 		bl	__aeabi_fmul
 1044              	.LVL192:
 1045 03fe 1099     		ldr	r1, [sp, #64]	@ float
 1046 0400 8146     		mov	r9, r0
 1047 0402 3046     		mov	r0, r6
 1048 0404 FFF7FEFF 		bl	__aeabi_fmul
 1049              	.LVL193:
 1050 0408 0146     		mov	r1, r0
 1051 040a 4846     		mov	r0, r9
 1052 040c FFF7FEFF 		bl	__aeabi_fsub
 1053              	.LVL194:
 1054 0410 4146     		mov	r1, r8
 1055 0412 8146     		mov	r9, r0
 1056 0414 0798     		ldr	r0, [sp, #28]	@ float
 1057 0416 FFF7FEFF 		bl	__aeabi_fmul
 1058              	.LVL195:
 1059 041a 0B99     		ldr	r1, [sp, #44]	@ float
 1060 041c 8246     		mov	r10, r0
 1061 041e 0598     		ldr	r0, [sp, #20]	@ float
 1062 0420 FFF7FEFF 		bl	__aeabi_fmul
 1063              	.LVL196:
 1064 0424 0146     		mov	r1, r0
 1065 0426 5046     		mov	r0, r10
 1066 0428 FFF7FEFF 		bl	__aeabi_fsub
 1067              	.LVL197:
 1068 042c 0146     		mov	r1, r0
 1069 042e 4846     		mov	r0, r9
 1070 0430 FFF7FEFF 		bl	__aeabi_fadd
 1071              	.LVL198:
 1072              		.loc 1 760 0 discriminator 1
 1073 0434 0021     		movs	r1, #0
 757:.\imu_i2c.c   **** 	ez = (ax * vy - ay * vx) + (mx * wy - my * wx);
 1074              		.loc 1 757 0 discriminator 1
 1075 0436 8146     		mov	r9, r0
 1076              		.loc 1 760 0 discriminator 1
 1077 0438 FFF7FEFF 		bl	__aeabi_fcmpeq
 1078              	.LVL199:
 1079 043c 0028     		cmp	r0, #0
 1080 043e 63D1     		bne	.L43
 758:.\imu_i2c.c   **** 
 1081              		.loc 1 758 0 discriminator 2
ARM GAS  C:\Users\acer\AppData\Local\Temp\ccmxYZNb.s 			page 34


 1082 0440 3046     		mov	r0, r6
 1083 0442 0F99     		ldr	r1, [sp, #60]	@ float
 1084 0444 FFF7FEFF 		bl	__aeabi_fmul
 1085              	.LVL200:
 1086 0448 3946     		mov	r1, r7
 1087 044a 0646     		mov	r6, r0
 1088 044c 1198     		ldr	r0, [sp, #68]	@ float
 1089 044e FFF7FEFF 		bl	__aeabi_fmul
 1090              	.LVL201:
 1091 0452 0146     		mov	r1, r0
 1092 0454 3046     		mov	r0, r6
 1093 0456 FFF7FEFF 		bl	__aeabi_fsub
 1094              	.LVL202:
 1095 045a 0E99     		ldr	r1, [sp, #56]	@ float
 1096 045c 0646     		mov	r6, r0
 1097 045e 0598     		ldr	r0, [sp, #20]	@ float
 1098 0460 FFF7FEFF 		bl	__aeabi_fmul
 1099              	.LVL203:
 1100 0464 4146     		mov	r1, r8
 1101 0466 0746     		mov	r7, r0
 1102 0468 0698     		ldr	r0, [sp, #24]	@ float
 1103 046a FFF7FEFF 		bl	__aeabi_fmul
 1104              	.LVL204:
 1105 046e 0146     		mov	r1, r0
 1106 0470 3846     		mov	r0, r7
 1107 0472 FFF7FEFF 		bl	__aeabi_fsub
 1108              	.LVL205:
 1109 0476 0146     		mov	r1, r0
 1110 0478 3046     		mov	r0, r6
 1111 047a FFF7FEFF 		bl	__aeabi_fadd
 1112              	.LVL206:
 1113              		.loc 1 760 0 discriminator 2
 1114 047e 0021     		movs	r1, #0
 758:.\imu_i2c.c   **** 
 1115              		.loc 1 758 0 discriminator 2
 1116 0480 0646     		mov	r6, r0
 1117              		.loc 1 760 0 discriminator 2
 1118 0482 FFF7FEFF 		bl	__aeabi_fcmpeq
 1119              	.LVL207:
 1120 0486 0028     		cmp	r0, #0
 1121 0488 3ED1     		bne	.L43
 1122              	.LVL208:
 761:.\imu_i2c.c   **** 	{
 762:.\imu_i2c.c   **** 		exInt = exInt + ex * Ki * halfT;
 763:.\imu_i2c.c   **** 		eyInt = eyInt + ey * Ki * halfT;	
 764:.\imu_i2c.c   **** 		ezInt = ezInt + ez * Ki * halfT;
 765:.\imu_i2c.c   **** 
 766:.\imu_i2c.c   **** 		gx = gx + Kp * ex + exInt;
 1123              		.loc 1 766 0
 1124 048a 5149     		ldr	r1, .L53+4
 1125 048c 1398     		ldr	r0, [sp, #76]	@ float
 1126 048e FFF7FEFF 		bl	__aeabi_fmul
 1127              	.LVL209:
 1128 0492 0146     		mov	r1, r0
 1129 0494 0198     		ldr	r0, [sp, #4]	@ float
 1130 0496 FFF7FEFF 		bl	__aeabi_fadd
 1131              	.LVL210:
ARM GAS  C:\Users\acer\AppData\Local\Temp\ccmxYZNb.s 			page 35


 762:.\imu_i2c.c   **** 		eyInt = eyInt + ey * Ki * halfT;	
 1132              		.loc 1 762 0
 1133 049a 4E49     		ldr	r1, .L53+8
 1134              		.loc 1 766 0
 1135 049c 0746     		mov	r7, r0
 762:.\imu_i2c.c   **** 		eyInt = eyInt + ey * Ki * halfT;	
 1136              		.loc 1 762 0
 1137 049e 1398     		ldr	r0, [sp, #76]	@ float
 1138 04a0 FFF7FEFF 		bl	__aeabi_fmul
 1139              	.LVL211:
 1140 04a4 0021     		movs	r1, #0
 1141 04a6 FFF7FEFF 		bl	__aeabi_fadd
 1142              	.LVL212:
 1143 04aa 0146     		mov	r1, r0
 1144              		.loc 1 766 0
 1145 04ac 3846     		mov	r0, r7
 1146 04ae FFF7FEFF 		bl	__aeabi_fadd
 1147              	.LVL213:
 767:.\imu_i2c.c   **** 		gy = gy + Kp * ey + eyInt;
 1148              		.loc 1 767 0
 1149 04b2 4749     		ldr	r1, .L53+4
 766:.\imu_i2c.c   **** 		gy = gy + Kp * ey + eyInt;
 1150              		.loc 1 766 0
 1151 04b4 0190     		str	r0, [sp, #4]	@ float
 1152              	.LVL214:
 1153              		.loc 1 767 0
 1154 04b6 4846     		mov	r0, r9
 1155              	.LVL215:
 1156 04b8 FFF7FEFF 		bl	__aeabi_fmul
 1157              	.LVL216:
 1158 04bc 0146     		mov	r1, r0
 1159 04be 0298     		ldr	r0, [sp, #8]	@ float
 1160 04c0 FFF7FEFF 		bl	__aeabi_fadd
 1161              	.LVL217:
 763:.\imu_i2c.c   **** 		ezInt = ezInt + ez * Ki * halfT;
 1162              		.loc 1 763 0
 1163 04c4 4349     		ldr	r1, .L53+8
 1164              		.loc 1 767 0
 1165 04c6 0746     		mov	r7, r0
 763:.\imu_i2c.c   **** 		ezInt = ezInt + ez * Ki * halfT;
 1166              		.loc 1 763 0
 1167 04c8 4846     		mov	r0, r9
 1168 04ca FFF7FEFF 		bl	__aeabi_fmul
 1169              	.LVL218:
 1170 04ce 0021     		movs	r1, #0
 1171 04d0 FFF7FEFF 		bl	__aeabi_fadd
 1172              	.LVL219:
 1173 04d4 0146     		mov	r1, r0
 1174              		.loc 1 767 0
 1175 04d6 3846     		mov	r0, r7
 1176 04d8 FFF7FEFF 		bl	__aeabi_fadd
 1177              	.LVL220:
 768:.\imu_i2c.c   **** 		gz = gz + Kp * ez + ezInt;
 1178              		.loc 1 768 0
 1179 04dc 3C49     		ldr	r1, .L53+4
 767:.\imu_i2c.c   **** 		gz = gz + Kp * ez + ezInt;
 1180              		.loc 1 767 0
ARM GAS  C:\Users\acer\AppData\Local\Temp\ccmxYZNb.s 			page 36


 1181 04de 0290     		str	r0, [sp, #8]	@ float
 1182              	.LVL221:
 1183              		.loc 1 768 0
 1184 04e0 3046     		mov	r0, r6
 1185              	.LVL222:
 1186 04e2 FFF7FEFF 		bl	__aeabi_fmul
 1187              	.LVL223:
 1188 04e6 0146     		mov	r1, r0
 1189 04e8 0398     		ldr	r0, [sp, #12]	@ float
 1190 04ea FFF7FEFF 		bl	__aeabi_fadd
 1191              	.LVL224:
 764:.\imu_i2c.c   **** 
 1192              		.loc 1 764 0
 1193 04ee 3949     		ldr	r1, .L53+8
 1194              		.loc 1 768 0
 1195 04f0 0746     		mov	r7, r0
 764:.\imu_i2c.c   **** 
 1196              		.loc 1 764 0
 1197 04f2 3046     		mov	r0, r6
 1198 04f4 FFF7FEFF 		bl	__aeabi_fmul
 1199              	.LVL225:
 1200 04f8 0021     		movs	r1, #0
 1201 04fa FFF7FEFF 		bl	__aeabi_fadd
 1202              	.LVL226:
 1203 04fe 0146     		mov	r1, r0
 1204              		.loc 1 768 0
 1205 0500 3846     		mov	r0, r7
 1206 0502 FFF7FEFF 		bl	__aeabi_fadd
 1207              	.LVL227:
 1208 0506 0390     		str	r0, [sp, #12]	@ float
 1209              	.LVL228:
 1210              	.L43:
 769:.\imu_i2c.c   **** 	}
 770:.\imu_i2c.c   **** 
 771:.\imu_i2c.c   **** 	q0 = q0 + (-q1 * gx - q2 * gy - q3 * gz) * halfT;
 1211              		.loc 1 771 0
 1212 0508 D5F80080 		ldr	r8, [r5]	@ float
 1213 050c 2068     		ldr	r0, [r4]	@ float
 1214 050e 0199     		ldr	r1, [sp, #4]	@ float
 1215 0510 00F10040 		add	r0, r0, #-2147483648
 1216 0514 FFF7FEFF 		bl	__aeabi_fmul
 1217              	.LVL229:
 1218 0518 2F4F     		ldr	r7, .L53+12
 1219 051a 0299     		ldr	r1, [sp, #8]	@ float
 1220 051c D7F800A0 		ldr	r10, [r7]	@ float
 1221 0520 8346     		mov	fp, r0
 1222 0522 5046     		mov	r0, r10
 1223 0524 FFF7FEFF 		bl	__aeabi_fmul
 1224              	.LVL230:
 1225 0528 0146     		mov	r1, r0
 1226 052a 5846     		mov	r0, fp
 1227 052c FFF7FEFF 		bl	__aeabi_fsub
 1228              	.LVL231:
 1229 0530 2A4E     		ldr	r6, .L53+16
 1230 0532 0399     		ldr	r1, [sp, #12]	@ float
 1231 0534 D6F80090 		ldr	r9, [r6]	@ float
 1232 0538 8246     		mov	r10, r0
ARM GAS  C:\Users\acer\AppData\Local\Temp\ccmxYZNb.s 			page 37


 1233 053a 4846     		mov	r0, r9
 1234 053c FFF7FEFF 		bl	__aeabi_fmul
 1235              	.LVL232:
 1236 0540 0146     		mov	r1, r0
 1237 0542 5046     		mov	r0, r10
 1238 0544 FFF7FEFF 		bl	__aeabi_fsub
 1239              	.LVL233:
 1240 0548 2249     		ldr	r1, .L53+8
 1241 054a FFF7FEFF 		bl	__aeabi_fmul
 1242              	.LVL234:
 1243 054e 0146     		mov	r1, r0
 1244 0550 4046     		mov	r0, r8
 1245 0552 FFF7FEFF 		bl	__aeabi_fadd
 1246              	.LVL235:
 1247 0556 2860     		str	r0, [r5]	@ float
 772:.\imu_i2c.c   **** 	q1 = q1 + (q0 * gx + q2 * gz - q3 * gy) * halfT;
 1248              		.loc 1 772 0
 1249 0558 D4F80080 		ldr	r8, [r4]	@ float
 1250 055c 0199     		ldr	r1, [sp, #4]	@ float
 1251 055e 2868     		ldr	r0, [r5]	@ float
 1252 0560 FFF7FEFF 		bl	__aeabi_fmul
 1253              	.LVL236:
 1254 0564 D7F800B0 		ldr	fp, [r7]	@ float
 1255 0568 0399     		ldr	r1, [sp, #12]	@ float
 1256 056a 8146     		mov	r9, r0
 1257 056c 5846     		mov	r0, fp
 1258 056e FFF7FEFF 		bl	__aeabi_fmul
 1259              	.LVL237:
 1260 0572 0146     		mov	r1, r0
 1261 0574 4846     		mov	r0, r9
 1262 0576 FFF7FEFF 		bl	__aeabi_fadd
 1263              	.LVL238:
 1264 057a D6F800A0 		ldr	r10, [r6]	@ float
 1265 057e 0299     		ldr	r1, [sp, #8]	@ float
 1266 0580 8146     		mov	r9, r0
 1267 0582 5046     		mov	r0, r10
 1268 0584 FFF7FEFF 		bl	__aeabi_fmul
 1269              	.LVL239:
 1270 0588 0146     		mov	r1, r0
 1271 058a 4846     		mov	r0, r9
 1272 058c FFF7FEFF 		bl	__aeabi_fsub
 1273              	.LVL240:
 1274 0590 1049     		ldr	r1, .L53+8
 1275 0592 FFF7FEFF 		bl	__aeabi_fmul
 1276              	.LVL241:
 1277 0596 0146     		mov	r1, r0
 1278 0598 4046     		mov	r0, r8
 1279 059a FFF7FEFF 		bl	__aeabi_fadd
 1280              	.LVL242:
 1281 059e 2060     		str	r0, [r4]	@ float
 773:.\imu_i2c.c   **** 	q2 = q2 + (q0 * gy - q1 * gz + q3 * gx) * halfT;
 1282              		.loc 1 773 0
 1283 05a0 D7F80080 		ldr	r8, [r7]	@ float
 1284 05a4 2868     		ldr	r0, [r5]	@ float
 1285 05a6 D4F800B0 		ldr	fp, [r4]	@ float
 1286 05aa D6F800A0 		ldr	r10, [r6]	@ float
 1287 05ae 0299     		ldr	r1, [sp, #8]	@ float
ARM GAS  C:\Users\acer\AppData\Local\Temp\ccmxYZNb.s 			page 38


 1288 05b0 FFF7FEFF 		bl	__aeabi_fmul
 1289              	.LVL243:
 1290 05b4 0399     		ldr	r1, [sp, #12]	@ float
 1291 05b6 8146     		mov	r9, r0
 1292 05b8 5846     		mov	r0, fp
 1293 05ba FFF7FEFF 		bl	__aeabi_fmul
 1294              	.LVL244:
 1295 05be 0146     		mov	r1, r0
 1296 05c0 4846     		mov	r0, r9
 1297 05c2 FFF7FEFF 		bl	__aeabi_fsub
 1298              	.LVL245:
 1299 05c6 0199     		ldr	r1, [sp, #4]	@ float
 1300 05c8 8146     		mov	r9, r0
 1301 05ca 09E0     		b	.L54
 1302              	.L55:
 1303              		.align	2
 1304              	.L53:
 1305 05cc 0000E03F 		.word	1071644672
 1306 05d0 00009040 		.word	1083179008
 1307 05d4 A69BC43C 		.word	1019517862
 1308 05d8 00000000 		.word	q2
 1309 05dc 00000000 		.word	q3
 1310              	.L54:
 1311 05e0 5046     		mov	r0, r10
 1312 05e2 FFF7FEFF 		bl	__aeabi_fmul
 1313              	.LVL246:
 1314 05e6 0146     		mov	r1, r0
 1315 05e8 4846     		mov	r0, r9
 1316 05ea FFF7FEFF 		bl	__aeabi_fadd
 1317              	.LVL247:
 1318 05ee 3B49     		ldr	r1, .L56
 1319 05f0 FFF7FEFF 		bl	__aeabi_fmul
 1320              	.LVL248:
 1321 05f4 0146     		mov	r1, r0
 1322 05f6 4046     		mov	r0, r8
 1323 05f8 FFF7FEFF 		bl	__aeabi_fadd
 1324              	.LVL249:
 1325 05fc 3860     		str	r0, [r7]	@ float
 774:.\imu_i2c.c   **** 	q3 = q3 + (q0 * gz + q1 * gy - q2 * gx) * halfT;  
 1326              		.loc 1 774 0
 1327 05fe D6F80080 		ldr	r8, [r6]	@ float
 1328 0602 0399     		ldr	r1, [sp, #12]	@ float
 1329 0604 2868     		ldr	r0, [r5]	@ float
 1330 0606 FFF7FEFF 		bl	__aeabi_fmul
 1331              	.LVL250:
 1332 060a D4F800B0 		ldr	fp, [r4]	@ float
 1333 060e 0299     		ldr	r1, [sp, #8]	@ float
 1334 0610 8146     		mov	r9, r0
 1335 0612 5846     		mov	r0, fp
 1336 0614 FFF7FEFF 		bl	__aeabi_fmul
 1337              	.LVL251:
 1338 0618 0146     		mov	r1, r0
 1339 061a 4846     		mov	r0, r9
 1340 061c FFF7FEFF 		bl	__aeabi_fadd
 1341              	.LVL252:
 1342 0620 D7F800A0 		ldr	r10, [r7]	@ float
 1343 0624 0199     		ldr	r1, [sp, #4]	@ float
ARM GAS  C:\Users\acer\AppData\Local\Temp\ccmxYZNb.s 			page 39


 1344 0626 8146     		mov	r9, r0
 1345 0628 5046     		mov	r0, r10
 1346 062a FFF7FEFF 		bl	__aeabi_fmul
 1347              	.LVL253:
 1348 062e 0146     		mov	r1, r0
 1349 0630 4846     		mov	r0, r9
 1350 0632 FFF7FEFF 		bl	__aeabi_fsub
 1351              	.LVL254:
 1352 0636 2949     		ldr	r1, .L56
 1353 0638 FFF7FEFF 		bl	__aeabi_fmul
 1354              	.LVL255:
 1355 063c 0146     		mov	r1, r0
 1356 063e 4046     		mov	r0, r8
 1357 0640 FFF7FEFF 		bl	__aeabi_fadd
 1358              	.LVL256:
 1359 0644 3060     		str	r0, [r6]	@ float
 775:.\imu_i2c.c   **** 
 776:.\imu_i2c.c   **** 	norm = invSqrt(q0 * q0 + q1 * q1 + q2 * q2 + q3 * q3);
 1360              		.loc 1 776 0
 1361 0646 2868     		ldr	r0, [r5]	@ float
 1362 0648 2968     		ldr	r1, [r5]	@ float
 1363 064a D4F800C0 		ldr	ip, [r4]	@ float
 1364 064e 2268     		ldr	r2, [r4]	@ float
 1365 0650 3B68     		ldr	r3, [r7]	@ float
 1366 0652 CDF80CC0 		str	ip, [sp, #12]
 1367              	.LVL257:
 1368 0656 0193     		str	r3, [sp, #4]
 1369              	.LVL258:
 1370 0658 0292     		str	r2, [sp, #8]
 1371              	.LVL259:
 1372 065a D7F800B0 		ldr	fp, [r7]	@ float
 1373 065e FFF7FEFF 		bl	__aeabi_fmul
 1374              	.LVL260:
 1375 0662 DDF80CC0 		ldr	ip, [sp, #12]
 1376 0666 029A     		ldr	r2, [sp, #8]
 1377 0668 8046     		mov	r8, r0
 1378 066a 1146     		mov	r1, r2
 1379 066c 6046     		mov	r0, ip
 1380 066e FFF7FEFF 		bl	__aeabi_fmul
 1381              	.LVL261:
 1382 0672 0146     		mov	r1, r0
 1383 0674 4046     		mov	r0, r8
 1384 0676 FFF7FEFF 		bl	__aeabi_fadd
 1385              	.LVL262:
 1386 067a 019B     		ldr	r3, [sp, #4]
 1387 067c 8046     		mov	r8, r0
 1388 067e 5946     		mov	r1, fp
 1389 0680 1846     		mov	r0, r3
 1390 0682 FFF7FEFF 		bl	__aeabi_fmul
 1391              	.LVL263:
 1392 0686 0146     		mov	r1, r0
 1393 0688 4046     		mov	r0, r8
 1394 068a FFF7FEFF 		bl	__aeabi_fadd
 1395              	.LVL264:
 1396 068e D6F800A0 		ldr	r10, [r6]	@ float
 1397 0692 D6F80090 		ldr	r9, [r6]	@ float
 1398 0696 8046     		mov	r8, r0
ARM GAS  C:\Users\acer\AppData\Local\Temp\ccmxYZNb.s 			page 40


 1399 0698 4946     		mov	r1, r9
 1400 069a 5046     		mov	r0, r10
 1401 069c FFF7FEFF 		bl	__aeabi_fmul
 1402              	.LVL265:
 1403 06a0 0146     		mov	r1, r0
 1404 06a2 4046     		mov	r0, r8
 1405 06a4 FFF7FEFF 		bl	__aeabi_fadd
 1406              	.LVL266:
 1407 06a8 FFF7FEFF 		bl	invSqrt
 1408              	.LVL267:
 1409 06ac 8046     		mov	r8, r0
 1410              	.LVL268:
 777:.\imu_i2c.c   **** 	q0 = q0 * norm;
 1411              		.loc 1 777 0
 1412 06ae 2868     		ldr	r0, [r5]	@ float
 1413              	.LVL269:
 1414 06b0 4146     		mov	r1, r8
 1415 06b2 FFF7FEFF 		bl	__aeabi_fmul
 1416              	.LVL270:
 1417 06b6 2860     		str	r0, [r5]	@ float
 778:.\imu_i2c.c   **** 	q1 = q1 * norm;
 1418              		.loc 1 778 0
 1419 06b8 2068     		ldr	r0, [r4]	@ float
 1420 06ba 4146     		mov	r1, r8
 1421 06bc FFF7FEFF 		bl	__aeabi_fmul
 1422              	.LVL271:
 1423 06c0 2060     		str	r0, [r4]	@ float
 779:.\imu_i2c.c   **** 	q2 = q2 * norm;
 1424              		.loc 1 779 0
 1425 06c2 3868     		ldr	r0, [r7]	@ float
 1426 06c4 4146     		mov	r1, r8
 1427 06c6 FFF7FEFF 		bl	__aeabi_fmul
 1428              	.LVL272:
 1429 06ca 3860     		str	r0, [r7]	@ float
 780:.\imu_i2c.c   **** 	q3 = q3 * norm;
 1430              		.loc 1 780 0
 1431 06cc 3068     		ldr	r0, [r6]	@ float
 1432 06ce 4146     		mov	r1, r8
 1433 06d0 FFF7FEFF 		bl	__aeabi_fmul
 1434              	.LVL273:
 1435 06d4 3060     		str	r0, [r6]	@ float
 781:.\imu_i2c.c   **** }
 1436              		.loc 1 781 0
 1437 06d6 19B0     		add	sp, sp, #100
 1438              		.cfi_def_cfa_offset 36
 1439              		@ sp needed
 1440 06d8 BDE8F08F 		pop	{r4, r5, r6, r7, r8, r9, r10, fp, pc}
 1441              	.LVL274:
 1442              	.L57:
 1443              		.align	2
 1444              	.L56:
 1445 06dc A69BC43C 		.word	1019517862
 1446              		.cfi_endproc
 1447              	.LFE7:
 1448              		.size	IMU_AHRSupdate, .-IMU_AHRSupdate
 1449              		.section	.text.BMP180_CalculateTrueTemperature,"ax",%progbits
 1450              		.align	1
ARM GAS  C:\Users\acer\AppData\Local\Temp\ccmxYZNb.s 			page 41


 1451              		.global	BMP180_CalculateTrueTemperature
 1452              		.thumb
 1453              		.thumb_func
 1454              		.type	BMP180_CalculateTrueTemperature, %function
 1455              	BMP180_CalculateTrueTemperature:
 1456              	.LFB8:
 782:.\imu_i2c.c   **** 
 783:.\imu_i2c.c   **** 
 784:.\imu_i2c.c   **** 
 785:.\imu_i2c.c   **** /**
 786:.\imu_i2c.c   ****   * @brief  Calculate true temperature
 787:.\imu_i2c.c   ****   * @param  *pTrueTemperature: true temperature 
 788:.\imu_i2c.c   ****   * @retval None
 789:.\imu_i2c.c   ****   */
 790:.\imu_i2c.c   **** void BMP180_CalculateTrueTemperature(_SINT32 *pTrueTemperature)
 791:.\imu_i2c.c   **** {
 1457              		.loc 1 791 0
 1458              		.cfi_startproc
 1459              		@ args = 0, pretend = 0, frame = 0
 1460              		@ frame_needed = 0, uses_anonymous_args = 0
 1461              		@ link register save eliminated.
 1462              	.LVL275:
 792:.\imu_i2c.c   **** 	_SINT32 X1, X2;
 793:.\imu_i2c.c   **** 	
 794:.\imu_i2c.c   ****   	X1 = ((UT - AC6) * AC5) >> 15;
 1463              		.loc 1 794 0
 1464 0000 0C4B     		ldr	r3, .L59
 1465 0002 0D4A     		ldr	r2, .L59+4
 1466 0004 1988     		ldrh	r1, [r3]
 1467 0006 0D4B     		ldr	r3, .L59+8
 1468 0008 1288     		ldrh	r2, [r2]
 1469 000a 1B68     		ldr	r3, [r3]
 1470 000c 5B1A     		subs	r3, r3, r1
 1471 000e 5343     		muls	r3, r2, r3
 1472 0010 D913     		asrs	r1, r3, #15
 1473              	.LVL276:
 795:.\imu_i2c.c   ****   	X2 = (MC << 11) / (X1 + MD);
 1474              		.loc 1 795 0
 1475 0012 0B4B     		ldr	r3, .L59+12
 1476              	.LVL277:
 1477 0014 B3F90020 		ldrsh	r2, [r3]
 1478 0018 0A4B     		ldr	r3, .L59+16
 1479              	.LVL278:
 1480 001a D202     		lsls	r2, r2, #11
 1481 001c B3F90030 		ldrsh	r3, [r3]
 1482              	.LVL279:
 1483 0020 0B44     		add	r3, r3, r1
 1484 0022 92FBF3F3 		sdiv	r3, r2, r3
 1485              	.LVL280:
 796:.\imu_i2c.c   ****   	B5 = X1 + X2;
 1486              		.loc 1 796 0
 1487 0026 084A     		ldr	r2, .L59+20
 1488 0028 0B44     		add	r3, r3, r1
 1489              	.LVL281:
 1490 002a 1360     		str	r3, [r2]
 797:.\imu_i2c.c   ****   	*pTrueTemperature = (B5 + 8) >> 4;
 1491              		.loc 1 797 0
ARM GAS  C:\Users\acer\AppData\Local\Temp\ccmxYZNb.s 			page 42


 1492 002c 0833     		adds	r3, r3, #8
 1493 002e 1B11     		asrs	r3, r3, #4
 1494 0030 0360     		str	r3, [r0]
 1495 0032 7047     		bx	lr
 1496              	.L60:
 1497              		.align	2
 1498              	.L59:
 1499 0034 00000000 		.word	AC6
 1500 0038 00000000 		.word	AC5
 1501 003c 00000000 		.word	UT
 1502 0040 00000000 		.word	MC
 1503 0044 00000000 		.word	MD
 1504 0048 00000000 		.word	B5
 1505              		.cfi_endproc
 1506              	.LFE8:
 1507              		.size	BMP180_CalculateTrueTemperature, .-BMP180_CalculateTrueTemperature
 1508              		.section	.text.BMP180_CalculateTruePressure,"ax",%progbits
 1509              		.align	1
 1510              		.global	BMP180_CalculateTruePressure
 1511              		.thumb
 1512              		.thumb_func
 1513              		.type	BMP180_CalculateTruePressure, %function
 1514              	BMP180_CalculateTruePressure:
 1515              	.LFB9:
 798:.\imu_i2c.c   **** }
 799:.\imu_i2c.c   **** /**
 800:.\imu_i2c.c   ****   * @brief  Calculate true pressure
 801:.\imu_i2c.c   ****   * @param  *pTruePressure: true pressure
 802:.\imu_i2c.c   ****   * @retval None
 803:.\imu_i2c.c   ****   */
 804:.\imu_i2c.c   **** void BMP180_CalculateTruePressure(_SINT32 *pTruePressure)
 805:.\imu_i2c.c   **** {
 1516              		.loc 1 805 0
 1517              		.cfi_startproc
 1518              		@ args = 0, pretend = 0, frame = 0
 1519              		@ frame_needed = 0, uses_anonymous_args = 0
 1520              	.LVL282:
 806:.\imu_i2c.c   **** 	_SINT32 X1, X2, X3, B3, B6, P, Temp;
 807:.\imu_i2c.c   **** 	_UINT32  B4, B7;
 808:.\imu_i2c.c   **** 	
 809:.\imu_i2c.c   **** 	B6 = B5 - 4000;             
 1521              		.loc 1 809 0
 1522 0000 284B     		ldr	r3, .L64
 805:.\imu_i2c.c   **** 	_SINT32 X1, X2, X3, B3, B6, P, Temp;
 1523              		.loc 1 805 0
 1524 0002 F0B5     		push	{r4, r5, r6, r7, lr}
 1525              		.cfi_def_cfa_offset 20
 1526              		.cfi_offset 4, -20
 1527              		.cfi_offset 5, -16
 1528              		.cfi_offset 6, -12
 1529              		.cfi_offset 7, -8
 1530              		.cfi_offset 14, -4
 1531              		.loc 1 809 0
 1532 0004 1C68     		ldr	r4, [r3]
 810:.\imu_i2c.c   **** 	X1 = (B2* ((B6 * B6) >> 12)) >> 11;
 811:.\imu_i2c.c   **** 	X2 = AC2 * B6 >> 11;
 812:.\imu_i2c.c   **** 	X3 = X1 + X2;
ARM GAS  C:\Users\acer\AppData\Local\Temp\ccmxYZNb.s 			page 43


 813:.\imu_i2c.c   **** 	Temp = (((_SINT32)AC1 << 2) + X3) << _oss;
 1533              		.loc 1 813 0
 1534 0006 284B     		ldr	r3, .L64+4
 809:.\imu_i2c.c   **** 	X1 = (B2* ((B6 * B6) >> 12)) >> 11;
 1535              		.loc 1 809 0
 1536 0008 A4F57A64 		sub	r4, r4, #4000
 1537              	.LVL283:
 1538              		.loc 1 813 0
 1539 000c B3F90050 		ldrsh	r5, [r3]
 814:.\imu_i2c.c   **** 	B3 = (Temp + 2) >> 2;
 815:.\imu_i2c.c   **** 	X1 = (AC3 * B6) >> 13;
 1540              		.loc 1 815 0
 1541 0010 264B     		ldr	r3, .L64+8
 810:.\imu_i2c.c   **** 	X2 = AC2 * B6 >> 11;
 1542              		.loc 1 810 0
 1543 0012 04FB04F7 		mul	r7, r4, r4
 1544              		.loc 1 815 0
 1545 0016 B3F90030 		ldrsh	r3, [r3]
 810:.\imu_i2c.c   **** 	X2 = AC2 * B6 >> 11;
 1546              		.loc 1 810 0
 1547 001a 3F13     		asrs	r7, r7, #12
 1548              	.LVL284:
 1549              		.loc 1 815 0
 1550 001c 04FB03F2 		mul	r2, r4, r3
 1551              	.LVL285:
 816:.\imu_i2c.c   **** 	X2 = (B1 * (B6 * B6 >> 12)) >> 16;
 1552              		.loc 1 816 0
 1553 0020 234B     		ldr	r3, .L64+12
 1554              	.LVL286:
 1555 0022 B3F90030 		ldrsh	r3, [r3]
 1556              	.LVL287:
 1557 0026 7B43     		muls	r3, r7, r3
 1558              	.LVL288:
 1559 0028 1B14     		asrs	r3, r3, #16
 1560              	.LVL289:
 817:.\imu_i2c.c   **** 	X3 = ((X1 + X2) + 2) >> 2;
 1561              		.loc 1 817 0
 1562 002a 03EB6233 		add	r3, r3, r2, asr #13
 1563              	.LVL290:
 818:.\imu_i2c.c   **** 	B4 = (AC4 * (_UINT32) (X3 + 32768)) >> 15;
 1564              		.loc 1 818 0
 1565 002e 214A     		ldr	r2, .L64+16
 1566              	.LVL291:
 817:.\imu_i2c.c   **** 	X3 = ((X1 + X2) + 2) >> 2;
 1567              		.loc 1 817 0
 1568 0030 0233     		adds	r3, r3, #2
 1569              		.loc 1 818 0
 1570 0032 1688     		ldrh	r6, [r2]
 819:.\imu_i2c.c   **** 	B7 = ((_UINT32)UP - B3) * (50000 >> _oss);
 1571              		.loc 1 819 0
 1572 0034 4CF25032 		movw	r2, #50000
 817:.\imu_i2c.c   **** 	X3 = ((X1 + X2) + 2) >> 2;
 1573              		.loc 1 817 0
 1574 0038 9B10     		asrs	r3, r3, #2
 818:.\imu_i2c.c   **** 	B4 = (AC4 * (_UINT32) (X3 + 32768)) >> 15;
 1575              		.loc 1 818 0
 1576 003a 03F50043 		add	r3, r3, #32768
ARM GAS  C:\Users\acer\AppData\Local\Temp\ccmxYZNb.s 			page 44


 1577 003e 7343     		muls	r3, r6, r3
 1578 0040 DE0B     		lsrs	r6, r3, #15
 1579              	.LVL292:
 813:.\imu_i2c.c   **** 	B3 = (Temp + 2) >> 2;
 1580              		.loc 1 813 0
 1581 0042 1D4B     		ldr	r3, .L64+20
 1582              	.LVL293:
 1583              		.loc 1 819 0
 1584 0044 2A41     		asrs	r2, r2, r5
 813:.\imu_i2c.c   **** 	B3 = (Temp + 2) >> 2;
 1585              		.loc 1 813 0
 1586 0046 B3F90010 		ldrsh	r1, [r3]
 810:.\imu_i2c.c   **** 	X2 = AC2 * B6 >> 11;
 1587              		.loc 1 810 0
 1588 004a 1C4B     		ldr	r3, .L64+24
 1589              	.LVL294:
 1590 004c B3F90030 		ldrsh	r3, [r3]
 1591              	.LVL295:
 1592 0050 5F43     		muls	r7, r3, r7
 1593              	.LVL296:
 811:.\imu_i2c.c   **** 	X3 = X1 + X2;
 1594              		.loc 1 811 0
 1595 0052 1B4B     		ldr	r3, .L64+28
 1596              	.LVL297:
 1597 0054 B3F90030 		ldrsh	r3, [r3]
 1598              	.LVL298:
 1599 0058 5C43     		muls	r4, r3, r4
 1600              	.LVL299:
 1601 005a E412     		asrs	r4, r4, #11
 1602              	.LVL300:
 1603              		.loc 1 819 0
 1604 005c 194B     		ldr	r3, .L64+32
 812:.\imu_i2c.c   **** 	Temp = (((_SINT32)AC1 << 2) + X3) << _oss;
 1605              		.loc 1 812 0
 1606 005e 04EBE724 		add	r4, r4, r7, asr #11
 813:.\imu_i2c.c   **** 	B3 = (Temp + 2) >> 2;
 1607              		.loc 1 813 0
 1608 0062 04EB8101 		add	r1, r4, r1, lsl #2
 1609 0066 A940     		lsls	r1, r1, r5
 1610              		.loc 1 819 0
 1611 0068 1C68     		ldr	r4, [r3]
 814:.\imu_i2c.c   **** 	X1 = (AC3 * B6) >> 13;
 1612              		.loc 1 814 0
 1613 006a 0231     		adds	r1, r1, #2
 1614              		.loc 1 819 0
 1615 006c A4EBA101 		sub	r1, r4, r1, asr #2
 1616              	.LVL301:
 820:.\imu_i2c.c   ****   	if(B7 < 0x80000000)
 1617              		.loc 1 820 0
 1618 0070 4A43     		muls	r2, r1, r2
 1619              	.LVL302:
 821:.\imu_i2c.c   ****   	{
 822:.\imu_i2c.c   ****    		P = (B7 << 1) / B4;
 823:.\imu_i2c.c   ****   	}	
 824:.\imu_i2c.c   ****   	else
 825:.\imu_i2c.c   ****   	{
 826:.\imu_i2c.c   ****   		P = (B7 / B4) << 1;
ARM GAS  C:\Users\acer\AppData\Local\Temp\ccmxYZNb.s 			page 45


 1620              		.loc 1 826 0
 1621 0072 4EBF     		itee	mi
 1622 0074 B2FBF6F3 		udivmi	r3, r2, r6
 822:.\imu_i2c.c   ****   	}	
 1623              		.loc 1 822 0
 1624 0078 5100     		lslpl	r1, r2, #1
 1625 007a B1FBF6F3 		udivpl	r3, r1, r6
 827:.\imu_i2c.c   ****   	}
 828:.\imu_i2c.c   **** 
 829:.\imu_i2c.c   **** 	X1 = (P >> 8) * (P >> 8);
 830:.\imu_i2c.c   **** 	X1 = (X1 * 3038) >> 16;
 1626              		.loc 1 830 0
 1627 007e 40F6DE31 		movw	r1, #3038
 826:.\imu_i2c.c   ****   	}
 1628              		.loc 1 826 0
 1629 0082 48BF     		it	mi
 1630 0084 5B00     		lslmi	r3, r3, #1
 1631              	.LVL303:
 829:.\imu_i2c.c   **** 	X1 = (X1 * 3038) >> 16;
 1632              		.loc 1 829 0
 1633 0086 1A12     		asrs	r2, r3, #8
 1634              	.LVL304:
 1635 0088 5243     		muls	r2, r2, r2
 1636              	.LVL305:
 1637              		.loc 1 830 0
 1638 008a 4A43     		muls	r2, r1, r2
 1639              	.LVL306:
 831:.\imu_i2c.c   **** 	X2 = (-7357 * P) >> 16;
 1640              		.loc 1 831 0
 1641 008c 0E49     		ldr	r1, .L64+36
 1642 008e 5943     		muls	r1, r3, r1
 1643 0090 0914     		asrs	r1, r1, #16
 1644              	.LVL307:
 832:.\imu_i2c.c   **** 	
 833:.\imu_i2c.c   ****   	*pTruePressure = P + ((X1 + X2 + 3791) >> 4);
 1645              		.loc 1 833 0
 1646 0092 01EB2242 		add	r2, r1, r2, asr #16
 1647              	.LVL308:
 1648 0096 02F6CF62 		addw	r2, r2, #3791
 1649 009a 03EB2213 		add	r3, r3, r2, asr #4
 1650              	.LVL309:
 1651 009e 0360     		str	r3, [r0]
 1652              	.LVL310:
 1653 00a0 F0BD     		pop	{r4, r5, r6, r7, pc}
 1654              	.LVL311:
 1655              	.L65:
 1656 00a2 00BF     		.align	2
 1657              	.L64:
 1658 00a4 00000000 		.word	B5
 1659 00a8 00000000 		.word	_oss
 1660 00ac 00000000 		.word	AC3
 1661 00b0 00000000 		.word	B1
 1662 00b4 00000000 		.word	AC4
 1663 00b8 00000000 		.word	AC1
 1664 00bc 00000000 		.word	B2
 1665 00c0 00000000 		.word	AC2
 1666 00c4 00000000 		.word	UP
ARM GAS  C:\Users\acer\AppData\Local\Temp\ccmxYZNb.s 			page 46


 1667 00c8 43E3FFFF 		.word	-7357
 1668              		.cfi_endproc
 1669              	.LFE9:
 1670              		.size	BMP180_CalculateTruePressure, .-BMP180_CalculateTruePressure
 1671              		.section	.text.MPU9250_Init,"ax",%progbits
 1672              		.align	1
 1673              		.global	MPU9250_Init
 1674              		.thumb
 1675              		.thumb_func
 1676              		.type	MPU9250_Init, %function
 1677              	MPU9250_Init:
 1678              	.LFB3:
 184:.\imu_i2c.c   ****     
 1679              		.loc 1 184 0
 1680              		.cfi_startproc
 1681              		@ args = 0, pretend = 0, frame = 0
 1682              		@ frame_needed = 0, uses_anonymous_args = 0
 1683 0000 F8B5     		push	{r3, r4, r5, r6, r7, lr}
 1684              		.cfi_def_cfa_offset 24
 1685              		.cfi_offset 3, -24
 1686              		.cfi_offset 4, -20
 1687              		.cfi_offset 5, -16
 1688              		.cfi_offset 6, -12
 1689              		.cfi_offset 7, -8
 1690              		.cfi_offset 14, -4
 197:.\imu_i2c.c   **** 	{
 1691              		.loc 1 197 0
 1692 0002 AF4D     		ldr	r5, .L118
 1693 0004 2B78     		ldrb	r3, [r5]	@ zero_extendqisi2
 1694 0006 013B     		subs	r3, r3, #1
 1695 0008 112B     		cmp	r3, #17
 1696 000a 00F20C82 		bhi	.L66
 1697 000e DFE813F0 		tbh	[pc, r3, lsl #1]
 1698              	.L69:
 1699 0012 3500     		.2byte	(.L68-.L69)/2
 1700 0014 4100     		.2byte	(.L70-.L69)/2
 1701 0016 0A02     		.2byte	(.L66-.L69)/2
 1702 0018 EC00     		.2byte	(.L71-.L69)/2
 1703 001a F700     		.2byte	(.L72-.L69)/2
 1704 001c 1200     		.2byte	(.L73-.L69)/2
 1705 001e 0A02     		.2byte	(.L66-.L69)/2
 1706 0020 9101     		.2byte	(.L74-.L69)/2
 1707 0022 9A01     		.2byte	(.L75-.L69)/2
 1708 0024 A401     		.2byte	(.L76-.L69)/2
 1709 0026 B101     		.2byte	(.L77-.L69)/2
 1710 0028 BA01     		.2byte	(.L78-.L69)/2
 1711 002a C401     		.2byte	(.L79-.L69)/2
 1712 002c 0A02     		.2byte	(.L66-.L69)/2
 1713 002e 9E00     		.2byte	(.L80-.L69)/2
 1714 0030 2A00     		.2byte	(.L81-.L69)/2
 1715 0032 A800     		.2byte	(.L82-.L69)/2
 1716 0034 B300     		.2byte	(.L83-.L69)/2
 1717              		.p2align 1
 1718              	.L73:
 200:.\imu_i2c.c   **** 						{
 1719              		.loc 1 200 0
 1720 0036 A34C     		ldr	r4, .L118+4
ARM GAS  C:\Users\acer\AppData\Local\Temp\ccmxYZNb.s 			page 47


 1721 0038 A34B     		ldr	r3, .L118+8
 1722 003a 2178     		ldrb	r1, [r4]	@ zero_extendqisi2
 1723 003c 6820     		movs	r0, #104
 1724 003e 03EB4101 		add	r1, r3, r1, lsl #1
 1725 0042 0222     		movs	r2, #2
 1726 0044 FFF7FEFF 		bl	I2C_WRITE
 1727              	.LVL312:
 1728 0048 0028     		cmp	r0, #0
 1729 004a 00F0EC81 		beq	.L66
 202:.\imu_i2c.c   ****                             
 1730              		.loc 1 202 0
 1731 004e 2378     		ldrb	r3, [r4]	@ zero_extendqisi2
 1732 0050 0133     		adds	r3, r3, #1
 1733 0052 DBB2     		uxtb	r3, r3
 204:.\imu_i2c.c   ****                             {
 1734              		.loc 1 204 0
 1735 0054 052B     		cmp	r3, #5
 202:.\imu_i2c.c   ****                             
 1736              		.loc 1 202 0
 1737 0056 2370     		strb	r3, [r4]
 204:.\imu_i2c.c   ****                             {
 1738              		.loc 1 204 0
 1739 0058 40F2E581 		bls	.L66
 207:.\imu_i2c.c   ****                                 calc_count=0;
 1740              		.loc 1 207 0
 1741 005c 1023     		movs	r3, #16
 1742 005e 2B70     		strb	r3, [r5]
 208:.\imu_i2c.c   ****                             }
 1743              		.loc 1 208 0
 1744 0060 0023     		movs	r3, #0
 1745 0062 2370     		strb	r3, [r4]
 1746 0064 F8BD     		pop	{r3, r4, r5, r6, r7, pc}
 1747              	.L81:
 217:.\imu_i2c.c   **** 						   { 
 1748              		.loc 1 217 0
 1749 0066 6820     		movs	r0, #104
 1750 0068 3721     		movs	r1, #55
 1751 006a 984A     		ldr	r2, .L118+12
 1752 006c 0123     		movs	r3, #1
 1753 006e FFF7FEFF 		bl	I2C_READ
 1754              	.LVL313:
 1755 0072 0028     		cmp	r0, #0
 1756 0074 00F0D781 		beq	.L66
 219:.\imu_i2c.c   ****                            }
 1757              		.loc 1 219 0
 1758 0078 0123     		movs	r3, #1
 1759 007a BCE1     		b	.L116
 1760              	.L68:
 242:.\imu_i2c.c   **** 						   { 
 1761              		.loc 1 242 0
 1762 007c 924B     		ldr	r3, .L118+8
 1763 007e 6820     		movs	r0, #104
 1764 0080 997B     		ldrb	r1, [r3, #14]	@ zero_extendqisi2
 1765 0082 934A     		ldr	r2, .L118+16
 1766 0084 0E23     		movs	r3, #14
 1767 0086 FFF7FEFF 		bl	I2C_READ
 1768              	.LVL314:
ARM GAS  C:\Users\acer\AppData\Local\Temp\ccmxYZNb.s 			page 48


 1769 008a 0028     		cmp	r0, #0
 1770 008c 00F0CB81 		beq	.L66
 244:.\imu_i2c.c   ****                             // to read temperature from raw value = =( temperature + 12412.0) / 340
 1771              		.loc 1 244 0
 1772 0090 0223     		movs	r3, #2
 1773 0092 B0E1     		b	.L116
 1774              	.L70:
 252:.\imu_i2c.c   ****                             { 
 1775              		.loc 1 252 0
 1776 0094 8F4B     		ldr	r3, .L118+20
 1777 0096 1B78     		ldrb	r3, [r3]	@ zero_extendqisi2
 1778 0098 03F0FF06 		and	r6, r3, #255
 1779 009c 002B     		cmp	r3, #0
 1780 009e 40F0C281 		bne	.L66
 254:.\imu_i2c.c   **** 								InBuffer[1]=(Gyro_Temp_Acc_Read_Data[10]<<8)|Gyro_Temp_Acc_Read_Data[11];
 1781              		.loc 1 254 0
 1782 00a2 8B4B     		ldr	r3, .L118+16
 1783 00a4 8C4C     		ldr	r4, .L118+24
 1784 00a6 197A     		ldrb	r1, [r3, #8]	@ zero_extendqisi2
 1785 00a8 5A7A     		ldrb	r2, [r3, #9]	@ zero_extendqisi2
 255:.\imu_i2c.c   **** 								InBuffer[2]=(Gyro_Temp_Acc_Read_Data[12]<<8)|Gyro_Temp_Acc_Read_Data[13];
 1786              		.loc 1 255 0
 1787 00aa 987A     		ldrb	r0, [r3, #10]	@ zero_extendqisi2
 254:.\imu_i2c.c   **** 								InBuffer[1]=(Gyro_Temp_Acc_Read_Data[10]<<8)|Gyro_Temp_Acc_Read_Data[11];
 1788              		.loc 1 254 0
 1789 00ac 42EA0122 		orr	r2, r2, r1, lsl #8
 255:.\imu_i2c.c   **** 								InBuffer[2]=(Gyro_Temp_Acc_Read_Data[12]<<8)|Gyro_Temp_Acc_Read_Data[13];
 1790              		.loc 1 255 0
 1791 00b0 D97A     		ldrb	r1, [r3, #11]	@ zero_extendqisi2
 254:.\imu_i2c.c   **** 								InBuffer[1]=(Gyro_Temp_Acc_Read_Data[10]<<8)|Gyro_Temp_Acc_Read_Data[11];
 1792              		.loc 1 254 0
 1793 00b2 E280     		strh	r2, [r4, #6]	@ movhi
 255:.\imu_i2c.c   **** 								InBuffer[2]=(Gyro_Temp_Acc_Read_Data[12]<<8)|Gyro_Temp_Acc_Read_Data[13];
 1794              		.loc 1 255 0
 1795 00b4 41EA0021 		orr	r1, r1, r0, lsl #8
 1796 00b8 2181     		strh	r1, [r4, #8]	@ movhi
 256:.\imu_i2c.c   **** 								
 1797              		.loc 1 256 0
 1798 00ba 197B     		ldrb	r1, [r3, #12]	@ zero_extendqisi2
 1799 00bc 5B7B     		ldrb	r3, [r3, #13]	@ zero_extendqisi2
 260:.\imu_i2c.c   **** 								}
 1800              		.loc 1 260 0
 1801 00be 8748     		ldr	r0, .L118+28
 256:.\imu_i2c.c   **** 								
 1802              		.loc 1 256 0
 1803 00c0 43EA0123 		orr	r3, r3, r1, lsl #8
 1804 00c4 6381     		strh	r3, [r4, #10]	@ movhi
 1805              	.LVL315:
 260:.\imu_i2c.c   **** 								}
 1806              		.loc 1 260 0
 1807 00c6 811C     		adds	r1, r0, #2
 1808 00c8 12B2     		sxth	r2, r2
 1809 00ca 04F10C03 		add	r3, r4, #12
 1810 00ce FFF7FEFF 		bl	MPU9250_CalAvgValue
 1811              	.LVL316:
 1812 00d2 8348     		ldr	r0, .L118+32
 1813 00d4 B4F90820 		ldrsh	r2, [r4, #8]
ARM GAS  C:\Users\acer\AppData\Local\Temp\ccmxYZNb.s 			page 49


 1814 00d8 811C     		adds	r1, r0, #2
 1815 00da 04F11003 		add	r3, r4, #16
 1816 00de FFF7FEFF 		bl	MPU9250_CalAvgValue
 1817              	.LVL317:
 1818 00e2 8048     		ldr	r0, .L118+36
 1819 00e4 B4F90A20 		ldrsh	r2, [r4, #10]
 1820 00e8 811C     		adds	r1, r0, #2
 1821 00ea 04F11403 		add	r3, r4, #20
 1822 00ee FFF7FEFF 		bl	MPU9250_CalAvgValue
 1823              	.LVL318:
 263:.\imu_i2c.c   **** 								gyro[1] = *(OutBuffer + 1) - MPU9250_Offset.Y;
 1824              		.loc 1 263 0
 1825 00f2 E368     		ldr	r3, [r4, #12]
 1826 00f4 218B     		ldrh	r1, [r4, #24]
 264:.\imu_i2c.c   **** 								gyro[2] = *(OutBuffer + 2) - MPU9250_Offset.Z;
 1827              		.loc 1 264 0
 1828 00f6 628B     		ldrh	r2, [r4, #26]
 263:.\imu_i2c.c   **** 								gyro[1] = *(OutBuffer + 1) - MPU9250_Offset.Y;
 1829              		.loc 1 263 0
 1830 00f8 591A     		subs	r1, r3, r1
 264:.\imu_i2c.c   **** 								gyro[2] = *(OutBuffer + 2) - MPU9250_Offset.Z;
 1831              		.loc 1 264 0
 1832 00fa 2369     		ldr	r3, [r4, #16]
 265:.\imu_i2c.c   **** 						        
 1833              		.loc 1 265 0
 1834 00fc A78B     		ldrh	r7, [r4, #28]
 264:.\imu_i2c.c   **** 								gyro[2] = *(OutBuffer + 2) - MPU9250_Offset.Z;
 1835              		.loc 1 264 0
 1836 00fe 9A1A     		subs	r2, r3, r2
 265:.\imu_i2c.c   **** 						        
 1837              		.loc 1 265 0
 1838 0100 6369     		ldr	r3, [r4, #20]
 263:.\imu_i2c.c   **** 								gyro[1] = *(OutBuffer + 1) - MPU9250_Offset.Y;
 1839              		.loc 1 263 0
 1840 0102 7948     		ldr	r0, .L118+40
 265:.\imu_i2c.c   **** 						        
 1841              		.loc 1 265 0
 1842 0104 DB1B     		subs	r3, r3, r7
 263:.\imu_i2c.c   **** 								gyro[1] = *(OutBuffer + 1) - MPU9250_Offset.Y;
 1843              		.loc 1 263 0
 1844 0106 89B2     		uxth	r1, r1
 264:.\imu_i2c.c   **** 								gyro[2] = *(OutBuffer + 2) - MPU9250_Offset.Z;
 1845              		.loc 1 264 0
 1846 0108 92B2     		uxth	r2, r2
 265:.\imu_i2c.c   **** 						        
 1847              		.loc 1 265 0
 1848 010a 9BB2     		uxth	r3, r3
 263:.\imu_i2c.c   **** 								gyro[1] = *(OutBuffer + 1) - MPU9250_Offset.Y;
 1849              		.loc 1 263 0
 1850 010c 0180     		strh	r1, [r0]	@ movhi
 264:.\imu_i2c.c   **** 								gyro[2] = *(OutBuffer + 2) - MPU9250_Offset.Z;
 1851              		.loc 1 264 0
 1852 010e 4280     		strh	r2, [r0, #2]	@ movhi
 265:.\imu_i2c.c   **** 						        
 1853              		.loc 1 265 0
 1854 0110 8380     		strh	r3, [r0, #4]	@ movhi
 267:.\imu_i2c.c   **** 								TempGy += gyro[1];
ARM GAS  C:\Users\acer\AppData\Local\Temp\ccmxYZNb.s 			page 50


 1855              		.loc 1 267 0
 1856 0112 206A     		ldr	r0, [r4, #32]
 1857 0114 09B2     		sxth	r1, r1
 1858 0116 0144     		add	r1, r1, r0
 268:.\imu_i2c.c   **** 								TempGz += gyro[2];
 1859              		.loc 1 268 0
 1860 0118 606A     		ldr	r0, [r4, #36]
 1861 011a 12B2     		sxth	r2, r2
 1862 011c 0244     		add	r2, r2, r0
 272:.\imu_i2c.c   **** 								{
 1863              		.loc 1 272 0
 1864 011e 694F     		ldr	r7, .L118+4
 269:.\imu_i2c.c   **** 						        
 1865              		.loc 1 269 0
 1866 0120 A06A     		ldr	r0, [r4, #40]
 1867 0122 1BB2     		sxth	r3, r3
 1868 0124 0344     		add	r3, r3, r0
 272:.\imu_i2c.c   **** 								{
 1869              		.loc 1 272 0
 1870 0126 3878     		ldrb	r0, [r7]	@ zero_extendqisi2
 267:.\imu_i2c.c   **** 								TempGy += gyro[1];
 1871              		.loc 1 267 0
 1872 0128 2162     		str	r1, [r4, #32]
 272:.\imu_i2c.c   **** 								{
 1873              		.loc 1 272 0
 1874 012a 1E28     		cmp	r0, #30
 268:.\imu_i2c.c   **** 								TempGz += gyro[2];
 1875              		.loc 1 268 0
 1876 012c 6262     		str	r2, [r4, #36]
 269:.\imu_i2c.c   **** 						        
 1877              		.loc 1 269 0
 1878 012e A362     		str	r3, [r4, #40]
 272:.\imu_i2c.c   **** 								{
 1879              		.loc 1 272 0
 1880 0130 04D8     		bhi	.L86
 274:.\imu_i2c.c   **** 								  calc_count++;
 1881              		.loc 1 274 0
 1882 0132 0123     		movs	r3, #1
 275:.\imu_i2c.c   **** 								}
 1883              		.loc 1 275 0
 1884 0134 1844     		add	r0, r0, r3
 274:.\imu_i2c.c   **** 								  calc_count++;
 1885              		.loc 1 274 0
 1886 0136 2B70     		strb	r3, [r5]
 275:.\imu_i2c.c   **** 								}
 1887              		.loc 1 275 0
 1888 0138 3870     		strb	r0, [r7]
 1889 013a F8BD     		pop	{r3, r4, r5, r6, r7, pc}
 1890              	.L86:
 284:.\imu_i2c.c   ****         		
 1891              		.loc 1 284 0
 1892 013c 5B11     		asrs	r3, r3, #5
 282:.\imu_i2c.c   ****         		                    MPU9250_Offset.Y = TempGy >> 5;
 1893              		.loc 1 282 0
 1894 013e 4911     		asrs	r1, r1, #5
 283:.\imu_i2c.c   ****         		                    MPU9250_Offset.Z = TempGz >> 5;
 1895              		.loc 1 283 0
ARM GAS  C:\Users\acer\AppData\Local\Temp\ccmxYZNb.s 			page 51


 1896 0140 5211     		asrs	r2, r2, #5
 284:.\imu_i2c.c   ****         		
 1897              		.loc 1 284 0
 1898 0142 A383     		strh	r3, [r4, #28]	@ movhi
 279:.\imu_i2c.c   ****                                     // TODO: check the gyro offset value
 1899              		.loc 1 279 0
 1900 0144 3E70     		strb	r6, [r7]
 282:.\imu_i2c.c   ****         		                    MPU9250_Offset.Y = TempGy >> 5;
 1901              		.loc 1 282 0
 1902 0146 2183     		strh	r1, [r4, #24]	@ movhi
 283:.\imu_i2c.c   ****         		                    MPU9250_Offset.Z = TempGz >> 5;
 1903              		.loc 1 283 0
 1904 0148 6283     		strh	r2, [r4, #26]	@ movhi
 286:.\imu_i2c.c   **** 								}
 1905              		.loc 1 286 0
 1906 014a 0F23     		movs	r3, #15
 1907 014c 53E1     		b	.L116
 1908              	.LVL319:
 1909              	.L80:
 292:.\imu_i2c.c   **** 					  {
 1910              		.loc 1 292 0
 1911 014e 0C20     		movs	r0, #12
 1912 0150 6649     		ldr	r1, .L118+44
 1913 0152 0222     		movs	r2, #2
 1914 0154 FFF7FEFF 		bl	I2C_WRITE
 1915              	.LVL320:
 1916 0158 0028     		cmp	r0, #0
 1917 015a 00F06481 		beq	.L66
 295:.\imu_i2c.c   **** 					  }
 1918              		.loc 1 295 0
 1919 015e 1123     		movs	r3, #17
 1920 0160 49E1     		b	.L116
 1921              	.L82:
 300:.\imu_i2c.c   **** 					{				
 1922              		.loc 1 300 0
 1923 0162 0C20     		movs	r0, #12
 1924 0164 0321     		movs	r1, #3
 1925 0166 624A     		ldr	r2, .L118+48
 1926 0168 0723     		movs	r3, #7
 1927 016a FFF7FEFF 		bl	I2C_READ
 1928              	.LVL321:
 1929 016e 0028     		cmp	r0, #0
 1930 0170 00F05981 		beq	.L66
 302:.\imu_i2c.c   **** 					}
 1931              		.loc 1 302 0
 1932 0174 1223     		movs	r3, #18
 1933 0176 3EE1     		b	.L116
 1934              	.L83:
 307:.\imu_i2c.c   **** 					   {
 1935              		.loc 1 307 0
 1936 0178 564B     		ldr	r3, .L118+20
 1937 017a 1B78     		ldrb	r3, [r3]	@ zero_extendqisi2
 1938 017c 002B     		cmp	r3, #0
 1939 017e 40F05281 		bne	.L66
 313:.\imu_i2c.c   **** 							InBuffer[0]=(Mag_Read_Data[3]<<8)|Mag_Read_Data[2];
 1940              		.loc 1 313 0
 1941 0182 5B4B     		ldr	r3, .L118+48
ARM GAS  C:\Users\acer\AppData\Local\Temp\ccmxYZNb.s 			page 52


 1942 0184 544C     		ldr	r4, .L118+24
 1943 0186 5978     		ldrb	r1, [r3, #1]	@ zero_extendqisi2
 1944 0188 1A78     		ldrb	r2, [r3]	@ zero_extendqisi2
 319:.\imu_i2c.c   **** 							} 
 1945              		.loc 1 319 0
 1946 018a 5A48     		ldr	r0, .L118+52
 313:.\imu_i2c.c   **** 							InBuffer[0]=(Mag_Read_Data[3]<<8)|Mag_Read_Data[2];
 1947              		.loc 1 313 0
 1948 018c 42EA0122 		orr	r2, r2, r1, lsl #8
 1949 0190 2281     		strh	r2, [r4, #8]	@ movhi
 314:.\imu_i2c.c   **** 							InBuffer[2]=-((Mag_Read_Data[5]<<8)|Mag_Read_Data[4]);
 1950              		.loc 1 314 0
 1951 0192 D978     		ldrb	r1, [r3, #3]	@ zero_extendqisi2
 1952 0194 9A78     		ldrb	r2, [r3, #2]	@ zero_extendqisi2
 1953 0196 42EA0122 		orr	r2, r2, r1, lsl #8
 315:.\imu_i2c.c   **** 					
 1954              		.loc 1 315 0
 1955 019a 5979     		ldrb	r1, [r3, #5]	@ zero_extendqisi2
 1956 019c 1B79     		ldrb	r3, [r3, #4]	@ zero_extendqisi2
 314:.\imu_i2c.c   **** 							InBuffer[2]=-((Mag_Read_Data[5]<<8)|Mag_Read_Data[4]);
 1957              		.loc 1 314 0
 1958 019e E280     		strh	r2, [r4, #6]	@ movhi
 315:.\imu_i2c.c   **** 					
 1959              		.loc 1 315 0
 1960 01a0 43EA0123 		orr	r3, r3, r1, lsl #8
 1961 01a4 5B42     		negs	r3, r3
 319:.\imu_i2c.c   **** 							} 
 1962              		.loc 1 319 0
 1963 01a6 811C     		adds	r1, r0, #2
 315:.\imu_i2c.c   **** 					
 1964              		.loc 1 315 0
 1965 01a8 6381     		strh	r3, [r4, #10]	@ movhi
 1966              	.LVL322:
 319:.\imu_i2c.c   **** 							} 
 1967              		.loc 1 319 0
 1968 01aa 12B2     		sxth	r2, r2
 1969 01ac 04F10C03 		add	r3, r4, #12
 1970 01b0 FFF7FEFF 		bl	MPU9250_CalAvgValue
 1971              	.LVL323:
 1972 01b4 5048     		ldr	r0, .L118+56
 1973 01b6 B4F90820 		ldrsh	r2, [r4, #8]
 1974 01ba 811C     		adds	r1, r0, #2
 1975 01bc 04F11003 		add	r3, r4, #16
 1976 01c0 FFF7FEFF 		bl	MPU9250_CalAvgValue
 1977              	.LVL324:
 1978 01c4 4D48     		ldr	r0, .L118+60
 1979 01c6 B4F90A20 		ldrsh	r2, [r4, #10]
 1980 01ca 04F11403 		add	r3, r4, #20
 1981 01ce 811C     		adds	r1, r0, #2
 1982 01d0 FFF7FEFF 		bl	MPU9250_CalAvgValue
 1983              	.LVL325:
 321:.\imu_i2c.c   **** 							MPU9250_Magn_Offset.Y_Off_Err = *(OutBuffer + 1);  // TODO check what it is
 1984              		.loc 1 321 0
 1985 01d4 E368     		ldr	r3, [r4, #12]
 326:.\imu_i2c.c   ****                               st_IMU=IMU_PRES;
 1986              		.loc 1 326 0
 1987 01d6 0122     		movs	r2, #1
ARM GAS  C:\Users\acer\AppData\Local\Temp\ccmxYZNb.s 			page 53


 321:.\imu_i2c.c   **** 							MPU9250_Magn_Offset.Y_Off_Err = *(OutBuffer + 1);  // TODO check what it is
 1988              		.loc 1 321 0
 1989 01d8 A385     		strh	r3, [r4, #44]	@ movhi
 322:.\imu_i2c.c   **** 							MPU9250_Magn_Offset.Z_Off_Err = *(OutBuffer + 2);
 1990              		.loc 1 322 0
 1991 01da 2369     		ldr	r3, [r4, #16]
 1992 01dc E385     		strh	r3, [r4, #46]	@ movhi
 323:.\imu_i2c.c   ****                             
 1993              		.loc 1 323 0
 1994 01de 6369     		ldr	r3, [r4, #20]
 1995 01e0 2386     		strh	r3, [r4, #48]	@ movhi
 326:.\imu_i2c.c   ****                               st_IMU=IMU_PRES;
 1996              		.loc 1 326 0
 1997 01e2 474B     		ldr	r3, .L118+64
 1998 01e4 1A80     		strh	r2, [r3]	@ movhi
 327:.\imu_i2c.c   ****                             
 1999              		.loc 1 327 0
 2000 01e6 0423     		movs	r3, #4
 2001 01e8 05E1     		b	.L116
 2002              	.LVL326:
 2003              	.L71:
 334:.\imu_i2c.c   ****             	{
 2004              		.loc 1 334 0
 2005 01ea 7720     		movs	r0, #119
 2006 01ec AA21     		movs	r1, #170
 2007 01ee 454A     		ldr	r2, .L118+68
 2008 01f0 1623     		movs	r3, #22
 2009 01f2 FFF7FEFF 		bl	I2C_READ
 2010              	.LVL327:
 2011 01f6 0028     		cmp	r0, #0
 2012 01f8 00F01581 		beq	.L66
 336:.\imu_i2c.c   ****             	}
 2013              		.loc 1 336 0
 2014 01fc 0523     		movs	r3, #5
 2015 01fe FAE0     		b	.L116
 2016              	.L72:
 341:.\imu_i2c.c   ****     {
 2017              		.loc 1 341 0
 2018 0200 344B     		ldr	r3, .L118+20
 2019 0202 1B78     		ldrb	r3, [r3]	@ zero_extendqisi2
 2020 0204 002B     		cmp	r3, #0
 2021 0206 40F00E81 		bne	.L66
 344:.\imu_i2c.c   **** 
 2022              		.loc 1 344 0
 2023 020a 334B     		ldr	r3, .L118+24
 2024 020c 93F83210 		ldrb	r1, [r3, #50]	@ zero_extendqisi2
 2025 0210 93F83320 		ldrb	r2, [r3, #51]	@ zero_extendqisi2
 2026 0214 42EA0122 		orr	r2, r2, r1, lsl #8
 2027 0218 3B49     		ldr	r1, .L118+72
 2028 021a 0A80     		strh	r2, [r1]	@ movhi
 346:.\imu_i2c.c   ****           	
 2029              		.loc 1 346 0
 2030 021c 93F83410 		ldrb	r1, [r3, #52]	@ zero_extendqisi2
 2031 0220 93F83520 		ldrb	r2, [r3, #53]	@ zero_extendqisi2
 2032 0224 42EA0122 		orr	r2, r2, r1, lsl #8
 2033 0228 3849     		ldr	r1, .L118+76
 2034 022a 0A80     		strh	r2, [r1]	@ movhi
ARM GAS  C:\Users\acer\AppData\Local\Temp\ccmxYZNb.s 			page 54


 348:.\imu_i2c.c   ****           	
 2035              		.loc 1 348 0
 2036 022c 93F83610 		ldrb	r1, [r3, #54]	@ zero_extendqisi2
 2037 0230 93F83720 		ldrb	r2, [r3, #55]	@ zero_extendqisi2
 2038 0234 42EA0122 		orr	r2, r2, r1, lsl #8
 2039 0238 3549     		ldr	r1, .L118+80
 2040 023a 0A80     		strh	r2, [r1]	@ movhi
 350:.\imu_i2c.c   ****          
 2041              		.loc 1 350 0
 2042 023c 93F83810 		ldrb	r1, [r3, #56]	@ zero_extendqisi2
 2043 0240 93F83920 		ldrb	r2, [r3, #57]	@ zero_extendqisi2
 2044 0244 42EA0122 		orr	r2, r2, r1, lsl #8
 2045 0248 3249     		ldr	r1, .L118+84
 2046 024a 0A80     		strh	r2, [r1]	@ movhi
 352:.\imu_i2c.c   ****           
 2047              		.loc 1 352 0
 2048 024c 93F83A10 		ldrb	r1, [r3, #58]	@ zero_extendqisi2
 2049 0250 93F83B20 		ldrb	r2, [r3, #59]	@ zero_extendqisi2
 2050 0254 42EA0122 		orr	r2, r2, r1, lsl #8
 2051 0258 2F49     		ldr	r1, .L118+88
 2052 025a 0A80     		strh	r2, [r1]	@ movhi
 354:.\imu_i2c.c   **** 
 2053              		.loc 1 354 0
 2054 025c 93F83C10 		ldrb	r1, [r3, #60]	@ zero_extendqisi2
 2055 0260 93F83D20 		ldrb	r2, [r3, #61]	@ zero_extendqisi2
 2056 0264 42EA0122 		orr	r2, r2, r1, lsl #8
 2057 0268 2C49     		ldr	r1, .L118+92
 2058 026a 0A80     		strh	r2, [r1]	@ movhi
 356:.\imu_i2c.c   **** 
 2059              		.loc 1 356 0
 2060 026c 93F83E10 		ldrb	r1, [r3, #62]	@ zero_extendqisi2
 2061 0270 93F83F20 		ldrb	r2, [r3, #63]	@ zero_extendqisi2
 2062 0274 42EA0122 		orr	r2, r2, r1, lsl #8
 2063 0278 2949     		ldr	r1, .L118+96
 2064 027a 0A80     		strh	r2, [r1]	@ movhi
 358:.\imu_i2c.c   ****           	
 2065              		.loc 1 358 0
 2066 027c 93F84010 		ldrb	r1, [r3, #64]	@ zero_extendqisi2
 2067 0280 93F84120 		ldrb	r2, [r3, #65]	@ zero_extendqisi2
 2068 0284 42EA0122 		orr	r2, r2, r1, lsl #8
 2069 0288 2649     		ldr	r1, .L118+100
 2070 028a 0A80     		strh	r2, [r1]	@ movhi
 360:.\imu_i2c.c   ****          
 2071              		.loc 1 360 0
 2072 028c 93F84210 		ldrb	r1, [r3, #66]	@ zero_extendqisi2
 2073 0290 93F84320 		ldrb	r2, [r3, #67]	@ zero_extendqisi2
 2074 0294 42EA0122 		orr	r2, r2, r1, lsl #8
 2075 0298 2349     		ldr	r1, .L118+104
 2076 029a 0A80     		strh	r2, [r1]	@ movhi
 362:.\imu_i2c.c   **** 
 2077              		.loc 1 362 0
 2078 029c 93F84410 		ldrb	r1, [r3, #68]	@ zero_extendqisi2
 2079 02a0 93F84520 		ldrb	r2, [r3, #69]	@ zero_extendqisi2
 2080 02a4 42EA0122 		orr	r2, r2, r1, lsl #8
 2081 02a8 2049     		ldr	r1, .L118+108
 2082 02aa 0A80     		strh	r2, [r1]	@ movhi
 364:.\imu_i2c.c   ****             
ARM GAS  C:\Users\acer\AppData\Local\Temp\ccmxYZNb.s 			page 55


 2083              		.loc 1 364 0
 2084 02ac 93F84620 		ldrb	r2, [r3, #70]	@ zero_extendqisi2
 2085 02b0 93F84730 		ldrb	r3, [r3, #71]	@ zero_extendqisi2
 2086 02b4 43EA0223 		orr	r3, r3, r2, lsl #8
 2087 02b8 1D4A     		ldr	r2, .L118+112
 2088 02ba 1380     		strh	r3, [r2]	@ movhi
 2089 02bc 9AE0     		b	.L117
 2090              	.L119:
 2091 02be 00BF     		.align	2
 2092              	.L118:
 2093 02c0 00000000 		.word	st_IMU
 2094 02c4 00000000 		.word	calc_count
 2095 02c8 00000000 		.word	.LANCHOR1
 2096 02cc 04000000 		.word	.LANCHOR0+4
 2097 02d0 00000000 		.word	Gyro_Temp_Acc_Read_Data
 2098 02d4 00000000 		.word	stI2CMgr
 2099 02d8 00000000 		.word	.LANCHOR0
 2100 02dc 00000000 		.word	MPU9250_Filter_Gyro
 2101 02e0 12000000 		.word	MPU9250_Filter_Gyro+18
 2102 02e4 24000000 		.word	MPU9250_Filter_Gyro+36
 2103 02e8 00000000 		.word	gyro
 2104 02ec 1C000000 		.word	.LANCHOR1+28
 2105 02f0 00000000 		.word	Mag_Read_Data
 2106 02f4 00000000 		.word	MPU9250_Filter_Mag
 2107 02f8 12000000 		.word	MPU9250_Filter_Mag+18
 2108 02fc 24000000 		.word	MPU9250_Filter_Mag+36
 2109 0300 00000000 		.word	_oss
 2110 0304 32000000 		.word	.LANCHOR0+50
 2111 0308 00000000 		.word	AC1
 2112 030c 00000000 		.word	AC2
 2113 0310 00000000 		.word	AC3
 2114 0314 00000000 		.word	AC4
 2115 0318 00000000 		.word	AC5
 2116 031c 00000000 		.word	AC6
 2117 0320 00000000 		.word	B1
 2118 0324 00000000 		.word	B2
 2119 0328 00000000 		.word	MB
 2120 032c 00000000 		.word	MC
 2121 0330 00000000 		.word	MD
 2122              	.L74:
 371:.\imu_i2c.c   **** 				{
 2123              		.loc 1 371 0
 2124 0334 7720     		movs	r0, #119
 2125 0336 3C49     		ldr	r1, .L120
 2126 0338 0222     		movs	r2, #2
 2127 033a FFF7FEFF 		bl	I2C_WRITE
 2128              	.LVL328:
 2129 033e 0028     		cmp	r0, #0
 2130 0340 71D0     		beq	.L66
 373:.\imu_i2c.c   **** 				}
 2131              		.loc 1 373 0
 2132 0342 0923     		movs	r3, #9
 2133 0344 57E0     		b	.L116
 2134              	.L75:
 378:.\imu_i2c.c   **** 				{
 2135              		.loc 1 378 0
 2136 0346 7720     		movs	r0, #119
ARM GAS  C:\Users\acer\AppData\Local\Temp\ccmxYZNb.s 			page 56


 2137 0348 F621     		movs	r1, #246
 2138 034a 384A     		ldr	r2, .L120+4
 2139 034c 0223     		movs	r3, #2
 2140 034e FFF7FEFF 		bl	I2C_READ
 2141              	.LVL329:
 2142 0352 0028     		cmp	r0, #0
 2143 0354 67D0     		beq	.L66
 381:.\imu_i2c.c   **** 				}
 2144              		.loc 1 381 0
 2145 0356 0A23     		movs	r3, #10
 2146 0358 4DE0     		b	.L116
 2147              	.L76:
 386:.\imu_i2c.c   **** 				   {
 2148              		.loc 1 386 0
 2149 035a 354B     		ldr	r3, .L120+8
 2150 035c 1B78     		ldrb	r3, [r3]	@ zero_extendqisi2
 2151 035e 002B     		cmp	r3, #0
 2152 0360 61D1     		bne	.L66
 388:.\imu_i2c.c   **** 				     st_IMU=SEL_PRES;
 2153              		.loc 1 388 0
 2154 0362 324A     		ldr	r2, .L120+4
 2155 0364 1178     		ldrb	r1, [r2]	@ zero_extendqisi2
 2156 0366 5378     		ldrb	r3, [r2, #1]	@ zero_extendqisi2
 2157 0368 324A     		ldr	r2, .L120+12
 2158 036a 03EB0123 		add	r3, r3, r1, lsl #8
 2159 036e 1360     		str	r3, [r2]
 389:.\imu_i2c.c   **** 				   }
 2160              		.loc 1 389 0
 2161 0370 0B23     		movs	r3, #11
 2162 0372 40E0     		b	.L116
 2163              	.L77:
 394:.\imu_i2c.c   **** 					{
 2164              		.loc 1 394 0
 2165 0374 7720     		movs	r0, #119
 2166 0376 3049     		ldr	r1, .L120+16
 2167 0378 0222     		movs	r2, #2
 2168 037a FFF7FEFF 		bl	I2C_WRITE
 2169              	.LVL330:
 2170 037e 0028     		cmp	r0, #0
 2171 0380 51D0     		beq	.L66
 396:.\imu_i2c.c   **** 					}
 2172              		.loc 1 396 0
 2173 0382 0C23     		movs	r3, #12
 2174 0384 37E0     		b	.L116
 2175              	.L78:
 401:.\imu_i2c.c   **** 				{
 2176              		.loc 1 401 0
 2177 0386 7720     		movs	r0, #119
 2178 0388 F621     		movs	r1, #246
 2179 038a 2C4A     		ldr	r2, .L120+20
 2180 038c 0323     		movs	r3, #3
 2181 038e FFF7FEFF 		bl	I2C_READ
 2182              	.LVL331:
 2183 0392 0028     		cmp	r0, #0
 2184 0394 47D0     		beq	.L66
 404:.\imu_i2c.c   **** 				}
 2185              		.loc 1 404 0
ARM GAS  C:\Users\acer\AppData\Local\Temp\ccmxYZNb.s 			page 57


 2186 0396 0D23     		movs	r3, #13
 2187 0398 2DE0     		b	.L116
 2188              	.L79:
 408:.\imu_i2c.c   **** 				{
 2189              		.loc 1 408 0
 2190 039a 254B     		ldr	r3, .L120+8
 2191 039c 1B78     		ldrb	r3, [r3]	@ zero_extendqisi2
 2192 039e 03F0FF04 		and	r4, r3, #255
 2193 03a2 002B     		cmp	r3, #0
 2194 03a4 3FD1     		bne	.L66
 410:.\imu_i2c.c   **** 				   
 2195              		.loc 1 410 0
 2196 03a6 214A     		ldr	r2, .L120+4
 412:.\imu_i2c.c   ****             	   BMP180_CalculateTrueTemperature(&TemperatureVal);
 2197              		.loc 1 412 0
 2198 03a8 254E     		ldr	r6, .L120+24
 410:.\imu_i2c.c   **** 				   
 2199              		.loc 1 410 0
 2200 03aa 1379     		ldrb	r3, [r2, #4]	@ zero_extendqisi2
 2201 03ac D178     		ldrb	r1, [r2, #3]	@ zero_extendqisi2
 2202 03ae 1B02     		lsls	r3, r3, #8
 2203 03b0 5279     		ldrb	r2, [r2, #5]	@ zero_extendqisi2
 2204 03b2 03EB0143 		add	r3, r3, r1, lsl #16
 2205 03b6 1344     		add	r3, r3, r2
 2206 03b8 224A     		ldr	r2, .L120+28
 412:.\imu_i2c.c   ****             	   BMP180_CalculateTrueTemperature(&TemperatureVal);
 2207              		.loc 1 412 0
 2208 03ba 3046     		mov	r0, r6
 410:.\imu_i2c.c   **** 				   
 2209              		.loc 1 410 0
 2210 03bc B2F90020 		ldrsh	r2, [r2]
 2211 03c0 C2F10802 		rsb	r2, r2, #8
 2212 03c4 1341     		asrs	r3, r3, r2
 2213 03c6 204A     		ldr	r2, .L120+32
 2214 03c8 1360     		str	r3, [r2]
 412:.\imu_i2c.c   ****             	   BMP180_CalculateTrueTemperature(&TemperatureVal);
 2215              		.loc 1 412 0
 2216 03ca FFF7FEFF 		bl	BMP180_CalculateTruePressure
 2217              	.LVL332:
 413:.\imu_i2c.c   **** 				   
 2218              		.loc 1 413 0
 2219 03ce 1F48     		ldr	r0, .L120+36
 2220 03d0 FFF7FEFF 		bl	BMP180_CalculateTrueTemperature
 2221              	.LVL333:
 415:.\imu_i2c.c   ****                    {
 2222              		.loc 1 415 0
 2223 03d4 1E4A     		ldr	r2, .L120+40
 2224 03d6 1378     		ldrb	r3, [r2]	@ zero_extendqisi2
 2225 03d8 1046     		mov	r0, r2
 2226 03da 042B     		cmp	r3, #4
 2227 03dc 0DD8     		bhi	.L87
 418:.\imu_i2c.c   **** 		                {
 2228              		.loc 1 418 0
 2229 03de 012B     		cmp	r3, #1
 420:.\imu_i2c.c   **** 		                }
 2230              		.loc 1 420 0
 2231 03e0 82BF     		ittt	hi
ARM GAS  C:\Users\acer\AppData\Local\Temp\ccmxYZNb.s 			page 58


 2232 03e2 1C49     		ldrhi	r1, .L120+44
 2233 03e4 3268     		ldrhi	r2, [r6]
 2234 03e6 8C6C     		ldrhi	r4, [r1, #72]
 422:.\imu_i2c.c   ****                         st_IMU=SEL_TEMP;
 2235              		.loc 1 422 0
 2236 03e8 03F10103 		add	r3, r3, #1
 420:.\imu_i2c.c   **** 		                }
 2237              		.loc 1 420 0
 2238 03ec 84BF     		itt	hi
 2239 03ee 1219     		addhi	r2, r2, r4
 2240 03f0 8A64     		strhi	r2, [r1, #72]
 422:.\imu_i2c.c   ****                         st_IMU=SEL_TEMP;
 2241              		.loc 1 422 0
 2242 03f2 0370     		strb	r3, [r0]
 2243              	.L117:
 423:.\imu_i2c.c   ****                    }
 2244              		.loc 1 423 0
 2245 03f4 0823     		movs	r3, #8
 2246              	.L116:
 2247 03f6 2B70     		strb	r3, [r5]
 2248 03f8 F8BD     		pop	{r3, r4, r5, r6, r7, pc}
 2249              	.L87:
 427:.\imu_i2c.c   ****                     	//Temp = (float)LOCAL_ADS_ALTITUDE / 4433000;
 2250              		.loc 1 427 0
 2251 03fa 164B     		ldr	r3, .L120+44
 2252 03fc 0321     		movs	r1, #3
 2253 03fe 9B6C     		ldr	r3, [r3, #72]
 440:.\imu_i2c.c   ****                    }
 2254              		.loc 1 440 0
 2255 0400 1470     		strb	r4, [r2]
 427:.\imu_i2c.c   ****                     	//Temp = (float)LOCAL_ADS_ALTITUDE / 4433000;
 2256              		.loc 1 427 0
 2257 0402 93FBF1F3 		sdiv	r3, r3, r1
 432:.\imu_i2c.c   ****                         q0 = 1.0f;  
 2258              		.loc 1 432 0
 2259 0406 1449     		ldr	r1, .L120+48
 427:.\imu_i2c.c   ****                     	//Temp = (float)LOCAL_ADS_ALTITUDE / 4433000;
 2260              		.loc 1 427 0
 2261 0408 3360     		str	r3, [r6]
 432:.\imu_i2c.c   ****                         q0 = 1.0f;  
 2262              		.loc 1 432 0
 2263 040a 8B62     		str	r3, [r1, #40]
 433:.\imu_i2c.c   ****                       	q1 = 0.0f;
 2264              		.loc 1 433 0
 2265 040c 134B     		ldr	r3, .L120+52
 2266 040e 4FF07E51 		mov	r1, #1065353216
 2267 0412 1960     		str	r1, [r3]	@ float
 434:.\imu_i2c.c   ****                       	q2 = 0.0f;
 2268              		.loc 1 434 0
 2269 0414 1249     		ldr	r1, .L120+56
 2270 0416 0023     		movs	r3, #0
 2271 0418 0B60     		str	r3, [r1]	@ float
 435:.\imu_i2c.c   ****                       	q3 = 0.0f;
 2272              		.loc 1 435 0
 2273 041a 1249     		ldr	r1, .L120+60
 2274 041c 0B60     		str	r3, [r1]	@ float
 436:.\imu_i2c.c   ****                         st_IMU=INIT_COMP;
ARM GAS  C:\Users\acer\AppData\Local\Temp\ccmxYZNb.s 			page 59


 2275              		.loc 1 436 0
 2276 041e 1249     		ldr	r1, .L120+64
 2277 0420 0B60     		str	r3, [r1]	@ float
 437:.\imu_i2c.c   ****                         // TODO: remove it from task once initialisation is complete
 2278              		.loc 1 437 0
 2279 0422 0723     		movs	r3, #7
 2280 0424 2B70     		strb	r3, [r5]
 2281              	.L66:
 2282 0426 F8BD     		pop	{r3, r4, r5, r6, r7, pc}
 2283              	.L121:
 2284              		.align	2
 2285              	.L120:
 2286 0428 24000000 		.word	.LANCHOR1+36
 2287 042c 00000000 		.word	Alt_Read_Data
 2288 0430 00000000 		.word	stI2CMgr
 2289 0434 00000000 		.word	UT
 2290 0438 26000000 		.word	.LANCHOR1+38
 2291 043c 03000000 		.word	Alt_Read_Data+3
 2292 0440 00000000 		.word	PressureVal
 2293 0444 00000000 		.word	_oss
 2294 0448 00000000 		.word	UP
 2295 044c 00000000 		.word	TemperatureVal
 2296 0450 00000000 		.word	calc_count
 2297 0454 00000000 		.word	.LANCHOR0
 2298 0458 00000000 		.word	.LANCHOR1
 2299 045c 00000000 		.word	q0
 2300 0460 00000000 		.word	q1
 2301 0464 00000000 		.word	q2
 2302 0468 00000000 		.word	q3
 2303              		.cfi_endproc
 2304              	.LFE3:
 2305              		.size	MPU9250_Init, .-MPU9250_Init
 2306              		.global	__aeabi_i2f
 2307              		.global	__aeabi_fdiv
 2308              		.global	__aeabi_d2iz
 2309              		.section	.text.BMP180_CalculateAbsoluteAltitude,"ax",%progbits
 2310              		.align	1
 2311              		.global	BMP180_CalculateAbsoluteAltitude
 2312              		.thumb
 2313              		.thumb_func
 2314              		.type	BMP180_CalculateAbsoluteAltitude, %function
 2315              	BMP180_CalculateAbsoluteAltitude:
 2316              	.LFB10:
 834:.\imu_i2c.c   **** }
 835:.\imu_i2c.c   **** 
 836:.\imu_i2c.c   **** 
 837:.\imu_i2c.c   **** 
 838:.\imu_i2c.c   **** 
 839:.\imu_i2c.c   **** 
 840:.\imu_i2c.c   **** 
 841:.\imu_i2c.c   **** /** 
 842:.\imu_i2c.c   ****   * @brief  Calculating absolute altitude
 843:.\imu_i2c.c   ****   * @param  *pAltitude: absolute altitude
 844:.\imu_i2c.c   ****   * @param  PressureVal: the pressure at the absolute altitude
 845:.\imu_i2c.c   ****   * @retval None
 846:.\imu_i2c.c   ****   */
 847:.\imu_i2c.c   **** void BMP180_CalculateAbsoluteAltitude(_SINT32 *pAltitude, _SINT32 PressureVal)
ARM GAS  C:\Users\acer\AppData\Local\Temp\ccmxYZNb.s 			page 60


 848:.\imu_i2c.c   **** {
 2317              		.loc 1 848 0
 2318              		.cfi_startproc
 2319              		@ args = 0, pretend = 0, frame = 0
 2320              		@ frame_needed = 0, uses_anonymous_args = 0
 2321              	.LVL334:
 2322 0000 38B5     		push	{r3, r4, r5, lr}
 2323              		.cfi_def_cfa_offset 16
 2324              		.cfi_offset 3, -16
 2325              		.cfi_offset 4, -12
 2326              		.cfi_offset 5, -8
 2327              		.cfi_offset 14, -4
 2328              		.loc 1 848 0
 2329 0002 0446     		mov	r4, r0
 849:.\imu_i2c.c   **** 	*pAltitude = 4433000 * (1.0f - pow((PressureVal / (float)Pressure0), 0.1903f)); 
 2330              		.loc 1 849 0
 2331 0004 0846     		mov	r0, r1
 2332              	.LVL335:
 2333 0006 FFF7FEFF 		bl	__aeabi_i2f
 2334              	.LVL336:
 2335 000a 134B     		ldr	r3, .L123+16
 2336 000c 0546     		mov	r5, r0
 2337 000e 986A     		ldr	r0, [r3, #40]
 2338 0010 FFF7FEFF 		bl	__aeabi_i2f
 2339              	.LVL337:
 2340 0014 0146     		mov	r1, r0
 2341 0016 2846     		mov	r0, r5
 2342 0018 FFF7FEFF 		bl	__aeabi_fdiv
 2343              	.LVL338:
 2344 001c FFF7FEFF 		bl	__aeabi_f2d
 2345              	.LVL339:
 2346 0020 09A3     		adr	r3, .L123
 2347 0022 D3E90023 		ldrd	r2, [r3]
 2348 0026 FFF7FEFF 		bl	pow
 2349              	.LVL340:
 2350 002a 0246     		mov	r2, r0
 2351 002c 0B46     		mov	r3, r1
 2352 002e 0020     		movs	r0, #0
 2353 0030 0A49     		ldr	r1, .L123+20
 2354 0032 FFF7FEFF 		bl	__aeabi_dsub
 2355              	.LVL341:
 2356 0036 06A3     		adr	r3, .L123+8
 2357 0038 D3E90023 		ldrd	r2, [r3]
 2358 003c FFF7FEFF 		bl	__aeabi_dmul
 2359              	.LVL342:
 2360 0040 FFF7FEFF 		bl	__aeabi_d2iz
 2361              	.LVL343:
 2362 0044 2060     		str	r0, [r4]
 2363 0046 38BD     		pop	{r3, r4, r5, pc}
 2364              	.LVL344:
 2365              	.L124:
 2366              		.align	3
 2367              	.L123:
 2368 0048 00000020 		.word	536870912
 2369 004c C05BC83F 		.word	1070095296
 2370 0050 00000000 		.word	0
 2371 0054 1AE95041 		.word	1095821594
ARM GAS  C:\Users\acer\AppData\Local\Temp\ccmxYZNb.s 			page 61


 2372 0058 00000000 		.word	.LANCHOR1
 2373 005c 0000F03F 		.word	1072693248
 2374              		.cfi_endproc
 2375              	.LFE10:
 2376              		.size	BMP180_CalculateAbsoluteAltitude, .-BMP180_CalculateAbsoluteAltitude
 2377              		.section	.text.BMP180_CalAvgValue,"ax",%progbits
 2378              		.align	1
 2379              		.global	BMP180_CalAvgValue
 2380              		.thumb
 2381              		.thumb_func
 2382              		.type	BMP180_CalAvgValue, %function
 2383              	BMP180_CalAvgValue:
 2384              	.LFB11:
 850:.\imu_i2c.c   **** }
 851:.\imu_i2c.c   **** 
 852:.\imu_i2c.c   **** 
 853:.\imu_i2c.c   **** /**
 854:.\imu_i2c.c   ****   * @brief  Digital filter
 855:.\imu_i2c.c   ****   * @param *pIndex:
 856:.\imu_i2c.c   ****   * @param *pAvgBuffer:
 857:.\imu_i2c.c   ****   * @param InVal:
 858:.\imu_i2c.c   ****   * @param pOutVal:
 859:.\imu_i2c.c   ****   *
 860:.\imu_i2c.c   ****   * @retval None
 861:.\imu_i2c.c   ****   *               
 862:.\imu_i2c.c   ****   */
 863:.\imu_i2c.c   **** void BMP180_CalAvgValue(_UINT8 *pIndex, _SINT32 *pAvgBuffer, _SINT32 InVal, _SINT32 *pOutVal)
 864:.\imu_i2c.c   **** {	
 2385              		.loc 1 864 0
 2386              		.cfi_startproc
 2387              		@ args = 0, pretend = 0, frame = 0
 2388              		@ frame_needed = 0, uses_anonymous_args = 0
 2389              	.LVL345:
 2390 0000 30B5     		push	{r4, r5, lr}
 2391              		.cfi_def_cfa_offset 12
 2392              		.cfi_offset 4, -12
 2393              		.cfi_offset 5, -8
 2394              		.cfi_offset 14, -4
 865:.\imu_i2c.c   **** 	uint8_t i;
 866:.\imu_i2c.c   **** 	
 867:.\imu_i2c.c   ****   	*(pAvgBuffer + ((*pIndex) ++)) = InVal;
 2395              		.loc 1 867 0
 2396 0002 0478     		ldrb	r4, [r0]	@ zero_extendqisi2
 2397 0004 651C     		adds	r5, r4, #1
 2398 0006 0570     		strb	r5, [r0]
 2399 0008 41F82420 		str	r2, [r1, r4, lsl #2]
 868:.\imu_i2c.c   ****   	*pIndex &= 0x07;
 2400              		.loc 1 868 0
 2401 000c 0278     		ldrb	r2, [r0]	@ zero_extendqisi2
 2402              	.LVL346:
 2403 000e 02F00702 		and	r2, r2, #7
 2404 0012 0270     		strb	r2, [r0]
 2405              	.LVL347:
 869:.\imu_i2c.c   ****   	
 870:.\imu_i2c.c   ****   	*pOutVal = 0;
 2406              		.loc 1 870 0
 2407 0014 0022     		movs	r2, #0
ARM GAS  C:\Users\acer\AppData\Local\Temp\ccmxYZNb.s 			page 62


 2408 0016 081F     		subs	r0, r1, #4
 2409              	.LVL348:
 2410 0018 1A60     		str	r2, [r3]
 2411              	.LVL349:
 2412 001a 1C31     		adds	r1, r1, #28
 2413              	.LVL350:
 2414              	.L126:
 871:.\imu_i2c.c   **** 	for(i = 0; i < 8; i ++) 
 872:.\imu_i2c.c   ****   	{
 873:.\imu_i2c.c   ****     	*pOutVal += *(pAvgBuffer + i);
 2415              		.loc 1 873 0 discriminator 3
 2416 001c 50F8042F 		ldr	r2, [r0, #4]!
 2417 0020 1C68     		ldr	r4, [r3]
 871:.\imu_i2c.c   **** 	for(i = 0; i < 8; i ++) 
 2418              		.loc 1 871 0 discriminator 3
 2419 0022 8842     		cmp	r0, r1
 2420              		.loc 1 873 0 discriminator 3
 2421 0024 2244     		add	r2, r2, r4
 2422 0026 1A60     		str	r2, [r3]
 871:.\imu_i2c.c   **** 	for(i = 0; i < 8; i ++) 
 2423              		.loc 1 871 0 discriminator 3
 2424 0028 F8D1     		bne	.L126
 874:.\imu_i2c.c   ****   	}
 875:.\imu_i2c.c   ****   	*pOutVal >>= 3;
 2425              		.loc 1 875 0
 2426 002a D210     		asrs	r2, r2, #3
 2427 002c 1A60     		str	r2, [r3]
 2428 002e 30BD     		pop	{r4, r5, pc}
 2429              		.cfi_endproc
 2430              	.LFE11:
 2431              		.size	BMP180_CalAvgValue, .-BMP180_CalAvgValue
 2432              		.global	__aeabi_i2d
 2433              		.global	__aeabi_ddiv
 2434              		.section	.text.Read_From_ALL,"ax",%progbits
 2435              		.align	1
 2436              		.global	Read_From_ALL
 2437              		.thumb
 2438              		.thumb_func
 2439              		.type	Read_From_ALL, %function
 2440              	Read_From_ALL:
 2441              	.LFB4:
 454:.\imu_i2c.c   ****     
 2442              		.loc 1 454 0
 2443              		.cfi_startproc
 2444              		@ args = 0, pretend = 0, frame = 32
 2445              		@ frame_needed = 0, uses_anonymous_args = 0
 2446 0000 2DE9F04F 		push	{r4, r5, r6, r7, r8, r9, r10, fp, lr}
 2447              		.cfi_def_cfa_offset 36
 2448              		.cfi_offset 4, -36
 2449              		.cfi_offset 5, -32
 2450              		.cfi_offset 6, -28
 2451              		.cfi_offset 7, -24
 2452              		.cfi_offset 8, -20
 2453              		.cfi_offset 9, -16
 2454              		.cfi_offset 10, -12
 2455              		.cfi_offset 11, -8
 2456              		.cfi_offset 14, -4
ARM GAS  C:\Users\acer\AppData\Local\Temp\ccmxYZNb.s 			page 63


 468:.\imu_i2c.c   **** 			{
 2457              		.loc 1 468 0
 2458 0004 8A4D     		ldr	r5, .L159
 454:.\imu_i2c.c   ****     
 2459              		.loc 1 454 0
 2460 0006 8FB0     		sub	sp, sp, #60
 2461              		.cfi_def_cfa_offset 96
 468:.\imu_i2c.c   **** 			{
 2462              		.loc 1 468 0
 2463 0008 2B78     		ldrb	r3, [r5]	@ zero_extendqisi2
 2464 000a 013B     		subs	r3, r3, #1
 2465 000c 112B     		cmp	r3, #17
 2466 000e 00F2EE82 		bhi	.L128
 2467 0012 DFE813F0 		tbh	[pc, r3, lsl #1]
 2468              	.L131:
 2469 0016 1E00     		.2byte	(.L130-.L131)/2
 2470 0018 EC02     		.2byte	(.L128-.L131)/2
 2471 001a EC02     		.2byte	(.L128-.L131)/2
 2472 001c EC02     		.2byte	(.L128-.L131)/2
 2473 001e EC02     		.2byte	(.L128-.L131)/2
 2474 0020 EC02     		.2byte	(.L128-.L131)/2
 2475 0022 EC02     		.2byte	(.L128-.L131)/2
 2476 0024 D400     		.2byte	(.L132-.L131)/2
 2477 0026 DE00     		.2byte	(.L133-.L131)/2
 2478 0028 E900     		.2byte	(.L134-.L131)/2
 2479 002a F700     		.2byte	(.L135-.L131)/2
 2480 002c 0101     		.2byte	(.L136-.L131)/2
 2481 002e 3701     		.2byte	(.L137-.L131)/2
 2482 0030 1200     		.2byte	(.L138-.L131)/2
 2483 0032 EC02     		.2byte	(.L128-.L131)/2
 2484 0034 EC02     		.2byte	(.L128-.L131)/2
 2485 0036 8A00     		.2byte	(.L139-.L131)/2
 2486 0038 9500     		.2byte	(.L140-.L131)/2
 2487              		.p2align 1
 2488              	.L138:
 471:.\imu_i2c.c   **** 						   { 
 2489              		.loc 1 471 0
 2490 003a 7E4B     		ldr	r3, .L159+4
 2491 003c 6820     		movs	r0, #104
 2492 003e 997B     		ldrb	r1, [r3, #14]	@ zero_extendqisi2
 2493 0040 7D4A     		ldr	r2, .L159+8
 2494 0042 0E23     		movs	r3, #14
 2495 0044 FFF7FEFF 		bl	I2C_READ
 2496              	.LVL351:
 2497 0048 0028     		cmp	r0, #0
 2498 004a 00F0D082 		beq	.L128
 473:.\imu_i2c.c   ****                             // to read temperature from raw value = =( temperature + 12412.0) / 340
 2499              		.loc 1 473 0
 2500 004e 0123     		movs	r3, #1
 2501 0050 69E0     		b	.L158
 2502              	.L130:
 479:.\imu_i2c.c   **** 					   {
 2503              		.loc 1 479 0
 2504 0052 7A4B     		ldr	r3, .L159+12
 2505 0054 1B78     		ldrb	r3, [r3]	@ zero_extendqisi2
 2506 0056 002B     		cmp	r3, #0
 2507 0058 40F0C982 		bne	.L128
ARM GAS  C:\Users\acer\AppData\Local\Temp\ccmxYZNb.s 			page 64


 482:.\imu_i2c.c   **** 							InBuffer[1]=(Gyro_Temp_Acc_Read_Data[2]<<8)|Gyro_Temp_Acc_Read_Data[3];
 2508              		.loc 1 482 0
 2509 005c 764E     		ldr	r6, .L159+8
 2510 005e 784C     		ldr	r4, .L159+16
 2511 0060 7378     		ldrb	r3, [r6, #1]	@ zero_extendqisi2
 2512 0062 3278     		ldrb	r2, [r6]	@ zero_extendqisi2
 483:.\imu_i2c.c   **** 							InBuffer[2]=(Gyro_Temp_Acc_Read_Data[4]<<8)|Gyro_Temp_Acc_Read_Data[5];
 2513              		.loc 1 483 0
 2514 0064 B178     		ldrb	r1, [r6, #2]	@ zero_extendqisi2
 482:.\imu_i2c.c   **** 							InBuffer[1]=(Gyro_Temp_Acc_Read_Data[2]<<8)|Gyro_Temp_Acc_Read_Data[3];
 2515              		.loc 1 482 0
 2516 0066 43EA0222 		orr	r2, r3, r2, lsl #8
 483:.\imu_i2c.c   **** 							InBuffer[2]=(Gyro_Temp_Acc_Read_Data[4]<<8)|Gyro_Temp_Acc_Read_Data[5];
 2517              		.loc 1 483 0
 2518 006a F378     		ldrb	r3, [r6, #3]	@ zero_extendqisi2
 488:.\imu_i2c.c   **** 							}
 2519              		.loc 1 488 0
 2520 006c 7548     		ldr	r0, .L159+20
 483:.\imu_i2c.c   **** 							InBuffer[2]=(Gyro_Temp_Acc_Read_Data[4]<<8)|Gyro_Temp_Acc_Read_Data[5];
 2521              		.loc 1 483 0
 2522 006e 43EA0123 		orr	r3, r3, r1, lsl #8
 2523 0072 2381     		strh	r3, [r4, #8]	@ movhi
 484:.\imu_i2c.c   **** 					
 2524              		.loc 1 484 0
 2525 0074 3179     		ldrb	r1, [r6, #4]	@ zero_extendqisi2
 2526 0076 7379     		ldrb	r3, [r6, #5]	@ zero_extendqisi2
 482:.\imu_i2c.c   **** 							InBuffer[1]=(Gyro_Temp_Acc_Read_Data[2]<<8)|Gyro_Temp_Acc_Read_Data[3];
 2527              		.loc 1 482 0
 2528 0078 E280     		strh	r2, [r4, #6]	@ movhi
 484:.\imu_i2c.c   **** 					
 2529              		.loc 1 484 0
 2530 007a 43EA0123 		orr	r3, r3, r1, lsl #8
 2531 007e 6381     		strh	r3, [r4, #10]	@ movhi
 2532              	.LVL352:
 488:.\imu_i2c.c   **** 							}
 2533              		.loc 1 488 0
 2534 0080 811C     		adds	r1, r0, #2
 2535 0082 12B2     		sxth	r2, r2
 2536 0084 04F10C03 		add	r3, r4, #12
 2537 0088 FFF7FEFF 		bl	MPU9250_CalAvgValue
 2538              	.LVL353:
 2539 008c 6E48     		ldr	r0, .L159+24
 2540 008e B4F90820 		ldrsh	r2, [r4, #8]
 2541 0092 811C     		adds	r1, r0, #2
 2542 0094 04F11003 		add	r3, r4, #16
 2543 0098 FFF7FEFF 		bl	MPU9250_CalAvgValue
 2544              	.LVL354:
 2545 009c 6B48     		ldr	r0, .L159+28
 2546 009e B4F90A20 		ldrsh	r2, [r4, #10]
 2547 00a2 811C     		adds	r1, r0, #2
 2548 00a4 04F11403 		add	r3, r4, #20
 2549 00a8 FFF7FEFF 		bl	MPU9250_CalAvgValue
 2550              	.LVL355:
 491:.\imu_i2c.c   **** 						   accel[1] = *(OutBuffer + 1);
 2551              		.loc 1 491 0
 2552 00ac E368     		ldr	r3, [r4, #12]
 499:.\imu_i2c.c   **** 							InBuffer[1]=(Gyro_Temp_Acc_Read_Data[10]<<8)|Gyro_Temp_Acc_Read_Data[11];
ARM GAS  C:\Users\acer\AppData\Local\Temp\ccmxYZNb.s 			page 65


 2553              		.loc 1 499 0
 2554 00ae 327A     		ldrb	r2, [r6, #8]	@ zero_extendqisi2
 491:.\imu_i2c.c   **** 						   accel[1] = *(OutBuffer + 1);
 2555              		.loc 1 491 0
 2556 00b0 A4F84C30 		strh	r3, [r4, #76]	@ movhi
 492:.\imu_i2c.c   ****                            accel[2] = *(OutBuffer + 2);
 2557              		.loc 1 492 0
 2558 00b4 2369     		ldr	r3, [r4, #16]
 500:.\imu_i2c.c   **** 							InBuffer[2]=(Gyro_Temp_Acc_Read_Data[12]<<8)|Gyro_Temp_Acc_Read_Data[13];
 2559              		.loc 1 500 0
 2560 00b6 B17A     		ldrb	r1, [r6, #10]	@ zero_extendqisi2
 492:.\imu_i2c.c   ****                            accel[2] = *(OutBuffer + 2);
 2561              		.loc 1 492 0
 2562 00b8 A4F84E30 		strh	r3, [r4, #78]	@ movhi
 493:.\imu_i2c.c   ****                         
 2563              		.loc 1 493 0
 2564 00bc 6369     		ldr	r3, [r4, #20]
 504:.\imu_i2c.c   ****     						   }
 2565              		.loc 1 504 0
 2566 00be 6448     		ldr	r0, .L159+32
 493:.\imu_i2c.c   ****                         
 2567              		.loc 1 493 0
 2568 00c0 A4F85030 		strh	r3, [r4, #80]	@ movhi
 499:.\imu_i2c.c   **** 							InBuffer[1]=(Gyro_Temp_Acc_Read_Data[10]<<8)|Gyro_Temp_Acc_Read_Data[11];
 2569              		.loc 1 499 0
 2570 00c4 737A     		ldrb	r3, [r6, #9]	@ zero_extendqisi2
 2571 00c6 43EA0222 		orr	r2, r3, r2, lsl #8
 500:.\imu_i2c.c   **** 							InBuffer[2]=(Gyro_Temp_Acc_Read_Data[12]<<8)|Gyro_Temp_Acc_Read_Data[13];
 2572              		.loc 1 500 0
 2573 00ca F37A     		ldrb	r3, [r6, #11]	@ zero_extendqisi2
 499:.\imu_i2c.c   **** 							InBuffer[1]=(Gyro_Temp_Acc_Read_Data[10]<<8)|Gyro_Temp_Acc_Read_Data[11];
 2574              		.loc 1 499 0
 2575 00cc E280     		strh	r2, [r4, #6]	@ movhi
 500:.\imu_i2c.c   **** 							InBuffer[2]=(Gyro_Temp_Acc_Read_Data[12]<<8)|Gyro_Temp_Acc_Read_Data[13];
 2576              		.loc 1 500 0
 2577 00ce 43EA0123 		orr	r3, r3, r1, lsl #8
 2578 00d2 2381     		strh	r3, [r4, #8]	@ movhi
 501:.\imu_i2c.c   **** 					        for( i = 0; i < 3; i ++)	
 2579              		.loc 1 501 0
 2580 00d4 317B     		ldrb	r1, [r6, #12]	@ zero_extendqisi2
 2581 00d6 737B     		ldrb	r3, [r6, #13]	@ zero_extendqisi2
 504:.\imu_i2c.c   ****     						   }
 2582              		.loc 1 504 0
 2583 00d8 12B2     		sxth	r2, r2
 501:.\imu_i2c.c   **** 					        for( i = 0; i < 3; i ++)	
 2584              		.loc 1 501 0
 2585 00da 43EA0123 		orr	r3, r3, r1, lsl #8
 2586 00de 6381     		strh	r3, [r4, #10]	@ movhi
 2587              	.LVL356:
 504:.\imu_i2c.c   ****     						   }
 2588              		.loc 1 504 0
 2589 00e0 811C     		adds	r1, r0, #2
 2590 00e2 04F10C03 		add	r3, r4, #12
 2591 00e6 FFF7FEFF 		bl	MPU9250_CalAvgValue
 2592              	.LVL357:
 2593 00ea 5A48     		ldr	r0, .L159+36
 2594 00ec B4F90820 		ldrsh	r2, [r4, #8]
ARM GAS  C:\Users\acer\AppData\Local\Temp\ccmxYZNb.s 			page 66


 2595 00f0 811C     		adds	r1, r0, #2
 2596 00f2 04F11003 		add	r3, r4, #16
 2597 00f6 FFF7FEFF 		bl	MPU9250_CalAvgValue
 2598              	.LVL358:
 2599 00fa 5748     		ldr	r0, .L159+40
 2600 00fc B4F90A20 		ldrsh	r2, [r4, #10]
 2601 0100 811C     		adds	r1, r0, #2
 2602 0102 04F11403 		add	r3, r4, #20
 2603 0106 FFF7FEFF 		bl	MPU9250_CalAvgValue
 2604              	.LVL359:
 507:.\imu_i2c.c   **** 							gyro[1] = *(OutBuffer + 1) - MPU9250_Offset.Y;
 2605              		.loc 1 507 0
 2606 010a 218B     		ldrh	r1, [r4, #24]
 2607 010c E268     		ldr	r2, [r4, #12]
 2608 010e 534B     		ldr	r3, .L159+44
 2609 0110 521A     		subs	r2, r2, r1
 2610 0112 1A80     		strh	r2, [r3]	@ movhi
 508:.\imu_i2c.c   **** 							gyro[2] = *(OutBuffer + 2) - MPU9250_Offset.Z;
 2611              		.loc 1 508 0
 2612 0114 618B     		ldrh	r1, [r4, #26]
 2613 0116 2269     		ldr	r2, [r4, #16]
 2614 0118 521A     		subs	r2, r2, r1
 2615 011a 5A80     		strh	r2, [r3, #2]	@ movhi
 509:.\imu_i2c.c   ****                             
 2616              		.loc 1 509 0
 2617 011c A18B     		ldrh	r1, [r4, #28]
 2618 011e 6269     		ldr	r2, [r4, #20]
 2619 0120 521A     		subs	r2, r2, r1
 2620 0122 9A80     		strh	r2, [r3, #4]	@ movhi
 511:.\imu_i2c.c   ****                            
 2621              		.loc 1 511 0
 2622 0124 1123     		movs	r3, #17
 2623              	.LVL360:
 2624              	.L158:
 2625 0126 2B70     		strb	r3, [r5]
 2626 0128 61E2     		b	.L128
 2627              	.L139:
 517:.\imu_i2c.c   ****                     //if(I2C_READ(MAG_ADDRESS,Mag_Reg[0], &Mag_Read_Data[0], 7))  // read all gyro 
 2628              		.loc 1 517 0
 2629 012a 0C20     		movs	r0, #12
 2630 012c 0021     		movs	r1, #0
 2631 012e 4C4A     		ldr	r2, .L159+48
 2632 0130 0123     		movs	r3, #1
 2633 0132 FFF7FEFF 		bl	I2C_READ
 2634              	.LVL361:
 2635 0136 0028     		cmp	r0, #0
 2636 0138 00F05982 		beq	.L128
 520:.\imu_i2c.c   **** 					}
 2637              		.loc 1 520 0
 2638 013c 1223     		movs	r3, #18
 2639 013e F2E7     		b	.L158
 2640              	.L140:
 524:.\imu_i2c.c   **** 					   {
 2641              		.loc 1 524 0
 2642 0140 3E4B     		ldr	r3, .L159+12
 2643 0142 1B78     		ldrb	r3, [r3]	@ zero_extendqisi2
 2644 0144 002B     		cmp	r3, #0
ARM GAS  C:\Users\acer\AppData\Local\Temp\ccmxYZNb.s 			page 67


 2645 0146 40F05282 		bne	.L128
 530:.\imu_i2c.c   **** 							InBuffer[0]=(Mag_Read_Data[3]<<8)|Mag_Read_Data[2];
 2646              		.loc 1 530 0
 2647 014a 454B     		ldr	r3, .L159+48
 2648 014c 3C4C     		ldr	r4, .L159+16
 2649 014e 5978     		ldrb	r1, [r3, #1]	@ zero_extendqisi2
 2650 0150 1A78     		ldrb	r2, [r3]	@ zero_extendqisi2
 536:.\imu_i2c.c   **** 							} 
 2651              		.loc 1 536 0
 2652 0152 4448     		ldr	r0, .L159+52
 530:.\imu_i2c.c   **** 							InBuffer[0]=(Mag_Read_Data[3]<<8)|Mag_Read_Data[2];
 2653              		.loc 1 530 0
 2654 0154 42EA0122 		orr	r2, r2, r1, lsl #8
 2655 0158 2281     		strh	r2, [r4, #8]	@ movhi
 531:.\imu_i2c.c   **** 							InBuffer[2]=-((Mag_Read_Data[5]<<8)|Mag_Read_Data[4]);
 2656              		.loc 1 531 0
 2657 015a D978     		ldrb	r1, [r3, #3]	@ zero_extendqisi2
 2658 015c 9A78     		ldrb	r2, [r3, #2]	@ zero_extendqisi2
 2659 015e 42EA0122 		orr	r2, r2, r1, lsl #8
 532:.\imu_i2c.c   **** 					
 2660              		.loc 1 532 0
 2661 0162 5979     		ldrb	r1, [r3, #5]	@ zero_extendqisi2
 2662 0164 1B79     		ldrb	r3, [r3, #4]	@ zero_extendqisi2
 531:.\imu_i2c.c   **** 							InBuffer[2]=-((Mag_Read_Data[5]<<8)|Mag_Read_Data[4]);
 2663              		.loc 1 531 0
 2664 0166 E280     		strh	r2, [r4, #6]	@ movhi
 532:.\imu_i2c.c   **** 					
 2665              		.loc 1 532 0
 2666 0168 43EA0123 		orr	r3, r3, r1, lsl #8
 2667 016c 5B42     		negs	r3, r3
 536:.\imu_i2c.c   **** 							} 
 2668              		.loc 1 536 0
 2669 016e 811C     		adds	r1, r0, #2
 532:.\imu_i2c.c   **** 					
 2670              		.loc 1 532 0
 2671 0170 6381     		strh	r3, [r4, #10]	@ movhi
 2672              	.LVL362:
 536:.\imu_i2c.c   **** 							} 
 2673              		.loc 1 536 0
 2674 0172 12B2     		sxth	r2, r2
 2675 0174 04F10C03 		add	r3, r4, #12
 2676 0178 FFF7FEFF 		bl	MPU9250_CalAvgValue
 2677              	.LVL363:
 2678 017c 3A48     		ldr	r0, .L159+56
 2679 017e B4F90820 		ldrsh	r2, [r4, #8]
 2680 0182 811C     		adds	r1, r0, #2
 2681 0184 04F11003 		add	r3, r4, #16
 2682 0188 FFF7FEFF 		bl	MPU9250_CalAvgValue
 2683              	.LVL364:
 2684 018c 3748     		ldr	r0, .L159+60
 2685 018e B4F90A20 		ldrsh	r2, [r4, #10]
 2686 0192 04F11403 		add	r3, r4, #20
 2687 0196 811C     		adds	r1, r0, #2
 2688 0198 FFF7FEFF 		bl	MPU9250_CalAvgValue
 2689              	.LVL365:
 538:.\imu_i2c.c   **** 							magn[1] = *(OutBuffer + 1)-MPU9250_Magn_Offset.Y_Off_Err;  // TODO check what it is
 2690              		.loc 1 538 0
ARM GAS  C:\Users\acer\AppData\Local\Temp\ccmxYZNb.s 			page 68


 2691 019c A28D     		ldrh	r2, [r4, #44]
 2692 019e E368     		ldr	r3, [r4, #12]
 2693 01a0 9B1A     		subs	r3, r3, r2
 2694 01a2 A4F85230 		strh	r3, [r4, #82]	@ movhi
 539:.\imu_i2c.c   **** 							magn[2] = *(OutBuffer + 2)-MPU9250_Magn_Offset.Z_Off_Err;
 2695              		.loc 1 539 0
 2696 01a6 E28D     		ldrh	r2, [r4, #46]
 2697 01a8 2369     		ldr	r3, [r4, #16]
 2698 01aa 9B1A     		subs	r3, r3, r2
 2699 01ac A4F85430 		strh	r3, [r4, #84]	@ movhi
 540:.\imu_i2c.c   **** 							st_Read=SEL_TEMP;
 2700              		.loc 1 540 0
 2701 01b0 228E     		ldrh	r2, [r4, #48]
 2702 01b2 6369     		ldr	r3, [r4, #20]
 2703 01b4 9B1A     		subs	r3, r3, r2
 2704 01b6 A4F85630 		strh	r3, [r4, #86]	@ movhi
 541:.\imu_i2c.c   **** 						}
 2705              		.loc 1 541 0
 2706 01ba 0823     		movs	r3, #8
 2707 01bc B3E7     		b	.L158
 2708              	.LVL366:
 2709              	.L132:
 546:.\imu_i2c.c   **** 					{
 2710              		.loc 1 546 0
 2711 01be 7720     		movs	r0, #119
 2712 01c0 2B49     		ldr	r1, .L159+64
 2713 01c2 0222     		movs	r2, #2
 2714 01c4 FFF7FEFF 		bl	I2C_WRITE
 2715              	.LVL367:
 2716 01c8 0028     		cmp	r0, #0
 2717 01ca 00F01082 		beq	.L128
 548:.\imu_i2c.c   **** 					}
 2718              		.loc 1 548 0
 2719 01ce 0923     		movs	r3, #9
 2720 01d0 A9E7     		b	.L158
 2721              	.L133:
 559:.\imu_i2c.c   **** 					{
 2722              		.loc 1 559 0
 2723 01d2 7720     		movs	r0, #119
 2724 01d4 F621     		movs	r1, #246
 2725 01d6 274A     		ldr	r2, .L159+68
 2726 01d8 0223     		movs	r3, #2
 2727 01da FFF7FEFF 		bl	I2C_READ
 2728              	.LVL368:
 2729 01de 0028     		cmp	r0, #0
 2730 01e0 00F00582 		beq	.L128
 562:.\imu_i2c.c   **** 					}
 2731              		.loc 1 562 0
 2732 01e4 0A23     		movs	r3, #10
 2733 01e6 9EE7     		b	.L158
 2734              	.L134:
 567:.\imu_i2c.c   **** 					   {
 2735              		.loc 1 567 0
 2736 01e8 144B     		ldr	r3, .L159+12
 2737 01ea 1B78     		ldrb	r3, [r3]	@ zero_extendqisi2
 2738 01ec 002B     		cmp	r3, #0
 2739 01ee 40F0FE81 		bne	.L128
ARM GAS  C:\Users\acer\AppData\Local\Temp\ccmxYZNb.s 			page 69


 569:.\imu_i2c.c   **** 					     st_Read=SEL_PRES;
 2740              		.loc 1 569 0
 2741 01f2 204A     		ldr	r2, .L159+68
 2742 01f4 1178     		ldrb	r1, [r2]	@ zero_extendqisi2
 2743 01f6 5378     		ldrb	r3, [r2, #1]	@ zero_extendqisi2
 2744 01f8 1F4A     		ldr	r2, .L159+72
 2745 01fa 03EB0123 		add	r3, r3, r1, lsl #8
 2746 01fe 1360     		str	r3, [r2]
 570:.\imu_i2c.c   **** 					   }
 2747              		.loc 1 570 0
 2748 0200 0B23     		movs	r3, #11
 2749 0202 90E7     		b	.L158
 2750              	.L135:
 575:.\imu_i2c.c   **** 						{
 2751              		.loc 1 575 0
 2752 0204 7720     		movs	r0, #119
 2753 0206 1D49     		ldr	r1, .L159+76
 2754 0208 0222     		movs	r2, #2
 2755 020a FFF7FEFF 		bl	I2C_WRITE
 2756              	.LVL369:
 2757 020e 0028     		cmp	r0, #0
 2758 0210 00F0ED81 		beq	.L128
 577:.\imu_i2c.c   **** 						}
 2759              		.loc 1 577 0
 2760 0214 0C23     		movs	r3, #12
 2761 0216 86E7     		b	.L158
 2762              	.L136:
 583:.\imu_i2c.c   **** 					{
 2763              		.loc 1 583 0
 2764 0218 7720     		movs	r0, #119
 2765 021a F621     		movs	r1, #246
 2766 021c 184A     		ldr	r2, .L159+80
 2767 021e 0323     		movs	r3, #3
 2768 0220 FFF7FEFF 		bl	I2C_READ
 2769              	.LVL370:
 2770 0224 0028     		cmp	r0, #0
 2771 0226 00F0E281 		beq	.L128
 586:.\imu_i2c.c   **** 					}
 2772              		.loc 1 586 0
 2773 022a 0D23     		movs	r3, #13
 2774 022c 7BE7     		b	.L158
 2775              	.L160:
 2776 022e 00BF     		.align	2
 2777              	.L159:
 2778 0230 00000000 		.word	st_Read
 2779 0234 00000000 		.word	.LANCHOR1
 2780 0238 00000000 		.word	Gyro_Temp_Acc_Read_Data
 2781 023c 00000000 		.word	stI2CMgr
 2782 0240 00000000 		.word	.LANCHOR0
 2783 0244 00000000 		.word	MPU9250_Filter_Acc
 2784 0248 12000000 		.word	MPU9250_Filter_Acc+18
 2785 024c 24000000 		.word	MPU9250_Filter_Acc+36
 2786 0250 00000000 		.word	MPU9250_Filter_Gyro
 2787 0254 12000000 		.word	MPU9250_Filter_Gyro+18
 2788 0258 24000000 		.word	MPU9250_Filter_Gyro+36
 2789 025c 00000000 		.word	gyro
 2790 0260 00000000 		.word	Mag_Read_Data
ARM GAS  C:\Users\acer\AppData\Local\Temp\ccmxYZNb.s 			page 70


 2791 0264 00000000 		.word	MPU9250_Filter_Mag
 2792 0268 12000000 		.word	MPU9250_Filter_Mag+18
 2793 026c 24000000 		.word	MPU9250_Filter_Mag+36
 2794 0270 24000000 		.word	.LANCHOR1+36
 2795 0274 00000000 		.word	Alt_Read_Data
 2796 0278 00000000 		.word	UT
 2797 027c 26000000 		.word	.LANCHOR1+38
 2798 0280 03000000 		.word	Alt_Read_Data+3
 2799              	.L137:
 590:.\imu_i2c.c   **** 					   
 2800              		.loc 1 590 0
 2801 0284 C04B     		ldr	r3, .L161+24
 2802 0286 1B78     		ldrb	r3, [r3]	@ zero_extendqisi2
 2803 0288 002B     		cmp	r3, #0
 2804 028a 40F0B081 		bne	.L128
 593:.\imu_i2c.c   **** 					    
 2805              		.loc 1 593 0
 2806 028e BF4A     		ldr	r2, .L161+28
 596:.\imu_i2c.c   **** 
 2807              		.loc 1 596 0
 2808 0290 BF4C     		ldr	r4, .L161+32
 593:.\imu_i2c.c   **** 					    
 2809              		.loc 1 593 0
 2810 0292 1379     		ldrb	r3, [r2, #4]	@ zero_extendqisi2
 2811 0294 D178     		ldrb	r1, [r2, #3]	@ zero_extendqisi2
 2812 0296 1B02     		lsls	r3, r3, #8
 2813 0298 5279     		ldrb	r2, [r2, #5]	@ zero_extendqisi2
 2814 029a 03EB0143 		add	r3, r3, r1, lsl #16
 2815 029e 1344     		add	r3, r3, r2
 2816 02a0 BC4A     		ldr	r2, .L161+36
 595:.\imu_i2c.c   **** 						BMP180_CalAvgValue(&BMP180_Filter[0].Index, BMP180_Filter[0].AvgBuffer, PVal - PRESSURE_OFFSE
 2817              		.loc 1 595 0
 2818 02a2 0BA8     		add	r0, sp, #44
 593:.\imu_i2c.c   **** 					    
 2819              		.loc 1 593 0
 2820 02a4 B2F90020 		ldrsh	r2, [r2]
 605:.\imu_i2c.c   **** 						MotionVal[1]=gyro[1]/32.8;
 2821              		.loc 1 605 0
 2822 02a8 BB4E     		ldr	r6, .L161+40
 593:.\imu_i2c.c   **** 					    
 2823              		.loc 1 593 0
 2824 02aa C2F10802 		rsb	r2, r2, #8
 2825 02ae D340     		lsrs	r3, r3, r2
 2826 02b0 BA4A     		ldr	r2, .L161+44
 605:.\imu_i2c.c   **** 						MotionVal[1]=gyro[1]/32.8;
 2827              		.loc 1 605 0
 2828 02b2 BB4D     		ldr	r5, .L161+48
 593:.\imu_i2c.c   **** 					    
 2829              		.loc 1 593 0
 2830 02b4 1360     		str	r3, [r2]
 595:.\imu_i2c.c   **** 						BMP180_CalAvgValue(&BMP180_Filter[0].Index, BMP180_Filter[0].AvgBuffer, PVal - PRESSURE_OFFSE
 2831              		.loc 1 595 0
 2832 02b6 FFF7FEFF 		bl	BMP180_CalculateTruePressure
 2833              	.LVL371:
 596:.\imu_i2c.c   **** 
 2834              		.loc 1 596 0
 2835 02ba 04F15800 		add	r0, r4, #88
ARM GAS  C:\Users\acer\AppData\Local\Temp\ccmxYZNb.s 			page 71


 2836 02be 04F15C01 		add	r1, r4, #92
 2837 02c2 0B9A     		ldr	r2, [sp, #44]
 2838 02c4 B74B     		ldr	r3, .L161+52
 2839 02c6 FFF7FEFF 		bl	BMP180_CalAvgValue
 2840              	.LVL372:
 598:.\imu_i2c.c   **** 						BMP180_CalAvgValue(&BMP180_Filter[1].Index, BMP180_Filter[1].AvgBuffer, AVal, &AltitudeVal);
 2841              		.loc 1 598 0
 2842 02ca 0CA8     		add	r0, sp, #48
 2843 02cc 0B99     		ldr	r1, [sp, #44]
 2844 02ce FFF7FEFF 		bl	BMP180_CalculateAbsoluteAltitude
 2845              	.LVL373:
 599:.\imu_i2c.c   **** 
 2846              		.loc 1 599 0
 2847 02d2 04F18001 		add	r1, r4, #128
 2848 02d6 04F17C00 		add	r0, r4, #124
 2849 02da 0C9A     		ldr	r2, [sp, #48]
 2850 02dc B24B     		ldr	r3, .L161+56
 2851 02de FFF7FEFF 		bl	BMP180_CalAvgValue
 2852              	.LVL374:
 601:.\imu_i2c.c   **** 						BMP180_CalAvgValue(&BMP180_Filter[2].Index, BMP180_Filter[2].AvgBuffer, TVal, &TemperatureVal
 2853              		.loc 1 601 0
 2854 02e2 0DA8     		add	r0, sp, #52
 2855 02e4 FFF7FEFF 		bl	BMP180_CalculateTrueTemperature
 2856              	.LVL375:
 602:.\imu_i2c.c   **** 						
 2857              		.loc 1 602 0
 2858 02e8 04F1A000 		add	r0, r4, #160
 2859 02ec 04F1A401 		add	r1, r4, #164
 2860 02f0 0D9A     		ldr	r2, [sp, #52]
 2861 02f2 AE4B     		ldr	r3, .L161+60
 2862 02f4 FFF7FEFF 		bl	BMP180_CalAvgValue
 2863              	.LVL376:
 605:.\imu_i2c.c   **** 						MotionVal[1]=gyro[1]/32.8;
 2864              		.loc 1 605 0
 2865 02f8 B6F90000 		ldrsh	r0, [r6]
 2866 02fc FFF7FEFF 		bl	__aeabi_i2d
 2867              	.LVL377:
 2868 0300 9BA3     		adr	r3, .L161
 2869 0302 D3E90023 		ldrd	r2, [r3]
 2870 0306 FFF7FEFF 		bl	__aeabi_ddiv
 2871              	.LVL378:
 2872 030a FFF7FEFF 		bl	__aeabi_d2f
 2873              	.LVL379:
 2874 030e 2860     		str	r0, [r5]	@ float
 2875 0310 0790     		str	r0, [sp, #28]
 606:.\imu_i2c.c   **** 						MotionVal[2]=gyro[2]/32.8;  // as sensitivity of gyro is selected as 32.8 
 2876              		.loc 1 606 0
 2877 0312 B6F90200 		ldrsh	r0, [r6, #2]
 2878 0316 FFF7FEFF 		bl	__aeabi_i2d
 2879              	.LVL380:
 2880 031a 95A3     		adr	r3, .L161
 2881 031c D3E90023 		ldrd	r2, [r3]
 2882 0320 FFF7FEFF 		bl	__aeabi_ddiv
 2883              	.LVL381:
 2884 0324 FFF7FEFF 		bl	__aeabi_d2f
 2885              	.LVL382:
 2886 0328 8346     		mov	fp, r0
ARM GAS  C:\Users\acer\AppData\Local\Temp\ccmxYZNb.s 			page 72


 2887 032a 6860     		str	r0, [r5, #4]	@ float
 607:.\imu_i2c.c   ****                         
 2888              		.loc 1 607 0
 2889 032c B6F90400 		ldrsh	r0, [r6, #4]
 2890 0330 FFF7FEFF 		bl	__aeabi_i2d
 2891              	.LVL383:
 2892 0334 8EA3     		adr	r3, .L161
 2893 0336 D3E90023 		ldrd	r2, [r3]
 2894 033a FFF7FEFF 		bl	__aeabi_ddiv
 2895              	.LVL384:
 2896 033e FFF7FEFF 		bl	__aeabi_d2f
 2897              	.LVL385:
 2898 0342 8246     		mov	r10, r0
 2899 0344 A860     		str	r0, [r5, #8]	@ float
 611:.\imu_i2c.c   **** 						MotionVal[4]=accel[1];
 2900              		.loc 1 611 0
 2901 0346 B4F94C00 		ldrsh	r0, [r4, #76]
 2902 034a FFF7FEFF 		bl	__aeabi_i2f
 2903              	.LVL386:
 2904 034e E860     		str	r0, [r5, #12]	@ float
 2905 0350 0690     		str	r0, [sp, #24]	@ float
 612:.\imu_i2c.c   **** 						MotionVal[5]=accel[2];
 2906              		.loc 1 612 0
 2907 0352 B4F94E00 		ldrsh	r0, [r4, #78]
 2908 0356 FFF7FEFF 		bl	__aeabi_i2f
 2909              	.LVL387:
 2910 035a 8146     		mov	r9, r0
 2911 035c 2861     		str	r0, [r5, #16]	@ float
 613:.\imu_i2c.c   ****                         
 2912              		.loc 1 613 0
 2913 035e B4F95000 		ldrsh	r0, [r4, #80]
 2914 0362 FFF7FEFF 		bl	__aeabi_i2f
 2915              	.LVL388:
 2916 0366 8046     		mov	r8, r0
 2917 0368 6861     		str	r0, [r5, #20]	@ float
 617:.\imu_i2c.c   **** 						MotionVal[7]=magn[1];
 2918              		.loc 1 617 0
 2919 036a B4F95200 		ldrsh	r0, [r4, #82]
 2920 036e FFF7FEFF 		bl	__aeabi_i2f
 2921              	.LVL389:
 2922 0372 0746     		mov	r7, r0
 2923 0374 A861     		str	r0, [r5, #24]	@ float
 618:.\imu_i2c.c   **** 						MotionVal[8]=magn[2];
 2924              		.loc 1 618 0
 2925 0376 B4F95400 		ldrsh	r0, [r4, #84]
 2926 037a FFF7FEFF 		bl	__aeabi_i2f
 2927              	.LVL390:
 2928 037e 0646     		mov	r6, r0
 2929 0380 E861     		str	r0, [r5, #28]	@ float
 619:.\imu_i2c.c   **** 						
 2930              		.loc 1 619 0
 2931 0382 B4F95600 		ldrsh	r0, [r4, #86]
 2932 0386 FFF7FEFF 		bl	__aeabi_i2f
 2933              	.LVL391:
 621:.\imu_i2c.c   **** 						(float)MotionVal[3], (float)MotionVal[4], (float)MotionVal[5], (float)MotionVal[6], (float)Mo
 2934              		.loc 1 621 0
 2935 038a DDF81CC0 		ldr	ip, [sp, #28]
ARM GAS  C:\Users\acer\AppData\Local\Temp\ccmxYZNb.s 			page 73


 619:.\imu_i2c.c   **** 						
 2936              		.loc 1 619 0
 2937 038e 0446     		mov	r4, r0
 2938 0390 2862     		str	r0, [r5, #32]	@ float
 621:.\imu_i2c.c   **** 						(float)MotionVal[3], (float)MotionVal[4], (float)MotionVal[5], (float)MotionVal[6], (float)Mo
 2939              		.loc 1 621 0
 2940 0392 6046     		mov	r0, ip
 2941 0394 FFF7FEFF 		bl	__aeabi_f2d
 2942              	.LVL392:
 2943 0398 77A3     		adr	r3, .L161+8
 2944 039a D3E90023 		ldrd	r2, [r3]
 2945 039e FFF7FEFF 		bl	__aeabi_dmul
 2946              	.LVL393:
 2947 03a2 FFF7FEFF 		bl	__aeabi_d2f
 2948              	.LVL394:
 2949 03a6 0546     		mov	r5, r0
 2950 03a8 5846     		mov	r0, fp
 2951 03aa FFF7FEFF 		bl	__aeabi_f2d
 2952              	.LVL395:
 2953 03ae 72A3     		adr	r3, .L161+8
 2954 03b0 D3E90023 		ldrd	r2, [r3]
 2955 03b4 FFF7FEFF 		bl	__aeabi_dmul
 2956              	.LVL396:
 2957 03b8 FFF7FEFF 		bl	__aeabi_d2f
 2958              	.LVL397:
 2959 03bc 8346     		mov	fp, r0
 2960 03be 5046     		mov	r0, r10
 2961 03c0 FFF7FEFF 		bl	__aeabi_f2d
 2962              	.LVL398:
 2963 03c4 6CA3     		adr	r3, .L161+8
 2964 03c6 D3E90023 		ldrd	r2, [r3]
 2965 03ca FFF7FEFF 		bl	__aeabi_dmul
 2966              	.LVL399:
 2967 03ce FFF7FEFF 		bl	__aeabi_d2f
 2968              	.LVL400:
 625:.\imu_i2c.c   **** 						angles[2] = atan2(2 * q2 * q3 + 2 * q0 * q1, -2 * q1 * q1 - 2 * q2* q2 + 1)* 57.3; // roll
 2969              		.loc 1 625 0
 2970 03d2 DFF8ECA1 		ldr	r10, .L161+80
 621:.\imu_i2c.c   **** 						(float)MotionVal[3], (float)MotionVal[4], (float)MotionVal[5], (float)MotionVal[6], (float)Mo
 2971              		.loc 1 621 0
 2972 03d6 0246     		mov	r2, r0
 2973 03d8 2846     		mov	r0, r5
 625:.\imu_i2c.c   **** 						angles[2] = atan2(2 * q2 * q3 + 2 * q0 * q1, -2 * q1 * q1 - 2 * q2* q2 + 1)* 57.3; // roll
 2974              		.loc 1 625 0
 2975 03da 754D     		ldr	r5, .L161+64
 621:.\imu_i2c.c   **** 						(float)MotionVal[3], (float)MotionVal[4], (float)MotionVal[5], (float)MotionVal[6], (float)Mo
 2976              		.loc 1 621 0
 2977 03dc 069B     		ldr	r3, [sp, #24]	@ float
 2978 03de 5946     		mov	r1, fp
 2979 03e0 CDF80090 		str	r9, [sp]	@ float
 2980 03e4 CDF80480 		str	r8, [sp, #4]	@ float
 2981 03e8 0297     		str	r7, [sp, #8]	@ float
 2982 03ea 0396     		str	r6, [sp, #12]	@ float
 2983 03ec 0494     		str	r4, [sp, #16]	@ float
 2984 03ee FFF7FEFF 		bl	IMU_AHRSupdate
 2985              	.LVL401:
 625:.\imu_i2c.c   **** 						angles[2] = atan2(2 * q2 * q3 + 2 * q0 * q1, -2 * q1 * q1 - 2 * q2* q2 + 1)* 57.3; // roll
ARM GAS  C:\Users\acer\AppData\Local\Temp\ccmxYZNb.s 			page 74


 2986              		.loc 1 625 0
 2987 03f2 DAF80000 		ldr	r0, [r10]	@ float
 2988 03f6 2E68     		ldr	r6, [r5]	@ float
 2989 03f8 4FF04041 		mov	r1, #-1073741824
 2990 03fc FFF7FEFF 		bl	__aeabi_fmul
 2991              	.LVL402:
 2992 0400 3146     		mov	r1, r6
 2993 0402 FFF7FEFF 		bl	__aeabi_fmul
 2994              	.LVL403:
 2995 0406 6B4F     		ldr	r7, .L161+68
 2996 0408 6B4C     		ldr	r4, .L161+72
 2997 040a D7F80090 		ldr	r9, [r7]	@ float
 2998 040e D4F80080 		ldr	r8, [r4]	@ float
 2999 0412 0646     		mov	r6, r0
 3000 0414 4946     		mov	r1, r9
 3001 0416 4846     		mov	r0, r9
 3002 0418 FFF7FEFF 		bl	__aeabi_fadd
 3003              	.LVL404:
 3004 041c 4146     		mov	r1, r8
 3005 041e FFF7FEFF 		bl	__aeabi_fmul
 3006              	.LVL405:
 3007 0422 0146     		mov	r1, r0
 3008 0424 3046     		mov	r0, r6
 3009 0426 FFF7FEFF 		bl	__aeabi_fadd
 3010              	.LVL406:
 3011 042a FFF7FEFF 		bl	__aeabi_f2d
 3012              	.LVL407:
 3013 042e FFF7FEFF 		bl	asin
 3014              	.LVL408:
 3015 0432 53A3     		adr	r3, .L161+16
 3016 0434 D3E90023 		ldrd	r2, [r3]
 3017 0438 FFF7FEFF 		bl	__aeabi_dmul
 3018              	.LVL409:
 3019 043c FFF7FEFF 		bl	__aeabi_d2f
 3020              	.LVL410:
 3021 0440 5E4E     		ldr	r6, .L161+76
 3022 0442 7060     		str	r0, [r6, #4]	@ float
 626:.\imu_i2c.c   **** 						angles[0] = atan2(-2 * q1 * q2 - 2 * q0 * q3, 2 * q2 * q2 + 2 * q3 * q3 - 1) * 57.3;   
 3023              		.loc 1 626 0
 3024 0444 2068     		ldr	r0, [r4]	@ float
 3025 0446 D5F80080 		ldr	r8, [r5]	@ float
 3026 044a D7F800C0 		ldr	ip, [r7]	@ float
 3027 044e DAF80090 		ldr	r9, [r10]	@ float
 3028 0452 DAF80020 		ldr	r2, [r10]	@ float
 3029 0456 DAF80030 		ldr	r3, [r10]	@ float
 3030 045a D4F800B0 		ldr	fp, [r4]	@ float
 3031 045e 0793     		str	r3, [sp, #28]
 3032 0460 2368     		ldr	r3, [r4]	@ float
 3033 0462 0146     		mov	r1, r0
 3034 0464 0693     		str	r3, [sp, #24]	@ float
 3035 0466 0892     		str	r2, [sp, #32]
 3036 0468 CDF824C0 		str	ip, [sp, #36]
 3037 046c FFF7FEFF 		bl	__aeabi_fadd
 3038              	.LVL411:
 3039 0470 4146     		mov	r1, r8
 3040 0472 FFF7FEFF 		bl	__aeabi_fmul
 3041              	.LVL412:
ARM GAS  C:\Users\acer\AppData\Local\Temp\ccmxYZNb.s 			page 75


 3042 0476 DDF824C0 		ldr	ip, [sp, #36]
 3043 047a 8046     		mov	r8, r0
 3044 047c 6146     		mov	r1, ip
 3045 047e 6046     		mov	r0, ip
 3046 0480 FFF7FEFF 		bl	__aeabi_fadd
 3047              	.LVL413:
 3048 0484 4946     		mov	r1, r9
 3049 0486 FFF7FEFF 		bl	__aeabi_fmul
 3050              	.LVL414:
 3051 048a 0146     		mov	r1, r0
 3052 048c 4046     		mov	r0, r8
 3053 048e FFF7FEFF 		bl	__aeabi_fadd
 3054              	.LVL415:
 3055 0492 FFF7FEFF 		bl	__aeabi_f2d
 3056              	.LVL416:
 3057 0496 089A     		ldr	r2, [sp, #32]
 3058 0498 8046     		mov	r8, r0
 3059 049a 8946     		mov	r9, r1
 3060 049c 1046     		mov	r0, r2
 3061 049e 4FF04041 		mov	r1, #-1073741824
 3062 04a2 FFF7FEFF 		bl	__aeabi_fmul
 3063              	.LVL417:
 3064 04a6 079B     		ldr	r3, [sp, #28]
 3065 04a8 1946     		mov	r1, r3
 3066 04aa FFF7FEFF 		bl	__aeabi_fmul
 3067              	.LVL418:
 3068 04ae 5946     		mov	r1, fp
 3069 04b0 0790     		str	r0, [sp, #28]
 3070 04b2 5846     		mov	r0, fp
 3071 04b4 FFF7FEFF 		bl	__aeabi_fadd
 3072              	.LVL419:
 3073 04b8 0699     		ldr	r1, [sp, #24]	@ float
 3074 04ba FFF7FEFF 		bl	__aeabi_fmul
 3075              	.LVL420:
 3076 04be 079B     		ldr	r3, [sp, #28]
 3077 04c0 0146     		mov	r1, r0
 3078 04c2 1846     		mov	r0, r3
 3079 04c4 FFF7FEFF 		bl	__aeabi_fsub
 3080              	.LVL421:
 3081 04c8 4FF07E51 		mov	r1, #1065353216
 3082 04cc FFF7FEFF 		bl	__aeabi_fadd
 3083              	.LVL422:
 3084 04d0 FFF7FEFF 		bl	__aeabi_f2d
 3085              	.LVL423:
 3086 04d4 0246     		mov	r2, r0
 3087 04d6 0B46     		mov	r3, r1
 3088 04d8 4046     		mov	r0, r8
 3089 04da 4946     		mov	r1, r9
 3090 04dc FFF7FEFF 		bl	atan2
 3091              	.LVL424:
 3092 04e0 27A3     		adr	r3, .L161+16
 3093 04e2 D3E90023 		ldrd	r2, [r3]
 3094 04e6 FFF7FEFF 		bl	__aeabi_dmul
 3095              	.LVL425:
 3096 04ea FFF7FEFF 		bl	__aeabi_d2f
 3097              	.LVL426:
 3098 04ee B060     		str	r0, [r6, #8]	@ float
ARM GAS  C:\Users\acer\AppData\Local\Temp\ccmxYZNb.s 			page 76


 627:.\imu_i2c.c   **** 						
 3099              		.loc 1 627 0
 3100 04f0 DAF80000 		ldr	r0, [r10]	@ float
 3101 04f4 2268     		ldr	r2, [r4]	@ float
 3102 04f6 3B68     		ldr	r3, [r7]	@ float
 3103 04f8 4FF04041 		mov	r1, #-1073741824
 3104 04fc 0693     		str	r3, [sp, #24]
 3105 04fe 0792     		str	r2, [sp, #28]
 3106 0500 FFF7FEFF 		bl	__aeabi_fmul
 3107              	.LVL427:
 3108 0504 079A     		ldr	r2, [sp, #28]
 3109 0506 D5F800B0 		ldr	fp, [r5]	@ float
 3110 050a 1146     		mov	r1, r2
 3111 050c FFF7FEFF 		bl	__aeabi_fmul
 3112              	.LVL428:
 3113 0510 069B     		ldr	r3, [sp, #24]
 3114 0512 D4F800A0 		ldr	r10, [r4]	@ float
 3115 0516 1946     		mov	r1, r3
 3116 0518 2768     		ldr	r7, [r4]	@ float
 3117 051a 0446     		mov	r4, r0
 3118 051c 1846     		mov	r0, r3
 3119 051e FFF7FEFF 		bl	__aeabi_fadd
 3120              	.LVL429:
 3121 0522 5946     		mov	r1, fp
 3122 0524 FFF7FEFF 		bl	__aeabi_fmul
 3123              	.LVL430:
 3124 0528 0146     		mov	r1, r0
 3125 052a 2046     		mov	r0, r4
 3126 052c FFF7FEFF 		bl	__aeabi_fsub
 3127              	.LVL431:
 3128 0530 FFF7FEFF 		bl	__aeabi_f2d
 3129              	.LVL432:
 3130 0534 D5F80090 		ldr	r9, [r5]	@ float
 3131 0538 0446     		mov	r4, r0
 3132 053a D5F80080 		ldr	r8, [r5]	@ float
 3133 053e 5046     		mov	r0, r10
 3134 0540 0D46     		mov	r5, r1
 3135 0542 5146     		mov	r1, r10
 3136 0544 FFF7FEFF 		bl	__aeabi_fadd
 3137              	.LVL433:
 3138 0548 3946     		mov	r1, r7
 3139 054a FFF7FEFF 		bl	__aeabi_fmul
 3140              	.LVL434:
 3141 054e 4946     		mov	r1, r9
 3142 0550 0746     		mov	r7, r0
 3143 0552 4846     		mov	r0, r9
 3144 0554 FFF7FEFF 		bl	__aeabi_fadd
 3145              	.LVL435:
 3146 0558 4146     		mov	r1, r8
 3147 055a FFF7FEFF 		bl	__aeabi_fmul
 3148              	.LVL436:
 3149 055e 0146     		mov	r1, r0
 3150 0560 3846     		mov	r0, r7
 3151 0562 FFF7FEFF 		bl	__aeabi_fadd
 3152              	.LVL437:
 3153 0566 4FF07E51 		mov	r1, #1065353216
 3154 056a 2BE0     		b	.L162
ARM GAS  C:\Users\acer\AppData\Local\Temp\ccmxYZNb.s 			page 77


 3155              	.L163:
 3156 056c AFF30080 		.align	3
 3157              	.L161:
 3158 0570 66666666 		.word	1717986918
 3159 0574 66664040 		.word	1077962342
 3160 0578 EC51B81E 		.word	515396076
 3161 057c 85EB913F 		.word	1066527621
 3162 0580 66666666 		.word	1717986918
 3163 0584 66A64C40 		.word	1078765158
 3164 0588 00000000 		.word	stI2CMgr
 3165 058c 00000000 		.word	Alt_Read_Data
 3166 0590 00000000 		.word	.LANCHOR0
 3167 0594 00000000 		.word	_oss
 3168 0598 00000000 		.word	gyro
 3169 059c 00000000 		.word	UP
 3170 05a0 00000000 		.word	MotionVal
 3171 05a4 00000000 		.word	PressureVal
 3172 05a8 00000000 		.word	AltitudeVal
 3173 05ac 00000000 		.word	TemperatureVal
 3174 05b0 00000000 		.word	q3
 3175 05b4 00000000 		.word	q0
 3176 05b8 00000000 		.word	q2
 3177 05bc 00000000 		.word	angles
 3178 05c0 00000000 		.word	q1
 3179              	.L162:
 3180 05c4 FFF7FEFF 		bl	__aeabi_fsub
 3181              	.LVL438:
 3182 05c8 FFF7FEFF 		bl	__aeabi_f2d
 3183              	.LVL439:
 3184 05cc 0246     		mov	r2, r0
 3185 05ce 0B46     		mov	r3, r1
 3186 05d0 2046     		mov	r0, r4
 3187 05d2 2946     		mov	r1, r5
 3188 05d4 FFF7FEFF 		bl	atan2
 3189              	.LVL440:
 3190 05d8 07A3     		adr	r3, .L164
 3191 05da D3E90023 		ldrd	r2, [r3]
 3192 05de FFF7FEFF 		bl	__aeabi_dmul
 3193              	.LVL441:
 3194 05e2 FFF7FEFF 		bl	__aeabi_d2f
 3195              	.LVL442:
 630:.\imu_i2c.c   **** 
 3196              		.loc 1 630 0
 3197 05e6 064B     		ldr	r3, .L164+8
 3198 05e8 0E22     		movs	r2, #14
 627:.\imu_i2c.c   **** 						
 3199              		.loc 1 627 0
 3200 05ea 3060     		str	r0, [r6]	@ float
 630:.\imu_i2c.c   **** 
 3201              		.loc 1 630 0
 3202 05ec 1A70     		strb	r2, [r3]
 3203              	.L128:
 639:.\imu_i2c.c   ****   
 3204              		.loc 1 639 0
 3205 05ee 0FB0     		add	sp, sp, #60
 3206              		.cfi_def_cfa_offset 36
 3207              		@ sp needed
ARM GAS  C:\Users\acer\AppData\Local\Temp\ccmxYZNb.s 			page 78


 3208 05f0 BDE8F08F 		pop	{r4, r5, r6, r7, r8, r9, r10, fp, pc}
 3209              	.L165:
 3210 05f4 AFF30080 		.align	3
 3211              	.L164:
 3212 05f8 66666666 		.word	1717986918
 3213 05fc 66A64C40 		.word	1078765158
 3214 0600 00000000 		.word	st_Read
 3215              		.cfi_endproc
 3216              	.LFE4:
 3217              		.size	Read_From_ALL, .-Read_From_ALL
 3218 0604 AFF30080 		.section	.text.IMU_Command,"ax",%progbits
 3219              		.align	1
 3220              		.global	IMU_Command
 3221              		.thumb
 3222              		.thumb_func
 3223              		.type	IMU_Command, %function
 3224              	IMU_Command:
 3225              	.LFB12:
 876:.\imu_i2c.c   **** }
 877:.\imu_i2c.c   **** 
 878:.\imu_i2c.c   **** // API
 879:.\imu_i2c.c   **** void IMU_Command(_UBYTE Command)
 880:.\imu_i2c.c   **** {
 3226              		.loc 1 880 0
 3227              		.cfi_startproc
 3228              		@ args = 0, pretend = 0, frame = 0
 3229              		@ frame_needed = 0, uses_anonymous_args = 0
 3230              		@ link register save eliminated.
 3231              	.LVL443:
 881:.\imu_i2c.c   ****    switch(Command)
 3232              		.loc 1 881 0
 3233 0000 0128     		cmp	r0, #1
 3234 0002 08D0     		beq	.L168
 3235 0004 02D3     		bcc	.L169
 3236 0006 0228     		cmp	r0, #2
 3237 0008 0BD0     		beq	.L170
 3238 000a 7047     		bx	lr
 3239              	.L169:
 882:.\imu_i2c.c   ****    {
 883:.\imu_i2c.c   ****      case IMU_CMD_INIT: 
 884:.\imu_i2c.c   ****      if(st_IMU==IDLE)
 3240              		.loc 1 884 0
 3241 000c 084B     		ldr	r3, .L172
 3242 000e 1A78     		ldrb	r2, [r3]	@ zero_extendqisi2
 3243 0010 62B9     		cbnz	r2, .L166
 885:.\imu_i2c.c   ****      {
 886:.\imu_i2c.c   ****         st_IMU=IMU_INIT;
 3244              		.loc 1 886 0
 3245 0012 0622     		movs	r2, #6
 3246 0014 03E0     		b	.L171
 3247              	.L168:
 887:.\imu_i2c.c   ****      }
 888:.\imu_i2c.c   ****      break;  
 889:.\imu_i2c.c   ****      case IMU_CMD_START:
 890:.\imu_i2c.c   ****      if(st_Read==IDLE)
 3248              		.loc 1 890 0
 3249 0016 074B     		ldr	r3, .L172+4
ARM GAS  C:\Users\acer\AppData\Local\Temp\ccmxYZNb.s 			page 79


 3250 0018 1A78     		ldrb	r2, [r3]	@ zero_extendqisi2
 3251 001a 3AB9     		cbnz	r2, .L166
 891:.\imu_i2c.c   ****      {
 892:.\imu_i2c.c   ****          st_Read= READ_GYRO;
 3252              		.loc 1 892 0
 3253 001c 0E22     		movs	r2, #14
 3254              	.L171:
 3255 001e 1A70     		strb	r2, [r3]
 3256 0020 7047     		bx	lr
 3257              	.L170:
 893:.\imu_i2c.c   ****      }
 894:.\imu_i2c.c   ****      break;
 895:.\imu_i2c.c   ****      case IMU_CMD_STOP:
 896:.\imu_i2c.c   ****          st_Read= IDLE;
 3258              		.loc 1 896 0
 3259 0022 044A     		ldr	r2, .L172+4
 3260 0024 0023     		movs	r3, #0
 3261 0026 1370     		strb	r3, [r2]
 897:.\imu_i2c.c   ****          st_IMU=IDLE;
 3262              		.loc 1 897 0
 3263 0028 014A     		ldr	r2, .L172
 3264 002a 1370     		strb	r3, [r2]
 3265              	.L166:
 3266 002c 7047     		bx	lr
 3267              	.L173:
 3268 002e 00BF     		.align	2
 3269              	.L172:
 3270 0030 00000000 		.word	st_IMU
 3271 0034 00000000 		.word	st_Read
 3272              		.cfi_endproc
 3273              	.LFE12:
 3274              		.size	IMU_Command, .-IMU_Command
 3275              		.section	.text.IMU_Read_St,"ax",%progbits
 3276              		.align	1
 3277              		.global	IMU_Read_St
 3278              		.thumb
 3279              		.thumb_func
 3280              		.type	IMU_Read_St, %function
 3281              	IMU_Read_St:
 3282              	.LFB13:
 898:.\imu_i2c.c   ****      default:
 899:.\imu_i2c.c   ****      break;
 900:.\imu_i2c.c   ****     
 901:.\imu_i2c.c   ****    }
 902:.\imu_i2c.c   **** }
 903:.\imu_i2c.c   **** _UBYTE IMU_Read_St(void)
 904:.\imu_i2c.c   **** {
 3283              		.loc 1 904 0
 3284              		.cfi_startproc
 3285              		@ args = 0, pretend = 0, frame = 0
 3286              		@ frame_needed = 0, uses_anonymous_args = 0
 3287              		@ link register save eliminated.
 905:.\imu_i2c.c   ****     return(st_IMU);
 906:.\imu_i2c.c   **** }
 3288              		.loc 1 906 0
 3289 0000 014B     		ldr	r3, .L175
 3290 0002 1878     		ldrb	r0, [r3]	@ zero_extendqisi2
ARM GAS  C:\Users\acer\AppData\Local\Temp\ccmxYZNb.s 			page 80


 3291 0004 7047     		bx	lr
 3292              	.L176:
 3293 0006 00BF     		.align	2
 3294              	.L175:
 3295 0008 00000000 		.word	st_IMU
 3296              		.cfi_endproc
 3297              	.LFE13:
 3298              		.size	IMU_Read_St, .-IMU_Read_St
 3299              		.global	test_1
 3300              		.comm	calc_count2,1,1
 3301              		.comm	calc_count,1,1
 3302              		.comm	UP,4,4
 3303              		.comm	UT,4,4
 3304              		.comm	B5,4,4
 3305              		.comm	AC6,2,2
 3306              		.comm	AC5,2,2
 3307              		.comm	AC4,2,2
 3308              		.comm	_oss,2,2
 3309              		.comm	MD,2,2
 3310              		.comm	MC,2,2
 3311              		.comm	MB,2,2
 3312              		.comm	B2,2,2
 3313              		.comm	B1,2,2
 3314              		.comm	AC3,2,2
 3315              		.comm	AC2,2,2
 3316              		.comm	AC1,2,2
 3317              		.comm	Alt_Read_Data,6,1
 3318              		.comm	AltitudeVal,4,4
 3319              		.comm	TemperatureVal,4,4
 3320              		.comm	PressureVal,4,4
 3321              		.global	Pressure0
 3322              		.comm	angles,12,4
 3323              		.comm	MotionVal,36,4
 3324              		.comm	q3,4,4
 3325              		.comm	q2,4,4
 3326              		.comm	q1,4,4
 3327              		.comm	q0,4,4
 3328              		.comm	Mag_Read_Data,7,1
 3329              		.global	MPU9250_Magn_Offset
 3330              		.comm	gyro,6,2
 3331              		.comm	MPU9250_Filter_Mag,54,2
 3332              		.comm	MPU9250_Filter_Acc,54,2
 3333              		.comm	MPU9250_Filter_Gyro,54,2
 3334              		.global	MPU9250_Offset
 3335              		.comm	st_Read,1,1
 3336              		.comm	st_IMU,1,1
 3337              		.global	InBuffer
 3338              		.global	OutBuffer
 3339              		.comm	Gyro_Temp_Acc_Read_Data,14,1
 3340              		.comm	rx_rd_data_ptr,4,4
 3341              		.comm	stI2CMgr,1,1
 3342              		.global	Alt_Calib_Data
 3343              		.global	Pres_Reg
 3344              		.global	Mag_Reg
 3345              		.global	Mag_Calib_Data
 3346              		.global	Gyro_Temp_Acc_Reg
 3347              		.global	Gyro_Calib_Data
ARM GAS  C:\Users\acer\AppData\Local\Temp\ccmxYZNb.s 			page 81


 3348              		.section	.rodata
 3349              		.type	test_1, %object
 3350              		.size	test_1, 1
 3351              	test_1:
 3352 0000 D0       		.byte	-48
 3353              		.type	Pres_Reg, %object
 3354              		.size	Pres_Reg, 11
 3355              	Pres_Reg:
 3356 0001 AA       		.byte	-86
 3357 0002 AC       		.byte	-84
 3358 0003 AE       		.byte	-82
 3359 0004 B0       		.byte	-80
 3360 0005 B2       		.byte	-78
 3361 0006 B4       		.byte	-76
 3362 0007 B6       		.byte	-74
 3363 0008 B8       		.byte	-72
 3364 0009 BA       		.byte	-70
 3365 000a BC       		.byte	-68
 3366 000b BE       		.byte	-66
 3367              		.type	Mag_Reg, %object
 3368              		.size	Mag_Reg, 7
 3369              	Mag_Reg:
 3370 000c 03       		.byte	3
 3371 000d 04       		.byte	4
 3372 000e 05       		.byte	5
 3373 000f 06       		.byte	6
 3374 0010 07       		.byte	7
 3375 0011 08       		.byte	8
 3376 0012 09       		.byte	9
 3377              		.data
 3378              		.align	2
 3379              		.set	.LANCHOR1,. + 0
 3380              		.type	Gyro_Calib_Data, %object
 3381              		.size	Gyro_Calib_Data, 14
 3382              	Gyro_Calib_Data:
 3383 0000 19       		.byte	25
 3384 0001 07       		.byte	7
 3385 0002 1A       		.byte	26
 3386 0003 06       		.byte	6
 3387 0004 1B       		.byte	27
 3388 0005 10       		.byte	16
 3389 0006 1C       		.byte	28
 3390 0007 00       		.byte	0
 3391 0008 37       		.byte	55
 3392 0009 02       		.byte	2
 3393 000a 6B       		.byte	107
 3394 000b 00       		.byte	0
 3395 000c 0000     		.space	2
 3396              		.type	Gyro_Temp_Acc_Reg, %object
 3397              		.size	Gyro_Temp_Acc_Reg, 14
 3398              	Gyro_Temp_Acc_Reg:
 3399 000e 3B       		.byte	59
 3400 000f 3C       		.byte	60
 3401 0010 3D       		.byte	61
 3402 0011 3E       		.byte	62
 3403 0012 3F       		.byte	63
 3404 0013 40       		.byte	64
ARM GAS  C:\Users\acer\AppData\Local\Temp\ccmxYZNb.s 			page 82


 3405 0014 41       		.byte	65
 3406 0015 42       		.byte	66
 3407 0016 43       		.byte	67
 3408 0017 44       		.byte	68
 3409 0018 45       		.byte	69
 3410 0019 46       		.byte	70
 3411 001a 47       		.byte	71
 3412 001b 48       		.byte	72
 3413              		.type	Mag_Calib_Data, %object
 3414              		.size	Mag_Calib_Data, 8
 3415              	Mag_Calib_Data:
 3416 001c 0A       		.byte	10
 3417 001d 16       		.byte	22
 3418 001e 00       		.byte	0
 3419 001f 00       		.byte	0
 3420 0020 00       		.byte	0
 3421 0021 00       		.byte	0
 3422 0022 00       		.byte	0
 3423 0023 00       		.byte	0
 3424              		.type	Alt_Calib_Data, %object
 3425              		.size	Alt_Calib_Data, 4
 3426              	Alt_Calib_Data:
 3427 0024 F4       		.byte	-12
 3428 0025 2E       		.byte	46
 3429 0026 F4       		.byte	-12
 3430 0027 74       		.byte	116
 3431              		.type	Pressure0, %object
 3432              		.size	Pressure0, 4
 3433              	Pressure0:
 3434 0028 CD8B0100 		.word	101325
 3435              		.bss
 3436              		.align	2
 3437              		.set	.LANCHOR0,. + 0
 3438              		.type	i2c_timeout.6314, %object
 3439              		.size	i2c_timeout.6314, 1
 3440              	i2c_timeout.6314:
 3441 0000 00       		.space	1
 3442              		.type	rx_Slv_add, %object
 3443              		.size	rx_Slv_add, 1
 3444              	rx_Slv_add:
 3445 0001 00       		.space	1
 3446              		.type	rx_Slv_dta_lnt, %object
 3447              		.size	rx_Slv_dta_lnt, 1
 3448              	rx_Slv_dta_lnt:
 3449 0002 00       		.space	1
 3450              		.type	temp_rx_slv_reg, %object
 3451              		.size	temp_rx_slv_reg, 1
 3452              	temp_rx_slv_reg:
 3453 0003 00       		.space	1
 3454              		.type	Gyro_Temp_Check_Data.6343, %object
 3455              		.size	Gyro_Temp_Check_Data.6343, 1
 3456              	Gyro_Temp_Check_Data.6343:
 3457 0004 00       		.space	1
 3458 0005 00       		.space	1
 3459              		.type	InBuffer, %object
 3460              		.size	InBuffer, 6
 3461              	InBuffer:
ARM GAS  C:\Users\acer\AppData\Local\Temp\ccmxYZNb.s 			page 83


 3462 0006 00000000 		.space	6
 3462      0000
 3463              		.type	OutBuffer, %object
 3464              		.size	OutBuffer, 12
 3465              	OutBuffer:
 3466 000c 00000000 		.space	12
 3466      00000000 
 3466      00000000 
 3467              		.type	MPU9250_Offset, %object
 3468              		.size	MPU9250_Offset, 6
 3469              	MPU9250_Offset:
 3470 0018 00000000 		.space	6
 3470      0000
 3471 001e 0000     		.space	2
 3472              		.type	TempGx.6337, %object
 3473              		.size	TempGx.6337, 4
 3474              	TempGx.6337:
 3475 0020 00000000 		.space	4
 3476              		.type	TempGy.6338, %object
 3477              		.size	TempGy.6338, 4
 3478              	TempGy.6338:
 3479 0024 00000000 		.space	4
 3480              		.type	TempGz.6339, %object
 3481              		.size	TempGz.6339, 4
 3482              	TempGz.6339:
 3483 0028 00000000 		.space	4
 3484              		.type	MPU9250_Magn_Offset, %object
 3485              		.size	MPU9250_Magn_Offset, 6
 3486              	MPU9250_Magn_Offset:
 3487 002c 00000000 		.space	6
 3487      0000
 3488              		.type	Pres_Read_data.6340, %object
 3489              		.size	Pres_Read_data.6340, 22
 3490              	Pres_Read_data.6340:
 3491 0032 00000000 		.space	22
 3491      00000000 
 3491      00000000 
 3491      00000000 
 3491      00000000 
 3492              		.type	Sum.6341, %object
 3493              		.size	Sum.6341, 4
 3494              	Sum.6341:
 3495 0048 00000000 		.space	4
 3496              		.type	accel.6372, %object
 3497              		.size	accel.6372, 6
 3498              	accel.6372:
 3499 004c 00000000 		.space	6
 3499      0000
 3500              		.type	magn.6373, %object
 3501              		.size	magn.6373, 6
 3502              	magn.6373:
 3503 0052 00000000 		.space	6
 3503      0000
 3504              		.type	BMP180_Filter.6377, %object
 3505              		.size	BMP180_Filter.6377, 108
 3506              	BMP180_Filter.6377:
 3507 0058 00000000 		.space	108
ARM GAS  C:\Users\acer\AppData\Local\Temp\ccmxYZNb.s 			page 84


 3507      00000000 
 3507      00000000 
 3507      00000000 
 3507      00000000 
 3508              		.text
 3509              	.Letext0:
 3510              		.file 2 "c:\\program files\\cypress\\psoc creator\\3.3\\psoc creator\\import\\gnu\\arm\\4.9.3\\arm
 3511              		.file 3 "c:\\program files\\cypress\\psoc creator\\3.3\\psoc creator\\import\\gnu\\arm\\4.9.3\\arm
 3512              		.file 4 "Generated_Source\\PSoC5/cytypes.h"
 3513              		.file 5 ".\\type_def.h"
 3514              		.file 6 ".\\imu_i2c.h"
 3515              		.file 7 "Generated_Source\\PSoC5/I2C_1.h"
 3516              		.file 8 "c:\\program files\\cypress\\psoc creator\\3.3\\psoc creator\\import\\gnu\\arm\\4.9.3\\arm