ARM GAS  C:\Users\acer\AppData\Local\Temp\ccAh7MOC.s 			page 1


   1              		.syntax unified
   2              		.cpu cortex-m3
   3              		.fpu softvfp
   4              		.eabi_attribute 20, 1
   5              		.eabi_attribute 21, 1
   6              		.eabi_attribute 23, 3
   7              		.eabi_attribute 24, 1
   8              		.eabi_attribute 25, 1
   9              		.eabi_attribute 26, 1
  10              		.eabi_attribute 30, 4
  11              		.eabi_attribute 34, 1
  12              		.eabi_attribute 18, 4
  13              		.thumb
  14              		.file	"LCD_Char_1.c"
  15              		.text
  16              	.Ltext0:
  17              		.cfi_sections	.debug_frame
  18              		.section	.text.LCD_Char_1_WrCntrlNib,"ax",%progbits
  19              		.align	1
  20              		.thumb
  21              		.thumb_func
  22              		.type	LCD_Char_1_WrCntrlNib, %function
  23              	LCD_Char_1_WrCntrlNib:
  24              	.LFB11:
  25              		.file 1 ".\\Generated_Source\\PSoC5\\LCD_Char_1.c"
   1:.\Generated_Source\PSoC5/LCD_Char_1.c **** /*******************************************************************************
   2:.\Generated_Source\PSoC5/LCD_Char_1.c **** * File Name: LCD_Char_1.c
   3:.\Generated_Source\PSoC5/LCD_Char_1.c **** * Version 1.1
   4:.\Generated_Source\PSoC5/LCD_Char_1.c **** *
   5:.\Generated_Source\PSoC5/LCD_Char_1.c **** * Description:
   6:.\Generated_Source\PSoC5/LCD_Char_1.c **** *  This file provides source code for the Character LCD component's API.
   7:.\Generated_Source\PSoC5/LCD_Char_1.c **** *
   8:.\Generated_Source\PSoC5/LCD_Char_1.c **** * Note:
   9:.\Generated_Source\PSoC5/LCD_Char_1.c **** *
  10:.\Generated_Source\PSoC5/LCD_Char_1.c **** ********************************************************************************
  11:.\Generated_Source\PSoC5/LCD_Char_1.c **** * Copyright 2008-2012, Cypress Semiconductor Corporation.  All rights reserved.
  12:.\Generated_Source\PSoC5/LCD_Char_1.c **** * You may use this file only in accordance with the license, terms, conditions,
  13:.\Generated_Source\PSoC5/LCD_Char_1.c **** * disclaimers, and limitations in the end user license agreement accompanying
  14:.\Generated_Source\PSoC5/LCD_Char_1.c **** * the software package with which this file was provided.
  15:.\Generated_Source\PSoC5/LCD_Char_1.c **** *******************************************************************************/
  16:.\Generated_Source\PSoC5/LCD_Char_1.c **** 
  17:.\Generated_Source\PSoC5/LCD_Char_1.c **** #include "CyLib.h"
  18:.\Generated_Source\PSoC5/LCD_Char_1.c **** #include "LCD_Char_1.h"
  19:.\Generated_Source\PSoC5/LCD_Char_1.c **** 
  20:.\Generated_Source\PSoC5/LCD_Char_1.c **** 
  21:.\Generated_Source\PSoC5/LCD_Char_1.c **** static void LCD_Char_1_WrDatNib(uint8 nibble) ;
  22:.\Generated_Source\PSoC5/LCD_Char_1.c **** static void LCD_Char_1_WrCntrlNib(uint8 nibble) ;
  23:.\Generated_Source\PSoC5/LCD_Char_1.c **** 
  24:.\Generated_Source\PSoC5/LCD_Char_1.c **** /* Stores the state of conponent. Indicates wherewer component is 
  25:.\Generated_Source\PSoC5/LCD_Char_1.c **** * in enable state or not.
  26:.\Generated_Source\PSoC5/LCD_Char_1.c **** */
  27:.\Generated_Source\PSoC5/LCD_Char_1.c **** uint8 LCD_Char_1_enableState = 0u;
  28:.\Generated_Source\PSoC5/LCD_Char_1.c **** 
  29:.\Generated_Source\PSoC5/LCD_Char_1.c **** uint8 LCD_Char_1_initVar = 0u;
  30:.\Generated_Source\PSoC5/LCD_Char_1.c **** 
  31:.\Generated_Source\PSoC5/LCD_Char_1.c **** 
  32:.\Generated_Source\PSoC5/LCD_Char_1.c **** /*******************************************************************************
ARM GAS  C:\Users\acer\AppData\Local\Temp\ccAh7MOC.s 			page 2


  33:.\Generated_Source\PSoC5/LCD_Char_1.c **** * Function Name: LCD_Char_1_Init
  34:.\Generated_Source\PSoC5/LCD_Char_1.c **** ********************************************************************************
  35:.\Generated_Source\PSoC5/LCD_Char_1.c **** *
  36:.\Generated_Source\PSoC5/LCD_Char_1.c **** * Summary:
  37:.\Generated_Source\PSoC5/LCD_Char_1.c **** *  Perform initialization required for components normal work.
  38:.\Generated_Source\PSoC5/LCD_Char_1.c **** *  This function initializes the LCD hardware module as follows:
  39:.\Generated_Source\PSoC5/LCD_Char_1.c **** *        Enable 4-bit interface
  40:.\Generated_Source\PSoC5/LCD_Char_1.c **** *        Clear the display
  41:.\Generated_Source\PSoC5/LCD_Char_1.c **** *        Enable auto cursor increment
  42:.\Generated_Source\PSoC5/LCD_Char_1.c **** *        Resets the cursor to start position
  43:.\Generated_Source\PSoC5/LCD_Char_1.c **** *  Also loads custom character set to LCD if it was defined in the customizer.
  44:.\Generated_Source\PSoC5/LCD_Char_1.c **** *
  45:.\Generated_Source\PSoC5/LCD_Char_1.c **** * Parameters:
  46:.\Generated_Source\PSoC5/LCD_Char_1.c **** *  None.
  47:.\Generated_Source\PSoC5/LCD_Char_1.c **** *
  48:.\Generated_Source\PSoC5/LCD_Char_1.c **** * Return:
  49:.\Generated_Source\PSoC5/LCD_Char_1.c **** *  None.
  50:.\Generated_Source\PSoC5/LCD_Char_1.c **** *
  51:.\Generated_Source\PSoC5/LCD_Char_1.c **** * Reentrant:
  52:.\Generated_Source\PSoC5/LCD_Char_1.c **** *  No.
  53:.\Generated_Source\PSoC5/LCD_Char_1.c **** *
  54:.\Generated_Source\PSoC5/LCD_Char_1.c **** *******************************************************************************/
  55:.\Generated_Source\PSoC5/LCD_Char_1.c **** void LCD_Char_1_Init(void) 
  56:.\Generated_Source\PSoC5/LCD_Char_1.c **** {
  57:.\Generated_Source\PSoC5/LCD_Char_1.c ****     /* INIT CODE */
  58:.\Generated_Source\PSoC5/LCD_Char_1.c ****     CyDelay(40u);                                                        /* Delay 40 ms */
  59:.\Generated_Source\PSoC5/LCD_Char_1.c ****     LCD_Char_1_WrCntrlNib(LCD_Char_1_DISPLAY_8_BIT_INIT);   /* Selects 8-bit mode */
  60:.\Generated_Source\PSoC5/LCD_Char_1.c ****     CyDelay(5u);                                                         /* Delay 5 ms */
  61:.\Generated_Source\PSoC5/LCD_Char_1.c ****     LCD_Char_1_WrCntrlNib(LCD_Char_1_DISPLAY_8_BIT_INIT);   /* Selects 8-bit mode */
  62:.\Generated_Source\PSoC5/LCD_Char_1.c ****     CyDelay(15u);                                                        /* Delay 15 ms */
  63:.\Generated_Source\PSoC5/LCD_Char_1.c ****     LCD_Char_1_WrCntrlNib(LCD_Char_1_DISPLAY_8_BIT_INIT);   /* Selects 8-bit mode */
  64:.\Generated_Source\PSoC5/LCD_Char_1.c ****     CyDelay(1u);                                                         /* Delay 1 ms */
  65:.\Generated_Source\PSoC5/LCD_Char_1.c ****     LCD_Char_1_WrCntrlNib(LCD_Char_1_DISPLAY_4_BIT_INIT);   /* Selects 4-bit mode */
  66:.\Generated_Source\PSoC5/LCD_Char_1.c ****     CyDelay(5u);                                                         /* Delay 5 ms */
  67:.\Generated_Source\PSoC5/LCD_Char_1.c **** 
  68:.\Generated_Source\PSoC5/LCD_Char_1.c ****     LCD_Char_1_WriteControl(LCD_Char_1_CURSOR_AUTO_INCR_ON);    /* Incr Cursor After Writes */
  69:.\Generated_Source\PSoC5/LCD_Char_1.c ****     LCD_Char_1_WriteControl(LCD_Char_1_DISPLAY_CURSOR_ON);      /* Turn Display, Cursor ON */
  70:.\Generated_Source\PSoC5/LCD_Char_1.c ****     LCD_Char_1_WriteControl(LCD_Char_1_DISPLAY_2_LINES_5x10);   /* 2 Lines by 5x10 Characters */
  71:.\Generated_Source\PSoC5/LCD_Char_1.c ****     LCD_Char_1_WriteControl(LCD_Char_1_DISPLAY_CURSOR_OFF);     /* Turn Display, Cursor OFF */
  72:.\Generated_Source\PSoC5/LCD_Char_1.c ****     LCD_Char_1_WriteControl(LCD_Char_1_CLEAR_DISPLAY);          /* Clear LCD Screen */
  73:.\Generated_Source\PSoC5/LCD_Char_1.c ****     LCD_Char_1_WriteControl(LCD_Char_1_DISPLAY_ON_CURSOR_OFF);  /* Turn Display ON, Cursor OFF */
  74:.\Generated_Source\PSoC5/LCD_Char_1.c ****     LCD_Char_1_WriteControl(LCD_Char_1_RESET_CURSOR_POSITION);  /* Set Cursor to 0,0 */
  75:.\Generated_Source\PSoC5/LCD_Char_1.c ****     CyDelay(5u);
  76:.\Generated_Source\PSoC5/LCD_Char_1.c **** 
  77:.\Generated_Source\PSoC5/LCD_Char_1.c ****     #if(LCD_Char_1_CUSTOM_CHAR_SET != LCD_Char_1_NONE)
  78:.\Generated_Source\PSoC5/LCD_Char_1.c ****         LCD_Char_1_LoadCustomFonts(LCD_Char_1_customFonts);
  79:.\Generated_Source\PSoC5/LCD_Char_1.c ****     #endif /* LCD_Char_1_CUSTOM_CHAR_SET != LCD_Char_1_NONE */
  80:.\Generated_Source\PSoC5/LCD_Char_1.c **** }
  81:.\Generated_Source\PSoC5/LCD_Char_1.c **** 
  82:.\Generated_Source\PSoC5/LCD_Char_1.c **** 
  83:.\Generated_Source\PSoC5/LCD_Char_1.c **** /*******************************************************************************
  84:.\Generated_Source\PSoC5/LCD_Char_1.c **** * Function Name: LCD_Char_1_Enable
  85:.\Generated_Source\PSoC5/LCD_Char_1.c **** ********************************************************************************
  86:.\Generated_Source\PSoC5/LCD_Char_1.c **** *
  87:.\Generated_Source\PSoC5/LCD_Char_1.c **** * Summary:
  88:.\Generated_Source\PSoC5/LCD_Char_1.c **** *  Turns on the display.
  89:.\Generated_Source\PSoC5/LCD_Char_1.c **** *
ARM GAS  C:\Users\acer\AppData\Local\Temp\ccAh7MOC.s 			page 3


  90:.\Generated_Source\PSoC5/LCD_Char_1.c **** * Parameters:
  91:.\Generated_Source\PSoC5/LCD_Char_1.c **** *  None.
  92:.\Generated_Source\PSoC5/LCD_Char_1.c **** *
  93:.\Generated_Source\PSoC5/LCD_Char_1.c **** * Return:
  94:.\Generated_Source\PSoC5/LCD_Char_1.c **** *  None.
  95:.\Generated_Source\PSoC5/LCD_Char_1.c **** *
  96:.\Generated_Source\PSoC5/LCD_Char_1.c **** * Reentrant:
  97:.\Generated_Source\PSoC5/LCD_Char_1.c **** *  No.
  98:.\Generated_Source\PSoC5/LCD_Char_1.c **** *
  99:.\Generated_Source\PSoC5/LCD_Char_1.c **** * Theory:
 100:.\Generated_Source\PSoC5/LCD_Char_1.c **** *  This finction has no effect when it called first time as
 101:.\Generated_Source\PSoC5/LCD_Char_1.c **** *  LCD_Char_1_Init() turns on the LCD.
 102:.\Generated_Source\PSoC5/LCD_Char_1.c **** *
 103:.\Generated_Source\PSoC5/LCD_Char_1.c **** *******************************************************************************/
 104:.\Generated_Source\PSoC5/LCD_Char_1.c **** void LCD_Char_1_Enable(void) 
 105:.\Generated_Source\PSoC5/LCD_Char_1.c **** {
 106:.\Generated_Source\PSoC5/LCD_Char_1.c ****     LCD_Char_1_DisplayOn();
 107:.\Generated_Source\PSoC5/LCD_Char_1.c ****     LCD_Char_1_enableState = 1u;
 108:.\Generated_Source\PSoC5/LCD_Char_1.c **** }
 109:.\Generated_Source\PSoC5/LCD_Char_1.c **** 
 110:.\Generated_Source\PSoC5/LCD_Char_1.c **** 
 111:.\Generated_Source\PSoC5/LCD_Char_1.c **** /*******************************************************************************
 112:.\Generated_Source\PSoC5/LCD_Char_1.c **** * Function Name: LCD_Char_1_Start
 113:.\Generated_Source\PSoC5/LCD_Char_1.c **** ********************************************************************************
 114:.\Generated_Source\PSoC5/LCD_Char_1.c **** *
 115:.\Generated_Source\PSoC5/LCD_Char_1.c **** * Summary:
 116:.\Generated_Source\PSoC5/LCD_Char_1.c **** *  Perform initialization required for components normal work.
 117:.\Generated_Source\PSoC5/LCD_Char_1.c **** *  This function initializes the LCD hardware module as follows:
 118:.\Generated_Source\PSoC5/LCD_Char_1.c **** *        Enable 4-bit interface
 119:.\Generated_Source\PSoC5/LCD_Char_1.c **** *        Clear the display
 120:.\Generated_Source\PSoC5/LCD_Char_1.c **** *        Enable auto cursor increment
 121:.\Generated_Source\PSoC5/LCD_Char_1.c **** *        Resets the cursor to start position
 122:.\Generated_Source\PSoC5/LCD_Char_1.c **** *  Also loads custom character set to LCD if it was defined in the customizer.
 123:.\Generated_Source\PSoC5/LCD_Char_1.c **** *  If it was not the first call in this project then it just turns on the
 124:.\Generated_Source\PSoC5/LCD_Char_1.c **** *  display
 125:.\Generated_Source\PSoC5/LCD_Char_1.c **** *
 126:.\Generated_Source\PSoC5/LCD_Char_1.c **** *
 127:.\Generated_Source\PSoC5/LCD_Char_1.c **** * Parameters:
 128:.\Generated_Source\PSoC5/LCD_Char_1.c **** *  LCD_Char_1_initVar - global variable.
 129:.\Generated_Source\PSoC5/LCD_Char_1.c **** *
 130:.\Generated_Source\PSoC5/LCD_Char_1.c **** * Return:
 131:.\Generated_Source\PSoC5/LCD_Char_1.c **** *  LCD_Char_1_initVar - global variable.
 132:.\Generated_Source\PSoC5/LCD_Char_1.c **** *
 133:.\Generated_Source\PSoC5/LCD_Char_1.c **** * Reentrant:
 134:.\Generated_Source\PSoC5/LCD_Char_1.c **** *  No.
 135:.\Generated_Source\PSoC5/LCD_Char_1.c **** *
 136:.\Generated_Source\PSoC5/LCD_Char_1.c **** *******************************************************************************/
 137:.\Generated_Source\PSoC5/LCD_Char_1.c **** void LCD_Char_1_Start(void) 
 138:.\Generated_Source\PSoC5/LCD_Char_1.c **** {
 139:.\Generated_Source\PSoC5/LCD_Char_1.c ****     /* If not initialized then perform initialization */
 140:.\Generated_Source\PSoC5/LCD_Char_1.c ****     if(LCD_Char_1_initVar == 0u)
 141:.\Generated_Source\PSoC5/LCD_Char_1.c ****     {
 142:.\Generated_Source\PSoC5/LCD_Char_1.c ****         LCD_Char_1_Init();
 143:.\Generated_Source\PSoC5/LCD_Char_1.c ****         LCD_Char_1_initVar = 1u;
 144:.\Generated_Source\PSoC5/LCD_Char_1.c ****     }
 145:.\Generated_Source\PSoC5/LCD_Char_1.c **** 
 146:.\Generated_Source\PSoC5/LCD_Char_1.c ****     /* Turn on the LCD */
ARM GAS  C:\Users\acer\AppData\Local\Temp\ccAh7MOC.s 			page 4


 147:.\Generated_Source\PSoC5/LCD_Char_1.c ****     LCD_Char_1_Enable();
 148:.\Generated_Source\PSoC5/LCD_Char_1.c **** }
 149:.\Generated_Source\PSoC5/LCD_Char_1.c **** 
 150:.\Generated_Source\PSoC5/LCD_Char_1.c **** 
 151:.\Generated_Source\PSoC5/LCD_Char_1.c **** /*******************************************************************************
 152:.\Generated_Source\PSoC5/LCD_Char_1.c **** * Function Name: LCD_Char_1_Stop
 153:.\Generated_Source\PSoC5/LCD_Char_1.c **** ********************************************************************************
 154:.\Generated_Source\PSoC5/LCD_Char_1.c **** *
 155:.\Generated_Source\PSoC5/LCD_Char_1.c **** * Summary:
 156:.\Generated_Source\PSoC5/LCD_Char_1.c **** *  Turns off the display of the LCD screen.
 157:.\Generated_Source\PSoC5/LCD_Char_1.c **** *
 158:.\Generated_Source\PSoC5/LCD_Char_1.c **** * Parameters:
 159:.\Generated_Source\PSoC5/LCD_Char_1.c **** *  None.
 160:.\Generated_Source\PSoC5/LCD_Char_1.c **** *
 161:.\Generated_Source\PSoC5/LCD_Char_1.c **** * Return:
 162:.\Generated_Source\PSoC5/LCD_Char_1.c **** *  None.
 163:.\Generated_Source\PSoC5/LCD_Char_1.c **** *
 164:.\Generated_Source\PSoC5/LCD_Char_1.c **** * Reentrant:
 165:.\Generated_Source\PSoC5/LCD_Char_1.c **** *  No.
 166:.\Generated_Source\PSoC5/LCD_Char_1.c **** *
 167:.\Generated_Source\PSoC5/LCD_Char_1.c **** *******************************************************************************/
 168:.\Generated_Source\PSoC5/LCD_Char_1.c **** void LCD_Char_1_Stop(void) 
 169:.\Generated_Source\PSoC5/LCD_Char_1.c **** {
 170:.\Generated_Source\PSoC5/LCD_Char_1.c ****     /* Calls LCD Off Macro */
 171:.\Generated_Source\PSoC5/LCD_Char_1.c ****     LCD_Char_1_DisplayOff();
 172:.\Generated_Source\PSoC5/LCD_Char_1.c ****     LCD_Char_1_enableState = 0u;
 173:.\Generated_Source\PSoC5/LCD_Char_1.c **** }
 174:.\Generated_Source\PSoC5/LCD_Char_1.c **** 
 175:.\Generated_Source\PSoC5/LCD_Char_1.c **** 
 176:.\Generated_Source\PSoC5/LCD_Char_1.c **** /*******************************************************************************
 177:.\Generated_Source\PSoC5/LCD_Char_1.c **** *  Function Name: LCD_Char_1_Position
 178:.\Generated_Source\PSoC5/LCD_Char_1.c **** ********************************************************************************
 179:.\Generated_Source\PSoC5/LCD_Char_1.c **** *
 180:.\Generated_Source\PSoC5/LCD_Char_1.c **** * Summary:
 181:.\Generated_Source\PSoC5/LCD_Char_1.c **** *  Moves active cursor location to a point specified by the input arguments
 182:.\Generated_Source\PSoC5/LCD_Char_1.c **** *
 183:.\Generated_Source\PSoC5/LCD_Char_1.c **** * Parameters:
 184:.\Generated_Source\PSoC5/LCD_Char_1.c **** *  row:     Specific row of LCD module to be written
 185:.\Generated_Source\PSoC5/LCD_Char_1.c **** *  column:  Column of LCD module to be written
 186:.\Generated_Source\PSoC5/LCD_Char_1.c **** *
 187:.\Generated_Source\PSoC5/LCD_Char_1.c **** * Return:
 188:.\Generated_Source\PSoC5/LCD_Char_1.c **** *  None.
 189:.\Generated_Source\PSoC5/LCD_Char_1.c **** *
 190:.\Generated_Source\PSoC5/LCD_Char_1.c **** * Note:
 191:.\Generated_Source\PSoC5/LCD_Char_1.c **** *  This only applies for LCD displays which use the 2X40 address mode.
 192:.\Generated_Source\PSoC5/LCD_Char_1.c **** *  This results in Row 2 offset from row one by 0x28.
 193:.\Generated_Source\PSoC5/LCD_Char_1.c **** *  When there are more than 2 rows, each row must be fewer than 20 characters.
 194:.\Generated_Source\PSoC5/LCD_Char_1.c **** *
 195:.\Generated_Source\PSoC5/LCD_Char_1.c **** *******************************************************************************/
 196:.\Generated_Source\PSoC5/LCD_Char_1.c **** void LCD_Char_1_Position(uint8 row, uint8 column) 
 197:.\Generated_Source\PSoC5/LCD_Char_1.c **** {
 198:.\Generated_Source\PSoC5/LCD_Char_1.c ****     switch (row)
 199:.\Generated_Source\PSoC5/LCD_Char_1.c ****     {
 200:.\Generated_Source\PSoC5/LCD_Char_1.c ****         case (uint8)0:
 201:.\Generated_Source\PSoC5/LCD_Char_1.c ****             LCD_Char_1_WriteControl(LCD_Char_1_ROW_0_START + column);
 202:.\Generated_Source\PSoC5/LCD_Char_1.c ****             break;
 203:.\Generated_Source\PSoC5/LCD_Char_1.c ****         case (uint8) 1:
ARM GAS  C:\Users\acer\AppData\Local\Temp\ccAh7MOC.s 			page 5


 204:.\Generated_Source\PSoC5/LCD_Char_1.c ****             LCD_Char_1_WriteControl(LCD_Char_1_ROW_1_START + column);
 205:.\Generated_Source\PSoC5/LCD_Char_1.c ****             break;
 206:.\Generated_Source\PSoC5/LCD_Char_1.c ****         case (uint8) 2:
 207:.\Generated_Source\PSoC5/LCD_Char_1.c ****             LCD_Char_1_WriteControl(LCD_Char_1_ROW_2_START + column);
 208:.\Generated_Source\PSoC5/LCD_Char_1.c ****             break;
 209:.\Generated_Source\PSoC5/LCD_Char_1.c ****         case (uint8) 3:
 210:.\Generated_Source\PSoC5/LCD_Char_1.c ****             LCD_Char_1_WriteControl(LCD_Char_1_ROW_3_START + column);
 211:.\Generated_Source\PSoC5/LCD_Char_1.c ****             break;
 212:.\Generated_Source\PSoC5/LCD_Char_1.c ****         default:
 213:.\Generated_Source\PSoC5/LCD_Char_1.c ****             /* if default case is hit, invalid row argument was passed.*/
 214:.\Generated_Source\PSoC5/LCD_Char_1.c ****             break;
 215:.\Generated_Source\PSoC5/LCD_Char_1.c ****     }
 216:.\Generated_Source\PSoC5/LCD_Char_1.c **** }
 217:.\Generated_Source\PSoC5/LCD_Char_1.c **** 
 218:.\Generated_Source\PSoC5/LCD_Char_1.c **** 
 219:.\Generated_Source\PSoC5/LCD_Char_1.c **** /*******************************************************************************
 220:.\Generated_Source\PSoC5/LCD_Char_1.c **** * Function Name: LCD_Char_1_PrintString
 221:.\Generated_Source\PSoC5/LCD_Char_1.c **** ********************************************************************************
 222:.\Generated_Source\PSoC5/LCD_Char_1.c **** *
 223:.\Generated_Source\PSoC5/LCD_Char_1.c **** * Summary:
 224:.\Generated_Source\PSoC5/LCD_Char_1.c **** *  Writes a zero terminated string to the LCD.
 225:.\Generated_Source\PSoC5/LCD_Char_1.c **** *
 226:.\Generated_Source\PSoC5/LCD_Char_1.c **** * Parameters:
 227:.\Generated_Source\PSoC5/LCD_Char_1.c **** *  string:  pointer to head of char8 array to be written to the LCD module
 228:.\Generated_Source\PSoC5/LCD_Char_1.c **** *
 229:.\Generated_Source\PSoC5/LCD_Char_1.c **** * Return:
 230:.\Generated_Source\PSoC5/LCD_Char_1.c **** *  None.
 231:.\Generated_Source\PSoC5/LCD_Char_1.c **** *
 232:.\Generated_Source\PSoC5/LCD_Char_1.c **** *******************************************************************************/
 233:.\Generated_Source\PSoC5/LCD_Char_1.c **** void LCD_Char_1_PrintString(char8 const string[]) 
 234:.\Generated_Source\PSoC5/LCD_Char_1.c **** {
 235:.\Generated_Source\PSoC5/LCD_Char_1.c ****     uint8 indexU8 = 1u;
 236:.\Generated_Source\PSoC5/LCD_Char_1.c ****     char8 current = *string;
 237:.\Generated_Source\PSoC5/LCD_Char_1.c **** 
 238:.\Generated_Source\PSoC5/LCD_Char_1.c ****     /* Until null is reached, print next character */
 239:.\Generated_Source\PSoC5/LCD_Char_1.c ****     while((char8) '\0' != current)
 240:.\Generated_Source\PSoC5/LCD_Char_1.c ****     {
 241:.\Generated_Source\PSoC5/LCD_Char_1.c ****         LCD_Char_1_WriteData((uint8)current);
 242:.\Generated_Source\PSoC5/LCD_Char_1.c ****         current = string[indexU8];
 243:.\Generated_Source\PSoC5/LCD_Char_1.c ****         indexU8++;
 244:.\Generated_Source\PSoC5/LCD_Char_1.c ****     }
 245:.\Generated_Source\PSoC5/LCD_Char_1.c **** }
 246:.\Generated_Source\PSoC5/LCD_Char_1.c **** 
 247:.\Generated_Source\PSoC5/LCD_Char_1.c **** 
 248:.\Generated_Source\PSoC5/LCD_Char_1.c **** /*******************************************************************************
 249:.\Generated_Source\PSoC5/LCD_Char_1.c **** *  Function Name: LCD_Char_1_PutChar
 250:.\Generated_Source\PSoC5/LCD_Char_1.c **** ********************************************************************************
 251:.\Generated_Source\PSoC5/LCD_Char_1.c **** *
 252:.\Generated_Source\PSoC5/LCD_Char_1.c **** * Summary:
 253:.\Generated_Source\PSoC5/LCD_Char_1.c **** *  Writes a single character to the current cursor position of the LCD module.
 254:.\Generated_Source\PSoC5/LCD_Char_1.c **** *  Custom character names (_CUSTOM_0 through
 255:.\Generated_Source\PSoC5/LCD_Char_1.c **** *  _CUSTOM_7) are acceptable as inputs.
 256:.\Generated_Source\PSoC5/LCD_Char_1.c **** *
 257:.\Generated_Source\PSoC5/LCD_Char_1.c **** * Parameters:
 258:.\Generated_Source\PSoC5/LCD_Char_1.c **** *  character:  character to be written to the LCD
 259:.\Generated_Source\PSoC5/LCD_Char_1.c **** *
 260:.\Generated_Source\PSoC5/LCD_Char_1.c **** * Return:
ARM GAS  C:\Users\acer\AppData\Local\Temp\ccAh7MOC.s 			page 6


 261:.\Generated_Source\PSoC5/LCD_Char_1.c **** *  None.
 262:.\Generated_Source\PSoC5/LCD_Char_1.c **** *
 263:.\Generated_Source\PSoC5/LCD_Char_1.c **** *******************************************************************************/
 264:.\Generated_Source\PSoC5/LCD_Char_1.c **** void LCD_Char_1_PutChar(char8 character) 
 265:.\Generated_Source\PSoC5/LCD_Char_1.c **** {
 266:.\Generated_Source\PSoC5/LCD_Char_1.c ****     LCD_Char_1_WriteData((uint8)character);
 267:.\Generated_Source\PSoC5/LCD_Char_1.c **** }
 268:.\Generated_Source\PSoC5/LCD_Char_1.c **** 
 269:.\Generated_Source\PSoC5/LCD_Char_1.c **** 
 270:.\Generated_Source\PSoC5/LCD_Char_1.c **** /*******************************************************************************
 271:.\Generated_Source\PSoC5/LCD_Char_1.c **** *  Function Name: LCD_Char_1_WriteData
 272:.\Generated_Source\PSoC5/LCD_Char_1.c **** ********************************************************************************
 273:.\Generated_Source\PSoC5/LCD_Char_1.c **** *
 274:.\Generated_Source\PSoC5/LCD_Char_1.c **** * Summary:
 275:.\Generated_Source\PSoC5/LCD_Char_1.c **** *  Writes a data byte to the LCD module's Data Display RAM.
 276:.\Generated_Source\PSoC5/LCD_Char_1.c **** *
 277:.\Generated_Source\PSoC5/LCD_Char_1.c **** * Parameters:
 278:.\Generated_Source\PSoC5/LCD_Char_1.c **** *  dByte:  byte to be written to LCD module.
 279:.\Generated_Source\PSoC5/LCD_Char_1.c **** *
 280:.\Generated_Source\PSoC5/LCD_Char_1.c **** * Return:
 281:.\Generated_Source\PSoC5/LCD_Char_1.c **** *  None.
 282:.\Generated_Source\PSoC5/LCD_Char_1.c **** *
 283:.\Generated_Source\PSoC5/LCD_Char_1.c **** *******************************************************************************/
 284:.\Generated_Source\PSoC5/LCD_Char_1.c **** void LCD_Char_1_WriteData(uint8 dByte) 
 285:.\Generated_Source\PSoC5/LCD_Char_1.c **** {
 286:.\Generated_Source\PSoC5/LCD_Char_1.c ****     uint8 nibble;
 287:.\Generated_Source\PSoC5/LCD_Char_1.c **** 
 288:.\Generated_Source\PSoC5/LCD_Char_1.c ****     /* Write high nibble */
 289:.\Generated_Source\PSoC5/LCD_Char_1.c **** 	nibble = dByte >> LCD_Char_1_NIBBLE_SHIFT;
 290:.\Generated_Source\PSoC5/LCD_Char_1.c ****     LCD_Char_1_WrDatNib(nibble);
 291:.\Generated_Source\PSoC5/LCD_Char_1.c **** 
 292:.\Generated_Source\PSoC5/LCD_Char_1.c ****      CyDelayUs(LCD_Char_1_NIB_DELAY_US);
 293:.\Generated_Source\PSoC5/LCD_Char_1.c **** 	 
 294:.\Generated_Source\PSoC5/LCD_Char_1.c ****     /* Write low nibble */
 295:.\Generated_Source\PSoC5/LCD_Char_1.c **** 	nibble = dByte & LCD_Char_1_NIBBLE_MASK;
 296:.\Generated_Source\PSoC5/LCD_Char_1.c ****     LCD_Char_1_WrDatNib(nibble);
 297:.\Generated_Source\PSoC5/LCD_Char_1.c **** 	
 298:.\Generated_Source\PSoC5/LCD_Char_1.c **** 	CyDelayUs(LCD_Char_1_DATA_DELAY_US);
 299:.\Generated_Source\PSoC5/LCD_Char_1.c **** 
 300:.\Generated_Source\PSoC5/LCD_Char_1.c **** }
 301:.\Generated_Source\PSoC5/LCD_Char_1.c **** 
 302:.\Generated_Source\PSoC5/LCD_Char_1.c **** 
 303:.\Generated_Source\PSoC5/LCD_Char_1.c **** /*******************************************************************************
 304:.\Generated_Source\PSoC5/LCD_Char_1.c **** *  Function Name: LCD_Char_1_WriteControl
 305:.\Generated_Source\PSoC5/LCD_Char_1.c **** ********************************************************************************
 306:.\Generated_Source\PSoC5/LCD_Char_1.c **** *
 307:.\Generated_Source\PSoC5/LCD_Char_1.c **** * Summary:
 308:.\Generated_Source\PSoC5/LCD_Char_1.c **** *  Writes a command byte to the LCD module.
 309:.\Generated_Source\PSoC5/LCD_Char_1.c **** *
 310:.\Generated_Source\PSoC5/LCD_Char_1.c **** * Parameters:
 311:.\Generated_Source\PSoC5/LCD_Char_1.c **** *  cByte:   byte to be written to LCD module.
 312:.\Generated_Source\PSoC5/LCD_Char_1.c **** *
 313:.\Generated_Source\PSoC5/LCD_Char_1.c **** * Return:
 314:.\Generated_Source\PSoC5/LCD_Char_1.c **** *  None.
 315:.\Generated_Source\PSoC5/LCD_Char_1.c **** *
 316:.\Generated_Source\PSoC5/LCD_Char_1.c **** *******************************************************************************/
 317:.\Generated_Source\PSoC5/LCD_Char_1.c **** void LCD_Char_1_WriteControl(uint8 cByte) 
ARM GAS  C:\Users\acer\AppData\Local\Temp\ccAh7MOC.s 			page 7


 318:.\Generated_Source\PSoC5/LCD_Char_1.c **** {
 319:.\Generated_Source\PSoC5/LCD_Char_1.c ****     uint8 nibble;
 320:.\Generated_Source\PSoC5/LCD_Char_1.c **** 
 321:.\Generated_Source\PSoC5/LCD_Char_1.c ****     /* WrCntrlNib(High Nibble) */
 322:.\Generated_Source\PSoC5/LCD_Char_1.c **** 	 nibble = cByte >> LCD_Char_1_NIBBLE_SHIFT;
 323:.\Generated_Source\PSoC5/LCD_Char_1.c ****     LCD_Char_1_WrCntrlNib(nibble);
 324:.\Generated_Source\PSoC5/LCD_Char_1.c **** 
 325:.\Generated_Source\PSoC5/LCD_Char_1.c ****     CyDelayUs(LCD_Char_1_NIB_DELAY_US);
 326:.\Generated_Source\PSoC5/LCD_Char_1.c **** 	
 327:.\Generated_Source\PSoC5/LCD_Char_1.c ****     /* WrCntrlNib(Low Nibble) */
 328:.\Generated_Source\PSoC5/LCD_Char_1.c **** 	nibble = cByte & LCD_Char_1_NIBBLE_MASK;
 329:.\Generated_Source\PSoC5/LCD_Char_1.c ****     LCD_Char_1_WrCntrlNib(nibble);
 330:.\Generated_Source\PSoC5/LCD_Char_1.c **** 
 331:.\Generated_Source\PSoC5/LCD_Char_1.c ****      CyDelayUs(LCD_Char_1_CMD_DELAY_US);
 332:.\Generated_Source\PSoC5/LCD_Char_1.c **** }
 333:.\Generated_Source\PSoC5/LCD_Char_1.c **** 
 334:.\Generated_Source\PSoC5/LCD_Char_1.c **** 
 335:.\Generated_Source\PSoC5/LCD_Char_1.c **** /*******************************************************************************
 336:.\Generated_Source\PSoC5/LCD_Char_1.c **** * Function Name: LCD_Char_1_IsReady
 337:.\Generated_Source\PSoC5/LCD_Char_1.c **** ********************************************************************************
 338:.\Generated_Source\PSoC5/LCD_Char_1.c **** *
 339:.\Generated_Source\PSoC5/LCD_Char_1.c **** * Summary:
 340:.\Generated_Source\PSoC5/LCD_Char_1.c **** *  Polls LCD until the ready bit is set.
 341:.\Generated_Source\PSoC5/LCD_Char_1.c **** *
 342:.\Generated_Source\PSoC5/LCD_Char_1.c **** * Parameters:
 343:.\Generated_Source\PSoC5/LCD_Char_1.c **** *  None.
 344:.\Generated_Source\PSoC5/LCD_Char_1.c **** *
 345:.\Generated_Source\PSoC5/LCD_Char_1.c **** * Return:
 346:.\Generated_Source\PSoC5/LCD_Char_1.c **** *  None.
 347:.\Generated_Source\PSoC5/LCD_Char_1.c **** *
 348:.\Generated_Source\PSoC5/LCD_Char_1.c **** * Note:
 349:.\Generated_Source\PSoC5/LCD_Char_1.c **** *  Changes pins to High-Z.
 350:.\Generated_Source\PSoC5/LCD_Char_1.c **** *
 351:.\Generated_Source\PSoC5/LCD_Char_1.c **** *******************************************************************************/
 352:.\Generated_Source\PSoC5/LCD_Char_1.c **** void LCD_Char_1_IsReady(void) 
 353:.\Generated_Source\PSoC5/LCD_Char_1.c **** {
 354:.\Generated_Source\PSoC5/LCD_Char_1.c ****    
 355:.\Generated_Source\PSoC5/LCD_Char_1.c **** 	CyDelay(1u);
 356:.\Generated_Source\PSoC5/LCD_Char_1.c **** 	
 357:.\Generated_Source\PSoC5/LCD_Char_1.c **** }
 358:.\Generated_Source\PSoC5/LCD_Char_1.c **** 
 359:.\Generated_Source\PSoC5/LCD_Char_1.c **** 
 360:.\Generated_Source\PSoC5/LCD_Char_1.c **** /*******************************************************************************
 361:.\Generated_Source\PSoC5/LCD_Char_1.c **** *  Function Name: LCD_Char_1_WrDatNib
 362:.\Generated_Source\PSoC5/LCD_Char_1.c **** ********************************************************************************
 363:.\Generated_Source\PSoC5/LCD_Char_1.c **** *
 364:.\Generated_Source\PSoC5/LCD_Char_1.c **** * Summary:
 365:.\Generated_Source\PSoC5/LCD_Char_1.c **** *  Writes a data nibble to the LCD module.
 366:.\Generated_Source\PSoC5/LCD_Char_1.c **** *
 367:.\Generated_Source\PSoC5/LCD_Char_1.c **** * Parameters:
 368:.\Generated_Source\PSoC5/LCD_Char_1.c **** *  nibble:  byte containing nibble in least significant nibble to be written
 369:.\Generated_Source\PSoC5/LCD_Char_1.c **** *           to LCD module.
 370:.\Generated_Source\PSoC5/LCD_Char_1.c **** *
 371:.\Generated_Source\PSoC5/LCD_Char_1.c **** * Return:
 372:.\Generated_Source\PSoC5/LCD_Char_1.c **** *  None.
 373:.\Generated_Source\PSoC5/LCD_Char_1.c **** *
 374:.\Generated_Source\PSoC5/LCD_Char_1.c **** *******************************************************************************/
ARM GAS  C:\Users\acer\AppData\Local\Temp\ccAh7MOC.s 			page 8


 375:.\Generated_Source\PSoC5/LCD_Char_1.c **** static void LCD_Char_1_WrDatNib(uint8 nibble) 
 376:.\Generated_Source\PSoC5/LCD_Char_1.c **** {
 377:.\Generated_Source\PSoC5/LCD_Char_1.c **** 
 378:.\Generated_Source\PSoC5/LCD_Char_1.c ****     /* RS shoul be low to select data register */
 379:.\Generated_Source\PSoC5/LCD_Char_1.c ****     LCD_Char_1_CNTL_REG |= LCD_Char_1_RS;
 380:.\Generated_Source\PSoC5/LCD_Char_1.c ****     /* Reset RW for write operation */
 381:.\Generated_Source\PSoC5/LCD_Char_1.c ****     LCD_Char_1_CNTL_REG &= ~LCD_Char_1_RW;
 382:.\Generated_Source\PSoC5/LCD_Char_1.c **** 
 383:.\Generated_Source\PSoC5/LCD_Char_1.c ****     /* Two following lines of code will provide us with 40ns delay */
 384:.\Generated_Source\PSoC5/LCD_Char_1.c ****     /* Clear data pins */
 385:.\Generated_Source\PSoC5/LCD_Char_1.c ****     LCD_Char_1_CNTL_REG &= ~LCD_Char_1_DATA_MASK;
 386:.\Generated_Source\PSoC5/LCD_Char_1.c **** 
 387:.\Generated_Source\PSoC5/LCD_Char_1.c ****     /* Write in data, bring E high*/
 388:.\Generated_Source\PSoC5/LCD_Char_1.c ****     LCD_Char_1_CNTL_REG |= (LCD_Char_1_E | nibble);
 389:.\Generated_Source\PSoC5/LCD_Char_1.c **** 
 390:.\Generated_Source\PSoC5/LCD_Char_1.c ****     /* Minimum of 230 ns delay */
 391:.\Generated_Source\PSoC5/LCD_Char_1.c ****     CyDelayUs(1u);
 392:.\Generated_Source\PSoC5/LCD_Char_1.c **** 
 393:.\Generated_Source\PSoC5/LCD_Char_1.c ****     LCD_Char_1_CNTL_REG &= ~LCD_Char_1_E;
 394:.\Generated_Source\PSoC5/LCD_Char_1.c **** 	
 395:.\Generated_Source\PSoC5/LCD_Char_1.c **** }
 396:.\Generated_Source\PSoC5/LCD_Char_1.c **** 
 397:.\Generated_Source\PSoC5/LCD_Char_1.c **** 
 398:.\Generated_Source\PSoC5/LCD_Char_1.c **** /*******************************************************************************
 399:.\Generated_Source\PSoC5/LCD_Char_1.c **** *  Function Name: LCD_Char_1_WrCntrlNib
 400:.\Generated_Source\PSoC5/LCD_Char_1.c **** ********************************************************************************
 401:.\Generated_Source\PSoC5/LCD_Char_1.c **** *
 402:.\Generated_Source\PSoC5/LCD_Char_1.c **** * Summary:
 403:.\Generated_Source\PSoC5/LCD_Char_1.c **** *  Writes a control nibble to the LCD module.
 404:.\Generated_Source\PSoC5/LCD_Char_1.c **** *
 405:.\Generated_Source\PSoC5/LCD_Char_1.c **** * Parameters:
 406:.\Generated_Source\PSoC5/LCD_Char_1.c **** *  nibble:  byte containing nibble in least significant nibble to be written
 407:.\Generated_Source\PSoC5/LCD_Char_1.c **** *           to LCD module.
 408:.\Generated_Source\PSoC5/LCD_Char_1.c **** *
 409:.\Generated_Source\PSoC5/LCD_Char_1.c **** * Return:
 410:.\Generated_Source\PSoC5/LCD_Char_1.c **** *  None.
 411:.\Generated_Source\PSoC5/LCD_Char_1.c **** *
 412:.\Generated_Source\PSoC5/LCD_Char_1.c **** *******************************************************************************/
 413:.\Generated_Source\PSoC5/LCD_Char_1.c **** static void LCD_Char_1_WrCntrlNib(uint8 nibble) 
 414:.\Generated_Source\PSoC5/LCD_Char_1.c **** {
  26              		.loc 1 414 0
  27              		.cfi_startproc
  28              		@ args = 0, pretend = 0, frame = 0
  29              		@ frame_needed = 0, uses_anonymous_args = 0
  30              	.LVL0:
  31 0000 10B5     		push	{r4, lr}
  32              		.cfi_def_cfa_offset 8
  33              		.cfi_offset 4, -8
  34              		.cfi_offset 14, -4
 415:.\Generated_Source\PSoC5/LCD_Char_1.c **** 	
 416:.\Generated_Source\PSoC5/LCD_Char_1.c **** 	/* RS and RW shoul be low to select instruction register and  write operation respectively */
 417:.\Generated_Source\PSoC5/LCD_Char_1.c ****     LCD_Char_1_CNTL_REG &= ~(LCD_Char_1_RS | LCD_Char_1_RW);
  35              		.loc 1 417 0
  36 0002 0B4C     		ldr	r4, .L2
  37 0004 2378     		ldrb	r3, [r4]	@ zero_extendqisi2
  38 0006 03F09F03 		and	r3, r3, #159
  39 000a 2370     		strb	r3, [r4]
ARM GAS  C:\Users\acer\AppData\Local\Temp\ccAh7MOC.s 			page 9


 418:.\Generated_Source\PSoC5/LCD_Char_1.c **** 
 419:.\Generated_Source\PSoC5/LCD_Char_1.c ****     /* Two following lines of code will give provide ua with 40ns delay */
 420:.\Generated_Source\PSoC5/LCD_Char_1.c ****     /* Clear data pins */
 421:.\Generated_Source\PSoC5/LCD_Char_1.c ****     LCD_Char_1_CNTL_REG &= ~LCD_Char_1_DATA_MASK;
  40              		.loc 1 421 0
  41 000c 2378     		ldrb	r3, [r4]	@ zero_extendqisi2
  42 000e 03F0F003 		and	r3, r3, #240
  43 0012 2370     		strb	r3, [r4]
 422:.\Generated_Source\PSoC5/LCD_Char_1.c **** 
 423:.\Generated_Source\PSoC5/LCD_Char_1.c ****     /* Write control data and set enable signal */
 424:.\Generated_Source\PSoC5/LCD_Char_1.c ****     LCD_Char_1_CNTL_REG |= (LCD_Char_1_E | nibble);
  44              		.loc 1 424 0
  45 0014 2378     		ldrb	r3, [r4]	@ zero_extendqisi2
  46 0016 43F01003 		orr	r3, r3, #16
  47 001a 1843     		orrs	r0, r0, r3
  48              	.LVL1:
  49 001c 2070     		strb	r0, [r4]
 425:.\Generated_Source\PSoC5/LCD_Char_1.c **** 
 426:.\Generated_Source\PSoC5/LCD_Char_1.c ****     /* Minimum of 230 ns delay */
 427:.\Generated_Source\PSoC5/LCD_Char_1.c ****     CyDelayUs(1u);
  50              		.loc 1 427 0
  51 001e 0120     		movs	r0, #1
  52 0020 FFF7FEFF 		bl	CyDelayUs
  53              	.LVL2:
 428:.\Generated_Source\PSoC5/LCD_Char_1.c **** 
 429:.\Generated_Source\PSoC5/LCD_Char_1.c ****     LCD_Char_1_CNTL_REG &= ~LCD_Char_1_E;
  54              		.loc 1 429 0
  55 0024 2378     		ldrb	r3, [r4]	@ zero_extendqisi2
  56 0026 03F0EF03 		and	r3, r3, #239
  57 002a 2370     		strb	r3, [r4]
  58 002c 10BD     		pop	{r4, pc}
  59              	.L3:
  60 002e 00BF     		.align	2
  61              	.L2:
  62 0030 75640040 		.word	1073767541
  63              		.cfi_endproc
  64              	.LFE11:
  65              		.size	LCD_Char_1_WrCntrlNib, .-LCD_Char_1_WrCntrlNib
  66              		.section	.text.LCD_Char_1_WrDatNib,"ax",%progbits
  67              		.align	1
  68              		.thumb
  69              		.thumb_func
  70              		.type	LCD_Char_1_WrDatNib, %function
  71              	LCD_Char_1_WrDatNib:
  72              	.LFB10:
 376:.\Generated_Source\PSoC5/LCD_Char_1.c **** 
  73              		.loc 1 376 0
  74              		.cfi_startproc
  75              		@ args = 0, pretend = 0, frame = 0
  76              		@ frame_needed = 0, uses_anonymous_args = 0
  77              	.LVL3:
  78 0000 10B5     		push	{r4, lr}
  79              		.cfi_def_cfa_offset 8
  80              		.cfi_offset 4, -8
  81              		.cfi_offset 14, -4
 379:.\Generated_Source\PSoC5/LCD_Char_1.c ****     /* Reset RW for write operation */
  82              		.loc 1 379 0
ARM GAS  C:\Users\acer\AppData\Local\Temp\ccAh7MOC.s 			page 10


  83 0002 0D4C     		ldr	r4, .L5
  84 0004 2378     		ldrb	r3, [r4]	@ zero_extendqisi2
  85 0006 43F02003 		orr	r3, r3, #32
  86 000a 2370     		strb	r3, [r4]
 381:.\Generated_Source\PSoC5/LCD_Char_1.c **** 
  87              		.loc 1 381 0
  88 000c 2378     		ldrb	r3, [r4]	@ zero_extendqisi2
  89 000e 03F0BF03 		and	r3, r3, #191
  90 0012 2370     		strb	r3, [r4]
 385:.\Generated_Source\PSoC5/LCD_Char_1.c **** 
  91              		.loc 1 385 0
  92 0014 2378     		ldrb	r3, [r4]	@ zero_extendqisi2
  93 0016 03F0F003 		and	r3, r3, #240
  94 001a 2370     		strb	r3, [r4]
 388:.\Generated_Source\PSoC5/LCD_Char_1.c **** 
  95              		.loc 1 388 0
  96 001c 2378     		ldrb	r3, [r4]	@ zero_extendqisi2
  97 001e 43F01003 		orr	r3, r3, #16
  98 0022 1843     		orrs	r0, r0, r3
  99              	.LVL4:
 100 0024 2070     		strb	r0, [r4]
 391:.\Generated_Source\PSoC5/LCD_Char_1.c **** 
 101              		.loc 1 391 0
 102 0026 0120     		movs	r0, #1
 103 0028 FFF7FEFF 		bl	CyDelayUs
 104              	.LVL5:
 393:.\Generated_Source\PSoC5/LCD_Char_1.c **** 	
 105              		.loc 1 393 0
 106 002c 2378     		ldrb	r3, [r4]	@ zero_extendqisi2
 107 002e 03F0EF03 		and	r3, r3, #239
 108 0032 2370     		strb	r3, [r4]
 109 0034 10BD     		pop	{r4, pc}
 110              	.L6:
 111 0036 00BF     		.align	2
 112              	.L5:
 113 0038 75640040 		.word	1073767541
 114              		.cfi_endproc
 115              	.LFE10:
 116              		.size	LCD_Char_1_WrDatNib, .-LCD_Char_1_WrDatNib
 117              		.section	.text.LCD_Char_1_WriteData,"ax",%progbits
 118              		.align	1
 119              		.global	LCD_Char_1_WriteData
 120              		.thumb
 121              		.thumb_func
 122              		.type	LCD_Char_1_WriteData, %function
 123              	LCD_Char_1_WriteData:
 124              	.LFB7:
 285:.\Generated_Source\PSoC5/LCD_Char_1.c ****     uint8 nibble;
 125              		.loc 1 285 0
 126              		.cfi_startproc
 127              		@ args = 0, pretend = 0, frame = 0
 128              		@ frame_needed = 0, uses_anonymous_args = 0
 129              	.LVL6:
 130 0000 10B5     		push	{r4, lr}
 131              		.cfi_def_cfa_offset 8
 132              		.cfi_offset 4, -8
 133              		.cfi_offset 14, -4
ARM GAS  C:\Users\acer\AppData\Local\Temp\ccAh7MOC.s 			page 11


 285:.\Generated_Source\PSoC5/LCD_Char_1.c ****     uint8 nibble;
 134              		.loc 1 285 0
 135 0002 0446     		mov	r4, r0
 290:.\Generated_Source\PSoC5/LCD_Char_1.c **** 
 136              		.loc 1 290 0
 137 0004 0009     		lsrs	r0, r0, #4
 138              	.LVL7:
 139 0006 FFF7FEFF 		bl	LCD_Char_1_WrDatNib
 140              	.LVL8:
 292:.\Generated_Source\PSoC5/LCD_Char_1.c **** 	 
 141              		.loc 1 292 0
 142 000a 6420     		movs	r0, #100
 143 000c FFF7FEFF 		bl	CyDelayUs
 144              	.LVL9:
 296:.\Generated_Source\PSoC5/LCD_Char_1.c **** 	
 145              		.loc 1 296 0
 146 0010 04F00F00 		and	r0, r4, #15
 147 0014 FFF7FEFF 		bl	LCD_Char_1_WrDatNib
 148              	.LVL10:
 300:.\Generated_Source\PSoC5/LCD_Char_1.c **** 
 149              		.loc 1 300 0
 150 0018 BDE81040 		pop	{r4, lr}
 151              		.cfi_restore 14
 152              		.cfi_restore 4
 153              		.cfi_def_cfa_offset 0
 154              	.LVL11:
 298:.\Generated_Source\PSoC5/LCD_Char_1.c **** 
 155              		.loc 1 298 0
 156 001c 9620     		movs	r0, #150
 157 001e FFF7FEBF 		b	CyDelayUs
 158              	.LVL12:
 159              		.cfi_endproc
 160              	.LFE7:
 161              		.size	LCD_Char_1_WriteData, .-LCD_Char_1_WriteData
 162              		.section	.text.LCD_Char_1_PrintString,"ax",%progbits
 163              		.align	1
 164              		.global	LCD_Char_1_PrintString
 165              		.thumb
 166              		.thumb_func
 167              		.type	LCD_Char_1_PrintString, %function
 168              	LCD_Char_1_PrintString:
 169              	.LFB5:
 234:.\Generated_Source\PSoC5/LCD_Char_1.c ****     uint8 indexU8 = 1u;
 170              		.loc 1 234 0
 171              		.cfi_startproc
 172              		@ args = 0, pretend = 0, frame = 0
 173              		@ frame_needed = 0, uses_anonymous_args = 0
 174              	.LVL13:
 175 0000 38B5     		push	{r3, r4, r5, lr}
 176              		.cfi_def_cfa_offset 16
 177              		.cfi_offset 3, -16
 178              		.cfi_offset 4, -12
 179              		.cfi_offset 5, -8
 180              		.cfi_offset 14, -4
 234:.\Generated_Source\PSoC5/LCD_Char_1.c ****     uint8 indexU8 = 1u;
 181              		.loc 1 234 0
 182 0002 0546     		mov	r5, r0
ARM GAS  C:\Users\acer\AppData\Local\Temp\ccAh7MOC.s 			page 12


 236:.\Generated_Source\PSoC5/LCD_Char_1.c **** 
 183              		.loc 1 236 0
 184 0004 0078     		ldrb	r0, [r0]	@ zero_extendqisi2
 185              	.LVL14:
 235:.\Generated_Source\PSoC5/LCD_Char_1.c ****     char8 current = *string;
 186              		.loc 1 235 0
 187 0006 0124     		movs	r4, #1
 188              	.LVL15:
 189              	.L9:
 239:.\Generated_Source\PSoC5/LCD_Char_1.c ****     {
 190              		.loc 1 239 0
 191 0008 28B1     		cbz	r0, .L12
 241:.\Generated_Source\PSoC5/LCD_Char_1.c ****         current = string[indexU8];
 192              		.loc 1 241 0
 193 000a FFF7FEFF 		bl	LCD_Char_1_WriteData
 194              	.LVL16:
 242:.\Generated_Source\PSoC5/LCD_Char_1.c ****         indexU8++;
 195              		.loc 1 242 0
 196 000e 285D     		ldrb	r0, [r5, r4]	@ zero_extendqisi2
 197              	.LVL17:
 243:.\Generated_Source\PSoC5/LCD_Char_1.c ****     }
 198              		.loc 1 243 0
 199 0010 0134     		adds	r4, r4, #1
 200              	.LVL18:
 201 0012 E4B2     		uxtb	r4, r4
 202              	.LVL19:
 203 0014 F8E7     		b	.L9
 204              	.L12:
 245:.\Generated_Source\PSoC5/LCD_Char_1.c **** 
 205              		.loc 1 245 0
 206 0016 38BD     		pop	{r3, r4, r5, pc}
 207              		.cfi_endproc
 208              	.LFE5:
 209              		.size	LCD_Char_1_PrintString, .-LCD_Char_1_PrintString
 210              		.section	.text.LCD_Char_1_PutChar,"ax",%progbits
 211              		.align	1
 212              		.global	LCD_Char_1_PutChar
 213              		.thumb
 214              		.thumb_func
 215              		.type	LCD_Char_1_PutChar, %function
 216              	LCD_Char_1_PutChar:
 217              	.LFB6:
 265:.\Generated_Source\PSoC5/LCD_Char_1.c ****     LCD_Char_1_WriteData((uint8)character);
 218              		.loc 1 265 0
 219              		.cfi_startproc
 220              		@ args = 0, pretend = 0, frame = 0
 221              		@ frame_needed = 0, uses_anonymous_args = 0
 222              		@ link register save eliminated.
 223              	.LVL20:
 266:.\Generated_Source\PSoC5/LCD_Char_1.c **** }
 224              		.loc 1 266 0
 225 0000 FFF7FEBF 		b	LCD_Char_1_WriteData
 226              	.LVL21:
 227              		.cfi_endproc
 228              	.LFE6:
 229              		.size	LCD_Char_1_PutChar, .-LCD_Char_1_PutChar
 230              		.section	.text.LCD_Char_1_WriteControl,"ax",%progbits
ARM GAS  C:\Users\acer\AppData\Local\Temp\ccAh7MOC.s 			page 13


 231              		.align	1
 232              		.global	LCD_Char_1_WriteControl
 233              		.thumb
 234              		.thumb_func
 235              		.type	LCD_Char_1_WriteControl, %function
 236              	LCD_Char_1_WriteControl:
 237              	.LFB8:
 318:.\Generated_Source\PSoC5/LCD_Char_1.c ****     uint8 nibble;
 238              		.loc 1 318 0
 239              		.cfi_startproc
 240              		@ args = 0, pretend = 0, frame = 0
 241              		@ frame_needed = 0, uses_anonymous_args = 0
 242              	.LVL22:
 243 0000 10B5     		push	{r4, lr}
 244              		.cfi_def_cfa_offset 8
 245              		.cfi_offset 4, -8
 246              		.cfi_offset 14, -4
 318:.\Generated_Source\PSoC5/LCD_Char_1.c ****     uint8 nibble;
 247              		.loc 1 318 0
 248 0002 0446     		mov	r4, r0
 323:.\Generated_Source\PSoC5/LCD_Char_1.c **** 
 249              		.loc 1 323 0
 250 0004 0009     		lsrs	r0, r0, #4
 251              	.LVL23:
 252 0006 FFF7FEFF 		bl	LCD_Char_1_WrCntrlNib
 253              	.LVL24:
 325:.\Generated_Source\PSoC5/LCD_Char_1.c **** 	
 254              		.loc 1 325 0
 255 000a 6420     		movs	r0, #100
 256 000c FFF7FEFF 		bl	CyDelayUs
 257              	.LVL25:
 329:.\Generated_Source\PSoC5/LCD_Char_1.c **** 
 258              		.loc 1 329 0
 259 0010 04F00F00 		and	r0, r4, #15
 260 0014 FFF7FEFF 		bl	LCD_Char_1_WrCntrlNib
 261              	.LVL26:
 332:.\Generated_Source\PSoC5/LCD_Char_1.c **** 
 262              		.loc 1 332 0
 263 0018 BDE81040 		pop	{r4, lr}
 264              		.cfi_restore 14
 265              		.cfi_restore 4
 266              		.cfi_def_cfa_offset 0
 267              	.LVL27:
 331:.\Generated_Source\PSoC5/LCD_Char_1.c **** }
 268              		.loc 1 331 0
 269 001c 40F2DC50 		movw	r0, #1500
 270 0020 FFF7FEBF 		b	CyDelayUs
 271              	.LVL28:
 272              		.cfi_endproc
 273              	.LFE8:
 274              		.size	LCD_Char_1_WriteControl, .-LCD_Char_1_WriteControl
 275              		.section	.text.LCD_Char_1_Init,"ax",%progbits
 276              		.align	1
 277              		.global	LCD_Char_1_Init
 278              		.thumb
 279              		.thumb_func
 280              		.type	LCD_Char_1_Init, %function
ARM GAS  C:\Users\acer\AppData\Local\Temp\ccAh7MOC.s 			page 14


 281              	LCD_Char_1_Init:
 282              	.LFB0:
  56:.\Generated_Source\PSoC5/LCD_Char_1.c ****     /* INIT CODE */
 283              		.loc 1 56 0
 284              		.cfi_startproc
 285              		@ args = 0, pretend = 0, frame = 0
 286              		@ frame_needed = 0, uses_anonymous_args = 0
 287 0000 08B5     		push	{r3, lr}
 288              		.cfi_def_cfa_offset 8
 289              		.cfi_offset 3, -8
 290              		.cfi_offset 14, -4
  58:.\Generated_Source\PSoC5/LCD_Char_1.c ****     LCD_Char_1_WrCntrlNib(LCD_Char_1_DISPLAY_8_BIT_INIT);   /* Selects 8-bit mode */
 291              		.loc 1 58 0
 292 0002 2820     		movs	r0, #40
 293 0004 FFF7FEFF 		bl	CyDelay
 294              	.LVL29:
  59:.\Generated_Source\PSoC5/LCD_Char_1.c ****     CyDelay(5u);                                                         /* Delay 5 ms */
 295              		.loc 1 59 0
 296 0008 0320     		movs	r0, #3
 297 000a FFF7FEFF 		bl	LCD_Char_1_WrCntrlNib
 298              	.LVL30:
  60:.\Generated_Source\PSoC5/LCD_Char_1.c ****     LCD_Char_1_WrCntrlNib(LCD_Char_1_DISPLAY_8_BIT_INIT);   /* Selects 8-bit mode */
 299              		.loc 1 60 0
 300 000e 0520     		movs	r0, #5
 301 0010 FFF7FEFF 		bl	CyDelay
 302              	.LVL31:
  61:.\Generated_Source\PSoC5/LCD_Char_1.c ****     CyDelay(15u);                                                        /* Delay 15 ms */
 303              		.loc 1 61 0
 304 0014 0320     		movs	r0, #3
 305 0016 FFF7FEFF 		bl	LCD_Char_1_WrCntrlNib
 306              	.LVL32:
  62:.\Generated_Source\PSoC5/LCD_Char_1.c ****     LCD_Char_1_WrCntrlNib(LCD_Char_1_DISPLAY_8_BIT_INIT);   /* Selects 8-bit mode */
 307              		.loc 1 62 0
 308 001a 0F20     		movs	r0, #15
 309 001c FFF7FEFF 		bl	CyDelay
 310              	.LVL33:
  63:.\Generated_Source\PSoC5/LCD_Char_1.c ****     CyDelay(1u);                                                         /* Delay 1 ms */
 311              		.loc 1 63 0
 312 0020 0320     		movs	r0, #3
 313 0022 FFF7FEFF 		bl	LCD_Char_1_WrCntrlNib
 314              	.LVL34:
  64:.\Generated_Source\PSoC5/LCD_Char_1.c ****     LCD_Char_1_WrCntrlNib(LCD_Char_1_DISPLAY_4_BIT_INIT);   /* Selects 4-bit mode */
 315              		.loc 1 64 0
 316 0026 0120     		movs	r0, #1
 317 0028 FFF7FEFF 		bl	CyDelay
 318              	.LVL35:
  65:.\Generated_Source\PSoC5/LCD_Char_1.c ****     CyDelay(5u);                                                         /* Delay 5 ms */
 319              		.loc 1 65 0
 320 002c 0220     		movs	r0, #2
 321 002e FFF7FEFF 		bl	LCD_Char_1_WrCntrlNib
 322              	.LVL36:
  66:.\Generated_Source\PSoC5/LCD_Char_1.c **** 
 323              		.loc 1 66 0
 324 0032 0520     		movs	r0, #5
 325 0034 FFF7FEFF 		bl	CyDelay
 326              	.LVL37:
  68:.\Generated_Source\PSoC5/LCD_Char_1.c ****     LCD_Char_1_WriteControl(LCD_Char_1_DISPLAY_CURSOR_ON);      /* Turn Display, Cursor ON */
ARM GAS  C:\Users\acer\AppData\Local\Temp\ccAh7MOC.s 			page 15


 327              		.loc 1 68 0
 328 0038 0620     		movs	r0, #6
 329 003a FFF7FEFF 		bl	LCD_Char_1_WriteControl
 330              	.LVL38:
  69:.\Generated_Source\PSoC5/LCD_Char_1.c ****     LCD_Char_1_WriteControl(LCD_Char_1_DISPLAY_2_LINES_5x10);   /* 2 Lines by 5x10 Characters */
 331              		.loc 1 69 0
 332 003e 0E20     		movs	r0, #14
 333 0040 FFF7FEFF 		bl	LCD_Char_1_WriteControl
 334              	.LVL39:
  70:.\Generated_Source\PSoC5/LCD_Char_1.c ****     LCD_Char_1_WriteControl(LCD_Char_1_DISPLAY_CURSOR_OFF);     /* Turn Display, Cursor OFF */
 335              		.loc 1 70 0
 336 0044 2C20     		movs	r0, #44
 337 0046 FFF7FEFF 		bl	LCD_Char_1_WriteControl
 338              	.LVL40:
  71:.\Generated_Source\PSoC5/LCD_Char_1.c ****     LCD_Char_1_WriteControl(LCD_Char_1_CLEAR_DISPLAY);          /* Clear LCD Screen */
 339              		.loc 1 71 0
 340 004a 0820     		movs	r0, #8
 341 004c FFF7FEFF 		bl	LCD_Char_1_WriteControl
 342              	.LVL41:
  72:.\Generated_Source\PSoC5/LCD_Char_1.c ****     LCD_Char_1_WriteControl(LCD_Char_1_DISPLAY_ON_CURSOR_OFF);  /* Turn Display ON, Cursor OFF */
 343              		.loc 1 72 0
 344 0050 0120     		movs	r0, #1
 345 0052 FFF7FEFF 		bl	LCD_Char_1_WriteControl
 346              	.LVL42:
  73:.\Generated_Source\PSoC5/LCD_Char_1.c ****     LCD_Char_1_WriteControl(LCD_Char_1_RESET_CURSOR_POSITION);  /* Set Cursor to 0,0 */
 347              		.loc 1 73 0
 348 0056 0C20     		movs	r0, #12
 349 0058 FFF7FEFF 		bl	LCD_Char_1_WriteControl
 350              	.LVL43:
  74:.\Generated_Source\PSoC5/LCD_Char_1.c ****     CyDelay(5u);
 351              		.loc 1 74 0
 352 005c 0320     		movs	r0, #3
 353 005e FFF7FEFF 		bl	LCD_Char_1_WriteControl
 354              	.LVL44:
  80:.\Generated_Source\PSoC5/LCD_Char_1.c **** 
 355              		.loc 1 80 0
 356 0062 BDE80840 		pop	{r3, lr}
 357              		.cfi_restore 14
 358              		.cfi_restore 3
 359              		.cfi_def_cfa_offset 0
  75:.\Generated_Source\PSoC5/LCD_Char_1.c **** 
 360              		.loc 1 75 0
 361 0066 0520     		movs	r0, #5
 362 0068 FFF7FEBF 		b	CyDelay
 363              	.LVL45:
 364              		.cfi_endproc
 365              	.LFE0:
 366              		.size	LCD_Char_1_Init, .-LCD_Char_1_Init
 367              		.section	.text.LCD_Char_1_Enable,"ax",%progbits
 368              		.align	1
 369              		.global	LCD_Char_1_Enable
 370              		.thumb
 371              		.thumb_func
 372              		.type	LCD_Char_1_Enable, %function
 373              	LCD_Char_1_Enable:
 374              	.LFB1:
 105:.\Generated_Source\PSoC5/LCD_Char_1.c ****     LCD_Char_1_DisplayOn();
ARM GAS  C:\Users\acer\AppData\Local\Temp\ccAh7MOC.s 			page 16


 375              		.loc 1 105 0
 376              		.cfi_startproc
 377              		@ args = 0, pretend = 0, frame = 0
 378              		@ frame_needed = 0, uses_anonymous_args = 0
 379 0000 08B5     		push	{r3, lr}
 380              		.cfi_def_cfa_offset 8
 381              		.cfi_offset 3, -8
 382              		.cfi_offset 14, -4
 106:.\Generated_Source\PSoC5/LCD_Char_1.c ****     LCD_Char_1_enableState = 1u;
 383              		.loc 1 106 0
 384 0002 0C20     		movs	r0, #12
 385 0004 FFF7FEFF 		bl	LCD_Char_1_WriteControl
 386              	.LVL46:
 107:.\Generated_Source\PSoC5/LCD_Char_1.c **** }
 387              		.loc 1 107 0
 388 0008 014B     		ldr	r3, .L17
 389 000a 0122     		movs	r2, #1
 390 000c 1A70     		strb	r2, [r3]
 391 000e 08BD     		pop	{r3, pc}
 392              	.L18:
 393              		.align	2
 394              	.L17:
 395 0010 00000000 		.word	.LANCHOR0
 396              		.cfi_endproc
 397              	.LFE1:
 398              		.size	LCD_Char_1_Enable, .-LCD_Char_1_Enable
 399              		.section	.text.LCD_Char_1_Start,"ax",%progbits
 400              		.align	1
 401              		.global	LCD_Char_1_Start
 402              		.thumb
 403              		.thumb_func
 404              		.type	LCD_Char_1_Start, %function
 405              	LCD_Char_1_Start:
 406              	.LFB2:
 138:.\Generated_Source\PSoC5/LCD_Char_1.c ****     /* If not initialized then perform initialization */
 407              		.loc 1 138 0
 408              		.cfi_startproc
 409              		@ args = 0, pretend = 0, frame = 0
 410              		@ frame_needed = 0, uses_anonymous_args = 0
 411 0000 10B5     		push	{r4, lr}
 412              		.cfi_def_cfa_offset 8
 413              		.cfi_offset 4, -8
 414              		.cfi_offset 14, -4
 140:.\Generated_Source\PSoC5/LCD_Char_1.c ****     {
 415              		.loc 1 140 0
 416 0002 054C     		ldr	r4, .L21
 417 0004 6378     		ldrb	r3, [r4, #1]	@ zero_extendqisi2
 418 0006 1BB9     		cbnz	r3, .L20
 142:.\Generated_Source\PSoC5/LCD_Char_1.c ****         LCD_Char_1_initVar = 1u;
 419              		.loc 1 142 0
 420 0008 FFF7FEFF 		bl	LCD_Char_1_Init
 421              	.LVL47:
 143:.\Generated_Source\PSoC5/LCD_Char_1.c ****     }
 422              		.loc 1 143 0
 423 000c 0123     		movs	r3, #1
 424 000e 6370     		strb	r3, [r4, #1]
 425              	.L20:
ARM GAS  C:\Users\acer\AppData\Local\Temp\ccAh7MOC.s 			page 17


 148:.\Generated_Source\PSoC5/LCD_Char_1.c **** 
 426              		.loc 1 148 0
 427 0010 BDE81040 		pop	{r4, lr}
 428              		.cfi_restore 14
 429              		.cfi_restore 4
 430              		.cfi_def_cfa_offset 0
 147:.\Generated_Source\PSoC5/LCD_Char_1.c **** }
 431              		.loc 1 147 0
 432 0014 FFF7FEBF 		b	LCD_Char_1_Enable
 433              	.LVL48:
 434              	.L22:
 435              		.align	2
 436              	.L21:
 437 0018 00000000 		.word	.LANCHOR0
 438              		.cfi_endproc
 439              	.LFE2:
 440              		.size	LCD_Char_1_Start, .-LCD_Char_1_Start
 441              		.section	.text.LCD_Char_1_Stop,"ax",%progbits
 442              		.align	1
 443              		.global	LCD_Char_1_Stop
 444              		.thumb
 445              		.thumb_func
 446              		.type	LCD_Char_1_Stop, %function
 447              	LCD_Char_1_Stop:
 448              	.LFB3:
 169:.\Generated_Source\PSoC5/LCD_Char_1.c ****     /* Calls LCD Off Macro */
 449              		.loc 1 169 0
 450              		.cfi_startproc
 451              		@ args = 0, pretend = 0, frame = 0
 452              		@ frame_needed = 0, uses_anonymous_args = 0
 453 0000 08B5     		push	{r3, lr}
 454              		.cfi_def_cfa_offset 8
 455              		.cfi_offset 3, -8
 456              		.cfi_offset 14, -4
 171:.\Generated_Source\PSoC5/LCD_Char_1.c ****     LCD_Char_1_enableState = 0u;
 457              		.loc 1 171 0
 458 0002 0820     		movs	r0, #8
 459 0004 FFF7FEFF 		bl	LCD_Char_1_WriteControl
 460              	.LVL49:
 172:.\Generated_Source\PSoC5/LCD_Char_1.c **** }
 461              		.loc 1 172 0
 462 0008 014B     		ldr	r3, .L24
 463 000a 0022     		movs	r2, #0
 464 000c 1A70     		strb	r2, [r3]
 465 000e 08BD     		pop	{r3, pc}
 466              	.L25:
 467              		.align	2
 468              	.L24:
 469 0010 00000000 		.word	.LANCHOR0
 470              		.cfi_endproc
 471              	.LFE3:
 472              		.size	LCD_Char_1_Stop, .-LCD_Char_1_Stop
 473              		.section	.text.LCD_Char_1_Position,"ax",%progbits
 474              		.align	1
 475              		.global	LCD_Char_1_Position
 476              		.thumb
 477              		.thumb_func
ARM GAS  C:\Users\acer\AppData\Local\Temp\ccAh7MOC.s 			page 18


 478              		.type	LCD_Char_1_Position, %function
 479              	LCD_Char_1_Position:
 480              	.LFB4:
 197:.\Generated_Source\PSoC5/LCD_Char_1.c ****     switch (row)
 481              		.loc 1 197 0
 482              		.cfi_startproc
 483              		@ args = 0, pretend = 0, frame = 0
 484              		@ frame_needed = 0, uses_anonymous_args = 0
 485              		@ link register save eliminated.
 486              	.LVL50:
 198:.\Generated_Source\PSoC5/LCD_Char_1.c ****     {
 487              		.loc 1 198 0
 488 0000 0328     		cmp	r0, #3
 489 0002 11D8     		bhi	.L26
 490 0004 DFE800F0 		tbb	[pc, r0]
 491              	.L29:
 492 0008 02       		.byte	(.L28-.L29)/2
 493 0009 05       		.byte	(.L30-.L29)/2
 494 000a 08       		.byte	(.L31-.L29)/2
 495 000b 0B       		.byte	(.L32-.L29)/2
 496              		.p2align 1
 497              	.L28:
 201:.\Generated_Source\PSoC5/LCD_Char_1.c ****             break;
 498              		.loc 1 201 0
 499 000c 81F08000 		eor	r0, r1, #128
 500              	.LVL51:
 501 0010 08E0     		b	.L33
 502              	.LVL52:
 503              	.L30:
 204:.\Generated_Source\PSoC5/LCD_Char_1.c ****             break;
 504              		.loc 1 204 0
 505 0012 A1F14000 		sub	r0, r1, #64
 506              	.LVL53:
 507 0016 04E0     		b	.L34
 508              	.LVL54:
 509              	.L31:
 207:.\Generated_Source\PSoC5/LCD_Char_1.c ****             break;
 510              		.loc 1 207 0
 511 0018 A1F16C00 		sub	r0, r1, #108
 512              	.LVL55:
 513 001c 01E0     		b	.L34
 514              	.LVL56:
 515              	.L32:
 210:.\Generated_Source\PSoC5/LCD_Char_1.c ****             break;
 516              		.loc 1 210 0
 517 001e A1F12C00 		sub	r0, r1, #44
 518              	.LVL57:
 519              	.L34:
 520 0022 C0B2     		uxtb	r0, r0
 521              	.L33:
 522 0024 FFF7FEBF 		b	LCD_Char_1_WriteControl
 523              	.LVL58:
 524              	.L26:
 525 0028 7047     		bx	lr
 526              		.cfi_endproc
 527              	.LFE4:
 528              		.size	LCD_Char_1_Position, .-LCD_Char_1_Position
ARM GAS  C:\Users\acer\AppData\Local\Temp\ccAh7MOC.s 			page 19


 529              		.section	.text.LCD_Char_1_IsReady,"ax",%progbits
 530              		.align	1
 531              		.global	LCD_Char_1_IsReady
 532              		.thumb
 533              		.thumb_func
 534              		.type	LCD_Char_1_IsReady, %function
 535              	LCD_Char_1_IsReady:
 536              	.LFB9:
 353:.\Generated_Source\PSoC5/LCD_Char_1.c ****    
 537              		.loc 1 353 0
 538              		.cfi_startproc
 539              		@ args = 0, pretend = 0, frame = 0
 540              		@ frame_needed = 0, uses_anonymous_args = 0
 541              		@ link register save eliminated.
 355:.\Generated_Source\PSoC5/LCD_Char_1.c **** 	
 542              		.loc 1 355 0
 543 0000 0120     		movs	r0, #1
 544 0002 FFF7FEBF 		b	CyDelay
 545              	.LVL59:
 546              		.cfi_endproc
 547              	.LFE9:
 548              		.size	LCD_Char_1_IsReady, .-LCD_Char_1_IsReady
 549              		.section	.text.LCD_Char_1_PrintInt8,"ax",%progbits
 550              		.align	1
 551              		.global	LCD_Char_1_PrintInt8
 552              		.thumb
 553              		.thumb_func
 554              		.type	LCD_Char_1_PrintInt8, %function
 555              	LCD_Char_1_PrintInt8:
 556              	.LFB12:
 430:.\Generated_Source\PSoC5/LCD_Char_1.c **** }
 431:.\Generated_Source\PSoC5/LCD_Char_1.c **** 
 432:.\Generated_Source\PSoC5/LCD_Char_1.c **** 
 433:.\Generated_Source\PSoC5/LCD_Char_1.c **** #if(LCD_Char_1_CONVERSION_ROUTINES == 1u)
 434:.\Generated_Source\PSoC5/LCD_Char_1.c **** 
 435:.\Generated_Source\PSoC5/LCD_Char_1.c ****     /*******************************************************************************
 436:.\Generated_Source\PSoC5/LCD_Char_1.c ****     *  Function Name: LCD_Char_1_PrintInt8
 437:.\Generated_Source\PSoC5/LCD_Char_1.c ****     ********************************************************************************
 438:.\Generated_Source\PSoC5/LCD_Char_1.c ****     *
 439:.\Generated_Source\PSoC5/LCD_Char_1.c ****     * Summary:
 440:.\Generated_Source\PSoC5/LCD_Char_1.c ****     *  Print a byte as two ASCII characters.
 441:.\Generated_Source\PSoC5/LCD_Char_1.c ****     *
 442:.\Generated_Source\PSoC5/LCD_Char_1.c ****     * Parameters:
 443:.\Generated_Source\PSoC5/LCD_Char_1.c ****     *  value:  The byte to be printed out as ASCII characters.
 444:.\Generated_Source\PSoC5/LCD_Char_1.c ****     *
 445:.\Generated_Source\PSoC5/LCD_Char_1.c ****     * Return:
 446:.\Generated_Source\PSoC5/LCD_Char_1.c ****     *  None.
 447:.\Generated_Source\PSoC5/LCD_Char_1.c ****     *
 448:.\Generated_Source\PSoC5/LCD_Char_1.c ****     *******************************************************************************/
 449:.\Generated_Source\PSoC5/LCD_Char_1.c ****     void LCD_Char_1_PrintInt8(uint8 value) 
 450:.\Generated_Source\PSoC5/LCD_Char_1.c ****     {
 557              		.loc 1 450 0
 558              		.cfi_startproc
 559              		@ args = 0, pretend = 0, frame = 0
 560              		@ frame_needed = 0, uses_anonymous_args = 0
 561              	.LVL60:
 562 0000 38B5     		push	{r3, r4, r5, lr}
ARM GAS  C:\Users\acer\AppData\Local\Temp\ccAh7MOC.s 			page 20


 563              		.cfi_def_cfa_offset 16
 564              		.cfi_offset 3, -16
 565              		.cfi_offset 4, -12
 566              		.cfi_offset 5, -8
 567              		.cfi_offset 14, -4
 568              		.loc 1 450 0
 569 0002 0446     		mov	r4, r0
 451:.\Generated_Source\PSoC5/LCD_Char_1.c ****         static char8 const CYCODE LCD_Char_1_hex[16u] = "0123456789ABCDEF";
 452:.\Generated_Source\PSoC5/LCD_Char_1.c ****         
 453:.\Generated_Source\PSoC5/LCD_Char_1.c ****         LCD_Char_1_PutChar((char8) LCD_Char_1_hex[value >> LCD_Char_1_BYTE_UPPER_NIBBLE_SHIFT]);
 570              		.loc 1 453 0
 571 0004 054D     		ldr	r5, .L37
 572 0006 0309     		lsrs	r3, r0, #4
 573              	.LBB6:
 574              	.LBB7:
 266:.\Generated_Source\PSoC5/LCD_Char_1.c **** }
 575              		.loc 1 266 0
 576 0008 E85C     		ldrb	r0, [r5, r3]	@ zero_extendqisi2
 577              	.LVL61:
 578              	.LBE7:
 579              	.LBE6:
 454:.\Generated_Source\PSoC5/LCD_Char_1.c ****         LCD_Char_1_PutChar((char8) LCD_Char_1_hex[value & LCD_Char_1_BYTE_LOWER_NIBBLE_MASK]);
 580              		.loc 1 454 0
 581 000a 04F00F04 		and	r4, r4, #15
 582              	.LBB9:
 583              	.LBB8:
 266:.\Generated_Source\PSoC5/LCD_Char_1.c **** }
 584              		.loc 1 266 0
 585 000e FFF7FEFF 		bl	LCD_Char_1_WriteData
 586              	.LVL62:
 587              	.LBE8:
 588              	.LBE9:
 589              	.LBB10:
 590              	.LBB11:
 591 0012 285D     		ldrb	r0, [r5, r4]	@ zero_extendqisi2
 592              	.LBE11:
 593              	.LBE10:
 455:.\Generated_Source\PSoC5/LCD_Char_1.c ****     }
 594              		.loc 1 455 0
 595 0014 BDE83840 		pop	{r3, r4, r5, lr}
 596              		.cfi_restore 14
 597              		.cfi_restore 5
 598              		.cfi_restore 4
 599              		.cfi_restore 3
 600              		.cfi_def_cfa_offset 0
 601              	.LBB13:
 602              	.LBB12:
 266:.\Generated_Source\PSoC5/LCD_Char_1.c **** }
 603              		.loc 1 266 0
 604 0018 FFF7FEBF 		b	LCD_Char_1_WriteData
 605              	.LVL63:
 606              	.L38:
 607              		.align	2
 608              	.L37:
 609 001c 00000000 		.word	.LANCHOR1
 610              	.LBE12:
 611              	.LBE13:
ARM GAS  C:\Users\acer\AppData\Local\Temp\ccAh7MOC.s 			page 21


 612              		.cfi_endproc
 613              	.LFE12:
 614              		.size	LCD_Char_1_PrintInt8, .-LCD_Char_1_PrintInt8
 615              		.section	.text.LCD_Char_1_PrintInt16,"ax",%progbits
 616              		.align	1
 617              		.global	LCD_Char_1_PrintInt16
 618              		.thumb
 619              		.thumb_func
 620              		.type	LCD_Char_1_PrintInt16, %function
 621              	LCD_Char_1_PrintInt16:
 622              	.LFB13:
 456:.\Generated_Source\PSoC5/LCD_Char_1.c **** 
 457:.\Generated_Source\PSoC5/LCD_Char_1.c **** 
 458:.\Generated_Source\PSoC5/LCD_Char_1.c ****     /*******************************************************************************
 459:.\Generated_Source\PSoC5/LCD_Char_1.c ****     *  Function Name: LCD_Char_1_PrintInt16
 460:.\Generated_Source\PSoC5/LCD_Char_1.c ****     ********************************************************************************
 461:.\Generated_Source\PSoC5/LCD_Char_1.c ****     *
 462:.\Generated_Source\PSoC5/LCD_Char_1.c ****     * Summary:
 463:.\Generated_Source\PSoC5/LCD_Char_1.c ****     *  Print a uint16 as four ASCII characters.
 464:.\Generated_Source\PSoC5/LCD_Char_1.c ****     *
 465:.\Generated_Source\PSoC5/LCD_Char_1.c ****     * Parameters:
 466:.\Generated_Source\PSoC5/LCD_Char_1.c ****     *  value:   The uint16 to be printed out as ASCII characters.
 467:.\Generated_Source\PSoC5/LCD_Char_1.c ****     *
 468:.\Generated_Source\PSoC5/LCD_Char_1.c ****     * Return:
 469:.\Generated_Source\PSoC5/LCD_Char_1.c ****     *  None.
 470:.\Generated_Source\PSoC5/LCD_Char_1.c ****     *
 471:.\Generated_Source\PSoC5/LCD_Char_1.c ****     *******************************************************************************/
 472:.\Generated_Source\PSoC5/LCD_Char_1.c ****     void LCD_Char_1_PrintInt16(uint16 value) 
 473:.\Generated_Source\PSoC5/LCD_Char_1.c ****     {
 623              		.loc 1 473 0
 624              		.cfi_startproc
 625              		@ args = 0, pretend = 0, frame = 0
 626              		@ frame_needed = 0, uses_anonymous_args = 0
 627              	.LVL64:
 628 0000 10B5     		push	{r4, lr}
 629              		.cfi_def_cfa_offset 8
 630              		.cfi_offset 4, -8
 631              		.cfi_offset 14, -4
 632              		.loc 1 473 0
 633 0002 0446     		mov	r4, r0
 474:.\Generated_Source\PSoC5/LCD_Char_1.c ****         LCD_Char_1_PrintInt8((uint8)(value >> LCD_Char_1_U16_UPPER_BYTE_SHIFT));
 634              		.loc 1 474 0
 635 0004 000A     		lsrs	r0, r0, #8
 636              	.LVL65:
 637 0006 FFF7FEFF 		bl	LCD_Char_1_PrintInt8
 638              	.LVL66:
 475:.\Generated_Source\PSoC5/LCD_Char_1.c ****         LCD_Char_1_PrintInt8((uint8)(value & LCD_Char_1_U16_LOWER_BYTE_MASK));
 639              		.loc 1 475 0
 640 000a E0B2     		uxtb	r0, r4
 476:.\Generated_Source\PSoC5/LCD_Char_1.c ****     }
 641              		.loc 1 476 0
 642 000c BDE81040 		pop	{r4, lr}
 643              		.cfi_restore 14
 644              		.cfi_restore 4
 645              		.cfi_def_cfa_offset 0
 475:.\Generated_Source\PSoC5/LCD_Char_1.c ****         LCD_Char_1_PrintInt8((uint8)(value & LCD_Char_1_U16_LOWER_BYTE_MASK));
 646              		.loc 1 475 0
ARM GAS  C:\Users\acer\AppData\Local\Temp\ccAh7MOC.s 			page 22


 647 0010 FFF7FEBF 		b	LCD_Char_1_PrintInt8
 648              	.LVL67:
 649              		.cfi_endproc
 650              	.LFE13:
 651              		.size	LCD_Char_1_PrintInt16, .-LCD_Char_1_PrintInt16
 652              		.section	.text.LCD_Char_1_PrintNumber,"ax",%progbits
 653              		.align	1
 654              		.global	LCD_Char_1_PrintNumber
 655              		.thumb
 656              		.thumb_func
 657              		.type	LCD_Char_1_PrintNumber, %function
 658              	LCD_Char_1_PrintNumber:
 659              	.LFB14:
 477:.\Generated_Source\PSoC5/LCD_Char_1.c **** 
 478:.\Generated_Source\PSoC5/LCD_Char_1.c **** 
 479:.\Generated_Source\PSoC5/LCD_Char_1.c ****     /*******************************************************************************
 480:.\Generated_Source\PSoC5/LCD_Char_1.c ****     *  Function Name: LCD_Char_1_PrintNumber
 481:.\Generated_Source\PSoC5/LCD_Char_1.c ****     ********************************************************************************
 482:.\Generated_Source\PSoC5/LCD_Char_1.c ****     *
 483:.\Generated_Source\PSoC5/LCD_Char_1.c ****     * Summary:
 484:.\Generated_Source\PSoC5/LCD_Char_1.c ****     *  Print an uint32 value as a left-justified decimal value.
 485:.\Generated_Source\PSoC5/LCD_Char_1.c ****     *
 486:.\Generated_Source\PSoC5/LCD_Char_1.c ****     * Parameters:
 487:.\Generated_Source\PSoC5/LCD_Char_1.c ****     *  value:  The byte to be printed out as ASCII characters.
 488:.\Generated_Source\PSoC5/LCD_Char_1.c ****     *
 489:.\Generated_Source\PSoC5/LCD_Char_1.c ****     * Return:
 490:.\Generated_Source\PSoC5/LCD_Char_1.c ****     *  None.
 491:.\Generated_Source\PSoC5/LCD_Char_1.c ****     *
 492:.\Generated_Source\PSoC5/LCD_Char_1.c ****     *******************************************************************************/
 493:.\Generated_Source\PSoC5/LCD_Char_1.c ****     void LCD_Char_1_PrintNumber(uint16 value) 
 494:.\Generated_Source\PSoC5/LCD_Char_1.c ****     {
 660              		.loc 1 494 0
 661              		.cfi_startproc
 662              		@ args = 0, pretend = 0, frame = 16
 663              		@ frame_needed = 0, uses_anonymous_args = 0
 664              	.LVL68:
 665 0000 7FB5     		push	{r0, r1, r2, r3, r4, r5, r6, lr}
 666              		.cfi_def_cfa_offset 32
 667              		.cfi_offset 4, -16
 668              		.cfi_offset 5, -12
 669              		.cfi_offset 6, -8
 670              		.cfi_offset 14, -4
 495:.\Generated_Source\PSoC5/LCD_Char_1.c **** 
 496:.\Generated_Source\PSoC5/LCD_Char_1.c ****         char8 number[LCD_Char_1_NUMBER_OF_REMAINDERS];
 497:.\Generated_Source\PSoC5/LCD_Char_1.c ****         char8 temp[LCD_Char_1_NUMBER_OF_REMAINDERS];
 498:.\Generated_Source\PSoC5/LCD_Char_1.c **** 
 499:.\Generated_Source\PSoC5/LCD_Char_1.c ****         uint8 digIndex = 0u;
 500:.\Generated_Source\PSoC5/LCD_Char_1.c ****         uint8 numDigits;
 501:.\Generated_Source\PSoC5/LCD_Char_1.c **** 
 502:.\Generated_Source\PSoC5/LCD_Char_1.c ****         /* Load these in reverse order */
 503:.\Generated_Source\PSoC5/LCD_Char_1.c ****         while(value >= LCD_Char_1_TEN)
 671              		.loc 1 503 0
 672 0002 0022     		movs	r2, #0
 673              	.LVL69:
 674              	.L41:
 675 0004 D3B2     		uxtb	r3, r2
 676              	.LVL70:
ARM GAS  C:\Users\acer\AppData\Local\Temp\ccAh7MOC.s 			page 23


 677 0006 511C     		adds	r1, r2, #1
 678 0008 0928     		cmp	r0, #9
 679 000a 04AA     		add	r2, sp, #16
 680 000c 02EB0306 		add	r6, r2, r3
 681 0010 4FF00A02 		mov	r2, #10
 682 0014 09D9     		bls	.L45
 504:.\Generated_Source\PSoC5/LCD_Char_1.c ****         {
 505:.\Generated_Source\PSoC5/LCD_Char_1.c ****             temp[digIndex] = (value % LCD_Char_1_TEN) + '0';
 683              		.loc 1 505 0
 684 0016 B0FBF2F3 		udiv	r3, r0, r2
 685              	.LVL71:
 686 001a 02FB1302 		mls	r2, r2, r3, r0
 687 001e 3032     		adds	r2, r2, #48
 688 0020 06F8082C 		strb	r2, [r6, #-8]
 506:.\Generated_Source\PSoC5/LCD_Char_1.c ****             value /= LCD_Char_1_TEN;
 689              		.loc 1 506 0
 690 0024 98B2     		uxth	r0, r3
 691              	.LVL72:
 692 0026 0A46     		mov	r2, r1
 693 0028 ECE7     		b	.L41
 694              	.LVL73:
 695              	.L45:
 507:.\Generated_Source\PSoC5/LCD_Char_1.c ****             digIndex++;
 508:.\Generated_Source\PSoC5/LCD_Char_1.c ****         }
 509:.\Generated_Source\PSoC5/LCD_Char_1.c **** 
 510:.\Generated_Source\PSoC5/LCD_Char_1.c ****         temp[digIndex] = (value % LCD_Char_1_TEN) + '0';
 696              		.loc 1 510 0
 697 002a B0FBF2F1 		udiv	r1, r0, r2
 698 002e 1D46     		mov	r5, r3
 699 0030 1C46     		mov	r4, r3
 700 0032 02FB1102 		mls	r2, r2, r1, r0
 701 0036 3032     		adds	r2, r2, #48
 702 0038 06F8082C 		strb	r2, [r6, #-8]
 703              	.LVL74:
 704              	.L43:
 511:.\Generated_Source\PSoC5/LCD_Char_1.c ****         numDigits = digIndex;
 512:.\Generated_Source\PSoC5/LCD_Char_1.c **** 
 513:.\Generated_Source\PSoC5/LCD_Char_1.c ****         /* While index is greater than or equal to zero copy number
 514:.\Generated_Source\PSoC5/LCD_Char_1.c ****         * from temporary array to number[].
 515:.\Generated_Source\PSoC5/LCD_Char_1.c ****         */
 516:.\Generated_Source\PSoC5/LCD_Char_1.c ****         while (digIndex != 0u)
 705              		.loc 1 516 0
 706 003c 53B1     		cbz	r3, .L46
 517:.\Generated_Source\PSoC5/LCD_Char_1.c ****         {
 518:.\Generated_Source\PSoC5/LCD_Char_1.c ****             number[numDigits - digIndex] = temp[digIndex];
 707              		.loc 1 518 0
 708 003e E21A     		subs	r2, r4, r3
 709 0040 04A9     		add	r1, sp, #16
 710 0042 0A44     		add	r2, r2, r1
 711 0044 1944     		add	r1, r1, r3
 712 0046 11F8081C 		ldrb	r1, [r1, #-8]	@ zero_extendqisi2
 519:.\Generated_Source\PSoC5/LCD_Char_1.c ****             digIndex--;
 713              		.loc 1 519 0
 714 004a 013B     		subs	r3, r3, #1
 715              	.LVL75:
 518:.\Generated_Source\PSoC5/LCD_Char_1.c ****             digIndex--;
 716              		.loc 1 518 0
ARM GAS  C:\Users\acer\AppData\Local\Temp\ccAh7MOC.s 			page 24


 717 004c 02F8101C 		strb	r1, [r2, #-16]
 718              		.loc 1 519 0
 719 0050 DBB2     		uxtb	r3, r3
 720              	.LVL76:
 721 0052 F3E7     		b	.L43
 722              	.L46:
 520:.\Generated_Source\PSoC5/LCD_Char_1.c ****         }
 521:.\Generated_Source\PSoC5/LCD_Char_1.c ****         
 522:.\Generated_Source\PSoC5/LCD_Char_1.c ****         /* Copy last digit */
 523:.\Generated_Source\PSoC5/LCD_Char_1.c ****         number[numDigits] = temp[0u];
 723              		.loc 1 523 0
 724 0054 04AA     		add	r2, sp, #16
 725 0056 1444     		add	r4, r4, r2
 726              	.LVL77:
 727 0058 9DF80820 		ldrb	r2, [sp, #8]	@ zero_extendqisi2
 524:.\Generated_Source\PSoC5/LCD_Char_1.c **** 
 525:.\Generated_Source\PSoC5/LCD_Char_1.c ****         /* Null Termination */
 526:.\Generated_Source\PSoC5/LCD_Char_1.c ****         number[numDigits + 1u] = (char8) '\0';
 527:.\Generated_Source\PSoC5/LCD_Char_1.c **** 
 528:.\Generated_Source\PSoC5/LCD_Char_1.c ****         /* Print out number */
 529:.\Generated_Source\PSoC5/LCD_Char_1.c ****         LCD_Char_1_PrintString(&number[0u]);
 728              		.loc 1 529 0
 729 005c 6846     		mov	r0, sp
 730              	.LVL78:
 523:.\Generated_Source\PSoC5/LCD_Char_1.c **** 
 731              		.loc 1 523 0
 732 005e 04F8102C 		strb	r2, [r4, #-16]
 526:.\Generated_Source\PSoC5/LCD_Char_1.c **** 
 733              		.loc 1 526 0
 734 0062 04AA     		add	r2, sp, #16
 735 0064 2A44     		add	r2, r2, r5
 736 0066 02F80F3C 		strb	r3, [r2, #-15]
 737              		.loc 1 529 0
 738 006a FFF7FEFF 		bl	LCD_Char_1_PrintString
 739              	.LVL79:
 530:.\Generated_Source\PSoC5/LCD_Char_1.c ****     }
 740              		.loc 1 530 0
 741 006e 04B0     		add	sp, sp, #16
 742              		.cfi_def_cfa_offset 16
 743              		@ sp needed
 744 0070 70BD     		pop	{r4, r5, r6, pc}
 745              		.cfi_endproc
 746              	.LFE14:
 747              		.size	LCD_Char_1_PrintNumber, .-LCD_Char_1_PrintNumber
 748              		.global	LCD_Char_1_initVar
 749              		.global	LCD_Char_1_enableState
 750              		.section	.rodata
 751              		.set	.LANCHOR1,. + 0
 752              		.type	LCD_Char_1_hex.4893, %object
 753              		.size	LCD_Char_1_hex.4893, 16
 754              	LCD_Char_1_hex.4893:
 755 0000 30313233 		.ascii	"0123456789ABCDEF"
 755      34353637 
 755      38394142 
 755      43444546 
 756              		.bss
 757              		.set	.LANCHOR0,. + 0
ARM GAS  C:\Users\acer\AppData\Local\Temp\ccAh7MOC.s 			page 25


 758              		.type	LCD_Char_1_enableState, %object
 759              		.size	LCD_Char_1_enableState, 1
 760              	LCD_Char_1_enableState:
 761 0000 00       		.space	1
 762              		.type	LCD_Char_1_initVar, %object
 763              		.size	LCD_Char_1_initVar, 1
 764              	LCD_Char_1_initVar:
 765 0001 00       		.space	1
 766              		.text
 767              	.Letext0:
 768              		.file 2 ".\\Generated_Source\\PSoC5\\cytypes.h"
 769              		.file 3 ".\\Generated_Source\\PSoC5\\CyLib.h"