ARM GAS  C:\Users\acer\AppData\Local\Temp\ccQ6iN8H.s 			page 1


   1              		.syntax unified
   2              		.cpu cortex-m3
   3              		.fpu softvfp
   4              		.eabi_attribute 20, 1
   5              		.eabi_attribute 21, 1
   6              		.eabi_attribute 23, 3
   7              		.eabi_attribute 24, 1
   8              		.eabi_attribute 25, 1
   9              		.eabi_attribute 26, 1
  10              		.eabi_attribute 30, 4
  11              		.eabi_attribute 34, 1
  12              		.eabi_attribute 18, 4
  13              		.thumb
  14              		.file	"PWM_1.c"
  15              		.text
  16              	.Ltext0:
  17              		.cfi_sections	.debug_frame
  18              		.section	.text.PWM_1_Init,"ax",%progbits
  19              		.align	1
  20              		.global	PWM_1_Init
  21              		.thumb
  22              		.thumb_func
  23              		.type	PWM_1_Init, %function
  24              	PWM_1_Init:
  25              	.LFB1:
  26              		.file 1 ".\\Generated_Source\\PSoC5\\PWM_1.c"
   1:.\Generated_Source\PSoC5/PWM_1.c **** /*******************************************************************************
   2:.\Generated_Source\PSoC5/PWM_1.c **** * File Name: PWM_1.c
   3:.\Generated_Source\PSoC5/PWM_1.c **** * Version 3.30
   4:.\Generated_Source\PSoC5/PWM_1.c **** *
   5:.\Generated_Source\PSoC5/PWM_1.c **** * Description:
   6:.\Generated_Source\PSoC5/PWM_1.c **** *  The PWM User Module consist of an 8 or 16-bit counter with two 8 or 16-bit
   7:.\Generated_Source\PSoC5/PWM_1.c **** *  comparitors. Each instance of this user module is capable of generating
   8:.\Generated_Source\PSoC5/PWM_1.c **** *  two PWM outputs with the same period. The pulse width is selectable between
   9:.\Generated_Source\PSoC5/PWM_1.c **** *  1 and 255/65535. The period is selectable between 2 and 255/65536 clocks.
  10:.\Generated_Source\PSoC5/PWM_1.c **** *  The compare value output may be configured to be active when the present
  11:.\Generated_Source\PSoC5/PWM_1.c **** *  counter is less than or less than/equal to the compare value.
  12:.\Generated_Source\PSoC5/PWM_1.c **** *  A terminal count output is also provided. It generates a pulse one clock
  13:.\Generated_Source\PSoC5/PWM_1.c **** *  width wide when the counter is equal to zero.
  14:.\Generated_Source\PSoC5/PWM_1.c **** *
  15:.\Generated_Source\PSoC5/PWM_1.c **** * Note:
  16:.\Generated_Source\PSoC5/PWM_1.c **** *
  17:.\Generated_Source\PSoC5/PWM_1.c **** *******************************************************************************
  18:.\Generated_Source\PSoC5/PWM_1.c **** * Copyright 2008-2014, Cypress Semiconductor Corporation.  All rights reserved.
  19:.\Generated_Source\PSoC5/PWM_1.c **** * You may use this file only in accordance with the license, terms, conditions,
  20:.\Generated_Source\PSoC5/PWM_1.c **** * disclaimers, and limitations in the end user license agreement accompanying
  21:.\Generated_Source\PSoC5/PWM_1.c **** * the software package with which this file was provided.
  22:.\Generated_Source\PSoC5/PWM_1.c **** ********************************************************************************/
  23:.\Generated_Source\PSoC5/PWM_1.c **** 
  24:.\Generated_Source\PSoC5/PWM_1.c **** #include "PWM_1.h"
  25:.\Generated_Source\PSoC5/PWM_1.c **** 
  26:.\Generated_Source\PSoC5/PWM_1.c **** /* Error message for removed <resource> through optimization */
  27:.\Generated_Source\PSoC5/PWM_1.c **** #ifdef PWM_1_PWMUDB_genblk1_ctrlreg__REMOVED
  28:.\Generated_Source\PSoC5/PWM_1.c ****     #error PWM_v3_30 detected with a constant 0 for the enable or \
  29:.\Generated_Source\PSoC5/PWM_1.c ****          constant 1 for reset. This will prevent the component from operating.
  30:.\Generated_Source\PSoC5/PWM_1.c **** #endif /* PWM_1_PWMUDB_genblk1_ctrlreg__REMOVED */
  31:.\Generated_Source\PSoC5/PWM_1.c **** 
ARM GAS  C:\Users\acer\AppData\Local\Temp\ccQ6iN8H.s 			page 2


  32:.\Generated_Source\PSoC5/PWM_1.c **** uint8 PWM_1_initVar = 0u;
  33:.\Generated_Source\PSoC5/PWM_1.c **** 
  34:.\Generated_Source\PSoC5/PWM_1.c **** 
  35:.\Generated_Source\PSoC5/PWM_1.c **** /*******************************************************************************
  36:.\Generated_Source\PSoC5/PWM_1.c **** * Function Name: PWM_1_Start
  37:.\Generated_Source\PSoC5/PWM_1.c **** ********************************************************************************
  38:.\Generated_Source\PSoC5/PWM_1.c **** *
  39:.\Generated_Source\PSoC5/PWM_1.c **** * Summary:
  40:.\Generated_Source\PSoC5/PWM_1.c **** *  The start function initializes the pwm with the default values, the
  41:.\Generated_Source\PSoC5/PWM_1.c **** *  enables the counter to begin counting.  It does not enable interrupts,
  42:.\Generated_Source\PSoC5/PWM_1.c **** *  the EnableInt command should be called if interrupt generation is required.
  43:.\Generated_Source\PSoC5/PWM_1.c **** *
  44:.\Generated_Source\PSoC5/PWM_1.c **** * Parameters:
  45:.\Generated_Source\PSoC5/PWM_1.c **** *  None
  46:.\Generated_Source\PSoC5/PWM_1.c **** *
  47:.\Generated_Source\PSoC5/PWM_1.c **** * Return:
  48:.\Generated_Source\PSoC5/PWM_1.c **** *  None
  49:.\Generated_Source\PSoC5/PWM_1.c **** *
  50:.\Generated_Source\PSoC5/PWM_1.c **** * Global variables:
  51:.\Generated_Source\PSoC5/PWM_1.c **** *  PWM_1_initVar: Is modified when this function is called for the
  52:.\Generated_Source\PSoC5/PWM_1.c **** *   first time. Is used to ensure that initialization happens only once.
  53:.\Generated_Source\PSoC5/PWM_1.c **** *
  54:.\Generated_Source\PSoC5/PWM_1.c **** *******************************************************************************/
  55:.\Generated_Source\PSoC5/PWM_1.c **** void PWM_1_Start(void) 
  56:.\Generated_Source\PSoC5/PWM_1.c **** {
  57:.\Generated_Source\PSoC5/PWM_1.c ****     /* If not Initialized then initialize all required hardware and software */
  58:.\Generated_Source\PSoC5/PWM_1.c ****     if(PWM_1_initVar == 0u)
  59:.\Generated_Source\PSoC5/PWM_1.c ****     {
  60:.\Generated_Source\PSoC5/PWM_1.c ****         PWM_1_Init();
  61:.\Generated_Source\PSoC5/PWM_1.c ****         PWM_1_initVar = 1u;
  62:.\Generated_Source\PSoC5/PWM_1.c ****     }
  63:.\Generated_Source\PSoC5/PWM_1.c ****     PWM_1_Enable();
  64:.\Generated_Source\PSoC5/PWM_1.c **** 
  65:.\Generated_Source\PSoC5/PWM_1.c **** }
  66:.\Generated_Source\PSoC5/PWM_1.c **** 
  67:.\Generated_Source\PSoC5/PWM_1.c **** 
  68:.\Generated_Source\PSoC5/PWM_1.c **** /*******************************************************************************
  69:.\Generated_Source\PSoC5/PWM_1.c **** * Function Name: PWM_1_Init
  70:.\Generated_Source\PSoC5/PWM_1.c **** ********************************************************************************
  71:.\Generated_Source\PSoC5/PWM_1.c **** *
  72:.\Generated_Source\PSoC5/PWM_1.c **** * Summary:
  73:.\Generated_Source\PSoC5/PWM_1.c **** *  Initialize component's parameters to the parameters set by user in the
  74:.\Generated_Source\PSoC5/PWM_1.c **** *  customizer of the component placed onto schematic. Usually called in
  75:.\Generated_Source\PSoC5/PWM_1.c **** *  PWM_1_Start().
  76:.\Generated_Source\PSoC5/PWM_1.c **** *
  77:.\Generated_Source\PSoC5/PWM_1.c **** * Parameters:
  78:.\Generated_Source\PSoC5/PWM_1.c **** *  None
  79:.\Generated_Source\PSoC5/PWM_1.c **** *
  80:.\Generated_Source\PSoC5/PWM_1.c **** * Return:
  81:.\Generated_Source\PSoC5/PWM_1.c **** *  None
  82:.\Generated_Source\PSoC5/PWM_1.c **** *
  83:.\Generated_Source\PSoC5/PWM_1.c **** *******************************************************************************/
  84:.\Generated_Source\PSoC5/PWM_1.c **** void PWM_1_Init(void) 
  85:.\Generated_Source\PSoC5/PWM_1.c **** {
  27              		.loc 1 85 0
  28              		.cfi_startproc
  29              		@ args = 0, pretend = 0, frame = 0
ARM GAS  C:\Users\acer\AppData\Local\Temp\ccQ6iN8H.s 			page 3


  30              		@ frame_needed = 0, uses_anonymous_args = 0
  31              		@ link register save eliminated.
  86:.\Generated_Source\PSoC5/PWM_1.c ****     #if (PWM_1_UsingFixedFunction || PWM_1_UseControl)
  87:.\Generated_Source\PSoC5/PWM_1.c ****         uint8 ctrl;
  88:.\Generated_Source\PSoC5/PWM_1.c ****     #endif /* (PWM_1_UsingFixedFunction || PWM_1_UseControl) */
  89:.\Generated_Source\PSoC5/PWM_1.c **** 
  90:.\Generated_Source\PSoC5/PWM_1.c ****     #if(!PWM_1_UsingFixedFunction)
  91:.\Generated_Source\PSoC5/PWM_1.c ****         #if(PWM_1_UseStatus)
  92:.\Generated_Source\PSoC5/PWM_1.c ****             /* Interrupt State Backup for Critical Region*/
  93:.\Generated_Source\PSoC5/PWM_1.c ****             uint8 PWM_1_interruptState;
  94:.\Generated_Source\PSoC5/PWM_1.c ****         #endif /* (PWM_1_UseStatus) */
  95:.\Generated_Source\PSoC5/PWM_1.c ****     #endif /* (!PWM_1_UsingFixedFunction) */
  96:.\Generated_Source\PSoC5/PWM_1.c **** 
  97:.\Generated_Source\PSoC5/PWM_1.c ****     #if (PWM_1_UsingFixedFunction)
  98:.\Generated_Source\PSoC5/PWM_1.c ****         /* You are allowed to write the compare value (FF only) */
  99:.\Generated_Source\PSoC5/PWM_1.c ****         PWM_1_CONTROL |= PWM_1_CFG0_MODE;
 100:.\Generated_Source\PSoC5/PWM_1.c ****         #if (PWM_1_DeadBand2_4)
 101:.\Generated_Source\PSoC5/PWM_1.c ****             PWM_1_CONTROL |= PWM_1_CFG0_DB;
 102:.\Generated_Source\PSoC5/PWM_1.c ****         #endif /* (PWM_1_DeadBand2_4) */
 103:.\Generated_Source\PSoC5/PWM_1.c **** 
 104:.\Generated_Source\PSoC5/PWM_1.c ****         ctrl = PWM_1_CONTROL3 & ((uint8 )(~PWM_1_CTRL_CMPMODE1_MASK));
 105:.\Generated_Source\PSoC5/PWM_1.c ****         PWM_1_CONTROL3 = ctrl | PWM_1_DEFAULT_COMPARE1_MODE;
 106:.\Generated_Source\PSoC5/PWM_1.c **** 
 107:.\Generated_Source\PSoC5/PWM_1.c ****          /* Clear and Set SYNCTC and SYNCCMP bits of RT1 register */
 108:.\Generated_Source\PSoC5/PWM_1.c ****         PWM_1_RT1 &= ((uint8)(~PWM_1_RT1_MASK));
 109:.\Generated_Source\PSoC5/PWM_1.c ****         PWM_1_RT1 |= PWM_1_SYNC;
 110:.\Generated_Source\PSoC5/PWM_1.c **** 
 111:.\Generated_Source\PSoC5/PWM_1.c ****         /*Enable DSI Sync all all inputs of the PWM*/
 112:.\Generated_Source\PSoC5/PWM_1.c ****         PWM_1_RT1 &= ((uint8)(~PWM_1_SYNCDSI_MASK));
 113:.\Generated_Source\PSoC5/PWM_1.c ****         PWM_1_RT1 |= PWM_1_SYNCDSI_EN;
 114:.\Generated_Source\PSoC5/PWM_1.c **** 
 115:.\Generated_Source\PSoC5/PWM_1.c ****     #elif (PWM_1_UseControl)
 116:.\Generated_Source\PSoC5/PWM_1.c ****         /* Set the default compare mode defined in the parameter */
 117:.\Generated_Source\PSoC5/PWM_1.c ****         ctrl = PWM_1_CONTROL & ((uint8)(~PWM_1_CTRL_CMPMODE2_MASK)) &
  32              		.loc 1 117 0
  33 0000 0E4A     		ldr	r2, .L2
  34 0002 1378     		ldrb	r3, [r2]	@ zero_extendqisi2
  35              	.LVL0:
  36 0004 03F0C003 		and	r3, r3, #192
  37              	.LVL1:
 118:.\Generated_Source\PSoC5/PWM_1.c ****                 ((uint8)(~PWM_1_CTRL_CMPMODE1_MASK));
 119:.\Generated_Source\PSoC5/PWM_1.c ****         PWM_1_CONTROL = ctrl | PWM_1_DEFAULT_COMPARE2_MODE |
  38              		.loc 1 119 0
  39 0008 43F00903 		orr	r3, r3, #9
  40 000c 1370     		strb	r3, [r2]
 120:.\Generated_Source\PSoC5/PWM_1.c ****                                    PWM_1_DEFAULT_COMPARE1_MODE;
 121:.\Generated_Source\PSoC5/PWM_1.c ****     #endif /* (PWM_1_UsingFixedFunction) */
 122:.\Generated_Source\PSoC5/PWM_1.c **** 
 123:.\Generated_Source\PSoC5/PWM_1.c ****     #if (!PWM_1_UsingFixedFunction)
 124:.\Generated_Source\PSoC5/PWM_1.c ****         #if (PWM_1_Resolution == 8)
 125:.\Generated_Source\PSoC5/PWM_1.c ****             /* Set FIFO 0 to 1 byte register for period*/
 126:.\Generated_Source\PSoC5/PWM_1.c ****             PWM_1_AUX_CONTROLDP0 |= (PWM_1_AUX_CTRL_FIFO0_CLR);
 127:.\Generated_Source\PSoC5/PWM_1.c ****         #else /* (PWM_1_Resolution == 16)*/
 128:.\Generated_Source\PSoC5/PWM_1.c ****             /* Set FIFO 0 to 1 byte register for period */
 129:.\Generated_Source\PSoC5/PWM_1.c ****             PWM_1_AUX_CONTROLDP0 |= (PWM_1_AUX_CTRL_FIFO0_CLR);
  41              		.loc 1 129 0
  42 000e D37F     		ldrb	r3, [r2, #31]	@ zero_extendqisi2
ARM GAS  C:\Users\acer\AppData\Local\Temp\ccQ6iN8H.s 			page 4


  43 0010 43F00103 		orr	r3, r3, #1
  44 0014 D377     		strb	r3, [r2, #31]
 130:.\Generated_Source\PSoC5/PWM_1.c ****             PWM_1_AUX_CONTROLDP1 |= (PWM_1_AUX_CTRL_FIFO0_CLR);
  45              		.loc 1 130 0
  46 0016 92F82030 		ldrb	r3, [r2, #32]	@ zero_extendqisi2
  47 001a 43F00103 		orr	r3, r3, #1
  48 001e 82F82030 		strb	r3, [r2, #32]
  49              	.LVL2:
  50              	.LBB10:
  51              	.LBB11:
 131:.\Generated_Source\PSoC5/PWM_1.c ****         #endif /* (PWM_1_Resolution == 8) */
 132:.\Generated_Source\PSoC5/PWM_1.c **** 
 133:.\Generated_Source\PSoC5/PWM_1.c ****         PWM_1_WriteCounter(PWM_1_INIT_PERIOD_VALUE);
 134:.\Generated_Source\PSoC5/PWM_1.c ****     #endif /* (!PWM_1_UsingFixedFunction) */
 135:.\Generated_Source\PSoC5/PWM_1.c **** 
 136:.\Generated_Source\PSoC5/PWM_1.c ****     PWM_1_WritePeriod(PWM_1_INIT_PERIOD_VALUE);
 137:.\Generated_Source\PSoC5/PWM_1.c **** 
 138:.\Generated_Source\PSoC5/PWM_1.c ****         #if (PWM_1_UseOneCompareMode)
 139:.\Generated_Source\PSoC5/PWM_1.c ****             PWM_1_WriteCompare(PWM_1_INIT_COMPARE_VALUE1);
 140:.\Generated_Source\PSoC5/PWM_1.c ****         #else
 141:.\Generated_Source\PSoC5/PWM_1.c ****             PWM_1_WriteCompare1(PWM_1_INIT_COMPARE_VALUE1);
 142:.\Generated_Source\PSoC5/PWM_1.c ****             PWM_1_WriteCompare2(PWM_1_INIT_COMPARE_VALUE2);
 143:.\Generated_Source\PSoC5/PWM_1.c ****         #endif /* (PWM_1_UseOneCompareMode) */
 144:.\Generated_Source\PSoC5/PWM_1.c **** 
 145:.\Generated_Source\PSoC5/PWM_1.c ****         #if (PWM_1_KillModeMinTime)
 146:.\Generated_Source\PSoC5/PWM_1.c ****             PWM_1_WriteKillTime(PWM_1_MinimumKillTime);
 147:.\Generated_Source\PSoC5/PWM_1.c ****         #endif /* (PWM_1_KillModeMinTime) */
 148:.\Generated_Source\PSoC5/PWM_1.c **** 
 149:.\Generated_Source\PSoC5/PWM_1.c ****         #if (PWM_1_DeadBandUsed)
 150:.\Generated_Source\PSoC5/PWM_1.c ****             PWM_1_WriteDeadTime(PWM_1_INIT_DEAD_TIME);
 151:.\Generated_Source\PSoC5/PWM_1.c ****         #endif /* (PWM_1_DeadBandUsed) */
 152:.\Generated_Source\PSoC5/PWM_1.c **** 
 153:.\Generated_Source\PSoC5/PWM_1.c ****     #if (PWM_1_UseStatus || PWM_1_UsingFixedFunction)
 154:.\Generated_Source\PSoC5/PWM_1.c ****         PWM_1_SetInterruptMode(PWM_1_INIT_INTERRUPTS_MODE);
 155:.\Generated_Source\PSoC5/PWM_1.c ****     #endif /* (PWM_1_UseStatus || PWM_1_UsingFixedFunction) */
 156:.\Generated_Source\PSoC5/PWM_1.c **** 
 157:.\Generated_Source\PSoC5/PWM_1.c ****     #if (PWM_1_UsingFixedFunction)
 158:.\Generated_Source\PSoC5/PWM_1.c ****         /* Globally Enable the Fixed Function Block chosen */
 159:.\Generated_Source\PSoC5/PWM_1.c ****         PWM_1_GLOBAL_ENABLE |= PWM_1_BLOCK_EN_MASK;
 160:.\Generated_Source\PSoC5/PWM_1.c ****         /* Set the Interrupt source to come from the status register */
 161:.\Generated_Source\PSoC5/PWM_1.c ****         PWM_1_CONTROL2 |= PWM_1_CTRL2_IRQ_SEL;
 162:.\Generated_Source\PSoC5/PWM_1.c ****     #else
 163:.\Generated_Source\PSoC5/PWM_1.c ****         #if(PWM_1_UseStatus)
 164:.\Generated_Source\PSoC5/PWM_1.c **** 
 165:.\Generated_Source\PSoC5/PWM_1.c ****             /* CyEnterCriticalRegion and CyExitCriticalRegion are used to mark following region cri
 166:.\Generated_Source\PSoC5/PWM_1.c ****             /* Enter Critical Region*/
 167:.\Generated_Source\PSoC5/PWM_1.c ****             PWM_1_interruptState = CyEnterCriticalSection();
 168:.\Generated_Source\PSoC5/PWM_1.c ****             /* Use the interrupt output of the status register for IRQ output */
 169:.\Generated_Source\PSoC5/PWM_1.c ****             PWM_1_STATUS_AUX_CTRL |= PWM_1_STATUS_ACTL_INT_EN_MASK;
 170:.\Generated_Source\PSoC5/PWM_1.c **** 
 171:.\Generated_Source\PSoC5/PWM_1.c ****              /* Exit Critical Region*/
 172:.\Generated_Source\PSoC5/PWM_1.c ****             CyExitCriticalSection(PWM_1_interruptState);
 173:.\Generated_Source\PSoC5/PWM_1.c **** 
 174:.\Generated_Source\PSoC5/PWM_1.c ****             /* Clear the FIFO to enable the PWM_1_STATUS_FIFOFULL
 175:.\Generated_Source\PSoC5/PWM_1.c ****                    bit to be set on FIFO full. */
 176:.\Generated_Source\PSoC5/PWM_1.c ****             PWM_1_ClearFIFO();
 177:.\Generated_Source\PSoC5/PWM_1.c ****         #endif /* (PWM_1_UseStatus) */
ARM GAS  C:\Users\acer\AppData\Local\Temp\ccQ6iN8H.s 			page 5


 178:.\Generated_Source\PSoC5/PWM_1.c ****     #endif /* (PWM_1_UsingFixedFunction) */
 179:.\Generated_Source\PSoC5/PWM_1.c **** }
 180:.\Generated_Source\PSoC5/PWM_1.c **** 
 181:.\Generated_Source\PSoC5/PWM_1.c **** 
 182:.\Generated_Source\PSoC5/PWM_1.c **** /*******************************************************************************
 183:.\Generated_Source\PSoC5/PWM_1.c **** * Function Name: PWM_1_Enable
 184:.\Generated_Source\PSoC5/PWM_1.c **** ********************************************************************************
 185:.\Generated_Source\PSoC5/PWM_1.c **** *
 186:.\Generated_Source\PSoC5/PWM_1.c **** * Summary:
 187:.\Generated_Source\PSoC5/PWM_1.c **** *  Enables the PWM block operation
 188:.\Generated_Source\PSoC5/PWM_1.c **** *
 189:.\Generated_Source\PSoC5/PWM_1.c **** * Parameters:
 190:.\Generated_Source\PSoC5/PWM_1.c **** *  None
 191:.\Generated_Source\PSoC5/PWM_1.c **** *
 192:.\Generated_Source\PSoC5/PWM_1.c **** * Return:
 193:.\Generated_Source\PSoC5/PWM_1.c **** *  None
 194:.\Generated_Source\PSoC5/PWM_1.c **** *
 195:.\Generated_Source\PSoC5/PWM_1.c **** * Side Effects:
 196:.\Generated_Source\PSoC5/PWM_1.c **** *  This works only if software enable mode is chosen
 197:.\Generated_Source\PSoC5/PWM_1.c **** *
 198:.\Generated_Source\PSoC5/PWM_1.c **** *******************************************************************************/
 199:.\Generated_Source\PSoC5/PWM_1.c **** void PWM_1_Enable(void) 
 200:.\Generated_Source\PSoC5/PWM_1.c **** {
 201:.\Generated_Source\PSoC5/PWM_1.c ****     /* Globally Enable the Fixed Function Block chosen */
 202:.\Generated_Source\PSoC5/PWM_1.c ****     #if (PWM_1_UsingFixedFunction)
 203:.\Generated_Source\PSoC5/PWM_1.c ****         PWM_1_GLOBAL_ENABLE |= PWM_1_BLOCK_EN_MASK;
 204:.\Generated_Source\PSoC5/PWM_1.c ****         PWM_1_GLOBAL_STBY_ENABLE |= PWM_1_BLOCK_STBY_EN_MASK;
 205:.\Generated_Source\PSoC5/PWM_1.c ****     #endif /* (PWM_1_UsingFixedFunction) */
 206:.\Generated_Source\PSoC5/PWM_1.c **** 
 207:.\Generated_Source\PSoC5/PWM_1.c ****     /* Enable the PWM from the control register  */
 208:.\Generated_Source\PSoC5/PWM_1.c ****     #if (PWM_1_UseControl || PWM_1_UsingFixedFunction)
 209:.\Generated_Source\PSoC5/PWM_1.c ****         PWM_1_CONTROL |= PWM_1_CTRL_ENABLE;
 210:.\Generated_Source\PSoC5/PWM_1.c ****     #endif /* (PWM_1_UseControl || PWM_1_UsingFixedFunction) */
 211:.\Generated_Source\PSoC5/PWM_1.c **** }
 212:.\Generated_Source\PSoC5/PWM_1.c **** 
 213:.\Generated_Source\PSoC5/PWM_1.c **** 
 214:.\Generated_Source\PSoC5/PWM_1.c **** /*******************************************************************************
 215:.\Generated_Source\PSoC5/PWM_1.c **** * Function Name: PWM_1_Stop
 216:.\Generated_Source\PSoC5/PWM_1.c **** ********************************************************************************
 217:.\Generated_Source\PSoC5/PWM_1.c **** *
 218:.\Generated_Source\PSoC5/PWM_1.c **** * Summary:
 219:.\Generated_Source\PSoC5/PWM_1.c **** *  The stop function halts the PWM, but does not change any modes or disable
 220:.\Generated_Source\PSoC5/PWM_1.c **** *  interrupts.
 221:.\Generated_Source\PSoC5/PWM_1.c **** *
 222:.\Generated_Source\PSoC5/PWM_1.c **** * Parameters:
 223:.\Generated_Source\PSoC5/PWM_1.c **** *  None
 224:.\Generated_Source\PSoC5/PWM_1.c **** *
 225:.\Generated_Source\PSoC5/PWM_1.c **** * Return:
 226:.\Generated_Source\PSoC5/PWM_1.c **** *  None
 227:.\Generated_Source\PSoC5/PWM_1.c **** *
 228:.\Generated_Source\PSoC5/PWM_1.c **** * Side Effects:
 229:.\Generated_Source\PSoC5/PWM_1.c **** *  If the Enable mode is set to Hardware only then this function
 230:.\Generated_Source\PSoC5/PWM_1.c **** *  has no effect on the operation of the PWM
 231:.\Generated_Source\PSoC5/PWM_1.c **** *
 232:.\Generated_Source\PSoC5/PWM_1.c **** *******************************************************************************/
 233:.\Generated_Source\PSoC5/PWM_1.c **** void PWM_1_Stop(void) 
 234:.\Generated_Source\PSoC5/PWM_1.c **** {
ARM GAS  C:\Users\acer\AppData\Local\Temp\ccQ6iN8H.s 			page 6


 235:.\Generated_Source\PSoC5/PWM_1.c ****     #if (PWM_1_UseControl || PWM_1_UsingFixedFunction)
 236:.\Generated_Source\PSoC5/PWM_1.c ****         PWM_1_CONTROL &= ((uint8)(~PWM_1_CTRL_ENABLE));
 237:.\Generated_Source\PSoC5/PWM_1.c ****     #endif /* (PWM_1_UseControl || PWM_1_UsingFixedFunction) */
 238:.\Generated_Source\PSoC5/PWM_1.c **** 
 239:.\Generated_Source\PSoC5/PWM_1.c ****     /* Globally disable the Fixed Function Block chosen */
 240:.\Generated_Source\PSoC5/PWM_1.c ****     #if (PWM_1_UsingFixedFunction)
 241:.\Generated_Source\PSoC5/PWM_1.c ****         PWM_1_GLOBAL_ENABLE &= ((uint8)(~PWM_1_BLOCK_EN_MASK));
 242:.\Generated_Source\PSoC5/PWM_1.c ****         PWM_1_GLOBAL_STBY_ENABLE &= ((uint8)(~PWM_1_BLOCK_STBY_EN_MASK));
 243:.\Generated_Source\PSoC5/PWM_1.c ****     #endif /* (PWM_1_UsingFixedFunction) */
 244:.\Generated_Source\PSoC5/PWM_1.c **** }
 245:.\Generated_Source\PSoC5/PWM_1.c **** 
 246:.\Generated_Source\PSoC5/PWM_1.c **** #if (PWM_1_UseOneCompareMode)
 247:.\Generated_Source\PSoC5/PWM_1.c ****     #if (PWM_1_CompareMode1SW)
 248:.\Generated_Source\PSoC5/PWM_1.c **** 
 249:.\Generated_Source\PSoC5/PWM_1.c **** 
 250:.\Generated_Source\PSoC5/PWM_1.c ****         /*******************************************************************************
 251:.\Generated_Source\PSoC5/PWM_1.c ****         * Function Name: PWM_1_SetCompareMode
 252:.\Generated_Source\PSoC5/PWM_1.c ****         ********************************************************************************
 253:.\Generated_Source\PSoC5/PWM_1.c ****         *
 254:.\Generated_Source\PSoC5/PWM_1.c ****         * Summary:
 255:.\Generated_Source\PSoC5/PWM_1.c ****         *  This function writes the Compare Mode for the pwm output when in Dither mode,
 256:.\Generated_Source\PSoC5/PWM_1.c ****         *  Center Align Mode or One Output Mode.
 257:.\Generated_Source\PSoC5/PWM_1.c ****         *
 258:.\Generated_Source\PSoC5/PWM_1.c ****         * Parameters:
 259:.\Generated_Source\PSoC5/PWM_1.c ****         *  comparemode:  The new compare mode for the PWM output. Use the compare types
 260:.\Generated_Source\PSoC5/PWM_1.c ****         *                defined in the H file as input arguments.
 261:.\Generated_Source\PSoC5/PWM_1.c ****         *
 262:.\Generated_Source\PSoC5/PWM_1.c ****         * Return:
 263:.\Generated_Source\PSoC5/PWM_1.c ****         *  None
 264:.\Generated_Source\PSoC5/PWM_1.c ****         *
 265:.\Generated_Source\PSoC5/PWM_1.c ****         *******************************************************************************/
 266:.\Generated_Source\PSoC5/PWM_1.c ****         void PWM_1_SetCompareMode(uint8 comparemode) 
 267:.\Generated_Source\PSoC5/PWM_1.c ****         {
 268:.\Generated_Source\PSoC5/PWM_1.c ****             #if(PWM_1_UsingFixedFunction)
 269:.\Generated_Source\PSoC5/PWM_1.c **** 
 270:.\Generated_Source\PSoC5/PWM_1.c ****                 #if(0 != PWM_1_CTRL_CMPMODE1_SHIFT)
 271:.\Generated_Source\PSoC5/PWM_1.c ****                     uint8 comparemodemasked = ((uint8)((uint8)comparemode << PWM_1_CTRL_CMPMODE1_SH
 272:.\Generated_Source\PSoC5/PWM_1.c ****                 #else
 273:.\Generated_Source\PSoC5/PWM_1.c ****                     uint8 comparemodemasked = comparemode;
 274:.\Generated_Source\PSoC5/PWM_1.c ****                 #endif /* (0 != PWM_1_CTRL_CMPMODE1_SHIFT) */
 275:.\Generated_Source\PSoC5/PWM_1.c **** 
 276:.\Generated_Source\PSoC5/PWM_1.c ****                 PWM_1_CONTROL3 &= ((uint8)(~PWM_1_CTRL_CMPMODE1_MASK)); /*Clear Existing Data */
 277:.\Generated_Source\PSoC5/PWM_1.c ****                 PWM_1_CONTROL3 |= comparemodemasked;
 278:.\Generated_Source\PSoC5/PWM_1.c **** 
 279:.\Generated_Source\PSoC5/PWM_1.c ****             #elif (PWM_1_UseControl)
 280:.\Generated_Source\PSoC5/PWM_1.c **** 
 281:.\Generated_Source\PSoC5/PWM_1.c ****                 #if(0 != PWM_1_CTRL_CMPMODE1_SHIFT)
 282:.\Generated_Source\PSoC5/PWM_1.c ****                     uint8 comparemode1masked = ((uint8)((uint8)comparemode << PWM_1_CTRL_CMPMODE1_S
 283:.\Generated_Source\PSoC5/PWM_1.c ****                                                 PWM_1_CTRL_CMPMODE1_MASK;
 284:.\Generated_Source\PSoC5/PWM_1.c ****                 #else
 285:.\Generated_Source\PSoC5/PWM_1.c ****                     uint8 comparemode1masked = comparemode & PWM_1_CTRL_CMPMODE1_MASK;
 286:.\Generated_Source\PSoC5/PWM_1.c ****                 #endif /* (0 != PWM_1_CTRL_CMPMODE1_SHIFT) */
 287:.\Generated_Source\PSoC5/PWM_1.c **** 
 288:.\Generated_Source\PSoC5/PWM_1.c ****                 #if(0 != PWM_1_CTRL_CMPMODE2_SHIFT)
 289:.\Generated_Source\PSoC5/PWM_1.c ****                     uint8 comparemode2masked = ((uint8)((uint8)comparemode << PWM_1_CTRL_CMPMODE2_S
 290:.\Generated_Source\PSoC5/PWM_1.c ****                                                PWM_1_CTRL_CMPMODE2_MASK;
 291:.\Generated_Source\PSoC5/PWM_1.c ****                 #else
ARM GAS  C:\Users\acer\AppData\Local\Temp\ccQ6iN8H.s 			page 7


 292:.\Generated_Source\PSoC5/PWM_1.c ****                     uint8 comparemode2masked = comparemode & PWM_1_CTRL_CMPMODE2_MASK;
 293:.\Generated_Source\PSoC5/PWM_1.c ****                 #endif /* (0 != PWM_1_CTRL_CMPMODE2_SHIFT) */
 294:.\Generated_Source\PSoC5/PWM_1.c **** 
 295:.\Generated_Source\PSoC5/PWM_1.c ****                 /*Clear existing mode */
 296:.\Generated_Source\PSoC5/PWM_1.c ****                 PWM_1_CONTROL &= ((uint8)(~(PWM_1_CTRL_CMPMODE1_MASK |
 297:.\Generated_Source\PSoC5/PWM_1.c ****                                             PWM_1_CTRL_CMPMODE2_MASK)));
 298:.\Generated_Source\PSoC5/PWM_1.c ****                 PWM_1_CONTROL |= (comparemode1masked | comparemode2masked);
 299:.\Generated_Source\PSoC5/PWM_1.c **** 
 300:.\Generated_Source\PSoC5/PWM_1.c ****             #else
 301:.\Generated_Source\PSoC5/PWM_1.c ****                 uint8 temp = comparemode;
 302:.\Generated_Source\PSoC5/PWM_1.c ****             #endif /* (PWM_1_UsingFixedFunction) */
 303:.\Generated_Source\PSoC5/PWM_1.c ****         }
 304:.\Generated_Source\PSoC5/PWM_1.c ****     #endif /* PWM_1_CompareMode1SW */
 305:.\Generated_Source\PSoC5/PWM_1.c **** 
 306:.\Generated_Source\PSoC5/PWM_1.c **** #else /* UseOneCompareMode */
 307:.\Generated_Source\PSoC5/PWM_1.c **** 
 308:.\Generated_Source\PSoC5/PWM_1.c ****     #if (PWM_1_CompareMode1SW)
 309:.\Generated_Source\PSoC5/PWM_1.c **** 
 310:.\Generated_Source\PSoC5/PWM_1.c **** 
 311:.\Generated_Source\PSoC5/PWM_1.c ****         /*******************************************************************************
 312:.\Generated_Source\PSoC5/PWM_1.c ****         * Function Name: PWM_1_SetCompareMode1
 313:.\Generated_Source\PSoC5/PWM_1.c ****         ********************************************************************************
 314:.\Generated_Source\PSoC5/PWM_1.c ****         *
 315:.\Generated_Source\PSoC5/PWM_1.c ****         * Summary:
 316:.\Generated_Source\PSoC5/PWM_1.c ****         *  This function writes the Compare Mode for the pwm or pwm1 output
 317:.\Generated_Source\PSoC5/PWM_1.c ****         *
 318:.\Generated_Source\PSoC5/PWM_1.c ****         * Parameters:
 319:.\Generated_Source\PSoC5/PWM_1.c ****         *  comparemode:  The new compare mode for the PWM output. Use the compare types
 320:.\Generated_Source\PSoC5/PWM_1.c ****         *                defined in the H file as input arguments.
 321:.\Generated_Source\PSoC5/PWM_1.c ****         *
 322:.\Generated_Source\PSoC5/PWM_1.c ****         * Return:
 323:.\Generated_Source\PSoC5/PWM_1.c ****         *  None
 324:.\Generated_Source\PSoC5/PWM_1.c ****         *
 325:.\Generated_Source\PSoC5/PWM_1.c ****         *******************************************************************************/
 326:.\Generated_Source\PSoC5/PWM_1.c ****         void PWM_1_SetCompareMode1(uint8 comparemode) 
 327:.\Generated_Source\PSoC5/PWM_1.c ****         {
 328:.\Generated_Source\PSoC5/PWM_1.c ****             #if(0 != PWM_1_CTRL_CMPMODE1_SHIFT)
 329:.\Generated_Source\PSoC5/PWM_1.c ****                 uint8 comparemodemasked = ((uint8)((uint8)comparemode << PWM_1_CTRL_CMPMODE1_SHIFT)
 330:.\Generated_Source\PSoC5/PWM_1.c ****                                            PWM_1_CTRL_CMPMODE1_MASK;
 331:.\Generated_Source\PSoC5/PWM_1.c ****             #else
 332:.\Generated_Source\PSoC5/PWM_1.c ****                 uint8 comparemodemasked = comparemode & PWM_1_CTRL_CMPMODE1_MASK;
 333:.\Generated_Source\PSoC5/PWM_1.c ****             #endif /* (0 != PWM_1_CTRL_CMPMODE1_SHIFT) */
 334:.\Generated_Source\PSoC5/PWM_1.c **** 
 335:.\Generated_Source\PSoC5/PWM_1.c ****             #if (PWM_1_UseControl)
 336:.\Generated_Source\PSoC5/PWM_1.c ****                 PWM_1_CONTROL &= ((uint8)(~PWM_1_CTRL_CMPMODE1_MASK)); /*Clear existing mode */
 337:.\Generated_Source\PSoC5/PWM_1.c ****                 PWM_1_CONTROL |= comparemodemasked;
 338:.\Generated_Source\PSoC5/PWM_1.c ****             #endif /* (PWM_1_UseControl) */
 339:.\Generated_Source\PSoC5/PWM_1.c ****         }
 340:.\Generated_Source\PSoC5/PWM_1.c ****     #endif /* PWM_1_CompareMode1SW */
 341:.\Generated_Source\PSoC5/PWM_1.c **** 
 342:.\Generated_Source\PSoC5/PWM_1.c **** #if (PWM_1_CompareMode2SW)
 343:.\Generated_Source\PSoC5/PWM_1.c **** 
 344:.\Generated_Source\PSoC5/PWM_1.c **** 
 345:.\Generated_Source\PSoC5/PWM_1.c ****     /*******************************************************************************
 346:.\Generated_Source\PSoC5/PWM_1.c ****     * Function Name: PWM_1_SetCompareMode2
 347:.\Generated_Source\PSoC5/PWM_1.c ****     ********************************************************************************
 348:.\Generated_Source\PSoC5/PWM_1.c ****     *
ARM GAS  C:\Users\acer\AppData\Local\Temp\ccQ6iN8H.s 			page 8


 349:.\Generated_Source\PSoC5/PWM_1.c ****     * Summary:
 350:.\Generated_Source\PSoC5/PWM_1.c ****     *  This function writes the Compare Mode for the pwm or pwm2 output
 351:.\Generated_Source\PSoC5/PWM_1.c ****     *
 352:.\Generated_Source\PSoC5/PWM_1.c ****     * Parameters:
 353:.\Generated_Source\PSoC5/PWM_1.c ****     *  comparemode:  The new compare mode for the PWM output. Use the compare types
 354:.\Generated_Source\PSoC5/PWM_1.c ****     *                defined in the H file as input arguments.
 355:.\Generated_Source\PSoC5/PWM_1.c ****     *
 356:.\Generated_Source\PSoC5/PWM_1.c ****     * Return:
 357:.\Generated_Source\PSoC5/PWM_1.c ****     *  None
 358:.\Generated_Source\PSoC5/PWM_1.c ****     *
 359:.\Generated_Source\PSoC5/PWM_1.c ****     *******************************************************************************/
 360:.\Generated_Source\PSoC5/PWM_1.c ****     void PWM_1_SetCompareMode2(uint8 comparemode) 
 361:.\Generated_Source\PSoC5/PWM_1.c ****     {
 362:.\Generated_Source\PSoC5/PWM_1.c **** 
 363:.\Generated_Source\PSoC5/PWM_1.c ****         #if(0 != PWM_1_CTRL_CMPMODE2_SHIFT)
 364:.\Generated_Source\PSoC5/PWM_1.c ****             uint8 comparemodemasked = ((uint8)((uint8)comparemode << PWM_1_CTRL_CMPMODE2_SHIFT)) &
 365:.\Generated_Source\PSoC5/PWM_1.c ****                                                  PWM_1_CTRL_CMPMODE2_MASK;
 366:.\Generated_Source\PSoC5/PWM_1.c ****         #else
 367:.\Generated_Source\PSoC5/PWM_1.c ****             uint8 comparemodemasked = comparemode & PWM_1_CTRL_CMPMODE2_MASK;
 368:.\Generated_Source\PSoC5/PWM_1.c ****         #endif /* (0 != PWM_1_CTRL_CMPMODE2_SHIFT) */
 369:.\Generated_Source\PSoC5/PWM_1.c **** 
 370:.\Generated_Source\PSoC5/PWM_1.c ****         #if (PWM_1_UseControl)
 371:.\Generated_Source\PSoC5/PWM_1.c ****             PWM_1_CONTROL &= ((uint8)(~PWM_1_CTRL_CMPMODE2_MASK)); /*Clear existing mode */
 372:.\Generated_Source\PSoC5/PWM_1.c ****             PWM_1_CONTROL |= comparemodemasked;
 373:.\Generated_Source\PSoC5/PWM_1.c ****         #endif /* (PWM_1_UseControl) */
 374:.\Generated_Source\PSoC5/PWM_1.c ****     }
 375:.\Generated_Source\PSoC5/PWM_1.c ****     #endif /*PWM_1_CompareMode2SW */
 376:.\Generated_Source\PSoC5/PWM_1.c **** 
 377:.\Generated_Source\PSoC5/PWM_1.c **** #endif /* UseOneCompareMode */
 378:.\Generated_Source\PSoC5/PWM_1.c **** 
 379:.\Generated_Source\PSoC5/PWM_1.c **** 
 380:.\Generated_Source\PSoC5/PWM_1.c **** #if (!PWM_1_UsingFixedFunction)
 381:.\Generated_Source\PSoC5/PWM_1.c **** 
 382:.\Generated_Source\PSoC5/PWM_1.c **** 
 383:.\Generated_Source\PSoC5/PWM_1.c ****     /*******************************************************************************
 384:.\Generated_Source\PSoC5/PWM_1.c ****     * Function Name: PWM_1_WriteCounter
 385:.\Generated_Source\PSoC5/PWM_1.c ****     ********************************************************************************
 386:.\Generated_Source\PSoC5/PWM_1.c ****     *
 387:.\Generated_Source\PSoC5/PWM_1.c ****     * Summary:
 388:.\Generated_Source\PSoC5/PWM_1.c ****     *  Writes a new counter value directly to the counter register. This will be
 389:.\Generated_Source\PSoC5/PWM_1.c ****     *  implemented for that currently running period and only that period. This API
 390:.\Generated_Source\PSoC5/PWM_1.c ****     *  is valid only for UDB implementation and not available for fixed function
 391:.\Generated_Source\PSoC5/PWM_1.c ****     *  PWM implementation.
 392:.\Generated_Source\PSoC5/PWM_1.c ****     *
 393:.\Generated_Source\PSoC5/PWM_1.c ****     * Parameters:
 394:.\Generated_Source\PSoC5/PWM_1.c ****     *  counter:  The period new period counter value.
 395:.\Generated_Source\PSoC5/PWM_1.c ****     *
 396:.\Generated_Source\PSoC5/PWM_1.c ****     * Return:
 397:.\Generated_Source\PSoC5/PWM_1.c ****     *  None
 398:.\Generated_Source\PSoC5/PWM_1.c ****     *
 399:.\Generated_Source\PSoC5/PWM_1.c ****     * Side Effects:
 400:.\Generated_Source\PSoC5/PWM_1.c ****     *  The PWM Period will be reloaded when a counter value will be a zero
 401:.\Generated_Source\PSoC5/PWM_1.c ****     *
 402:.\Generated_Source\PSoC5/PWM_1.c ****     *******************************************************************************/
 403:.\Generated_Source\PSoC5/PWM_1.c ****     void PWM_1_WriteCounter(uint16 counter) \
 404:.\Generated_Source\PSoC5/PWM_1.c ****                                        
 405:.\Generated_Source\PSoC5/PWM_1.c ****     {
ARM GAS  C:\Users\acer\AppData\Local\Temp\ccQ6iN8H.s 			page 9


 406:.\Generated_Source\PSoC5/PWM_1.c ****         CY_SET_REG16(PWM_1_COUNTER_LSB_PTR, counter);
  52              		.loc 1 406 0
  53 0022 4FF4FA63 		mov	r3, #2000
  54 0026 A2F88F33 		strh	r3, [r2, #911]	@ movhi
  55              	.LVL3:
  56              	.LBE11:
  57              	.LBE10:
  58              	.LBB12:
  59              	.LBB13:
 407:.\Generated_Source\PSoC5/PWM_1.c ****     }
 408:.\Generated_Source\PSoC5/PWM_1.c **** 
 409:.\Generated_Source\PSoC5/PWM_1.c **** 
 410:.\Generated_Source\PSoC5/PWM_1.c ****     /*******************************************************************************
 411:.\Generated_Source\PSoC5/PWM_1.c ****     * Function Name: PWM_1_ReadCounter
 412:.\Generated_Source\PSoC5/PWM_1.c ****     ********************************************************************************
 413:.\Generated_Source\PSoC5/PWM_1.c ****     *
 414:.\Generated_Source\PSoC5/PWM_1.c ****     * Summary:
 415:.\Generated_Source\PSoC5/PWM_1.c ****     *  This function returns the current value of the counter.  It doesn't matter
 416:.\Generated_Source\PSoC5/PWM_1.c ****     *  if the counter is enabled or running.
 417:.\Generated_Source\PSoC5/PWM_1.c ****     *
 418:.\Generated_Source\PSoC5/PWM_1.c ****     * Parameters:
 419:.\Generated_Source\PSoC5/PWM_1.c ****     *  None
 420:.\Generated_Source\PSoC5/PWM_1.c ****     *
 421:.\Generated_Source\PSoC5/PWM_1.c ****     * Return:
 422:.\Generated_Source\PSoC5/PWM_1.c ****     *  The current value of the counter.
 423:.\Generated_Source\PSoC5/PWM_1.c ****     *
 424:.\Generated_Source\PSoC5/PWM_1.c ****     *******************************************************************************/
 425:.\Generated_Source\PSoC5/PWM_1.c ****     uint16 PWM_1_ReadCounter(void) 
 426:.\Generated_Source\PSoC5/PWM_1.c ****     {
 427:.\Generated_Source\PSoC5/PWM_1.c ****         /* Force capture by reading Accumulator */
 428:.\Generated_Source\PSoC5/PWM_1.c ****         /* Must first do a software capture to be able to read the counter */
 429:.\Generated_Source\PSoC5/PWM_1.c ****         /* It is up to the user code to make sure there isn't already captured data in the FIFO */
 430:.\Generated_Source\PSoC5/PWM_1.c ****           (void)CY_GET_REG8(PWM_1_COUNTERCAP_LSB_PTR_8BIT);
 431:.\Generated_Source\PSoC5/PWM_1.c **** 
 432:.\Generated_Source\PSoC5/PWM_1.c ****         /* Read the data from the FIFO */
 433:.\Generated_Source\PSoC5/PWM_1.c ****         return (CY_GET_REG16(PWM_1_CAPTURE_LSB_PTR));
 434:.\Generated_Source\PSoC5/PWM_1.c ****     }
 435:.\Generated_Source\PSoC5/PWM_1.c **** 
 436:.\Generated_Source\PSoC5/PWM_1.c ****     #if (PWM_1_UseStatus)
 437:.\Generated_Source\PSoC5/PWM_1.c **** 
 438:.\Generated_Source\PSoC5/PWM_1.c **** 
 439:.\Generated_Source\PSoC5/PWM_1.c ****         /*******************************************************************************
 440:.\Generated_Source\PSoC5/PWM_1.c ****         * Function Name: PWM_1_ClearFIFO
 441:.\Generated_Source\PSoC5/PWM_1.c ****         ********************************************************************************
 442:.\Generated_Source\PSoC5/PWM_1.c ****         *
 443:.\Generated_Source\PSoC5/PWM_1.c ****         * Summary:
 444:.\Generated_Source\PSoC5/PWM_1.c ****         *  This function clears all capture data from the capture FIFO
 445:.\Generated_Source\PSoC5/PWM_1.c ****         *
 446:.\Generated_Source\PSoC5/PWM_1.c ****         * Parameters:
 447:.\Generated_Source\PSoC5/PWM_1.c ****         *  None
 448:.\Generated_Source\PSoC5/PWM_1.c ****         *
 449:.\Generated_Source\PSoC5/PWM_1.c ****         * Return:
 450:.\Generated_Source\PSoC5/PWM_1.c ****         *  None
 451:.\Generated_Source\PSoC5/PWM_1.c ****         *
 452:.\Generated_Source\PSoC5/PWM_1.c ****         *******************************************************************************/
 453:.\Generated_Source\PSoC5/PWM_1.c ****         void PWM_1_ClearFIFO(void) 
 454:.\Generated_Source\PSoC5/PWM_1.c ****         {
ARM GAS  C:\Users\acer\AppData\Local\Temp\ccQ6iN8H.s 			page 10


 455:.\Generated_Source\PSoC5/PWM_1.c ****             while(0u != (PWM_1_ReadStatusRegister() & PWM_1_STATUS_FIFONEMPTY))
 456:.\Generated_Source\PSoC5/PWM_1.c ****             {
 457:.\Generated_Source\PSoC5/PWM_1.c ****                 (void)PWM_1_ReadCapture();
 458:.\Generated_Source\PSoC5/PWM_1.c ****             }
 459:.\Generated_Source\PSoC5/PWM_1.c ****         }
 460:.\Generated_Source\PSoC5/PWM_1.c **** 
 461:.\Generated_Source\PSoC5/PWM_1.c ****     #endif /* PWM_1_UseStatus */
 462:.\Generated_Source\PSoC5/PWM_1.c **** 
 463:.\Generated_Source\PSoC5/PWM_1.c **** #endif /* !PWM_1_UsingFixedFunction */
 464:.\Generated_Source\PSoC5/PWM_1.c **** 
 465:.\Generated_Source\PSoC5/PWM_1.c **** 
 466:.\Generated_Source\PSoC5/PWM_1.c **** /*******************************************************************************
 467:.\Generated_Source\PSoC5/PWM_1.c **** * Function Name: PWM_1_WritePeriod
 468:.\Generated_Source\PSoC5/PWM_1.c **** ********************************************************************************
 469:.\Generated_Source\PSoC5/PWM_1.c **** *
 470:.\Generated_Source\PSoC5/PWM_1.c **** * Summary:
 471:.\Generated_Source\PSoC5/PWM_1.c **** *  This function is used to change the period of the counter.  The new period
 472:.\Generated_Source\PSoC5/PWM_1.c **** *  will be loaded the next time terminal count is detected.
 473:.\Generated_Source\PSoC5/PWM_1.c **** *
 474:.\Generated_Source\PSoC5/PWM_1.c **** * Parameters:
 475:.\Generated_Source\PSoC5/PWM_1.c **** *  period:  Period value. May be between 1 and (2^Resolution)-1.  A value of 0
 476:.\Generated_Source\PSoC5/PWM_1.c **** *           will result in the counter remaining at zero.
 477:.\Generated_Source\PSoC5/PWM_1.c **** *
 478:.\Generated_Source\PSoC5/PWM_1.c **** * Return:
 479:.\Generated_Source\PSoC5/PWM_1.c **** *  None
 480:.\Generated_Source\PSoC5/PWM_1.c **** *
 481:.\Generated_Source\PSoC5/PWM_1.c **** *******************************************************************************/
 482:.\Generated_Source\PSoC5/PWM_1.c **** void PWM_1_WritePeriod(uint16 period) 
 483:.\Generated_Source\PSoC5/PWM_1.c **** {
 484:.\Generated_Source\PSoC5/PWM_1.c ****     #if(PWM_1_UsingFixedFunction)
 485:.\Generated_Source\PSoC5/PWM_1.c ****         CY_SET_REG16(PWM_1_PERIOD_LSB_PTR, (uint16)period);
 486:.\Generated_Source\PSoC5/PWM_1.c ****     #else
 487:.\Generated_Source\PSoC5/PWM_1.c ****         CY_SET_REG16(PWM_1_PERIOD_LSB_PTR, period);
  60              		.loc 1 487 0
  61 002a A2F80F34 		strh	r3, [r2, #1039]	@ movhi
  62              	.LVL4:
  63              	.LBE13:
  64              	.LBE12:
  65              	.LBB14:
  66              	.LBB15:
 488:.\Generated_Source\PSoC5/PWM_1.c ****     #endif /* (PWM_1_UsingFixedFunction) */
 489:.\Generated_Source\PSoC5/PWM_1.c **** }
 490:.\Generated_Source\PSoC5/PWM_1.c **** 
 491:.\Generated_Source\PSoC5/PWM_1.c **** #if (PWM_1_UseOneCompareMode)
 492:.\Generated_Source\PSoC5/PWM_1.c **** 
 493:.\Generated_Source\PSoC5/PWM_1.c **** 
 494:.\Generated_Source\PSoC5/PWM_1.c ****     /*******************************************************************************
 495:.\Generated_Source\PSoC5/PWM_1.c ****     * Function Name: PWM_1_WriteCompare
 496:.\Generated_Source\PSoC5/PWM_1.c ****     ********************************************************************************
 497:.\Generated_Source\PSoC5/PWM_1.c ****     *
 498:.\Generated_Source\PSoC5/PWM_1.c ****     * Summary:
 499:.\Generated_Source\PSoC5/PWM_1.c ****     *  This funtion is used to change the compare1 value when the PWM is in Dither
 500:.\Generated_Source\PSoC5/PWM_1.c ****     *  mode. The compare output will reflect the new value on the next UDB clock.
 501:.\Generated_Source\PSoC5/PWM_1.c ****     *  The compare output will be driven high when the present counter value is
 502:.\Generated_Source\PSoC5/PWM_1.c ****     *  compared to the compare value based on the compare mode defined in
 503:.\Generated_Source\PSoC5/PWM_1.c ****     *  Dither Mode.
 504:.\Generated_Source\PSoC5/PWM_1.c ****     *
ARM GAS  C:\Users\acer\AppData\Local\Temp\ccQ6iN8H.s 			page 11


 505:.\Generated_Source\PSoC5/PWM_1.c ****     * Parameters:
 506:.\Generated_Source\PSoC5/PWM_1.c ****     *  compare:  New compare value.
 507:.\Generated_Source\PSoC5/PWM_1.c ****     *
 508:.\Generated_Source\PSoC5/PWM_1.c ****     * Return:
 509:.\Generated_Source\PSoC5/PWM_1.c ****     *  None
 510:.\Generated_Source\PSoC5/PWM_1.c ****     *
 511:.\Generated_Source\PSoC5/PWM_1.c ****     * Side Effects:
 512:.\Generated_Source\PSoC5/PWM_1.c ****     *  This function is only available if the PWM mode parameter is set to
 513:.\Generated_Source\PSoC5/PWM_1.c ****     *  Dither Mode, Center Aligned Mode or One Output Mode
 514:.\Generated_Source\PSoC5/PWM_1.c ****     *
 515:.\Generated_Source\PSoC5/PWM_1.c ****     *******************************************************************************/
 516:.\Generated_Source\PSoC5/PWM_1.c ****     void PWM_1_WriteCompare(uint16 compare) \
 517:.\Generated_Source\PSoC5/PWM_1.c ****                                        
 518:.\Generated_Source\PSoC5/PWM_1.c ****     {
 519:.\Generated_Source\PSoC5/PWM_1.c ****         #if(PWM_1_UsingFixedFunction)
 520:.\Generated_Source\PSoC5/PWM_1.c ****             CY_SET_REG16(PWM_1_COMPARE1_LSB_PTR, (uint16)compare);
 521:.\Generated_Source\PSoC5/PWM_1.c ****         #else
 522:.\Generated_Source\PSoC5/PWM_1.c ****             CY_SET_REG16(PWM_1_COMPARE1_LSB_PTR, compare);
 523:.\Generated_Source\PSoC5/PWM_1.c ****         #endif /* (PWM_1_UsingFixedFunction) */
 524:.\Generated_Source\PSoC5/PWM_1.c **** 
 525:.\Generated_Source\PSoC5/PWM_1.c ****         #if (PWM_1_PWMMode == PWM_1__B_PWM__DITHER)
 526:.\Generated_Source\PSoC5/PWM_1.c ****             #if(PWM_1_UsingFixedFunction)
 527:.\Generated_Source\PSoC5/PWM_1.c ****                 CY_SET_REG16(PWM_1_COMPARE2_LSB_PTR, (uint16)(compare + 1u));
 528:.\Generated_Source\PSoC5/PWM_1.c ****             #else
 529:.\Generated_Source\PSoC5/PWM_1.c ****                 CY_SET_REG16(PWM_1_COMPARE2_LSB_PTR, (compare + 1u));
 530:.\Generated_Source\PSoC5/PWM_1.c ****             #endif /* (PWM_1_UsingFixedFunction) */
 531:.\Generated_Source\PSoC5/PWM_1.c ****         #endif /* (PWM_1_PWMMode == PWM_1__B_PWM__DITHER) */
 532:.\Generated_Source\PSoC5/PWM_1.c ****     }
 533:.\Generated_Source\PSoC5/PWM_1.c **** 
 534:.\Generated_Source\PSoC5/PWM_1.c **** 
 535:.\Generated_Source\PSoC5/PWM_1.c **** #else
 536:.\Generated_Source\PSoC5/PWM_1.c **** 
 537:.\Generated_Source\PSoC5/PWM_1.c **** 
 538:.\Generated_Source\PSoC5/PWM_1.c ****     /*******************************************************************************
 539:.\Generated_Source\PSoC5/PWM_1.c ****     * Function Name: PWM_1_WriteCompare1
 540:.\Generated_Source\PSoC5/PWM_1.c ****     ********************************************************************************
 541:.\Generated_Source\PSoC5/PWM_1.c ****     *
 542:.\Generated_Source\PSoC5/PWM_1.c ****     * Summary:
 543:.\Generated_Source\PSoC5/PWM_1.c ****     *  This funtion is used to change the compare1 value.  The compare output will
 544:.\Generated_Source\PSoC5/PWM_1.c ****     *  reflect the new value on the next UDB clock.  The compare output will be
 545:.\Generated_Source\PSoC5/PWM_1.c ****     *  driven high when the present counter value is less than or less than or
 546:.\Generated_Source\PSoC5/PWM_1.c ****     *  equal to the compare register, depending on the mode.
 547:.\Generated_Source\PSoC5/PWM_1.c ****     *
 548:.\Generated_Source\PSoC5/PWM_1.c ****     * Parameters:
 549:.\Generated_Source\PSoC5/PWM_1.c ****     *  compare:  New compare value.
 550:.\Generated_Source\PSoC5/PWM_1.c ****     *
 551:.\Generated_Source\PSoC5/PWM_1.c ****     * Return:
 552:.\Generated_Source\PSoC5/PWM_1.c ****     *  None
 553:.\Generated_Source\PSoC5/PWM_1.c ****     *
 554:.\Generated_Source\PSoC5/PWM_1.c ****     *******************************************************************************/
 555:.\Generated_Source\PSoC5/PWM_1.c ****     void PWM_1_WriteCompare1(uint16 compare) \
 556:.\Generated_Source\PSoC5/PWM_1.c ****                                         
 557:.\Generated_Source\PSoC5/PWM_1.c ****     {
 558:.\Generated_Source\PSoC5/PWM_1.c ****         #if(PWM_1_UsingFixedFunction)
 559:.\Generated_Source\PSoC5/PWM_1.c ****             CY_SET_REG16(PWM_1_COMPARE1_LSB_PTR, (uint16)compare);
 560:.\Generated_Source\PSoC5/PWM_1.c ****         #else
 561:.\Generated_Source\PSoC5/PWM_1.c ****             CY_SET_REG16(PWM_1_COMPARE1_LSB_PTR, compare);
ARM GAS  C:\Users\acer\AppData\Local\Temp\ccQ6iN8H.s 			page 12


  67              		.loc 1 561 0
  68 002e 044B     		ldr	r3, .L2+4
  69 0030 7F22     		movs	r2, #127
  70 0032 1A80     		strh	r2, [r3]	@ movhi
  71              	.LVL5:
  72              	.LBE15:
  73              	.LBE14:
  74              	.LBB16:
  75              	.LBB17:
 562:.\Generated_Source\PSoC5/PWM_1.c ****         #endif /* (PWM_1_UsingFixedFunction) */
 563:.\Generated_Source\PSoC5/PWM_1.c ****     }
 564:.\Generated_Source\PSoC5/PWM_1.c **** 
 565:.\Generated_Source\PSoC5/PWM_1.c **** 
 566:.\Generated_Source\PSoC5/PWM_1.c ****     /*******************************************************************************
 567:.\Generated_Source\PSoC5/PWM_1.c ****     * Function Name: PWM_1_WriteCompare2
 568:.\Generated_Source\PSoC5/PWM_1.c ****     ********************************************************************************
 569:.\Generated_Source\PSoC5/PWM_1.c ****     *
 570:.\Generated_Source\PSoC5/PWM_1.c ****     * Summary:
 571:.\Generated_Source\PSoC5/PWM_1.c ****     *  This funtion is used to change the compare value, for compare1 output.
 572:.\Generated_Source\PSoC5/PWM_1.c ****     *  The compare output will reflect the new value on the next UDB clock.
 573:.\Generated_Source\PSoC5/PWM_1.c ****     *  The compare output will be driven high when the present counter value is
 574:.\Generated_Source\PSoC5/PWM_1.c ****     *  less than or less than or equal to the compare register, depending on the
 575:.\Generated_Source\PSoC5/PWM_1.c ****     *  mode.
 576:.\Generated_Source\PSoC5/PWM_1.c ****     *
 577:.\Generated_Source\PSoC5/PWM_1.c ****     * Parameters:
 578:.\Generated_Source\PSoC5/PWM_1.c ****     *  compare:  New compare value.
 579:.\Generated_Source\PSoC5/PWM_1.c ****     *
 580:.\Generated_Source\PSoC5/PWM_1.c ****     * Return:
 581:.\Generated_Source\PSoC5/PWM_1.c ****     *  None
 582:.\Generated_Source\PSoC5/PWM_1.c ****     *
 583:.\Generated_Source\PSoC5/PWM_1.c ****     *******************************************************************************/
 584:.\Generated_Source\PSoC5/PWM_1.c ****     void PWM_1_WriteCompare2(uint16 compare) \
 585:.\Generated_Source\PSoC5/PWM_1.c ****                                         
 586:.\Generated_Source\PSoC5/PWM_1.c ****     {
 587:.\Generated_Source\PSoC5/PWM_1.c ****         #if(PWM_1_UsingFixedFunction)
 588:.\Generated_Source\PSoC5/PWM_1.c ****             CY_SET_REG16(PWM_1_COMPARE2_LSB_PTR, compare);
 589:.\Generated_Source\PSoC5/PWM_1.c ****         #else
 590:.\Generated_Source\PSoC5/PWM_1.c ****             CY_SET_REG16(PWM_1_COMPARE2_LSB_PTR, compare);
  76              		.loc 1 590 0
  77 0034 8022     		movs	r2, #128
  78 0036 1A84     		strh	r2, [r3, #32]	@ movhi
  79 0038 7047     		bx	lr
  80              	.L3:
  81 003a 00BF     		.align	2
  82              	.L2:
  83 003c 71640040 		.word	1073767537
  84 0040 40680040 		.word	1073768512
  85              	.LBE17:
  86              	.LBE16:
  87              		.cfi_endproc
  88              	.LFE1:
  89              		.size	PWM_1_Init, .-PWM_1_Init
  90              		.section	.text.PWM_1_Enable,"ax",%progbits
  91              		.align	1
  92              		.global	PWM_1_Enable
  93              		.thumb
  94              		.thumb_func
ARM GAS  C:\Users\acer\AppData\Local\Temp\ccQ6iN8H.s 			page 13


  95              		.type	PWM_1_Enable, %function
  96              	PWM_1_Enable:
  97              	.LFB2:
 200:.\Generated_Source\PSoC5/PWM_1.c ****     /* Globally Enable the Fixed Function Block chosen */
  98              		.loc 1 200 0
  99              		.cfi_startproc
 100              		@ args = 0, pretend = 0, frame = 0
 101              		@ frame_needed = 0, uses_anonymous_args = 0
 102              		@ link register save eliminated.
 209:.\Generated_Source\PSoC5/PWM_1.c ****     #endif /* (PWM_1_UseControl || PWM_1_UsingFixedFunction) */
 103              		.loc 1 209 0
 104 0000 024A     		ldr	r2, .L5
 105 0002 1378     		ldrb	r3, [r2]	@ zero_extendqisi2
 106 0004 43F08003 		orr	r3, r3, #128
 107 0008 1370     		strb	r3, [r2]
 108 000a 7047     		bx	lr
 109              	.L6:
 110              		.align	2
 111              	.L5:
 112 000c 71640040 		.word	1073767537
 113              		.cfi_endproc
 114              	.LFE2:
 115              		.size	PWM_1_Enable, .-PWM_1_Enable
 116              		.section	.text.PWM_1_Start,"ax",%progbits
 117              		.align	1
 118              		.global	PWM_1_Start
 119              		.thumb
 120              		.thumb_func
 121              		.type	PWM_1_Start, %function
 122              	PWM_1_Start:
 123              	.LFB0:
  56:.\Generated_Source\PSoC5/PWM_1.c ****     /* If not Initialized then initialize all required hardware and software */
 124              		.loc 1 56 0
 125              		.cfi_startproc
 126              		@ args = 0, pretend = 0, frame = 0
 127              		@ frame_needed = 0, uses_anonymous_args = 0
 128 0000 10B5     		push	{r4, lr}
 129              		.cfi_def_cfa_offset 8
 130              		.cfi_offset 4, -8
 131              		.cfi_offset 14, -4
  58:.\Generated_Source\PSoC5/PWM_1.c ****     {
 132              		.loc 1 58 0
 133 0002 054C     		ldr	r4, .L10
 134 0004 2378     		ldrb	r3, [r4]	@ zero_extendqisi2
 135 0006 1BB9     		cbnz	r3, .L8
  60:.\Generated_Source\PSoC5/PWM_1.c ****         PWM_1_initVar = 1u;
 136              		.loc 1 60 0
 137 0008 FFF7FEFF 		bl	PWM_1_Init
 138              	.LVL6:
  61:.\Generated_Source\PSoC5/PWM_1.c ****     }
 139              		.loc 1 61 0
 140 000c 0123     		movs	r3, #1
 141 000e 2370     		strb	r3, [r4]
 142              	.L8:
  65:.\Generated_Source\PSoC5/PWM_1.c **** 
 143              		.loc 1 65 0
 144 0010 BDE81040 		pop	{r4, lr}
ARM GAS  C:\Users\acer\AppData\Local\Temp\ccQ6iN8H.s 			page 14


 145              		.cfi_restore 14
 146              		.cfi_restore 4
 147              		.cfi_def_cfa_offset 0
  63:.\Generated_Source\PSoC5/PWM_1.c **** 
 148              		.loc 1 63 0
 149 0014 FFF7FEBF 		b	PWM_1_Enable
 150              	.LVL7:
 151              	.L11:
 152              		.align	2
 153              	.L10:
 154 0018 00000000 		.word	.LANCHOR0
 155              		.cfi_endproc
 156              	.LFE0:
 157              		.size	PWM_1_Start, .-PWM_1_Start
 158              		.section	.text.PWM_1_Stop,"ax",%progbits
 159              		.align	1
 160              		.global	PWM_1_Stop
 161              		.thumb
 162              		.thumb_func
 163              		.type	PWM_1_Stop, %function
 164              	PWM_1_Stop:
 165              	.LFB3:
 234:.\Generated_Source\PSoC5/PWM_1.c ****     #if (PWM_1_UseControl || PWM_1_UsingFixedFunction)
 166              		.loc 1 234 0
 167              		.cfi_startproc
 168              		@ args = 0, pretend = 0, frame = 0
 169              		@ frame_needed = 0, uses_anonymous_args = 0
 170              		@ link register save eliminated.
 236:.\Generated_Source\PSoC5/PWM_1.c ****     #endif /* (PWM_1_UseControl || PWM_1_UsingFixedFunction) */
 171              		.loc 1 236 0
 172 0000 024A     		ldr	r2, .L13
 173 0002 1378     		ldrb	r3, [r2]	@ zero_extendqisi2
 174 0004 03F07F03 		and	r3, r3, #127
 175 0008 1370     		strb	r3, [r2]
 176 000a 7047     		bx	lr
 177              	.L14:
 178              		.align	2
 179              	.L13:
 180 000c 71640040 		.word	1073767537
 181              		.cfi_endproc
 182              	.LFE3:
 183              		.size	PWM_1_Stop, .-PWM_1_Stop
 184              		.section	.text.PWM_1_WriteCounter,"ax",%progbits
 185              		.align	1
 186              		.global	PWM_1_WriteCounter
 187              		.thumb
 188              		.thumb_func
 189              		.type	PWM_1_WriteCounter, %function
 190              	PWM_1_WriteCounter:
 191              	.LFB4:
 405:.\Generated_Source\PSoC5/PWM_1.c ****         CY_SET_REG16(PWM_1_COUNTER_LSB_PTR, counter);
 192              		.loc 1 405 0
 193              		.cfi_startproc
 194              		@ args = 0, pretend = 0, frame = 0
 195              		@ frame_needed = 0, uses_anonymous_args = 0
 196              		@ link register save eliminated.
 197              	.LVL8:
ARM GAS  C:\Users\acer\AppData\Local\Temp\ccQ6iN8H.s 			page 15


 406:.\Generated_Source\PSoC5/PWM_1.c ****     }
 198              		.loc 1 406 0
 199 0000 014B     		ldr	r3, .L16
 200 0002 1880     		strh	r0, [r3]	@ movhi
 201 0004 7047     		bx	lr
 202              	.L17:
 203 0006 00BF     		.align	2
 204              	.L16:
 205 0008 00680040 		.word	1073768448
 206              		.cfi_endproc
 207              	.LFE4:
 208              		.size	PWM_1_WriteCounter, .-PWM_1_WriteCounter
 209              		.section	.text.PWM_1_ReadCounter,"ax",%progbits
 210              		.align	1
 211              		.global	PWM_1_ReadCounter
 212              		.thumb
 213              		.thumb_func
 214              		.type	PWM_1_ReadCounter, %function
 215              	PWM_1_ReadCounter:
 216              	.LFB5:
 426:.\Generated_Source\PSoC5/PWM_1.c ****         /* Force capture by reading Accumulator */
 217              		.loc 1 426 0
 218              		.cfi_startproc
 219              		@ args = 0, pretend = 0, frame = 0
 220              		@ frame_needed = 0, uses_anonymous_args = 0
 221              		@ link register save eliminated.
 430:.\Generated_Source\PSoC5/PWM_1.c **** 
 222              		.loc 1 430 0
 223 0000 024B     		ldr	r3, .L19
 224 0002 1B78     		ldrb	r3, [r3]	@ zero_extendqisi2
 433:.\Generated_Source\PSoC5/PWM_1.c ****     }
 225              		.loc 1 433 0
 226 0004 024B     		ldr	r3, .L19+4
 227 0006 1888     		ldrh	r0, [r3]
 434:.\Generated_Source\PSoC5/PWM_1.c **** 
 228              		.loc 1 434 0
 229 0008 80B2     		uxth	r0, r0
 230 000a 7047     		bx	lr
 231              	.L20:
 232              		.align	2
 233              	.L19:
 234 000c 10640040 		.word	1073767440
 235 0010 A0680040 		.word	1073768608
 236              		.cfi_endproc
 237              	.LFE5:
 238              		.size	PWM_1_ReadCounter, .-PWM_1_ReadCounter
 239              		.section	.text.PWM_1_WritePeriod,"ax",%progbits
 240              		.align	1
 241              		.global	PWM_1_WritePeriod
 242              		.thumb
 243              		.thumb_func
 244              		.type	PWM_1_WritePeriod, %function
 245              	PWM_1_WritePeriod:
 246              	.LFB6:
 483:.\Generated_Source\PSoC5/PWM_1.c ****     #if(PWM_1_UsingFixedFunction)
 247              		.loc 1 483 0
 248              		.cfi_startproc
ARM GAS  C:\Users\acer\AppData\Local\Temp\ccQ6iN8H.s 			page 16


 249              		@ args = 0, pretend = 0, frame = 0
 250              		@ frame_needed = 0, uses_anonymous_args = 0
 251              		@ link register save eliminated.
 252              	.LVL9:
 487:.\Generated_Source\PSoC5/PWM_1.c ****     #endif /* (PWM_1_UsingFixedFunction) */
 253              		.loc 1 487 0
 254 0000 014B     		ldr	r3, .L22
 255 0002 1880     		strh	r0, [r3]	@ movhi
 256 0004 7047     		bx	lr
 257              	.L23:
 258 0006 00BF     		.align	2
 259              	.L22:
 260 0008 80680040 		.word	1073768576
 261              		.cfi_endproc
 262              	.LFE6:
 263              		.size	PWM_1_WritePeriod, .-PWM_1_WritePeriod
 264              		.section	.text.PWM_1_WriteCompare1,"ax",%progbits
 265              		.align	1
 266              		.global	PWM_1_WriteCompare1
 267              		.thumb
 268              		.thumb_func
 269              		.type	PWM_1_WriteCompare1, %function
 270              	PWM_1_WriteCompare1:
 271              	.LFB7:
 557:.\Generated_Source\PSoC5/PWM_1.c ****         #if(PWM_1_UsingFixedFunction)
 272              		.loc 1 557 0
 273              		.cfi_startproc
 274              		@ args = 0, pretend = 0, frame = 0
 275              		@ frame_needed = 0, uses_anonymous_args = 0
 276              		@ link register save eliminated.
 277              	.LVL10:
 561:.\Generated_Source\PSoC5/PWM_1.c ****         #endif /* (PWM_1_UsingFixedFunction) */
 278              		.loc 1 561 0
 279 0000 014B     		ldr	r3, .L25
 280 0002 1880     		strh	r0, [r3]	@ movhi
 281 0004 7047     		bx	lr
 282              	.L26:
 283 0006 00BF     		.align	2
 284              	.L25:
 285 0008 40680040 		.word	1073768512
 286              		.cfi_endproc
 287              	.LFE7:
 288              		.size	PWM_1_WriteCompare1, .-PWM_1_WriteCompare1
 289              		.section	.text.PWM_1_WriteCompare2,"ax",%progbits
 290              		.align	1
 291              		.global	PWM_1_WriteCompare2
 292              		.thumb
 293              		.thumb_func
 294              		.type	PWM_1_WriteCompare2, %function
 295              	PWM_1_WriteCompare2:
 296              	.LFB8:
 586:.\Generated_Source\PSoC5/PWM_1.c ****         #if(PWM_1_UsingFixedFunction)
 297              		.loc 1 586 0
 298              		.cfi_startproc
 299              		@ args = 0, pretend = 0, frame = 0
 300              		@ frame_needed = 0, uses_anonymous_args = 0
 301              		@ link register save eliminated.
ARM GAS  C:\Users\acer\AppData\Local\Temp\ccQ6iN8H.s 			page 17


 302              	.LVL11:
 303              		.loc 1 590 0
 304 0000 014B     		ldr	r3, .L28
 305 0002 1880     		strh	r0, [r3]	@ movhi
 306 0004 7047     		bx	lr
 307              	.L29:
 308 0006 00BF     		.align	2
 309              	.L28:
 310 0008 60680040 		.word	1073768544
 311              		.cfi_endproc
 312              	.LFE8:
 313              		.size	PWM_1_WriteCompare2, .-PWM_1_WriteCompare2
 314              		.section	.text.PWM_1_ReadControlRegister,"ax",%progbits
 315              		.align	1
 316              		.global	PWM_1_ReadControlRegister
 317              		.thumb
 318              		.thumb_func
 319              		.type	PWM_1_ReadControlRegister, %function
 320              	PWM_1_ReadControlRegister:
 321              	.LFB9:
 591:.\Generated_Source\PSoC5/PWM_1.c ****         #endif /* (PWM_1_UsingFixedFunction) */
 592:.\Generated_Source\PSoC5/PWM_1.c ****     }
 593:.\Generated_Source\PSoC5/PWM_1.c **** #endif /* UseOneCompareMode */
 594:.\Generated_Source\PSoC5/PWM_1.c **** 
 595:.\Generated_Source\PSoC5/PWM_1.c **** #if (PWM_1_DeadBandUsed)
 596:.\Generated_Source\PSoC5/PWM_1.c **** 
 597:.\Generated_Source\PSoC5/PWM_1.c **** 
 598:.\Generated_Source\PSoC5/PWM_1.c ****     /*******************************************************************************
 599:.\Generated_Source\PSoC5/PWM_1.c ****     * Function Name: PWM_1_WriteDeadTime
 600:.\Generated_Source\PSoC5/PWM_1.c ****     ********************************************************************************
 601:.\Generated_Source\PSoC5/PWM_1.c ****     *
 602:.\Generated_Source\PSoC5/PWM_1.c ****     * Summary:
 603:.\Generated_Source\PSoC5/PWM_1.c ****     *  This function writes the dead-band counts to the corresponding register
 604:.\Generated_Source\PSoC5/PWM_1.c ****     *
 605:.\Generated_Source\PSoC5/PWM_1.c ****     * Parameters:
 606:.\Generated_Source\PSoC5/PWM_1.c ****     *  deadtime:  Number of counts for dead time
 607:.\Generated_Source\PSoC5/PWM_1.c ****     *
 608:.\Generated_Source\PSoC5/PWM_1.c ****     * Return:
 609:.\Generated_Source\PSoC5/PWM_1.c ****     *  None
 610:.\Generated_Source\PSoC5/PWM_1.c ****     *
 611:.\Generated_Source\PSoC5/PWM_1.c ****     *******************************************************************************/
 612:.\Generated_Source\PSoC5/PWM_1.c ****     void PWM_1_WriteDeadTime(uint8 deadtime) 
 613:.\Generated_Source\PSoC5/PWM_1.c ****     {
 614:.\Generated_Source\PSoC5/PWM_1.c ****         /* If using the Dead Band 1-255 mode then just write the register */
 615:.\Generated_Source\PSoC5/PWM_1.c ****         #if(!PWM_1_DeadBand2_4)
 616:.\Generated_Source\PSoC5/PWM_1.c ****             CY_SET_REG8(PWM_1_DEADBAND_COUNT_PTR, deadtime);
 617:.\Generated_Source\PSoC5/PWM_1.c ****         #else
 618:.\Generated_Source\PSoC5/PWM_1.c ****             /* Otherwise the data has to be masked and offset */
 619:.\Generated_Source\PSoC5/PWM_1.c ****             /* Clear existing data */
 620:.\Generated_Source\PSoC5/PWM_1.c ****             PWM_1_DEADBAND_COUNT &= ((uint8)(~PWM_1_DEADBAND_COUNT_MASK));
 621:.\Generated_Source\PSoC5/PWM_1.c **** 
 622:.\Generated_Source\PSoC5/PWM_1.c ****             /* Set new dead time */
 623:.\Generated_Source\PSoC5/PWM_1.c ****             #if(PWM_1_DEADBAND_COUNT_SHIFT)
 624:.\Generated_Source\PSoC5/PWM_1.c ****                 PWM_1_DEADBAND_COUNT |= ((uint8)((uint8)deadtime << PWM_1_DEADBAND_COUNT_SHIFT)) &
 625:.\Generated_Source\PSoC5/PWM_1.c ****                                                     PWM_1_DEADBAND_COUNT_MASK;
 626:.\Generated_Source\PSoC5/PWM_1.c ****             #else
 627:.\Generated_Source\PSoC5/PWM_1.c ****                 PWM_1_DEADBAND_COUNT |= deadtime & PWM_1_DEADBAND_COUNT_MASK;
ARM GAS  C:\Users\acer\AppData\Local\Temp\ccQ6iN8H.s 			page 18


 628:.\Generated_Source\PSoC5/PWM_1.c ****             #endif /* (PWM_1_DEADBAND_COUNT_SHIFT) */
 629:.\Generated_Source\PSoC5/PWM_1.c **** 
 630:.\Generated_Source\PSoC5/PWM_1.c ****         #endif /* (!PWM_1_DeadBand2_4) */
 631:.\Generated_Source\PSoC5/PWM_1.c ****     }
 632:.\Generated_Source\PSoC5/PWM_1.c **** 
 633:.\Generated_Source\PSoC5/PWM_1.c **** 
 634:.\Generated_Source\PSoC5/PWM_1.c ****     /*******************************************************************************
 635:.\Generated_Source\PSoC5/PWM_1.c ****     * Function Name: PWM_1_ReadDeadTime
 636:.\Generated_Source\PSoC5/PWM_1.c ****     ********************************************************************************
 637:.\Generated_Source\PSoC5/PWM_1.c ****     *
 638:.\Generated_Source\PSoC5/PWM_1.c ****     * Summary:
 639:.\Generated_Source\PSoC5/PWM_1.c ****     *  This function reads the dead-band counts from the corresponding register
 640:.\Generated_Source\PSoC5/PWM_1.c ****     *
 641:.\Generated_Source\PSoC5/PWM_1.c ****     * Parameters:
 642:.\Generated_Source\PSoC5/PWM_1.c ****     *  None
 643:.\Generated_Source\PSoC5/PWM_1.c ****     *
 644:.\Generated_Source\PSoC5/PWM_1.c ****     * Return:
 645:.\Generated_Source\PSoC5/PWM_1.c ****     *  Dead Band Counts
 646:.\Generated_Source\PSoC5/PWM_1.c ****     *
 647:.\Generated_Source\PSoC5/PWM_1.c ****     *******************************************************************************/
 648:.\Generated_Source\PSoC5/PWM_1.c ****     uint8 PWM_1_ReadDeadTime(void) 
 649:.\Generated_Source\PSoC5/PWM_1.c ****     {
 650:.\Generated_Source\PSoC5/PWM_1.c ****         /* If using the Dead Band 1-255 mode then just read the register */
 651:.\Generated_Source\PSoC5/PWM_1.c ****         #if(!PWM_1_DeadBand2_4)
 652:.\Generated_Source\PSoC5/PWM_1.c ****             return (CY_GET_REG8(PWM_1_DEADBAND_COUNT_PTR));
 653:.\Generated_Source\PSoC5/PWM_1.c ****         #else
 654:.\Generated_Source\PSoC5/PWM_1.c **** 
 655:.\Generated_Source\PSoC5/PWM_1.c ****             /* Otherwise the data has to be masked and offset */
 656:.\Generated_Source\PSoC5/PWM_1.c ****             #if(PWM_1_DEADBAND_COUNT_SHIFT)
 657:.\Generated_Source\PSoC5/PWM_1.c ****                 return ((uint8)(((uint8)(PWM_1_DEADBAND_COUNT & PWM_1_DEADBAND_COUNT_MASK)) >>
 658:.\Generated_Source\PSoC5/PWM_1.c ****                                                                            PWM_1_DEADBAND_COUNT_SHI
 659:.\Generated_Source\PSoC5/PWM_1.c ****             #else
 660:.\Generated_Source\PSoC5/PWM_1.c ****                 return (PWM_1_DEADBAND_COUNT & PWM_1_DEADBAND_COUNT_MASK);
 661:.\Generated_Source\PSoC5/PWM_1.c ****             #endif /* (PWM_1_DEADBAND_COUNT_SHIFT) */
 662:.\Generated_Source\PSoC5/PWM_1.c ****         #endif /* (!PWM_1_DeadBand2_4) */
 663:.\Generated_Source\PSoC5/PWM_1.c ****     }
 664:.\Generated_Source\PSoC5/PWM_1.c **** #endif /* DeadBandUsed */
 665:.\Generated_Source\PSoC5/PWM_1.c **** 
 666:.\Generated_Source\PSoC5/PWM_1.c **** #if (PWM_1_UseStatus || PWM_1_UsingFixedFunction)
 667:.\Generated_Source\PSoC5/PWM_1.c **** 
 668:.\Generated_Source\PSoC5/PWM_1.c **** 
 669:.\Generated_Source\PSoC5/PWM_1.c ****     /*******************************************************************************
 670:.\Generated_Source\PSoC5/PWM_1.c ****     * Function Name: PWM_1_SetInterruptMode
 671:.\Generated_Source\PSoC5/PWM_1.c ****     ********************************************************************************
 672:.\Generated_Source\PSoC5/PWM_1.c ****     *
 673:.\Generated_Source\PSoC5/PWM_1.c ****     * Summary:
 674:.\Generated_Source\PSoC5/PWM_1.c ****     *  This function configures the interrupts mask control of theinterrupt
 675:.\Generated_Source\PSoC5/PWM_1.c ****     *  source status register.
 676:.\Generated_Source\PSoC5/PWM_1.c ****     *
 677:.\Generated_Source\PSoC5/PWM_1.c ****     * Parameters:
 678:.\Generated_Source\PSoC5/PWM_1.c ****     *  uint8 interruptMode: Bit field containing the interrupt sources enabled
 679:.\Generated_Source\PSoC5/PWM_1.c ****     *
 680:.\Generated_Source\PSoC5/PWM_1.c ****     * Return:
 681:.\Generated_Source\PSoC5/PWM_1.c ****     *  None
 682:.\Generated_Source\PSoC5/PWM_1.c ****     *
 683:.\Generated_Source\PSoC5/PWM_1.c ****     *******************************************************************************/
 684:.\Generated_Source\PSoC5/PWM_1.c ****     void PWM_1_SetInterruptMode(uint8 interruptMode) 
ARM GAS  C:\Users\acer\AppData\Local\Temp\ccQ6iN8H.s 			page 19


 685:.\Generated_Source\PSoC5/PWM_1.c ****     {
 686:.\Generated_Source\PSoC5/PWM_1.c ****         CY_SET_REG8(PWM_1_STATUS_MASK_PTR, interruptMode);
 687:.\Generated_Source\PSoC5/PWM_1.c ****     }
 688:.\Generated_Source\PSoC5/PWM_1.c **** 
 689:.\Generated_Source\PSoC5/PWM_1.c **** 
 690:.\Generated_Source\PSoC5/PWM_1.c ****     /*******************************************************************************
 691:.\Generated_Source\PSoC5/PWM_1.c ****     * Function Name: PWM_1_ReadStatusRegister
 692:.\Generated_Source\PSoC5/PWM_1.c ****     ********************************************************************************
 693:.\Generated_Source\PSoC5/PWM_1.c ****     *
 694:.\Generated_Source\PSoC5/PWM_1.c ****     * Summary:
 695:.\Generated_Source\PSoC5/PWM_1.c ****     *  This function returns the current state of the status register.
 696:.\Generated_Source\PSoC5/PWM_1.c ****     *
 697:.\Generated_Source\PSoC5/PWM_1.c ****     * Parameters:
 698:.\Generated_Source\PSoC5/PWM_1.c ****     *  None
 699:.\Generated_Source\PSoC5/PWM_1.c ****     *
 700:.\Generated_Source\PSoC5/PWM_1.c ****     * Return:
 701:.\Generated_Source\PSoC5/PWM_1.c ****     *  uint8 : Current status register value. The status register bits are:
 702:.\Generated_Source\PSoC5/PWM_1.c ****     *  [7:6] : Unused(0)
 703:.\Generated_Source\PSoC5/PWM_1.c ****     *  [5]   : Kill event output
 704:.\Generated_Source\PSoC5/PWM_1.c ****     *  [4]   : FIFO not empty
 705:.\Generated_Source\PSoC5/PWM_1.c ****     *  [3]   : FIFO full
 706:.\Generated_Source\PSoC5/PWM_1.c ****     *  [2]   : Terminal count
 707:.\Generated_Source\PSoC5/PWM_1.c ****     *  [1]   : Compare output 2
 708:.\Generated_Source\PSoC5/PWM_1.c ****     *  [0]   : Compare output 1
 709:.\Generated_Source\PSoC5/PWM_1.c ****     *
 710:.\Generated_Source\PSoC5/PWM_1.c ****     *******************************************************************************/
 711:.\Generated_Source\PSoC5/PWM_1.c ****     uint8 PWM_1_ReadStatusRegister(void) 
 712:.\Generated_Source\PSoC5/PWM_1.c ****     {
 713:.\Generated_Source\PSoC5/PWM_1.c ****         return (CY_GET_REG8(PWM_1_STATUS_PTR));
 714:.\Generated_Source\PSoC5/PWM_1.c ****     }
 715:.\Generated_Source\PSoC5/PWM_1.c **** 
 716:.\Generated_Source\PSoC5/PWM_1.c **** #endif /* (PWM_1_UseStatus || PWM_1_UsingFixedFunction) */
 717:.\Generated_Source\PSoC5/PWM_1.c **** 
 718:.\Generated_Source\PSoC5/PWM_1.c **** 
 719:.\Generated_Source\PSoC5/PWM_1.c **** #if (PWM_1_UseControl)
 720:.\Generated_Source\PSoC5/PWM_1.c **** 
 721:.\Generated_Source\PSoC5/PWM_1.c **** 
 722:.\Generated_Source\PSoC5/PWM_1.c ****     /*******************************************************************************
 723:.\Generated_Source\PSoC5/PWM_1.c ****     * Function Name: PWM_1_ReadControlRegister
 724:.\Generated_Source\PSoC5/PWM_1.c ****     ********************************************************************************
 725:.\Generated_Source\PSoC5/PWM_1.c ****     *
 726:.\Generated_Source\PSoC5/PWM_1.c ****     * Summary:
 727:.\Generated_Source\PSoC5/PWM_1.c ****     *  Returns the current state of the control register. This API is available
 728:.\Generated_Source\PSoC5/PWM_1.c ****     *  only if the control register is not removed.
 729:.\Generated_Source\PSoC5/PWM_1.c ****     *
 730:.\Generated_Source\PSoC5/PWM_1.c ****     * Parameters:
 731:.\Generated_Source\PSoC5/PWM_1.c ****     *  None
 732:.\Generated_Source\PSoC5/PWM_1.c ****     *
 733:.\Generated_Source\PSoC5/PWM_1.c ****     * Return:
 734:.\Generated_Source\PSoC5/PWM_1.c ****     *  uint8 : Current control register value
 735:.\Generated_Source\PSoC5/PWM_1.c ****     *
 736:.\Generated_Source\PSoC5/PWM_1.c ****     *******************************************************************************/
 737:.\Generated_Source\PSoC5/PWM_1.c ****     uint8 PWM_1_ReadControlRegister(void) 
 738:.\Generated_Source\PSoC5/PWM_1.c ****     {
 322              		.loc 1 738 0
 323              		.cfi_startproc
 324              		@ args = 0, pretend = 0, frame = 0
ARM GAS  C:\Users\acer\AppData\Local\Temp\ccQ6iN8H.s 			page 20


 325              		@ frame_needed = 0, uses_anonymous_args = 0
 326              		@ link register save eliminated.
 739:.\Generated_Source\PSoC5/PWM_1.c ****         uint8 result;
 740:.\Generated_Source\PSoC5/PWM_1.c **** 
 741:.\Generated_Source\PSoC5/PWM_1.c ****         result = CY_GET_REG8(PWM_1_CONTROL_PTR);
 327              		.loc 1 741 0
 328 0000 014B     		ldr	r3, .L31
 329 0002 1878     		ldrb	r0, [r3]	@ zero_extendqisi2
 330              	.LVL12:
 742:.\Generated_Source\PSoC5/PWM_1.c ****         return (result);
 743:.\Generated_Source\PSoC5/PWM_1.c ****     }
 331              		.loc 1 743 0
 332 0004 7047     		bx	lr
 333              	.L32:
 334 0006 00BF     		.align	2
 335              	.L31:
 336 0008 71640040 		.word	1073767537
 337              		.cfi_endproc
 338              	.LFE9:
 339              		.size	PWM_1_ReadControlRegister, .-PWM_1_ReadControlRegister
 340              		.section	.text.PWM_1_WriteControlRegister,"ax",%progbits
 341              		.align	1
 342              		.global	PWM_1_WriteControlRegister
 343              		.thumb
 344              		.thumb_func
 345              		.type	PWM_1_WriteControlRegister, %function
 346              	PWM_1_WriteControlRegister:
 347              	.LFB10:
 744:.\Generated_Source\PSoC5/PWM_1.c **** 
 745:.\Generated_Source\PSoC5/PWM_1.c **** 
 746:.\Generated_Source\PSoC5/PWM_1.c ****     /*******************************************************************************
 747:.\Generated_Source\PSoC5/PWM_1.c ****     * Function Name: PWM_1_WriteControlRegister
 748:.\Generated_Source\PSoC5/PWM_1.c ****     ********************************************************************************
 749:.\Generated_Source\PSoC5/PWM_1.c ****     *
 750:.\Generated_Source\PSoC5/PWM_1.c ****     * Summary:
 751:.\Generated_Source\PSoC5/PWM_1.c ****     *  Sets the bit field of the control register. This API is available only if
 752:.\Generated_Source\PSoC5/PWM_1.c ****     *  the control register is not removed.
 753:.\Generated_Source\PSoC5/PWM_1.c ****     *
 754:.\Generated_Source\PSoC5/PWM_1.c ****     * Parameters:
 755:.\Generated_Source\PSoC5/PWM_1.c ****     *  uint8 control: Control register bit field, The status register bits are:
 756:.\Generated_Source\PSoC5/PWM_1.c ****     *  [7]   : PWM Enable
 757:.\Generated_Source\PSoC5/PWM_1.c ****     *  [6]   : Reset
 758:.\Generated_Source\PSoC5/PWM_1.c ****     *  [5:3] : Compare Mode2
 759:.\Generated_Source\PSoC5/PWM_1.c ****     *  [2:0] : Compare Mode2
 760:.\Generated_Source\PSoC5/PWM_1.c ****     *
 761:.\Generated_Source\PSoC5/PWM_1.c ****     * Return:
 762:.\Generated_Source\PSoC5/PWM_1.c ****     *  None
 763:.\Generated_Source\PSoC5/PWM_1.c ****     *
 764:.\Generated_Source\PSoC5/PWM_1.c ****     *******************************************************************************/
 765:.\Generated_Source\PSoC5/PWM_1.c ****     void PWM_1_WriteControlRegister(uint8 control) 
 766:.\Generated_Source\PSoC5/PWM_1.c ****     {
 348              		.loc 1 766 0
 349              		.cfi_startproc
 350              		@ args = 0, pretend = 0, frame = 0
 351              		@ frame_needed = 0, uses_anonymous_args = 0
 352              		@ link register save eliminated.
 353              	.LVL13:
ARM GAS  C:\Users\acer\AppData\Local\Temp\ccQ6iN8H.s 			page 21


 767:.\Generated_Source\PSoC5/PWM_1.c ****         CY_SET_REG8(PWM_1_CONTROL_PTR, control);
 354              		.loc 1 767 0
 355 0000 014B     		ldr	r3, .L34
 356 0002 1870     		strb	r0, [r3]
 357 0004 7047     		bx	lr
 358              	.L35:
 359 0006 00BF     		.align	2
 360              	.L34:
 361 0008 71640040 		.word	1073767537
 362              		.cfi_endproc
 363              	.LFE10:
 364              		.size	PWM_1_WriteControlRegister, .-PWM_1_WriteControlRegister
 365              		.section	.text.PWM_1_ReadCapture,"ax",%progbits
 366              		.align	1
 367              		.global	PWM_1_ReadCapture
 368              		.thumb
 369              		.thumb_func
 370              		.type	PWM_1_ReadCapture, %function
 371              	PWM_1_ReadCapture:
 372              	.LFB11:
 768:.\Generated_Source\PSoC5/PWM_1.c ****     }
 769:.\Generated_Source\PSoC5/PWM_1.c **** 
 770:.\Generated_Source\PSoC5/PWM_1.c **** #endif /* (PWM_1_UseControl) */
 771:.\Generated_Source\PSoC5/PWM_1.c **** 
 772:.\Generated_Source\PSoC5/PWM_1.c **** 
 773:.\Generated_Source\PSoC5/PWM_1.c **** #if (!PWM_1_UsingFixedFunction)
 774:.\Generated_Source\PSoC5/PWM_1.c **** 
 775:.\Generated_Source\PSoC5/PWM_1.c **** 
 776:.\Generated_Source\PSoC5/PWM_1.c ****     /*******************************************************************************
 777:.\Generated_Source\PSoC5/PWM_1.c ****     * Function Name: PWM_1_ReadCapture
 778:.\Generated_Source\PSoC5/PWM_1.c ****     ********************************************************************************
 779:.\Generated_Source\PSoC5/PWM_1.c ****     *
 780:.\Generated_Source\PSoC5/PWM_1.c ****     * Summary:
 781:.\Generated_Source\PSoC5/PWM_1.c ****     *  Reads the capture value from the capture FIFO.
 782:.\Generated_Source\PSoC5/PWM_1.c ****     *
 783:.\Generated_Source\PSoC5/PWM_1.c ****     * Parameters:
 784:.\Generated_Source\PSoC5/PWM_1.c ****     *  None
 785:.\Generated_Source\PSoC5/PWM_1.c ****     *
 786:.\Generated_Source\PSoC5/PWM_1.c ****     * Return:
 787:.\Generated_Source\PSoC5/PWM_1.c ****     *  uint8/uint16: The current capture value
 788:.\Generated_Source\PSoC5/PWM_1.c ****     *
 789:.\Generated_Source\PSoC5/PWM_1.c ****     *******************************************************************************/
 790:.\Generated_Source\PSoC5/PWM_1.c ****     uint16 PWM_1_ReadCapture(void) 
 791:.\Generated_Source\PSoC5/PWM_1.c ****     {
 373              		.loc 1 791 0
 374              		.cfi_startproc
 375              		@ args = 0, pretend = 0, frame = 0
 376              		@ frame_needed = 0, uses_anonymous_args = 0
 377              		@ link register save eliminated.
 792:.\Generated_Source\PSoC5/PWM_1.c ****         return (CY_GET_REG16(PWM_1_CAPTURE_LSB_PTR));
 378              		.loc 1 792 0
 379 0000 014B     		ldr	r3, .L37
 380 0002 1888     		ldrh	r0, [r3]
 793:.\Generated_Source\PSoC5/PWM_1.c ****     }
 381              		.loc 1 793 0
 382 0004 80B2     		uxth	r0, r0
 383 0006 7047     		bx	lr
ARM GAS  C:\Users\acer\AppData\Local\Temp\ccQ6iN8H.s 			page 22


 384              	.L38:
 385              		.align	2
 386              	.L37:
 387 0008 A0680040 		.word	1073768608
 388              		.cfi_endproc
 389              	.LFE11:
 390              		.size	PWM_1_ReadCapture, .-PWM_1_ReadCapture
 391              		.section	.text.PWM_1_ReadCompare1,"ax",%progbits
 392              		.align	1
 393              		.global	PWM_1_ReadCompare1
 394              		.thumb
 395              		.thumb_func
 396              		.type	PWM_1_ReadCompare1, %function
 397              	PWM_1_ReadCompare1:
 398              	.LFB12:
 794:.\Generated_Source\PSoC5/PWM_1.c **** 
 795:.\Generated_Source\PSoC5/PWM_1.c **** #endif /* (!PWM_1_UsingFixedFunction) */
 796:.\Generated_Source\PSoC5/PWM_1.c **** 
 797:.\Generated_Source\PSoC5/PWM_1.c **** 
 798:.\Generated_Source\PSoC5/PWM_1.c **** #if (PWM_1_UseOneCompareMode)
 799:.\Generated_Source\PSoC5/PWM_1.c **** 
 800:.\Generated_Source\PSoC5/PWM_1.c **** 
 801:.\Generated_Source\PSoC5/PWM_1.c ****     /*******************************************************************************
 802:.\Generated_Source\PSoC5/PWM_1.c ****     * Function Name: PWM_1_ReadCompare
 803:.\Generated_Source\PSoC5/PWM_1.c ****     ********************************************************************************
 804:.\Generated_Source\PSoC5/PWM_1.c ****     *
 805:.\Generated_Source\PSoC5/PWM_1.c ****     * Summary:
 806:.\Generated_Source\PSoC5/PWM_1.c ****     *  Reads the compare value for the compare output when the PWM Mode parameter is
 807:.\Generated_Source\PSoC5/PWM_1.c ****     *  set to Dither mode, Center Aligned mode, or One Output mode.
 808:.\Generated_Source\PSoC5/PWM_1.c ****     *
 809:.\Generated_Source\PSoC5/PWM_1.c ****     * Parameters:
 810:.\Generated_Source\PSoC5/PWM_1.c ****     *  None
 811:.\Generated_Source\PSoC5/PWM_1.c ****     *
 812:.\Generated_Source\PSoC5/PWM_1.c ****     * Return:
 813:.\Generated_Source\PSoC5/PWM_1.c ****     *  uint8/uint16: Current compare value
 814:.\Generated_Source\PSoC5/PWM_1.c ****     *
 815:.\Generated_Source\PSoC5/PWM_1.c ****     *******************************************************************************/
 816:.\Generated_Source\PSoC5/PWM_1.c ****     uint16 PWM_1_ReadCompare(void) 
 817:.\Generated_Source\PSoC5/PWM_1.c ****     {
 818:.\Generated_Source\PSoC5/PWM_1.c ****         #if(PWM_1_UsingFixedFunction)
 819:.\Generated_Source\PSoC5/PWM_1.c ****             return ((uint16)CY_GET_REG16(PWM_1_COMPARE1_LSB_PTR));
 820:.\Generated_Source\PSoC5/PWM_1.c ****         #else
 821:.\Generated_Source\PSoC5/PWM_1.c ****             return (CY_GET_REG16(PWM_1_COMPARE1_LSB_PTR));
 822:.\Generated_Source\PSoC5/PWM_1.c ****         #endif /* (PWM_1_UsingFixedFunction) */
 823:.\Generated_Source\PSoC5/PWM_1.c ****     }
 824:.\Generated_Source\PSoC5/PWM_1.c **** 
 825:.\Generated_Source\PSoC5/PWM_1.c **** #else
 826:.\Generated_Source\PSoC5/PWM_1.c **** 
 827:.\Generated_Source\PSoC5/PWM_1.c **** 
 828:.\Generated_Source\PSoC5/PWM_1.c ****     /*******************************************************************************
 829:.\Generated_Source\PSoC5/PWM_1.c ****     * Function Name: PWM_1_ReadCompare1
 830:.\Generated_Source\PSoC5/PWM_1.c ****     ********************************************************************************
 831:.\Generated_Source\PSoC5/PWM_1.c ****     *
 832:.\Generated_Source\PSoC5/PWM_1.c ****     * Summary:
 833:.\Generated_Source\PSoC5/PWM_1.c ****     *  Reads the compare value for the compare1 output.
 834:.\Generated_Source\PSoC5/PWM_1.c ****     *
 835:.\Generated_Source\PSoC5/PWM_1.c ****     * Parameters:
ARM GAS  C:\Users\acer\AppData\Local\Temp\ccQ6iN8H.s 			page 23


 836:.\Generated_Source\PSoC5/PWM_1.c ****     *  None
 837:.\Generated_Source\PSoC5/PWM_1.c ****     *
 838:.\Generated_Source\PSoC5/PWM_1.c ****     * Return:
 839:.\Generated_Source\PSoC5/PWM_1.c ****     *  uint8/uint16: Current compare value.
 840:.\Generated_Source\PSoC5/PWM_1.c ****     *
 841:.\Generated_Source\PSoC5/PWM_1.c ****     *******************************************************************************/
 842:.\Generated_Source\PSoC5/PWM_1.c ****     uint16 PWM_1_ReadCompare1(void) 
 843:.\Generated_Source\PSoC5/PWM_1.c ****     {
 399              		.loc 1 843 0
 400              		.cfi_startproc
 401              		@ args = 0, pretend = 0, frame = 0
 402              		@ frame_needed = 0, uses_anonymous_args = 0
 403              		@ link register save eliminated.
 844:.\Generated_Source\PSoC5/PWM_1.c ****         return (CY_GET_REG16(PWM_1_COMPARE1_LSB_PTR));
 404              		.loc 1 844 0
 405 0000 014B     		ldr	r3, .L40
 406 0002 1888     		ldrh	r0, [r3]
 845:.\Generated_Source\PSoC5/PWM_1.c ****     }
 407              		.loc 1 845 0
 408 0004 80B2     		uxth	r0, r0
 409 0006 7047     		bx	lr
 410              	.L41:
 411              		.align	2
 412              	.L40:
 413 0008 40680040 		.word	1073768512
 414              		.cfi_endproc
 415              	.LFE12:
 416              		.size	PWM_1_ReadCompare1, .-PWM_1_ReadCompare1
 417              		.section	.text.PWM_1_ReadCompare2,"ax",%progbits
 418              		.align	1
 419              		.global	PWM_1_ReadCompare2
 420              		.thumb
 421              		.thumb_func
 422              		.type	PWM_1_ReadCompare2, %function
 423              	PWM_1_ReadCompare2:
 424              	.LFB13:
 846:.\Generated_Source\PSoC5/PWM_1.c **** 
 847:.\Generated_Source\PSoC5/PWM_1.c **** 
 848:.\Generated_Source\PSoC5/PWM_1.c ****     /*******************************************************************************
 849:.\Generated_Source\PSoC5/PWM_1.c ****     * Function Name: PWM_1_ReadCompare2
 850:.\Generated_Source\PSoC5/PWM_1.c ****     ********************************************************************************
 851:.\Generated_Source\PSoC5/PWM_1.c ****     *
 852:.\Generated_Source\PSoC5/PWM_1.c ****     * Summary:
 853:.\Generated_Source\PSoC5/PWM_1.c ****     *  Reads the compare value for the compare2 output.
 854:.\Generated_Source\PSoC5/PWM_1.c ****     *
 855:.\Generated_Source\PSoC5/PWM_1.c ****     * Parameters:
 856:.\Generated_Source\PSoC5/PWM_1.c ****     *  None
 857:.\Generated_Source\PSoC5/PWM_1.c ****     *
 858:.\Generated_Source\PSoC5/PWM_1.c ****     * Return:
 859:.\Generated_Source\PSoC5/PWM_1.c ****     *  uint8/uint16: Current compare value.
 860:.\Generated_Source\PSoC5/PWM_1.c ****     *
 861:.\Generated_Source\PSoC5/PWM_1.c ****     *******************************************************************************/
 862:.\Generated_Source\PSoC5/PWM_1.c ****     uint16 PWM_1_ReadCompare2(void) 
 863:.\Generated_Source\PSoC5/PWM_1.c ****     {
 425              		.loc 1 863 0
 426              		.cfi_startproc
 427              		@ args = 0, pretend = 0, frame = 0
ARM GAS  C:\Users\acer\AppData\Local\Temp\ccQ6iN8H.s 			page 24


 428              		@ frame_needed = 0, uses_anonymous_args = 0
 429              		@ link register save eliminated.
 864:.\Generated_Source\PSoC5/PWM_1.c ****         return (CY_GET_REG16(PWM_1_COMPARE2_LSB_PTR));
 430              		.loc 1 864 0
 431 0000 014B     		ldr	r3, .L43
 432 0002 1888     		ldrh	r0, [r3]
 865:.\Generated_Source\PSoC5/PWM_1.c ****     }
 433              		.loc 1 865 0
 434 0004 80B2     		uxth	r0, r0
 435 0006 7047     		bx	lr
 436              	.L44:
 437              		.align	2
 438              	.L43:
 439 0008 60680040 		.word	1073768544
 440              		.cfi_endproc
 441              	.LFE13:
 442              		.size	PWM_1_ReadCompare2, .-PWM_1_ReadCompare2
 443              		.section	.text.PWM_1_ReadPeriod,"ax",%progbits
 444              		.align	1
 445              		.global	PWM_1_ReadPeriod
 446              		.thumb
 447              		.thumb_func
 448              		.type	PWM_1_ReadPeriod, %function
 449              	PWM_1_ReadPeriod:
 450              	.LFB14:
 866:.\Generated_Source\PSoC5/PWM_1.c **** 
 867:.\Generated_Source\PSoC5/PWM_1.c **** #endif /* (PWM_1_UseOneCompareMode) */
 868:.\Generated_Source\PSoC5/PWM_1.c **** 
 869:.\Generated_Source\PSoC5/PWM_1.c **** 
 870:.\Generated_Source\PSoC5/PWM_1.c **** /*******************************************************************************
 871:.\Generated_Source\PSoC5/PWM_1.c **** * Function Name: PWM_1_ReadPeriod
 872:.\Generated_Source\PSoC5/PWM_1.c **** ********************************************************************************
 873:.\Generated_Source\PSoC5/PWM_1.c **** *
 874:.\Generated_Source\PSoC5/PWM_1.c **** * Summary:
 875:.\Generated_Source\PSoC5/PWM_1.c **** *  Reads the period value used by the PWM hardware.
 876:.\Generated_Source\PSoC5/PWM_1.c **** *
 877:.\Generated_Source\PSoC5/PWM_1.c **** * Parameters:
 878:.\Generated_Source\PSoC5/PWM_1.c **** *  None
 879:.\Generated_Source\PSoC5/PWM_1.c **** *
 880:.\Generated_Source\PSoC5/PWM_1.c **** * Return:
 881:.\Generated_Source\PSoC5/PWM_1.c **** *  uint8/16: Period value
 882:.\Generated_Source\PSoC5/PWM_1.c **** *
 883:.\Generated_Source\PSoC5/PWM_1.c **** *******************************************************************************/
 884:.\Generated_Source\PSoC5/PWM_1.c **** uint16 PWM_1_ReadPeriod(void) 
 885:.\Generated_Source\PSoC5/PWM_1.c **** {
 451              		.loc 1 885 0
 452              		.cfi_startproc
 453              		@ args = 0, pretend = 0, frame = 0
 454              		@ frame_needed = 0, uses_anonymous_args = 0
 455              		@ link register save eliminated.
 886:.\Generated_Source\PSoC5/PWM_1.c ****     #if(PWM_1_UsingFixedFunction)
 887:.\Generated_Source\PSoC5/PWM_1.c ****         return ((uint16)CY_GET_REG16(PWM_1_PERIOD_LSB_PTR));
 888:.\Generated_Source\PSoC5/PWM_1.c ****     #else
 889:.\Generated_Source\PSoC5/PWM_1.c ****         return (CY_GET_REG16(PWM_1_PERIOD_LSB_PTR));
 456              		.loc 1 889 0
 457 0000 014B     		ldr	r3, .L46
 458 0002 1888     		ldrh	r0, [r3]
ARM GAS  C:\Users\acer\AppData\Local\Temp\ccQ6iN8H.s 			page 25


 890:.\Generated_Source\PSoC5/PWM_1.c ****     #endif /* (PWM_1_UsingFixedFunction) */
 891:.\Generated_Source\PSoC5/PWM_1.c **** }
 459              		.loc 1 891 0
 460 0004 80B2     		uxth	r0, r0
 461 0006 7047     		bx	lr
 462              	.L47:
 463              		.align	2
 464              	.L46:
 465 0008 80680040 		.word	1073768576
 466              		.cfi_endproc
 467              	.LFE14:
 468              		.size	PWM_1_ReadPeriod, .-PWM_1_ReadPeriod
 469              		.global	PWM_1_initVar
 470              		.bss
 471              		.set	.LANCHOR0,. + 0
 472              		.type	PWM_1_initVar, %object
 473              		.size	PWM_1_initVar, 1
 474              	PWM_1_initVar:
 475 0000 00       		.space	1
 476              		.text
 477              	.Letext0:
 478              		.file 2 ".\\Generated_Source\\PSoC5\\cytypes.h"