ARM GAS  C:\Users\acer\AppData\Local\Temp\ccvJ6Cjo.s 			page 1


   1              		.syntax unified
   2              		.cpu cortex-m3
   3              		.fpu softvfp
   4              		.eabi_attribute 20, 1
   5              		.eabi_attribute 21, 1
   6              		.eabi_attribute 23, 3
   7              		.eabi_attribute 24, 1
   8              		.eabi_attribute 25, 1
   9              		.eabi_attribute 26, 1
  10              		.eabi_attribute 30, 4
  11              		.eabi_attribute 34, 1
  12              		.eabi_attribute 18, 4
  13              		.thumb
  14              		.file	"sd_card.c"
  15              		.text
  16              	.Ltext0:
  17              		.cfi_sections	.debug_frame
  18              		.section	.text.SDC_InitializeCard,"ax",%progbits
  19              		.align	1
  20              		.global	SDC_InitializeCard
  21              		.thumb
  22              		.thumb_func
  23              		.type	SDC_InitializeCard, %function
  24              	SDC_InitializeCard:
  25              	.LFB56:
  26              		.file 1 ".\\sd_card.c"
   1:.\sd_card.c   **** 
   2:.\sd_card.c   **** 
   3:.\sd_card.c   **** /***************************************************************************
   4:.\sd_card.c   **** * HEADER-FILES (Only those that are needed in this file)
   5:.\sd_card.c   **** ****************************************************************************/
   6:.\sd_card.c   **** #include "sd_card.h"
   7:.\sd_card.c   **** #include <project.h>
   8:.\sd_card.c   **** #include <Global.h>
   9:.\sd_card.c   **** #include <stdio.h>
  10:.\sd_card.c   **** 
  11:.\sd_card.c   **** struct SdSTSLST SdInf;
  12:.\sd_card.c   **** 
  13:.\sd_card.c   **** /* START: FUNCTION DEFINITION */
  14:.\sd_card.c   **** 
  15:.\sd_card.c   **** void SDC_InitializeCard(void)
  16:.\sd_card.c   **** {
  27              		.loc 1 16 0
  28              		.cfi_startproc
  29              		@ args = 0, pretend = 0, frame = 0
  30              		@ frame_needed = 0, uses_anonymous_args = 0
  31 0000 08B5     		push	{r3, lr}
  32              		.cfi_def_cfa_offset 8
  33              		.cfi_offset 3, -8
  34              		.cfi_offset 14, -4
  17:.\sd_card.c   **** 	FS_Init();
  35              		.loc 1 17 0
  36 0002 FFF7FEFF 		bl	FS_Init
  37              	.LVL0:
  18:.\sd_card.c   ****     SdInf.Init = 1;
  38              		.loc 1 18 0
  39 0006 024B     		ldr	r3, .L2
ARM GAS  C:\Users\acer\AppData\Local\Temp\ccvJ6Cjo.s 			page 2


  40 0008 0122     		movs	r2, #1
  41 000a 1A72     		strb	r2, [r3, #8]
  42 000c 08BD     		pop	{r3, pc}
  43              	.L3:
  44 000e 00BF     		.align	2
  45              	.L2:
  46 0010 00000000 		.word	SdInf
  47              		.cfi_endproc
  48              	.LFE56:
  49              		.size	SDC_InitializeCard, .-SDC_InitializeCard
  50              		.section	.text.SDC_FormatCard,"ax",%progbits
  51              		.align	1
  52              		.global	SDC_FormatCard
  53              		.thumb
  54              		.thumb_func
  55              		.type	SDC_FormatCard, %function
  56              	SDC_FormatCard:
  57              	.LFB57:
  19:.\sd_card.c   **** }
  20:.\sd_card.c   **** 
  21:.\sd_card.c   **** uint8 SDC_FormatCard(void)
  22:.\sd_card.c   **** {
  58              		.loc 1 22 0
  59              		.cfi_startproc
  60              		@ args = 0, pretend = 0, frame = 16
  61              		@ frame_needed = 0, uses_anonymous_args = 0
  62              	.LVL1:
  63 0000 1FB5     		push	{r0, r1, r2, r3, r4, lr}
  64              		.cfi_def_cfa_offset 24
  65              		.cfi_offset 14, -4
  23:.\sd_card.c   **** 	uint8 u8Return =0;		// 0: Success, 1: Failure
  24:.\sd_card.c   **** 	char sdVolName[10];
  25:.\sd_card.c   **** 	
  26:.\sd_card.c   **** 	// Get volume name
  27:.\sd_card.c   **** 	FS_GetVolumeName(0u, &sdVolName[0], 9u);
  66              		.loc 1 27 0
  67 0002 0922     		movs	r2, #9
  68 0004 01A9     		add	r1, sp, #4
  69 0006 0020     		movs	r0, #0
  70 0008 FFF7FEFF 		bl	FS_GetVolumeName
  71              	.LVL2:
  28:.\sd_card.c   **** 
  29:.\sd_card.c   **** 	if(0 != FS_FormatSD(sdVolName))
  72              		.loc 1 29 0
  73 000c 01A8     		add	r0, sp, #4
  74 000e FFF7FEFF 		bl	FS_FormatSD
  75              	.LVL3:
  30:.\sd_card.c   **** 	u8Return =1;
  31:.\sd_card.c   **** 	
  32:.\sd_card.c   ****     return(u8Return);	
  33:.\sd_card.c   **** }
  76              		.loc 1 33 0
  77 0012 0030     		adds	r0, r0, #0
  78 0014 18BF     		it	ne
  79 0016 0120     		movne	r0, #1
  80              	.LVL4:
  81 0018 05B0     		add	sp, sp, #20
ARM GAS  C:\Users\acer\AppData\Local\Temp\ccvJ6Cjo.s 			page 3


  82              		.cfi_def_cfa_offset 4
  83              		@ sp needed
  84 001a 5DF804FB 		ldr	pc, [sp], #4
  85              		.cfi_endproc
  86              	.LFE57:
  87              		.size	SDC_FormatCard, .-SDC_FormatCard
  88              		.section	.text.SDC_OpenFile,"ax",%progbits
  89              		.align	1
  90              		.global	SDC_OpenFile
  91              		.thumb
  92              		.thumb_func
  93              		.type	SDC_OpenFile, %function
  94              	SDC_OpenFile:
  95              	.LFB58:
  34:.\sd_card.c   **** 
  35:.\sd_card.c   **** uint8 SDC_OpenFile(char *sdfile, const uint8 Handle, const char *mode)
  36:.\sd_card.c   **** {
  96              		.loc 1 36 0
  97              		.cfi_startproc
  98              		@ args = 0, pretend = 0, frame = 0
  99              		@ frame_needed = 0, uses_anonymous_args = 0
 100              	.LVL5:
  37:.\sd_card.c   **** 	uint8 u8Return =0;
  38:.\sd_card.c   **** 	if(Handle < 4)
 101              		.loc 1 38 0
 102 0000 0329     		cmp	r1, #3
  36:.\sd_card.c   **** 	uint8 u8Return =0;
 103              		.loc 1 36 0
 104 0002 70B5     		push	{r4, r5, r6, lr}
 105              		.cfi_def_cfa_offset 16
 106              		.cfi_offset 4, -16
 107              		.cfi_offset 5, -12
 108              		.cfi_offset 6, -8
 109              		.cfi_offset 14, -4
  36:.\sd_card.c   **** 	uint8 u8Return =0;
 110              		.loc 1 36 0
 111 0004 0E46     		mov	r6, r1
 112 0006 0C4D     		ldr	r5, .L10
 113 0008 01F10204 		add	r4, r1, #2
 114              		.loc 1 38 0
 115 000c 05D8     		bhi	.L6
  39:.\sd_card.c   **** 	SdInf.pFile[Handle] = FS_FOpen(sdfile, mode);
 116              		.loc 1 39 0
 117 000e 1146     		mov	r1, r2
 118              	.LVL6:
 119 0010 FFF7FEFF 		bl	FS_FOpen
 120              	.LVL7:
 121 0014 05EB8403 		add	r3, r5, r4, lsl #2
 122 0018 5860     		str	r0, [r3, #4]
 123              	.L6:
  40:.\sd_card.c   **** 	
  41:.\sd_card.c   **** 	if(SdInf.pFile[Handle] == NULL)
 124              		.loc 1 41 0
 125 001a 05EB8404 		add	r4, r5, r4, lsl #2
 126 001e 6468     		ldr	r4, [r4, #4]
 127              	.LVL8:
  42:.\sd_card.c   **** 	u8Return = 1; // Indicate failure
ARM GAS  C:\Users\acer\AppData\Local\Temp\ccvJ6Cjo.s 			page 4


  43:.\sd_card.c   **** 
  44:.\sd_card.c   **** 	SdInf.u32VFile_Size[Handle] = FS_GetFileSize(SdInf.pFile[Handle]);
 128              		.loc 1 44 0
 129 0020 2046     		mov	r0, r4
 130 0022 FFF7FEFF 		bl	FS_GetFileSize
 131              	.LVL9:
 132 0026 45F82600 		str	r0, [r5, r6, lsl #2]
  45:.\sd_card.c   ****     
  46:.\sd_card.c   ****     if(SdInf.u32VFile_Size[Handle] == 0xFFFFFFFF)
 133              		.loc 1 46 0
 134 002a 0130     		adds	r0, r0, #1
  37:.\sd_card.c   **** 	if(Handle < 4)
 135              		.loc 1 37 0
 136 002c 1ABF     		itte	ne
 137 002e B4FA84F0 		clzne	r0, r4
 138 0032 4009     		lsrne	r0, r0, #5
  47:.\sd_card.c   ****     u8Return = 1; // Indicate failure
 139              		.loc 1 47 0
 140 0034 0120     		moveq	r0, #1
 141              	.LVL10:
  48:.\sd_card.c   ****  
  49:.\sd_card.c   **** 	return(u8Return);
  50:.\sd_card.c   **** }
 142              		.loc 1 50 0
 143 0036 70BD     		pop	{r4, r5, r6, pc}
 144              	.L11:
 145              		.align	2
 146              	.L10:
 147 0038 00000000 		.word	SdInf
 148              		.cfi_endproc
 149              	.LFE58:
 150              		.size	SDC_OpenFile, .-SDC_OpenFile
 151              		.section	.text.SDC_CloseFile,"ax",%progbits
 152              		.align	1
 153              		.global	SDC_CloseFile
 154              		.thumb
 155              		.thumb_func
 156              		.type	SDC_CloseFile, %function
 157              	SDC_CloseFile:
 158              	.LFB59:
  51:.\sd_card.c   **** 
  52:.\sd_card.c   **** uint8 SDC_CloseFile(uint8 Handle)
  53:.\sd_card.c   **** {
 159              		.loc 1 53 0
 160              		.cfi_startproc
 161              		@ args = 0, pretend = 0, frame = 0
 162              		@ frame_needed = 0, uses_anonymous_args = 0
 163              	.LVL11:
  54:.\sd_card.c   **** 	// Return 0 : Success, Return 1: Failure , Refer emFile
  55:.\sd_card.c   **** 	uint8 u8Return =0;
  56:.\sd_card.c   **** 	if(Handle < 4)
 164              		.loc 1 56 0
 165 0000 0328     		cmp	r0, #3
  53:.\sd_card.c   **** 	// Return 0 : Success, Return 1: Failure , Refer emFile
 166              		.loc 1 53 0
 167 0002 08B5     		push	{r3, lr}
 168              		.cfi_def_cfa_offset 8
ARM GAS  C:\Users\acer\AppData\Local\Temp\ccvJ6Cjo.s 			page 5


 169              		.cfi_offset 3, -8
 170              		.cfi_offset 14, -4
 171              		.loc 1 56 0
 172 0004 07D8     		bhi	.L14
  57:.\sd_card.c   **** 	u8Return = FS_FClose(SdInf.pFile[Handle]);
 173              		.loc 1 57 0
 174 0006 054B     		ldr	r3, .L15
 175 0008 03EB8000 		add	r0, r3, r0, lsl #2
 176              	.LVL12:
 177 000c C068     		ldr	r0, [r0, #12]
 178 000e FFF7FEFF 		bl	FS_FClose
 179              	.LVL13:
 180 0012 C0B2     		uxtb	r0, r0
 181              	.LVL14:
 182 0014 08BD     		pop	{r3, pc}
 183              	.LVL15:
 184              	.L14:
  55:.\sd_card.c   **** 	if(Handle < 4)
 185              		.loc 1 55 0
 186 0016 0020     		movs	r0, #0
 187              	.LVL16:
  58:.\sd_card.c   **** 	return(u8Return);
  59:.\sd_card.c   **** }
 188              		.loc 1 59 0
 189 0018 08BD     		pop	{r3, pc}
 190              	.L16:
 191 001a 00BF     		.align	2
 192              	.L15:
 193 001c 00000000 		.word	SdInf
 194              		.cfi_endproc
 195              	.LFE59:
 196              		.size	SDC_CloseFile, .-SDC_CloseFile
 197              		.section	.text.SDC_LoadBuffer,"ax",%progbits
 198              		.align	1
 199              		.global	SDC_LoadBuffer
 200              		.thumb
 201              		.thumb_func
 202              		.type	SDC_LoadBuffer, %function
 203              	SDC_LoadBuffer:
 204              	.LFB60:
  60:.\sd_card.c   **** 
  61:.\sd_card.c   **** // 10 ms cyclic call
  62:.\sd_card.c   **** void SDC_LoadBuffer()
  63:.\sd_card.c   **** {	
 205              		.loc 1 63 0
 206              		.cfi_startproc
 207              		@ args = 0, pretend = 0, frame = 0
 208              		@ frame_needed = 0, uses_anonymous_args = 0
 209              		@ link register save eliminated.
 210 0000 7047     		bx	lr
 211              		.cfi_endproc
 212              	.LFE60:
 213              		.size	SDC_LoadBuffer, .-SDC_LoadBuffer
 214              		.section	.text.SDC_WriteCrashData,"ax",%progbits
 215              		.align	1
 216              		.global	SDC_WriteCrashData
 217              		.thumb
ARM GAS  C:\Users\acer\AppData\Local\Temp\ccvJ6Cjo.s 			page 6


 218              		.thumb_func
 219              		.type	SDC_WriteCrashData, %function
 220              	SDC_WriteCrashData:
 221              	.LFB61:
  64:.\sd_card.c   ****    	
  65:.\sd_card.c   **** 		// Fetch Data from SD and convert it to RSU data format
  66:.\sd_card.c   **** 		// u16BytesRead = FS_Read(pFile[0], u8A_SD_Buff_RSU0, u16V_RSU0_Buf1_cnt);
  67:.\sd_card.c   **** 		
  68:.\sd_card.c   **** 	
  69:.\sd_card.c   **** }
  70:.\sd_card.c   **** 
  71:.\sd_card.c   **** 
  72:.\sd_card.c   **** 
  73:.\sd_card.c   **** /*************************************************************************
  74:.\sd_card.c   **** *   Function 	- SDC_WriteCrashData
  75:.\sd_card.c   **** *	Description - Write data to SD CARD
  76:.\sd_card.c   **** *	Input		- 	u8Buff  : Source address of data to be written to SD card
  77:.\sd_card.c   **** *					u16Size : # of bytes to be written to SDC
  78:.\sd_card.c   **** *					u8handle: File handle to access the file
  79:.\sd_card.c   **** **************************************************************************/
  80:.\sd_card.c   **** void SDC_WriteCrashData(uint8* u8Buff, _UINT16 u16Size, uint8 u8handle)
  81:.\sd_card.c   **** {
 222              		.loc 1 81 0
 223              		.cfi_startproc
 224              		@ args = 0, pretend = 0, frame = 0
 225              		@ frame_needed = 0, uses_anonymous_args = 0
 226              	.LVL17:
 227              		.loc 1 81 0
 228 0000 30B5     		push	{r4, r5, lr}
 229              		.cfi_def_cfa_offset 12
 230              		.cfi_offset 4, -12
 231              		.cfi_offset 5, -8
 232              		.cfi_offset 14, -4
 233              		.loc 1 81 0
 234 0002 0546     		mov	r5, r0
 235 0004 0C46     		mov	r4, r1
  82:.\sd_card.c   **** 	FS_Write(SdInf.pFile[u8handle],u8Buff,u16Size);
 236              		.loc 1 82 0
 237 0006 054B     		ldr	r3, .L19
 238 0008 2946     		mov	r1, r5
 239              	.LVL18:
 240 000a 03EB8202 		add	r2, r3, r2, lsl #2
 241              	.LVL19:
 242 000e D068     		ldr	r0, [r2, #12]
 243              	.LVL20:
 244 0010 2246     		mov	r2, r4
  83:.\sd_card.c   **** }
 245              		.loc 1 83 0
 246 0012 BDE83040 		pop	{r4, r5, lr}
 247              		.cfi_restore 14
 248              		.cfi_restore 5
 249              		.cfi_restore 4
 250              		.cfi_def_cfa_offset 0
  82:.\sd_card.c   **** 	FS_Write(SdInf.pFile[u8handle],u8Buff,u16Size);
 251              		.loc 1 82 0
 252 0016 FFF7FEBF 		b	FS_Write
 253              	.LVL21:
ARM GAS  C:\Users\acer\AppData\Local\Temp\ccvJ6Cjo.s 			page 7


 254              	.L20:
 255 001a 00BF     		.align	2
 256              	.L19:
 257 001c 00000000 		.word	SdInf
 258              		.cfi_endproc
 259              	.LFE61:
 260              		.size	SDC_WriteCrashData, .-SDC_WriteCrashData
 261              		.section	.text.SDC_Cnvrt_To_ASCII,"ax",%progbits
 262              		.align	1
 263              		.global	SDC_Cnvrt_To_ASCII
 264              		.thumb
 265              		.thumb_func
 266              		.type	SDC_Cnvrt_To_ASCII, %function
 267              	SDC_Cnvrt_To_ASCII:
 268              	.LFB62:
  84:.\sd_card.c   **** 
  85:.\sd_card.c   **** /*************************************************************************
  86:.\sd_card.c   **** *	Function	- SDC_Cnvrt_To_ASCII
  87:.\sd_card.c   **** *	Description	- Converts Hex value to ASCII
  88:.\sd_card.c   **** *	Input		- ASCII value
  89:.\sd_card.c   **** *	Return		- Hex value
  90:.\sd_card.c   **** *	Note		- None
  91:.\sd_card.c   **** *************************************************************************/
  92:.\sd_card.c   **** uint8 SDC_Cnvrt_To_ASCII(uint8 u8Input)
  93:.\sd_card.c   **** {
 269              		.loc 1 93 0
 270              		.cfi_startproc
 271              		@ args = 0, pretend = 0, frame = 0
 272              		@ frame_needed = 0, uses_anonymous_args = 0
 273              		@ link register save eliminated.
 274              	.LVL22:
  94:.\sd_card.c   **** 	uint8 u8Out =0;
  95:.\sd_card.c   **** 	if(u8Input <=0x09)
 275              		.loc 1 95 0
 276 0000 0928     		cmp	r0, #9
  96:.\sd_card.c   **** 	{
  97:.\sd_card.c   **** 		u8Out = 0x30 + u8Input;
 277              		.loc 1 97 0
 278 0002 94BF     		ite	ls
 279 0004 3030     		addls	r0, r0, #48
 280              	.LVL23:
  98:.\sd_card.c   **** 	}
  99:.\sd_card.c   **** 	else
 100:.\sd_card.c   **** 	{
 101:.\sd_card.c   **** 		u8Out = 0x37 + u8Input;
 281              		.loc 1 101 0
 282 0006 3730     		addhi	r0, r0, #55
 283 0008 C0B2     		uxtb	r0, r0
 284              	.LVL24:
 102:.\sd_card.c   **** 	}
 103:.\sd_card.c   **** 	return(u8Out);
 104:.\sd_card.c   **** }
 285              		.loc 1 104 0
 286 000a 7047     		bx	lr
 287              		.cfi_endproc
 288              	.LFE62:
 289              		.size	SDC_Cnvrt_To_ASCII, .-SDC_Cnvrt_To_ASCII
ARM GAS  C:\Users\acer\AppData\Local\Temp\ccvJ6Cjo.s 			page 8


 290              		.section	.text.SDC_CardDetection,"ax",%progbits
 291              		.align	1
 292              		.global	SDC_CardDetection
 293              		.thumb
 294              		.thumb_func
 295              		.type	SDC_CardDetection, %function
 296              	SDC_CardDetection:
 297              	.LFB63:
 105:.\sd_card.c   **** 
 106:.\sd_card.c   **** // 250 ms cyclic call
 107:.\sd_card.c   **** void SDC_CardDetection(void)
 108:.\sd_card.c   **** {
 298              		.loc 1 108 0
 299              		.cfi_startproc
 300              		@ args = 0, pretend = 0, frame = 0
 301              		@ frame_needed = 0, uses_anonymous_args = 0
 302 0000 10B5     		push	{r4, lr}
 303              		.cfi_def_cfa_offset 8
 304              		.cfi_offset 4, -8
 305              		.cfi_offset 14, -4
 109:.\sd_card.c   ****     static uint8 u8v_Debounce_Counter = 0;
 110:.\sd_card.c   **** 
 111:.\sd_card.c   ****     
 112:.\sd_card.c   ****     if(Pin_SD_Detect_Read() == 0)
 306              		.loc 1 112 0
 307 0002 FFF7FEFF 		bl	Pin_SD_Detect_Read
 308              	.LVL25:
 309 0006 90B9     		cbnz	r0, .L26
 113:.\sd_card.c   ****     {   // Card is inserted
 114:.\sd_card.c   ****         if(u8v_Debounce_Counter < 5)
 310              		.loc 1 114 0
 311 0008 0D4C     		ldr	r4, .L30
 312 000a 2378     		ldrb	r3, [r4]	@ zero_extendqisi2
 313 000c 042B     		cmp	r3, #4
 314 000e 16D8     		bhi	.L25
 115:.\sd_card.c   **** 		{
 116:.\sd_card.c   **** 			u8v_Debounce_Counter++;
 315              		.loc 1 116 0
 316 0010 0133     		adds	r3, r3, #1
 317 0012 DBB2     		uxtb	r3, r3
 117:.\sd_card.c   **** 			if((u8v_Debounce_Counter == 4u) && (SdInf.Init == 0))
 318              		.loc 1 117 0
 319 0014 042B     		cmp	r3, #4
 116:.\sd_card.c   **** 			if((u8v_Debounce_Counter == 4u) && (SdInf.Init == 0))
 320              		.loc 1 116 0
 321 0016 2370     		strb	r3, [r4]
 322              		.loc 1 117 0
 323 0018 11D1     		bne	.L25
 324              		.loc 1 117 0 is_stmt 0 discriminator 1
 325 001a 0A4B     		ldr	r3, .L30+4
 326 001c 1B7A     		ldrb	r3, [r3, #8]	@ zero_extendqisi2
 327 001e 73B9     		cbnz	r3, .L25
 118:.\sd_card.c   **** 			{
 119:.\sd_card.c   ****                 FS_DeInit();
 328              		.loc 1 119 0 is_stmt 1
 329 0020 FFF7FEFF 		bl	FS_DeInit
 330              	.LVL26:
ARM GAS  C:\Users\acer\AppData\Local\Temp\ccvJ6Cjo.s 			page 9


 120:.\sd_card.c   ****                 SDC_InitializeCard();   // Re- initialize card.
 331              		.loc 1 120 0
 332 0024 FFF7FEFF 		bl	SDC_InitializeCard
 333              	.LVL27:
 121:.\sd_card.c   ****                 u8v_Debounce_Counter = 10u;               
 334              		.loc 1 121 0
 335 0028 0A23     		movs	r3, #10
 336 002a 2370     		strb	r3, [r4]
 337 002c 10BD     		pop	{r4, pc}
 338              	.L26:
 122:.\sd_card.c   **** 			}
 123:.\sd_card.c   **** 		}
 124:.\sd_card.c   ****     }
 125:.\sd_card.c   ****     else
 126:.\sd_card.c   ****     {	// Card is removed
 127:.\sd_card.c   **** 		if(SdInf.Init == 1u)
 339              		.loc 1 127 0
 340 002e 054B     		ldr	r3, .L30+4
 341 0030 1A7A     		ldrb	r2, [r3, #8]	@ zero_extendqisi2
 342 0032 012A     		cmp	r2, #1
 128:.\sd_card.c   **** 		{
 129:.\sd_card.c   **** 			// Turn on RED LED
 130:.\sd_card.c   **** 			u8v_Debounce_Counter = 0;
 343              		.loc 1 130 0
 344 0034 01BF     		itttt	eq
 345 0036 0249     		ldreq	r1, .L30
 346 0038 0022     		moveq	r2, #0
 347 003a 0A70     		strbeq	r2, [r1]
 131:.\sd_card.c   ****             SdInf.Init = 0;
 348              		.loc 1 131 0
 349 003c 1A72     		strbeq	r2, [r3, #8]
 350              	.L25:
 351 003e 10BD     		pop	{r4, pc}
 352              	.L31:
 353              		.align	2
 354              	.L30:
 355 0040 00000000 		.word	.LANCHOR0
 356 0044 00000000 		.word	SdInf
 357              		.cfi_endproc
 358              	.LFE63:
 359              		.size	SDC_CardDetection, .-SDC_CardDetection
 360              		.comm	SdInf,20,4
 361              		.bss
 362              		.set	.LANCHOR0,. + 0
 363              		.type	u8v_Debounce_Counter.7670, %object
 364              		.size	u8v_Debounce_Counter.7670, 1
 365              	u8v_Debounce_Counter.7670:
 366 0000 00       		.space	1
 367              		.text
 368              	.Letext0:
 369              		.file 2 ".\\type_def.h"
 370              		.file 3 ".\\Inc\\sd/FS_Types.h"
 371              		.file 4 ".\\sd_card.h"
 372              		.file 5 "c:\\program files\\cypress\\psoc creator\\3.3\\psoc creator\\import\\gnu\\arm\\4.9.3\\arm
 373              		.file 6 "c:\\program files\\cypress\\psoc creator\\3.3\\psoc creator\\import\\gnu\\arm\\4.9.3\\arm
 374              		.file 7 "Generated_Source\\PSoC5/core_cm3.h"
 375              		.file 8 ".\\Inc\\sd/FS.h"
ARM GAS  C:\Users\acer\AppData\Local\Temp\ccvJ6Cjo.s 			page 10


 376              		.file 9 "Generated_Source\\PSoC5/Pin_SD_Detect.h"