ARM GAS  C:\Users\acer\AppData\Local\Temp\ccQB5Mdb.s 			page 1


   1              		.syntax unified
   2              		.cpu cortex-m3
   3              		.fpu softvfp
   4              		.eabi_attribute 20, 1
   5              		.eabi_attribute 21, 1
   6              		.eabi_attribute 23, 3
   7              		.eabi_attribute 24, 1
   8              		.eabi_attribute 25, 1
   9              		.eabi_attribute 26, 1
  10              		.eabi_attribute 30, 4
  11              		.eabi_attribute 34, 1
  12              		.eabi_attribute 18, 4
  13              		.thumb
  14              		.file	"TMR_Os_Tmr_Pre_Emp.c"
  15              		.text
  16              	.Ltext0:
  17              		.cfi_sections	.debug_frame
  18              		.section	.text.TMR_Os_Tmr_Pre_Emp_Init,"ax",%progbits
  19              		.align	1
  20              		.global	TMR_Os_Tmr_Pre_Emp_Init
  21              		.thumb
  22              		.thumb_func
  23              		.type	TMR_Os_Tmr_Pre_Emp_Init, %function
  24              	TMR_Os_Tmr_Pre_Emp_Init:
  25              	.LFB0:
  26              		.file 1 ".\\Generated_Source\\PSoC5\\TMR_Os_Tmr_Pre_Emp.c"
   1:.\Generated_Source\PSoC5/TMR_Os_Tmr_Pre_Emp.c **** /*******************************************************************************
   2:.\Generated_Source\PSoC5/TMR_Os_Tmr_Pre_Emp.c **** * File Name: TMR_Os_Tmr_Pre_Emp.c
   3:.\Generated_Source\PSoC5/TMR_Os_Tmr_Pre_Emp.c **** * Version 2.70
   4:.\Generated_Source\PSoC5/TMR_Os_Tmr_Pre_Emp.c **** *
   5:.\Generated_Source\PSoC5/TMR_Os_Tmr_Pre_Emp.c **** * Description:
   6:.\Generated_Source\PSoC5/TMR_Os_Tmr_Pre_Emp.c **** *  The Timer component consists of a 8, 16, 24 or 32-bit timer with
   7:.\Generated_Source\PSoC5/TMR_Os_Tmr_Pre_Emp.c **** *  a selectable period between 2 and 2^Width - 1.  The timer may free run
   8:.\Generated_Source\PSoC5/TMR_Os_Tmr_Pre_Emp.c **** *  or be used as a capture timer as well.  The capture can be initiated
   9:.\Generated_Source\PSoC5/TMR_Os_Tmr_Pre_Emp.c **** *  by a positive or negative edge signal as well as via software.
  10:.\Generated_Source\PSoC5/TMR_Os_Tmr_Pre_Emp.c **** *  A trigger input can be programmed to enable the timer on rising edge
  11:.\Generated_Source\PSoC5/TMR_Os_Tmr_Pre_Emp.c **** *  falling edge, either edge or continous run.
  12:.\Generated_Source\PSoC5/TMR_Os_Tmr_Pre_Emp.c **** *  Interrupts may be generated due to a terminal count condition
  13:.\Generated_Source\PSoC5/TMR_Os_Tmr_Pre_Emp.c **** *  or a capture event.
  14:.\Generated_Source\PSoC5/TMR_Os_Tmr_Pre_Emp.c **** *
  15:.\Generated_Source\PSoC5/TMR_Os_Tmr_Pre_Emp.c **** * Note:
  16:.\Generated_Source\PSoC5/TMR_Os_Tmr_Pre_Emp.c **** *
  17:.\Generated_Source\PSoC5/TMR_Os_Tmr_Pre_Emp.c **** ********************************************************************************
  18:.\Generated_Source\PSoC5/TMR_Os_Tmr_Pre_Emp.c **** * Copyright 2008-2014, Cypress Semiconductor Corporation.  All rights reserved.
  19:.\Generated_Source\PSoC5/TMR_Os_Tmr_Pre_Emp.c **** * You may use this file only in accordance with the license, terms, conditions,
  20:.\Generated_Source\PSoC5/TMR_Os_Tmr_Pre_Emp.c **** * disclaimers, and limitations in the end user license agreement accompanying
  21:.\Generated_Source\PSoC5/TMR_Os_Tmr_Pre_Emp.c **** * the software package with which this file was provided.
  22:.\Generated_Source\PSoC5/TMR_Os_Tmr_Pre_Emp.c **** ********************************************************************************/
  23:.\Generated_Source\PSoC5/TMR_Os_Tmr_Pre_Emp.c **** 
  24:.\Generated_Source\PSoC5/TMR_Os_Tmr_Pre_Emp.c **** #include "TMR_Os_Tmr_Pre_Emp.h"
  25:.\Generated_Source\PSoC5/TMR_Os_Tmr_Pre_Emp.c **** 
  26:.\Generated_Source\PSoC5/TMR_Os_Tmr_Pre_Emp.c **** uint8 TMR_Os_Tmr_Pre_Emp_initVar = 0u;
  27:.\Generated_Source\PSoC5/TMR_Os_Tmr_Pre_Emp.c **** 
  28:.\Generated_Source\PSoC5/TMR_Os_Tmr_Pre_Emp.c **** 
  29:.\Generated_Source\PSoC5/TMR_Os_Tmr_Pre_Emp.c **** /*******************************************************************************
  30:.\Generated_Source\PSoC5/TMR_Os_Tmr_Pre_Emp.c **** * Function Name: TMR_Os_Tmr_Pre_Emp_Init
  31:.\Generated_Source\PSoC5/TMR_Os_Tmr_Pre_Emp.c **** ********************************************************************************
ARM GAS  C:\Users\acer\AppData\Local\Temp\ccQB5Mdb.s 			page 2


  32:.\Generated_Source\PSoC5/TMR_Os_Tmr_Pre_Emp.c **** *
  33:.\Generated_Source\PSoC5/TMR_Os_Tmr_Pre_Emp.c **** * Summary:
  34:.\Generated_Source\PSoC5/TMR_Os_Tmr_Pre_Emp.c **** *  Initialize to the schematic state
  35:.\Generated_Source\PSoC5/TMR_Os_Tmr_Pre_Emp.c **** *
  36:.\Generated_Source\PSoC5/TMR_Os_Tmr_Pre_Emp.c **** * Parameters:
  37:.\Generated_Source\PSoC5/TMR_Os_Tmr_Pre_Emp.c **** *  void
  38:.\Generated_Source\PSoC5/TMR_Os_Tmr_Pre_Emp.c **** *
  39:.\Generated_Source\PSoC5/TMR_Os_Tmr_Pre_Emp.c **** * Return:
  40:.\Generated_Source\PSoC5/TMR_Os_Tmr_Pre_Emp.c **** *  void
  41:.\Generated_Source\PSoC5/TMR_Os_Tmr_Pre_Emp.c **** *
  42:.\Generated_Source\PSoC5/TMR_Os_Tmr_Pre_Emp.c **** *******************************************************************************/
  43:.\Generated_Source\PSoC5/TMR_Os_Tmr_Pre_Emp.c **** void TMR_Os_Tmr_Pre_Emp_Init(void) 
  44:.\Generated_Source\PSoC5/TMR_Os_Tmr_Pre_Emp.c **** {
  27              		.loc 1 44 0
  28              		.cfi_startproc
  29              		@ args = 0, pretend = 0, frame = 0
  30              		@ frame_needed = 0, uses_anonymous_args = 0
  31              		@ link register save eliminated.
  45:.\Generated_Source\PSoC5/TMR_Os_Tmr_Pre_Emp.c ****     #if(!TMR_Os_Tmr_Pre_Emp_UsingFixedFunction)
  46:.\Generated_Source\PSoC5/TMR_Os_Tmr_Pre_Emp.c ****             /* Interrupt State Backup for Critical Region*/
  47:.\Generated_Source\PSoC5/TMR_Os_Tmr_Pre_Emp.c ****             uint8 TMR_Os_Tmr_Pre_Emp_interruptState;
  48:.\Generated_Source\PSoC5/TMR_Os_Tmr_Pre_Emp.c ****     #endif /* Interrupt state back up for Fixed Function only */
  49:.\Generated_Source\PSoC5/TMR_Os_Tmr_Pre_Emp.c **** 
  50:.\Generated_Source\PSoC5/TMR_Os_Tmr_Pre_Emp.c ****     #if (TMR_Os_Tmr_Pre_Emp_UsingFixedFunction)
  51:.\Generated_Source\PSoC5/TMR_Os_Tmr_Pre_Emp.c ****         /* Clear all bits but the enable bit (if it's already set) for Timer operation */
  52:.\Generated_Source\PSoC5/TMR_Os_Tmr_Pre_Emp.c ****         TMR_Os_Tmr_Pre_Emp_CONTROL &= TMR_Os_Tmr_Pre_Emp_CTRL_ENABLE;
  32              		.loc 1 52 0
  33 0000 134A     		ldr	r2, .L2
  34 0002 1378     		ldrb	r3, [r2]	@ zero_extendqisi2
  35 0004 03F00103 		and	r3, r3, #1
  36 0008 1370     		strb	r3, [r2]
  53:.\Generated_Source\PSoC5/TMR_Os_Tmr_Pre_Emp.c **** 
  54:.\Generated_Source\PSoC5/TMR_Os_Tmr_Pre_Emp.c ****         /* Clear the mode bits for continuous run mode */
  55:.\Generated_Source\PSoC5/TMR_Os_Tmr_Pre_Emp.c ****         #if (CY_PSOC5A)
  56:.\Generated_Source\PSoC5/TMR_Os_Tmr_Pre_Emp.c ****             TMR_Os_Tmr_Pre_Emp_CONTROL2 &= ((uint8)(~TMR_Os_Tmr_Pre_Emp_CTRL_MODE_MASK));
  57:.\Generated_Source\PSoC5/TMR_Os_Tmr_Pre_Emp.c ****         #endif /* Clear bits in CONTROL2 only in PSOC5A */
  58:.\Generated_Source\PSoC5/TMR_Os_Tmr_Pre_Emp.c **** 
  59:.\Generated_Source\PSoC5/TMR_Os_Tmr_Pre_Emp.c ****         #if (CY_PSOC3 || CY_PSOC5LP)
  60:.\Generated_Source\PSoC5/TMR_Os_Tmr_Pre_Emp.c ****             TMR_Os_Tmr_Pre_Emp_CONTROL3 &= ((uint8)(~TMR_Os_Tmr_Pre_Emp_CTRL_MODE_MASK));
  37              		.loc 1 60 0
  38 000a 9378     		ldrb	r3, [r2, #2]	@ zero_extendqisi2
  39 000c 03F0FC03 		and	r3, r3, #252
  40 0010 9370     		strb	r3, [r2, #2]
  61:.\Generated_Source\PSoC5/TMR_Os_Tmr_Pre_Emp.c ****         #endif /* CONTROL3 register exists only in PSoC3 OR PSoC5LP */
  62:.\Generated_Source\PSoC5/TMR_Os_Tmr_Pre_Emp.c **** 
  63:.\Generated_Source\PSoC5/TMR_Os_Tmr_Pre_Emp.c ****         /* Check if One Shot mode is enabled i.e. RunMode !=0*/
  64:.\Generated_Source\PSoC5/TMR_Os_Tmr_Pre_Emp.c ****         #if (TMR_Os_Tmr_Pre_Emp_RunModeUsed != 0x0u)
  65:.\Generated_Source\PSoC5/TMR_Os_Tmr_Pre_Emp.c ****             /* Set 3rd bit of Control register to enable one shot mode */
  66:.\Generated_Source\PSoC5/TMR_Os_Tmr_Pre_Emp.c ****             TMR_Os_Tmr_Pre_Emp_CONTROL |= 0x04u;
  67:.\Generated_Source\PSoC5/TMR_Os_Tmr_Pre_Emp.c ****         #endif /* One Shot enabled only when RunModeUsed is not Continuous*/
  68:.\Generated_Source\PSoC5/TMR_Os_Tmr_Pre_Emp.c **** 
  69:.\Generated_Source\PSoC5/TMR_Os_Tmr_Pre_Emp.c ****         #if (TMR_Os_Tmr_Pre_Emp_RunModeUsed == 2)
  70:.\Generated_Source\PSoC5/TMR_Os_Tmr_Pre_Emp.c ****             #if (CY_PSOC5A)
  71:.\Generated_Source\PSoC5/TMR_Os_Tmr_Pre_Emp.c ****                 /* Set last 2 bits of control2 register if one shot(halt on
  72:.\Generated_Source\PSoC5/TMR_Os_Tmr_Pre_Emp.c ****                 interrupt) is enabled*/
  73:.\Generated_Source\PSoC5/TMR_Os_Tmr_Pre_Emp.c ****                 TMR_Os_Tmr_Pre_Emp_CONTROL2 |= 0x03u;
  74:.\Generated_Source\PSoC5/TMR_Os_Tmr_Pre_Emp.c ****             #endif /* Set One-Shot Halt on Interrupt bit in CONTROL2 for PSoC5A */
ARM GAS  C:\Users\acer\AppData\Local\Temp\ccQB5Mdb.s 			page 3


  75:.\Generated_Source\PSoC5/TMR_Os_Tmr_Pre_Emp.c **** 
  76:.\Generated_Source\PSoC5/TMR_Os_Tmr_Pre_Emp.c ****             #if (CY_PSOC3 || CY_PSOC5LP)
  77:.\Generated_Source\PSoC5/TMR_Os_Tmr_Pre_Emp.c ****                 /* Set last 2 bits of control3 register if one shot(halt on
  78:.\Generated_Source\PSoC5/TMR_Os_Tmr_Pre_Emp.c ****                 interrupt) is enabled*/
  79:.\Generated_Source\PSoC5/TMR_Os_Tmr_Pre_Emp.c ****                 TMR_Os_Tmr_Pre_Emp_CONTROL3 |= 0x03u;
  80:.\Generated_Source\PSoC5/TMR_Os_Tmr_Pre_Emp.c ****             #endif /* Set One-Shot Halt on Interrupt bit in CONTROL3 for PSoC3 or PSoC5LP */
  81:.\Generated_Source\PSoC5/TMR_Os_Tmr_Pre_Emp.c **** 
  82:.\Generated_Source\PSoC5/TMR_Os_Tmr_Pre_Emp.c ****         #endif /* Remove section if One Shot Halt on Interrupt is not enabled */
  83:.\Generated_Source\PSoC5/TMR_Os_Tmr_Pre_Emp.c **** 
  84:.\Generated_Source\PSoC5/TMR_Os_Tmr_Pre_Emp.c ****         #if (TMR_Os_Tmr_Pre_Emp_UsingHWEnable != 0)
  85:.\Generated_Source\PSoC5/TMR_Os_Tmr_Pre_Emp.c ****             #if (CY_PSOC5A)
  86:.\Generated_Source\PSoC5/TMR_Os_Tmr_Pre_Emp.c ****                 /* Set the default Run Mode of the Timer to Continuous */
  87:.\Generated_Source\PSoC5/TMR_Os_Tmr_Pre_Emp.c ****                 TMR_Os_Tmr_Pre_Emp_CONTROL2 |= TMR_Os_Tmr_Pre_Emp_CTRL_MODE_PULSEWIDTH;
  88:.\Generated_Source\PSoC5/TMR_Os_Tmr_Pre_Emp.c ****             #endif /* Set Continuous Run Mode in CONTROL2 for PSoC5A */
  89:.\Generated_Source\PSoC5/TMR_Os_Tmr_Pre_Emp.c **** 
  90:.\Generated_Source\PSoC5/TMR_Os_Tmr_Pre_Emp.c ****             #if (CY_PSOC3 || CY_PSOC5LP)
  91:.\Generated_Source\PSoC5/TMR_Os_Tmr_Pre_Emp.c ****                 /* Clear and Set ROD and COD bits of CFG2 register */
  92:.\Generated_Source\PSoC5/TMR_Os_Tmr_Pre_Emp.c ****                 TMR_Os_Tmr_Pre_Emp_CONTROL3 &= ((uint8)(~TMR_Os_Tmr_Pre_Emp_CTRL_RCOD_MASK));
  93:.\Generated_Source\PSoC5/TMR_Os_Tmr_Pre_Emp.c ****                 TMR_Os_Tmr_Pre_Emp_CONTROL3 |= TMR_Os_Tmr_Pre_Emp_CTRL_RCOD;
  94:.\Generated_Source\PSoC5/TMR_Os_Tmr_Pre_Emp.c **** 
  95:.\Generated_Source\PSoC5/TMR_Os_Tmr_Pre_Emp.c ****                 /* Clear and Enable the HW enable bit in CFG2 register */
  96:.\Generated_Source\PSoC5/TMR_Os_Tmr_Pre_Emp.c ****                 TMR_Os_Tmr_Pre_Emp_CONTROL3 &= ((uint8)(~TMR_Os_Tmr_Pre_Emp_CTRL_ENBL_MASK));
  97:.\Generated_Source\PSoC5/TMR_Os_Tmr_Pre_Emp.c ****                 TMR_Os_Tmr_Pre_Emp_CONTROL3 |= TMR_Os_Tmr_Pre_Emp_CTRL_ENBL;
  98:.\Generated_Source\PSoC5/TMR_Os_Tmr_Pre_Emp.c **** 
  99:.\Generated_Source\PSoC5/TMR_Os_Tmr_Pre_Emp.c ****                 /* Set the default Run Mode of the Timer to Continuous */
 100:.\Generated_Source\PSoC5/TMR_Os_Tmr_Pre_Emp.c ****                 TMR_Os_Tmr_Pre_Emp_CONTROL3 |= TMR_Os_Tmr_Pre_Emp_CTRL_MODE_CONTINUOUS;
 101:.\Generated_Source\PSoC5/TMR_Os_Tmr_Pre_Emp.c ****             #endif /* Set Continuous Run Mode in CONTROL3 for PSoC3ES3 or PSoC5A */
 102:.\Generated_Source\PSoC5/TMR_Os_Tmr_Pre_Emp.c **** 
 103:.\Generated_Source\PSoC5/TMR_Os_Tmr_Pre_Emp.c ****         #endif /* Configure Run Mode with hardware enable */
 104:.\Generated_Source\PSoC5/TMR_Os_Tmr_Pre_Emp.c **** 
 105:.\Generated_Source\PSoC5/TMR_Os_Tmr_Pre_Emp.c ****         /* Clear and Set SYNCTC and SYNCCMP bits of RT1 register */
 106:.\Generated_Source\PSoC5/TMR_Os_Tmr_Pre_Emp.c ****         TMR_Os_Tmr_Pre_Emp_RT1 &= ((uint8)(~TMR_Os_Tmr_Pre_Emp_RT1_MASK));
  41              		.loc 1 106 0
  42 0012 104B     		ldr	r3, .L2+4
  43 0014 1A78     		ldrb	r2, [r3]	@ zero_extendqisi2
  44 0016 02F0CF02 		and	r2, r2, #207
  45 001a 1A70     		strb	r2, [r3]
 107:.\Generated_Source\PSoC5/TMR_Os_Tmr_Pre_Emp.c ****         TMR_Os_Tmr_Pre_Emp_RT1 |= TMR_Os_Tmr_Pre_Emp_SYNC;
  46              		.loc 1 107 0
  47 001c 1A78     		ldrb	r2, [r3]	@ zero_extendqisi2
  48 001e 42F03002 		orr	r2, r2, #48
  49 0022 1A70     		strb	r2, [r3]
 108:.\Generated_Source\PSoC5/TMR_Os_Tmr_Pre_Emp.c **** 
 109:.\Generated_Source\PSoC5/TMR_Os_Tmr_Pre_Emp.c ****         /*Enable DSI Sync all all inputs of the Timer*/
 110:.\Generated_Source\PSoC5/TMR_Os_Tmr_Pre_Emp.c ****         TMR_Os_Tmr_Pre_Emp_RT1 &= ((uint8)(~TMR_Os_Tmr_Pre_Emp_SYNCDSI_MASK));
  50              		.loc 1 110 0
  51 0024 1A78     		ldrb	r2, [r3]	@ zero_extendqisi2
  52 0026 02F0F002 		and	r2, r2, #240
  53 002a 1A70     		strb	r2, [r3]
 111:.\Generated_Source\PSoC5/TMR_Os_Tmr_Pre_Emp.c ****         TMR_Os_Tmr_Pre_Emp_RT1 |= TMR_Os_Tmr_Pre_Emp_SYNCDSI_EN;
  54              		.loc 1 111 0
  55 002c 1A78     		ldrb	r2, [r3]	@ zero_extendqisi2
  56 002e 42F00F02 		orr	r2, r2, #15
  57 0032 1A70     		strb	r2, [r3]
 112:.\Generated_Source\PSoC5/TMR_Os_Tmr_Pre_Emp.c **** 
 113:.\Generated_Source\PSoC5/TMR_Os_Tmr_Pre_Emp.c ****         /* Set the IRQ to use the status register interrupts */
 114:.\Generated_Source\PSoC5/TMR_Os_Tmr_Pre_Emp.c ****         TMR_Os_Tmr_Pre_Emp_CONTROL2 |= TMR_Os_Tmr_Pre_Emp_CTRL2_IRQ_SEL;
ARM GAS  C:\Users\acer\AppData\Local\Temp\ccQB5Mdb.s 			page 4


  58              		.loc 1 114 0
  59 0034 084A     		ldr	r2, .L2+8
  60 0036 1378     		ldrb	r3, [r2]	@ zero_extendqisi2
  61 0038 43F00103 		orr	r3, r3, #1
  62 003c 1370     		strb	r3, [r2]
  63              	.LVL0:
  64              	.LBB8:
  65              	.LBB9:
 115:.\Generated_Source\PSoC5/TMR_Os_Tmr_Pre_Emp.c ****     #endif /* Configuring registers of fixed function implementation */
 116:.\Generated_Source\PSoC5/TMR_Os_Tmr_Pre_Emp.c **** 
 117:.\Generated_Source\PSoC5/TMR_Os_Tmr_Pre_Emp.c ****     /* Set Initial values from Configuration */
 118:.\Generated_Source\PSoC5/TMR_Os_Tmr_Pre_Emp.c ****     TMR_Os_Tmr_Pre_Emp_WritePeriod(TMR_Os_Tmr_Pre_Emp_INIT_PERIOD);
 119:.\Generated_Source\PSoC5/TMR_Os_Tmr_Pre_Emp.c ****     TMR_Os_Tmr_Pre_Emp_WriteCounter(TMR_Os_Tmr_Pre_Emp_INIT_PERIOD);
 120:.\Generated_Source\PSoC5/TMR_Os_Tmr_Pre_Emp.c **** 
 121:.\Generated_Source\PSoC5/TMR_Os_Tmr_Pre_Emp.c ****     #if (TMR_Os_Tmr_Pre_Emp_UsingHWCaptureCounter)/* Capture counter is enabled */
 122:.\Generated_Source\PSoC5/TMR_Os_Tmr_Pre_Emp.c ****         TMR_Os_Tmr_Pre_Emp_CAPTURE_COUNT_CTRL |= TMR_Os_Tmr_Pre_Emp_CNTR_ENABLE;
 123:.\Generated_Source\PSoC5/TMR_Os_Tmr_Pre_Emp.c ****         TMR_Os_Tmr_Pre_Emp_SetCaptureCount(TMR_Os_Tmr_Pre_Emp_INIT_CAPTURE_COUNT);
 124:.\Generated_Source\PSoC5/TMR_Os_Tmr_Pre_Emp.c ****     #endif /* Configure capture counter value */
 125:.\Generated_Source\PSoC5/TMR_Os_Tmr_Pre_Emp.c **** 
 126:.\Generated_Source\PSoC5/TMR_Os_Tmr_Pre_Emp.c ****     #if (!TMR_Os_Tmr_Pre_Emp_UsingFixedFunction)
 127:.\Generated_Source\PSoC5/TMR_Os_Tmr_Pre_Emp.c ****         #if (TMR_Os_Tmr_Pre_Emp_SoftwareCaptureMode)
 128:.\Generated_Source\PSoC5/TMR_Os_Tmr_Pre_Emp.c ****             TMR_Os_Tmr_Pre_Emp_SetCaptureMode(TMR_Os_Tmr_Pre_Emp_INIT_CAPTURE_MODE);
 129:.\Generated_Source\PSoC5/TMR_Os_Tmr_Pre_Emp.c ****         #endif /* Set Capture Mode for UDB implementation if capture mode is software controlled */
 130:.\Generated_Source\PSoC5/TMR_Os_Tmr_Pre_Emp.c **** 
 131:.\Generated_Source\PSoC5/TMR_Os_Tmr_Pre_Emp.c ****         #if (TMR_Os_Tmr_Pre_Emp_SoftwareTriggerMode)
 132:.\Generated_Source\PSoC5/TMR_Os_Tmr_Pre_Emp.c ****             #if (!TMR_Os_Tmr_Pre_Emp_UDB_CONTROL_REG_REMOVED)
 133:.\Generated_Source\PSoC5/TMR_Os_Tmr_Pre_Emp.c ****                 if (0u == (TMR_Os_Tmr_Pre_Emp_CONTROL & TMR_Os_Tmr_Pre_Emp__B_TIMER__TM_SOFTWARE))
 134:.\Generated_Source\PSoC5/TMR_Os_Tmr_Pre_Emp.c ****                 {
 135:.\Generated_Source\PSoC5/TMR_Os_Tmr_Pre_Emp.c ****                     TMR_Os_Tmr_Pre_Emp_SetTriggerMode(TMR_Os_Tmr_Pre_Emp_INIT_TRIGGER_MODE);
 136:.\Generated_Source\PSoC5/TMR_Os_Tmr_Pre_Emp.c ****                 }
 137:.\Generated_Source\PSoC5/TMR_Os_Tmr_Pre_Emp.c ****             #endif /* (!TMR_Os_Tmr_Pre_Emp_UDB_CONTROL_REG_REMOVED) */
 138:.\Generated_Source\PSoC5/TMR_Os_Tmr_Pre_Emp.c ****         #endif /* Set trigger mode for UDB Implementation if trigger mode is software controlled */
 139:.\Generated_Source\PSoC5/TMR_Os_Tmr_Pre_Emp.c **** 
 140:.\Generated_Source\PSoC5/TMR_Os_Tmr_Pre_Emp.c ****         /* CyEnterCriticalRegion and CyExitCriticalRegion are used to mark following region critica
 141:.\Generated_Source\PSoC5/TMR_Os_Tmr_Pre_Emp.c ****         /* Enter Critical Region*/
 142:.\Generated_Source\PSoC5/TMR_Os_Tmr_Pre_Emp.c ****         TMR_Os_Tmr_Pre_Emp_interruptState = CyEnterCriticalSection();
 143:.\Generated_Source\PSoC5/TMR_Os_Tmr_Pre_Emp.c **** 
 144:.\Generated_Source\PSoC5/TMR_Os_Tmr_Pre_Emp.c ****         /* Use the interrupt output of the status register for IRQ output */
 145:.\Generated_Source\PSoC5/TMR_Os_Tmr_Pre_Emp.c ****         TMR_Os_Tmr_Pre_Emp_STATUS_AUX_CTRL |= TMR_Os_Tmr_Pre_Emp_STATUS_ACTL_INT_EN_MASK;
 146:.\Generated_Source\PSoC5/TMR_Os_Tmr_Pre_Emp.c **** 
 147:.\Generated_Source\PSoC5/TMR_Os_Tmr_Pre_Emp.c ****         /* Exit Critical Region*/
 148:.\Generated_Source\PSoC5/TMR_Os_Tmr_Pre_Emp.c ****         CyExitCriticalSection(TMR_Os_Tmr_Pre_Emp_interruptState);
 149:.\Generated_Source\PSoC5/TMR_Os_Tmr_Pre_Emp.c **** 
 150:.\Generated_Source\PSoC5/TMR_Os_Tmr_Pre_Emp.c ****         #if (TMR_Os_Tmr_Pre_Emp_EnableTriggerMode)
 151:.\Generated_Source\PSoC5/TMR_Os_Tmr_Pre_Emp.c ****             TMR_Os_Tmr_Pre_Emp_EnableTrigger();
 152:.\Generated_Source\PSoC5/TMR_Os_Tmr_Pre_Emp.c ****         #endif /* Set Trigger enable bit for UDB implementation in the control register*/
 153:.\Generated_Source\PSoC5/TMR_Os_Tmr_Pre_Emp.c **** 		
 154:.\Generated_Source\PSoC5/TMR_Os_Tmr_Pre_Emp.c **** 		
 155:.\Generated_Source\PSoC5/TMR_Os_Tmr_Pre_Emp.c ****         #if (TMR_Os_Tmr_Pre_Emp_InterruptOnCaptureCount && !TMR_Os_Tmr_Pre_Emp_UDB_CONTROL_REG_REMO
 156:.\Generated_Source\PSoC5/TMR_Os_Tmr_Pre_Emp.c ****             TMR_Os_Tmr_Pre_Emp_SetInterruptCount(TMR_Os_Tmr_Pre_Emp_INIT_INT_CAPTURE_COUNT);
 157:.\Generated_Source\PSoC5/TMR_Os_Tmr_Pre_Emp.c ****         #endif /* Set interrupt count in UDB implementation if interrupt count feature is checked.*
 158:.\Generated_Source\PSoC5/TMR_Os_Tmr_Pre_Emp.c **** 
 159:.\Generated_Source\PSoC5/TMR_Os_Tmr_Pre_Emp.c ****         TMR_Os_Tmr_Pre_Emp_ClearFIFO();
 160:.\Generated_Source\PSoC5/TMR_Os_Tmr_Pre_Emp.c ****     #endif /* Configure additional features of UDB implementation */
 161:.\Generated_Source\PSoC5/TMR_Os_Tmr_Pre_Emp.c **** 
 162:.\Generated_Source\PSoC5/TMR_Os_Tmr_Pre_Emp.c ****     TMR_Os_Tmr_Pre_Emp_SetInterruptMode(TMR_Os_Tmr_Pre_Emp_INIT_INTERRUPT_MODE);
 163:.\Generated_Source\PSoC5/TMR_Os_Tmr_Pre_Emp.c **** }
ARM GAS  C:\Users\acer\AppData\Local\Temp\ccQB5Mdb.s 			page 5


 164:.\Generated_Source\PSoC5/TMR_Os_Tmr_Pre_Emp.c **** 
 165:.\Generated_Source\PSoC5/TMR_Os_Tmr_Pre_Emp.c **** 
 166:.\Generated_Source\PSoC5/TMR_Os_Tmr_Pre_Emp.c **** /*******************************************************************************
 167:.\Generated_Source\PSoC5/TMR_Os_Tmr_Pre_Emp.c **** * Function Name: TMR_Os_Tmr_Pre_Emp_Enable
 168:.\Generated_Source\PSoC5/TMR_Os_Tmr_Pre_Emp.c **** ********************************************************************************
 169:.\Generated_Source\PSoC5/TMR_Os_Tmr_Pre_Emp.c **** *
 170:.\Generated_Source\PSoC5/TMR_Os_Tmr_Pre_Emp.c **** * Summary:
 171:.\Generated_Source\PSoC5/TMR_Os_Tmr_Pre_Emp.c **** *  Enable the Timer
 172:.\Generated_Source\PSoC5/TMR_Os_Tmr_Pre_Emp.c **** *
 173:.\Generated_Source\PSoC5/TMR_Os_Tmr_Pre_Emp.c **** * Parameters:
 174:.\Generated_Source\PSoC5/TMR_Os_Tmr_Pre_Emp.c **** *  void
 175:.\Generated_Source\PSoC5/TMR_Os_Tmr_Pre_Emp.c **** *
 176:.\Generated_Source\PSoC5/TMR_Os_Tmr_Pre_Emp.c **** * Return:
 177:.\Generated_Source\PSoC5/TMR_Os_Tmr_Pre_Emp.c **** *  void
 178:.\Generated_Source\PSoC5/TMR_Os_Tmr_Pre_Emp.c **** *
 179:.\Generated_Source\PSoC5/TMR_Os_Tmr_Pre_Emp.c **** *******************************************************************************/
 180:.\Generated_Source\PSoC5/TMR_Os_Tmr_Pre_Emp.c **** void TMR_Os_Tmr_Pre_Emp_Enable(void) 
 181:.\Generated_Source\PSoC5/TMR_Os_Tmr_Pre_Emp.c **** {
 182:.\Generated_Source\PSoC5/TMR_Os_Tmr_Pre_Emp.c ****     /* Globally Enable the Fixed Function Block chosen */
 183:.\Generated_Source\PSoC5/TMR_Os_Tmr_Pre_Emp.c ****     #if (TMR_Os_Tmr_Pre_Emp_UsingFixedFunction)
 184:.\Generated_Source\PSoC5/TMR_Os_Tmr_Pre_Emp.c ****         TMR_Os_Tmr_Pre_Emp_GLOBAL_ENABLE |= TMR_Os_Tmr_Pre_Emp_BLOCK_EN_MASK;
 185:.\Generated_Source\PSoC5/TMR_Os_Tmr_Pre_Emp.c ****         TMR_Os_Tmr_Pre_Emp_GLOBAL_STBY_ENABLE |= TMR_Os_Tmr_Pre_Emp_BLOCK_STBY_EN_MASK;
 186:.\Generated_Source\PSoC5/TMR_Os_Tmr_Pre_Emp.c ****     #endif /* Set Enable bit for enabling Fixed function timer*/
 187:.\Generated_Source\PSoC5/TMR_Os_Tmr_Pre_Emp.c **** 
 188:.\Generated_Source\PSoC5/TMR_Os_Tmr_Pre_Emp.c ****     /* Remove assignment if control register is removed */
 189:.\Generated_Source\PSoC5/TMR_Os_Tmr_Pre_Emp.c ****     #if (!TMR_Os_Tmr_Pre_Emp_UDB_CONTROL_REG_REMOVED || TMR_Os_Tmr_Pre_Emp_UsingFixedFunction)
 190:.\Generated_Source\PSoC5/TMR_Os_Tmr_Pre_Emp.c ****         TMR_Os_Tmr_Pre_Emp_CONTROL |= TMR_Os_Tmr_Pre_Emp_CTRL_ENABLE;
 191:.\Generated_Source\PSoC5/TMR_Os_Tmr_Pre_Emp.c ****     #endif /* Remove assignment if control register is removed */
 192:.\Generated_Source\PSoC5/TMR_Os_Tmr_Pre_Emp.c **** }
 193:.\Generated_Source\PSoC5/TMR_Os_Tmr_Pre_Emp.c **** 
 194:.\Generated_Source\PSoC5/TMR_Os_Tmr_Pre_Emp.c **** 
 195:.\Generated_Source\PSoC5/TMR_Os_Tmr_Pre_Emp.c **** /*******************************************************************************
 196:.\Generated_Source\PSoC5/TMR_Os_Tmr_Pre_Emp.c **** * Function Name: TMR_Os_Tmr_Pre_Emp_Start
 197:.\Generated_Source\PSoC5/TMR_Os_Tmr_Pre_Emp.c **** ********************************************************************************
 198:.\Generated_Source\PSoC5/TMR_Os_Tmr_Pre_Emp.c **** *
 199:.\Generated_Source\PSoC5/TMR_Os_Tmr_Pre_Emp.c **** * Summary:
 200:.\Generated_Source\PSoC5/TMR_Os_Tmr_Pre_Emp.c **** *  The start function initializes the timer with the default values, the
 201:.\Generated_Source\PSoC5/TMR_Os_Tmr_Pre_Emp.c **** *  enables the timerto begin counting.  It does not enable interrupts,
 202:.\Generated_Source\PSoC5/TMR_Os_Tmr_Pre_Emp.c **** *  the EnableInt command should be called if interrupt generation is required.
 203:.\Generated_Source\PSoC5/TMR_Os_Tmr_Pre_Emp.c **** *
 204:.\Generated_Source\PSoC5/TMR_Os_Tmr_Pre_Emp.c **** * Parameters:
 205:.\Generated_Source\PSoC5/TMR_Os_Tmr_Pre_Emp.c **** *  void
 206:.\Generated_Source\PSoC5/TMR_Os_Tmr_Pre_Emp.c **** *
 207:.\Generated_Source\PSoC5/TMR_Os_Tmr_Pre_Emp.c **** * Return:
 208:.\Generated_Source\PSoC5/TMR_Os_Tmr_Pre_Emp.c **** *  void
 209:.\Generated_Source\PSoC5/TMR_Os_Tmr_Pre_Emp.c **** *
 210:.\Generated_Source\PSoC5/TMR_Os_Tmr_Pre_Emp.c **** * Global variables:
 211:.\Generated_Source\PSoC5/TMR_Os_Tmr_Pre_Emp.c **** *  TMR_Os_Tmr_Pre_Emp_initVar: Is modified when this function is called for the
 212:.\Generated_Source\PSoC5/TMR_Os_Tmr_Pre_Emp.c **** *   first time. Is used to ensure that initialization happens only once.
 213:.\Generated_Source\PSoC5/TMR_Os_Tmr_Pre_Emp.c **** *
 214:.\Generated_Source\PSoC5/TMR_Os_Tmr_Pre_Emp.c **** *******************************************************************************/
 215:.\Generated_Source\PSoC5/TMR_Os_Tmr_Pre_Emp.c **** void TMR_Os_Tmr_Pre_Emp_Start(void) 
 216:.\Generated_Source\PSoC5/TMR_Os_Tmr_Pre_Emp.c **** {
 217:.\Generated_Source\PSoC5/TMR_Os_Tmr_Pre_Emp.c ****     if(TMR_Os_Tmr_Pre_Emp_initVar == 0u)
 218:.\Generated_Source\PSoC5/TMR_Os_Tmr_Pre_Emp.c ****     {
 219:.\Generated_Source\PSoC5/TMR_Os_Tmr_Pre_Emp.c ****         TMR_Os_Tmr_Pre_Emp_Init();
 220:.\Generated_Source\PSoC5/TMR_Os_Tmr_Pre_Emp.c **** 
ARM GAS  C:\Users\acer\AppData\Local\Temp\ccQB5Mdb.s 			page 6


 221:.\Generated_Source\PSoC5/TMR_Os_Tmr_Pre_Emp.c ****         TMR_Os_Tmr_Pre_Emp_initVar = 1u;   /* Clear this bit for Initialization */
 222:.\Generated_Source\PSoC5/TMR_Os_Tmr_Pre_Emp.c ****     }
 223:.\Generated_Source\PSoC5/TMR_Os_Tmr_Pre_Emp.c **** 
 224:.\Generated_Source\PSoC5/TMR_Os_Tmr_Pre_Emp.c ****     /* Enable the Timer */
 225:.\Generated_Source\PSoC5/TMR_Os_Tmr_Pre_Emp.c ****     TMR_Os_Tmr_Pre_Emp_Enable();
 226:.\Generated_Source\PSoC5/TMR_Os_Tmr_Pre_Emp.c **** }
 227:.\Generated_Source\PSoC5/TMR_Os_Tmr_Pre_Emp.c **** 
 228:.\Generated_Source\PSoC5/TMR_Os_Tmr_Pre_Emp.c **** 
 229:.\Generated_Source\PSoC5/TMR_Os_Tmr_Pre_Emp.c **** /*******************************************************************************
 230:.\Generated_Source\PSoC5/TMR_Os_Tmr_Pre_Emp.c **** * Function Name: TMR_Os_Tmr_Pre_Emp_Stop
 231:.\Generated_Source\PSoC5/TMR_Os_Tmr_Pre_Emp.c **** ********************************************************************************
 232:.\Generated_Source\PSoC5/TMR_Os_Tmr_Pre_Emp.c **** *
 233:.\Generated_Source\PSoC5/TMR_Os_Tmr_Pre_Emp.c **** * Summary:
 234:.\Generated_Source\PSoC5/TMR_Os_Tmr_Pre_Emp.c **** *  The stop function halts the timer, but does not change any modes or disable
 235:.\Generated_Source\PSoC5/TMR_Os_Tmr_Pre_Emp.c **** *  interrupts.
 236:.\Generated_Source\PSoC5/TMR_Os_Tmr_Pre_Emp.c **** *
 237:.\Generated_Source\PSoC5/TMR_Os_Tmr_Pre_Emp.c **** * Parameters:
 238:.\Generated_Source\PSoC5/TMR_Os_Tmr_Pre_Emp.c **** *  void
 239:.\Generated_Source\PSoC5/TMR_Os_Tmr_Pre_Emp.c **** *
 240:.\Generated_Source\PSoC5/TMR_Os_Tmr_Pre_Emp.c **** * Return:
 241:.\Generated_Source\PSoC5/TMR_Os_Tmr_Pre_Emp.c **** *  void
 242:.\Generated_Source\PSoC5/TMR_Os_Tmr_Pre_Emp.c **** *
 243:.\Generated_Source\PSoC5/TMR_Os_Tmr_Pre_Emp.c **** * Side Effects: If the Enable mode is set to Hardware only then this function
 244:.\Generated_Source\PSoC5/TMR_Os_Tmr_Pre_Emp.c **** *               has no effect on the operation of the timer.
 245:.\Generated_Source\PSoC5/TMR_Os_Tmr_Pre_Emp.c **** *
 246:.\Generated_Source\PSoC5/TMR_Os_Tmr_Pre_Emp.c **** *******************************************************************************/
 247:.\Generated_Source\PSoC5/TMR_Os_Tmr_Pre_Emp.c **** void TMR_Os_Tmr_Pre_Emp_Stop(void) 
 248:.\Generated_Source\PSoC5/TMR_Os_Tmr_Pre_Emp.c **** {
 249:.\Generated_Source\PSoC5/TMR_Os_Tmr_Pre_Emp.c ****     /* Disable Timer */
 250:.\Generated_Source\PSoC5/TMR_Os_Tmr_Pre_Emp.c ****     #if(!TMR_Os_Tmr_Pre_Emp_UDB_CONTROL_REG_REMOVED || TMR_Os_Tmr_Pre_Emp_UsingFixedFunction)
 251:.\Generated_Source\PSoC5/TMR_Os_Tmr_Pre_Emp.c ****         TMR_Os_Tmr_Pre_Emp_CONTROL &= ((uint8)(~TMR_Os_Tmr_Pre_Emp_CTRL_ENABLE));
 252:.\Generated_Source\PSoC5/TMR_Os_Tmr_Pre_Emp.c ****     #endif /* Remove assignment if control register is removed */
 253:.\Generated_Source\PSoC5/TMR_Os_Tmr_Pre_Emp.c **** 
 254:.\Generated_Source\PSoC5/TMR_Os_Tmr_Pre_Emp.c ****     /* Globally disable the Fixed Function Block chosen */
 255:.\Generated_Source\PSoC5/TMR_Os_Tmr_Pre_Emp.c ****     #if (TMR_Os_Tmr_Pre_Emp_UsingFixedFunction)
 256:.\Generated_Source\PSoC5/TMR_Os_Tmr_Pre_Emp.c ****         TMR_Os_Tmr_Pre_Emp_GLOBAL_ENABLE &= ((uint8)(~TMR_Os_Tmr_Pre_Emp_BLOCK_EN_MASK));
 257:.\Generated_Source\PSoC5/TMR_Os_Tmr_Pre_Emp.c ****         TMR_Os_Tmr_Pre_Emp_GLOBAL_STBY_ENABLE &= ((uint8)(~TMR_Os_Tmr_Pre_Emp_BLOCK_STBY_EN_MASK));
 258:.\Generated_Source\PSoC5/TMR_Os_Tmr_Pre_Emp.c ****     #endif /* Disable global enable for the Timer Fixed function block to stop the Timer*/
 259:.\Generated_Source\PSoC5/TMR_Os_Tmr_Pre_Emp.c **** }
 260:.\Generated_Source\PSoC5/TMR_Os_Tmr_Pre_Emp.c **** 
 261:.\Generated_Source\PSoC5/TMR_Os_Tmr_Pre_Emp.c **** 
 262:.\Generated_Source\PSoC5/TMR_Os_Tmr_Pre_Emp.c **** /*******************************************************************************
 263:.\Generated_Source\PSoC5/TMR_Os_Tmr_Pre_Emp.c **** * Function Name: TMR_Os_Tmr_Pre_Emp_SetInterruptMode
 264:.\Generated_Source\PSoC5/TMR_Os_Tmr_Pre_Emp.c **** ********************************************************************************
 265:.\Generated_Source\PSoC5/TMR_Os_Tmr_Pre_Emp.c **** *
 266:.\Generated_Source\PSoC5/TMR_Os_Tmr_Pre_Emp.c **** * Summary:
 267:.\Generated_Source\PSoC5/TMR_Os_Tmr_Pre_Emp.c **** *  This function selects which of the interrupt inputs may cause an interrupt.
 268:.\Generated_Source\PSoC5/TMR_Os_Tmr_Pre_Emp.c **** *  The twosources are caputure and terminal.  One, both or neither may
 269:.\Generated_Source\PSoC5/TMR_Os_Tmr_Pre_Emp.c **** *  be selected.
 270:.\Generated_Source\PSoC5/TMR_Os_Tmr_Pre_Emp.c **** *
 271:.\Generated_Source\PSoC5/TMR_Os_Tmr_Pre_Emp.c **** * Parameters:
 272:.\Generated_Source\PSoC5/TMR_Os_Tmr_Pre_Emp.c **** *  interruptMode:   This parameter is used to enable interrups on either/or
 273:.\Generated_Source\PSoC5/TMR_Os_Tmr_Pre_Emp.c **** *                   terminal count or capture.
 274:.\Generated_Source\PSoC5/TMR_Os_Tmr_Pre_Emp.c **** *
 275:.\Generated_Source\PSoC5/TMR_Os_Tmr_Pre_Emp.c **** * Return:
 276:.\Generated_Source\PSoC5/TMR_Os_Tmr_Pre_Emp.c **** *  void
 277:.\Generated_Source\PSoC5/TMR_Os_Tmr_Pre_Emp.c **** *
ARM GAS  C:\Users\acer\AppData\Local\Temp\ccQB5Mdb.s 			page 7


 278:.\Generated_Source\PSoC5/TMR_Os_Tmr_Pre_Emp.c **** *******************************************************************************/
 279:.\Generated_Source\PSoC5/TMR_Os_Tmr_Pre_Emp.c **** void TMR_Os_Tmr_Pre_Emp_SetInterruptMode(uint8 interruptMode) 
 280:.\Generated_Source\PSoC5/TMR_Os_Tmr_Pre_Emp.c **** {
 281:.\Generated_Source\PSoC5/TMR_Os_Tmr_Pre_Emp.c ****     TMR_Os_Tmr_Pre_Emp_STATUS_MASK = interruptMode;
 282:.\Generated_Source\PSoC5/TMR_Os_Tmr_Pre_Emp.c **** }
 283:.\Generated_Source\PSoC5/TMR_Os_Tmr_Pre_Emp.c **** 
 284:.\Generated_Source\PSoC5/TMR_Os_Tmr_Pre_Emp.c **** 
 285:.\Generated_Source\PSoC5/TMR_Os_Tmr_Pre_Emp.c **** /*******************************************************************************
 286:.\Generated_Source\PSoC5/TMR_Os_Tmr_Pre_Emp.c **** * Function Name: TMR_Os_Tmr_Pre_Emp_SoftwareCapture
 287:.\Generated_Source\PSoC5/TMR_Os_Tmr_Pre_Emp.c **** ********************************************************************************
 288:.\Generated_Source\PSoC5/TMR_Os_Tmr_Pre_Emp.c **** *
 289:.\Generated_Source\PSoC5/TMR_Os_Tmr_Pre_Emp.c **** * Summary:
 290:.\Generated_Source\PSoC5/TMR_Os_Tmr_Pre_Emp.c **** *  This function forces a capture independent of the capture signal.
 291:.\Generated_Source\PSoC5/TMR_Os_Tmr_Pre_Emp.c **** *
 292:.\Generated_Source\PSoC5/TMR_Os_Tmr_Pre_Emp.c **** * Parameters:
 293:.\Generated_Source\PSoC5/TMR_Os_Tmr_Pre_Emp.c **** *  void
 294:.\Generated_Source\PSoC5/TMR_Os_Tmr_Pre_Emp.c **** *
 295:.\Generated_Source\PSoC5/TMR_Os_Tmr_Pre_Emp.c **** * Return:
 296:.\Generated_Source\PSoC5/TMR_Os_Tmr_Pre_Emp.c **** *  void
 297:.\Generated_Source\PSoC5/TMR_Os_Tmr_Pre_Emp.c **** *
 298:.\Generated_Source\PSoC5/TMR_Os_Tmr_Pre_Emp.c **** * Side Effects:
 299:.\Generated_Source\PSoC5/TMR_Os_Tmr_Pre_Emp.c **** *  An existing hardware capture could be overwritten.
 300:.\Generated_Source\PSoC5/TMR_Os_Tmr_Pre_Emp.c **** *
 301:.\Generated_Source\PSoC5/TMR_Os_Tmr_Pre_Emp.c **** *******************************************************************************/
 302:.\Generated_Source\PSoC5/TMR_Os_Tmr_Pre_Emp.c **** void TMR_Os_Tmr_Pre_Emp_SoftwareCapture(void) 
 303:.\Generated_Source\PSoC5/TMR_Os_Tmr_Pre_Emp.c **** {
 304:.\Generated_Source\PSoC5/TMR_Os_Tmr_Pre_Emp.c ****     /* Generate a software capture by reading the counter register */
 305:.\Generated_Source\PSoC5/TMR_Os_Tmr_Pre_Emp.c ****     #if(TMR_Os_Tmr_Pre_Emp_UsingFixedFunction)
 306:.\Generated_Source\PSoC5/TMR_Os_Tmr_Pre_Emp.c ****         (void)CY_GET_REG16(TMR_Os_Tmr_Pre_Emp_COUNTER_LSB_PTR);
 307:.\Generated_Source\PSoC5/TMR_Os_Tmr_Pre_Emp.c ****     #else
 308:.\Generated_Source\PSoC5/TMR_Os_Tmr_Pre_Emp.c ****         (void)CY_GET_REG8(TMR_Os_Tmr_Pre_Emp_COUNTER_LSB_PTR_8BIT);
 309:.\Generated_Source\PSoC5/TMR_Os_Tmr_Pre_Emp.c ****     #endif/* (TMR_Os_Tmr_Pre_Emp_UsingFixedFunction) */
 310:.\Generated_Source\PSoC5/TMR_Os_Tmr_Pre_Emp.c ****     /* Capture Data is now in the FIFO */
 311:.\Generated_Source\PSoC5/TMR_Os_Tmr_Pre_Emp.c **** }
 312:.\Generated_Source\PSoC5/TMR_Os_Tmr_Pre_Emp.c **** 
 313:.\Generated_Source\PSoC5/TMR_Os_Tmr_Pre_Emp.c **** 
 314:.\Generated_Source\PSoC5/TMR_Os_Tmr_Pre_Emp.c **** /*******************************************************************************
 315:.\Generated_Source\PSoC5/TMR_Os_Tmr_Pre_Emp.c **** * Function Name: TMR_Os_Tmr_Pre_Emp_ReadStatusRegister
 316:.\Generated_Source\PSoC5/TMR_Os_Tmr_Pre_Emp.c **** ********************************************************************************
 317:.\Generated_Source\PSoC5/TMR_Os_Tmr_Pre_Emp.c **** *
 318:.\Generated_Source\PSoC5/TMR_Os_Tmr_Pre_Emp.c **** * Summary:
 319:.\Generated_Source\PSoC5/TMR_Os_Tmr_Pre_Emp.c **** *  Reads the status register and returns it's state. This function should use
 320:.\Generated_Source\PSoC5/TMR_Os_Tmr_Pre_Emp.c **** *  defined types for the bit-field information as the bits in this register may
 321:.\Generated_Source\PSoC5/TMR_Os_Tmr_Pre_Emp.c **** *  be permuteable.
 322:.\Generated_Source\PSoC5/TMR_Os_Tmr_Pre_Emp.c **** *
 323:.\Generated_Source\PSoC5/TMR_Os_Tmr_Pre_Emp.c **** * Parameters:
 324:.\Generated_Source\PSoC5/TMR_Os_Tmr_Pre_Emp.c **** *  void
 325:.\Generated_Source\PSoC5/TMR_Os_Tmr_Pre_Emp.c **** *
 326:.\Generated_Source\PSoC5/TMR_Os_Tmr_Pre_Emp.c **** * Return:
 327:.\Generated_Source\PSoC5/TMR_Os_Tmr_Pre_Emp.c **** *  The contents of the status register
 328:.\Generated_Source\PSoC5/TMR_Os_Tmr_Pre_Emp.c **** *
 329:.\Generated_Source\PSoC5/TMR_Os_Tmr_Pre_Emp.c **** * Side Effects:
 330:.\Generated_Source\PSoC5/TMR_Os_Tmr_Pre_Emp.c **** *  Status register bits may be clear on read.
 331:.\Generated_Source\PSoC5/TMR_Os_Tmr_Pre_Emp.c **** *
 332:.\Generated_Source\PSoC5/TMR_Os_Tmr_Pre_Emp.c **** *******************************************************************************/
 333:.\Generated_Source\PSoC5/TMR_Os_Tmr_Pre_Emp.c **** uint8   TMR_Os_Tmr_Pre_Emp_ReadStatusRegister(void) 
 334:.\Generated_Source\PSoC5/TMR_Os_Tmr_Pre_Emp.c **** {
ARM GAS  C:\Users\acer\AppData\Local\Temp\ccQB5Mdb.s 			page 8


 335:.\Generated_Source\PSoC5/TMR_Os_Tmr_Pre_Emp.c ****     return (TMR_Os_Tmr_Pre_Emp_STATUS);
 336:.\Generated_Source\PSoC5/TMR_Os_Tmr_Pre_Emp.c **** }
 337:.\Generated_Source\PSoC5/TMR_Os_Tmr_Pre_Emp.c **** 
 338:.\Generated_Source\PSoC5/TMR_Os_Tmr_Pre_Emp.c **** 
 339:.\Generated_Source\PSoC5/TMR_Os_Tmr_Pre_Emp.c **** #if (!TMR_Os_Tmr_Pre_Emp_UDB_CONTROL_REG_REMOVED) /* Remove API if control register is unused */
 340:.\Generated_Source\PSoC5/TMR_Os_Tmr_Pre_Emp.c **** 
 341:.\Generated_Source\PSoC5/TMR_Os_Tmr_Pre_Emp.c **** 
 342:.\Generated_Source\PSoC5/TMR_Os_Tmr_Pre_Emp.c **** /*******************************************************************************
 343:.\Generated_Source\PSoC5/TMR_Os_Tmr_Pre_Emp.c **** * Function Name: TMR_Os_Tmr_Pre_Emp_ReadControlRegister
 344:.\Generated_Source\PSoC5/TMR_Os_Tmr_Pre_Emp.c **** ********************************************************************************
 345:.\Generated_Source\PSoC5/TMR_Os_Tmr_Pre_Emp.c **** *
 346:.\Generated_Source\PSoC5/TMR_Os_Tmr_Pre_Emp.c **** * Summary:
 347:.\Generated_Source\PSoC5/TMR_Os_Tmr_Pre_Emp.c **** *  Reads the control register and returns it's value.
 348:.\Generated_Source\PSoC5/TMR_Os_Tmr_Pre_Emp.c **** *
 349:.\Generated_Source\PSoC5/TMR_Os_Tmr_Pre_Emp.c **** * Parameters:
 350:.\Generated_Source\PSoC5/TMR_Os_Tmr_Pre_Emp.c **** *  void
 351:.\Generated_Source\PSoC5/TMR_Os_Tmr_Pre_Emp.c **** *
 352:.\Generated_Source\PSoC5/TMR_Os_Tmr_Pre_Emp.c **** * Return:
 353:.\Generated_Source\PSoC5/TMR_Os_Tmr_Pre_Emp.c **** *  The contents of the control register
 354:.\Generated_Source\PSoC5/TMR_Os_Tmr_Pre_Emp.c **** *
 355:.\Generated_Source\PSoC5/TMR_Os_Tmr_Pre_Emp.c **** *******************************************************************************/
 356:.\Generated_Source\PSoC5/TMR_Os_Tmr_Pre_Emp.c **** uint8 TMR_Os_Tmr_Pre_Emp_ReadControlRegister(void) 
 357:.\Generated_Source\PSoC5/TMR_Os_Tmr_Pre_Emp.c **** {
 358:.\Generated_Source\PSoC5/TMR_Os_Tmr_Pre_Emp.c ****     #if (!TMR_Os_Tmr_Pre_Emp_UDB_CONTROL_REG_REMOVED) 
 359:.\Generated_Source\PSoC5/TMR_Os_Tmr_Pre_Emp.c ****         return ((uint8)TMR_Os_Tmr_Pre_Emp_CONTROL);
 360:.\Generated_Source\PSoC5/TMR_Os_Tmr_Pre_Emp.c ****     #else
 361:.\Generated_Source\PSoC5/TMR_Os_Tmr_Pre_Emp.c ****         return (0);
 362:.\Generated_Source\PSoC5/TMR_Os_Tmr_Pre_Emp.c ****     #endif /* (!TMR_Os_Tmr_Pre_Emp_UDB_CONTROL_REG_REMOVED) */
 363:.\Generated_Source\PSoC5/TMR_Os_Tmr_Pre_Emp.c **** }
 364:.\Generated_Source\PSoC5/TMR_Os_Tmr_Pre_Emp.c **** 
 365:.\Generated_Source\PSoC5/TMR_Os_Tmr_Pre_Emp.c **** 
 366:.\Generated_Source\PSoC5/TMR_Os_Tmr_Pre_Emp.c **** /*******************************************************************************
 367:.\Generated_Source\PSoC5/TMR_Os_Tmr_Pre_Emp.c **** * Function Name: TMR_Os_Tmr_Pre_Emp_WriteControlRegister
 368:.\Generated_Source\PSoC5/TMR_Os_Tmr_Pre_Emp.c **** ********************************************************************************
 369:.\Generated_Source\PSoC5/TMR_Os_Tmr_Pre_Emp.c **** *
 370:.\Generated_Source\PSoC5/TMR_Os_Tmr_Pre_Emp.c **** * Summary:
 371:.\Generated_Source\PSoC5/TMR_Os_Tmr_Pre_Emp.c **** *  Sets the bit-field of the control register.
 372:.\Generated_Source\PSoC5/TMR_Os_Tmr_Pre_Emp.c **** *
 373:.\Generated_Source\PSoC5/TMR_Os_Tmr_Pre_Emp.c **** * Parameters:
 374:.\Generated_Source\PSoC5/TMR_Os_Tmr_Pre_Emp.c **** *  control: The contents of the control register
 375:.\Generated_Source\PSoC5/TMR_Os_Tmr_Pre_Emp.c **** *
 376:.\Generated_Source\PSoC5/TMR_Os_Tmr_Pre_Emp.c **** * Return:
 377:.\Generated_Source\PSoC5/TMR_Os_Tmr_Pre_Emp.c **** *
 378:.\Generated_Source\PSoC5/TMR_Os_Tmr_Pre_Emp.c **** *******************************************************************************/
 379:.\Generated_Source\PSoC5/TMR_Os_Tmr_Pre_Emp.c **** void TMR_Os_Tmr_Pre_Emp_WriteControlRegister(uint8 control) 
 380:.\Generated_Source\PSoC5/TMR_Os_Tmr_Pre_Emp.c **** {
 381:.\Generated_Source\PSoC5/TMR_Os_Tmr_Pre_Emp.c ****     #if (!TMR_Os_Tmr_Pre_Emp_UDB_CONTROL_REG_REMOVED) 
 382:.\Generated_Source\PSoC5/TMR_Os_Tmr_Pre_Emp.c ****         TMR_Os_Tmr_Pre_Emp_CONTROL = control;
 383:.\Generated_Source\PSoC5/TMR_Os_Tmr_Pre_Emp.c ****     #else
 384:.\Generated_Source\PSoC5/TMR_Os_Tmr_Pre_Emp.c ****         control = 0u;
 385:.\Generated_Source\PSoC5/TMR_Os_Tmr_Pre_Emp.c ****     #endif /* (!TMR_Os_Tmr_Pre_Emp_UDB_CONTROL_REG_REMOVED) */
 386:.\Generated_Source\PSoC5/TMR_Os_Tmr_Pre_Emp.c **** }
 387:.\Generated_Source\PSoC5/TMR_Os_Tmr_Pre_Emp.c **** 
 388:.\Generated_Source\PSoC5/TMR_Os_Tmr_Pre_Emp.c **** #endif /* Remove API if control register is unused */
 389:.\Generated_Source\PSoC5/TMR_Os_Tmr_Pre_Emp.c **** 
 390:.\Generated_Source\PSoC5/TMR_Os_Tmr_Pre_Emp.c **** 
 391:.\Generated_Source\PSoC5/TMR_Os_Tmr_Pre_Emp.c **** /*******************************************************************************
ARM GAS  C:\Users\acer\AppData\Local\Temp\ccQB5Mdb.s 			page 9


 392:.\Generated_Source\PSoC5/TMR_Os_Tmr_Pre_Emp.c **** * Function Name: TMR_Os_Tmr_Pre_Emp_ReadPeriod
 393:.\Generated_Source\PSoC5/TMR_Os_Tmr_Pre_Emp.c **** ********************************************************************************
 394:.\Generated_Source\PSoC5/TMR_Os_Tmr_Pre_Emp.c **** *
 395:.\Generated_Source\PSoC5/TMR_Os_Tmr_Pre_Emp.c **** * Summary:
 396:.\Generated_Source\PSoC5/TMR_Os_Tmr_Pre_Emp.c **** *  This function returns the current value of the Period.
 397:.\Generated_Source\PSoC5/TMR_Os_Tmr_Pre_Emp.c **** *
 398:.\Generated_Source\PSoC5/TMR_Os_Tmr_Pre_Emp.c **** * Parameters:
 399:.\Generated_Source\PSoC5/TMR_Os_Tmr_Pre_Emp.c **** *  void
 400:.\Generated_Source\PSoC5/TMR_Os_Tmr_Pre_Emp.c **** *
 401:.\Generated_Source\PSoC5/TMR_Os_Tmr_Pre_Emp.c **** * Return:
 402:.\Generated_Source\PSoC5/TMR_Os_Tmr_Pre_Emp.c **** *  The present value of the counter.
 403:.\Generated_Source\PSoC5/TMR_Os_Tmr_Pre_Emp.c **** *
 404:.\Generated_Source\PSoC5/TMR_Os_Tmr_Pre_Emp.c **** *******************************************************************************/
 405:.\Generated_Source\PSoC5/TMR_Os_Tmr_Pre_Emp.c **** uint16 TMR_Os_Tmr_Pre_Emp_ReadPeriod(void) 
 406:.\Generated_Source\PSoC5/TMR_Os_Tmr_Pre_Emp.c **** {
 407:.\Generated_Source\PSoC5/TMR_Os_Tmr_Pre_Emp.c ****    #if(TMR_Os_Tmr_Pre_Emp_UsingFixedFunction)
 408:.\Generated_Source\PSoC5/TMR_Os_Tmr_Pre_Emp.c ****        return ((uint16)CY_GET_REG16(TMR_Os_Tmr_Pre_Emp_PERIOD_LSB_PTR));
 409:.\Generated_Source\PSoC5/TMR_Os_Tmr_Pre_Emp.c ****    #else
 410:.\Generated_Source\PSoC5/TMR_Os_Tmr_Pre_Emp.c ****        return (CY_GET_REG16(TMR_Os_Tmr_Pre_Emp_PERIOD_LSB_PTR));
 411:.\Generated_Source\PSoC5/TMR_Os_Tmr_Pre_Emp.c ****    #endif /* (TMR_Os_Tmr_Pre_Emp_UsingFixedFunction) */
 412:.\Generated_Source\PSoC5/TMR_Os_Tmr_Pre_Emp.c **** }
 413:.\Generated_Source\PSoC5/TMR_Os_Tmr_Pre_Emp.c **** 
 414:.\Generated_Source\PSoC5/TMR_Os_Tmr_Pre_Emp.c **** 
 415:.\Generated_Source\PSoC5/TMR_Os_Tmr_Pre_Emp.c **** /*******************************************************************************
 416:.\Generated_Source\PSoC5/TMR_Os_Tmr_Pre_Emp.c **** * Function Name: TMR_Os_Tmr_Pre_Emp_WritePeriod
 417:.\Generated_Source\PSoC5/TMR_Os_Tmr_Pre_Emp.c **** ********************************************************************************
 418:.\Generated_Source\PSoC5/TMR_Os_Tmr_Pre_Emp.c **** *
 419:.\Generated_Source\PSoC5/TMR_Os_Tmr_Pre_Emp.c **** * Summary:
 420:.\Generated_Source\PSoC5/TMR_Os_Tmr_Pre_Emp.c **** *  This function is used to change the period of the counter.  The new period
 421:.\Generated_Source\PSoC5/TMR_Os_Tmr_Pre_Emp.c **** *  will be loaded the next time terminal count is detected.
 422:.\Generated_Source\PSoC5/TMR_Os_Tmr_Pre_Emp.c **** *
 423:.\Generated_Source\PSoC5/TMR_Os_Tmr_Pre_Emp.c **** * Parameters:
 424:.\Generated_Source\PSoC5/TMR_Os_Tmr_Pre_Emp.c **** *  period: This value may be between 1 and (2^Resolution)-1.  A value of 0 will
 425:.\Generated_Source\PSoC5/TMR_Os_Tmr_Pre_Emp.c **** *          result in the counter remaining at zero.
 426:.\Generated_Source\PSoC5/TMR_Os_Tmr_Pre_Emp.c **** *
 427:.\Generated_Source\PSoC5/TMR_Os_Tmr_Pre_Emp.c **** * Return:
 428:.\Generated_Source\PSoC5/TMR_Os_Tmr_Pre_Emp.c **** *  void
 429:.\Generated_Source\PSoC5/TMR_Os_Tmr_Pre_Emp.c **** *
 430:.\Generated_Source\PSoC5/TMR_Os_Tmr_Pre_Emp.c **** *******************************************************************************/
 431:.\Generated_Source\PSoC5/TMR_Os_Tmr_Pre_Emp.c **** void TMR_Os_Tmr_Pre_Emp_WritePeriod(uint16 period) 
 432:.\Generated_Source\PSoC5/TMR_Os_Tmr_Pre_Emp.c **** {
 433:.\Generated_Source\PSoC5/TMR_Os_Tmr_Pre_Emp.c ****     #if(TMR_Os_Tmr_Pre_Emp_UsingFixedFunction)
 434:.\Generated_Source\PSoC5/TMR_Os_Tmr_Pre_Emp.c ****         uint16 period_temp = (uint16)period;
 435:.\Generated_Source\PSoC5/TMR_Os_Tmr_Pre_Emp.c ****         CY_SET_REG16(TMR_Os_Tmr_Pre_Emp_PERIOD_LSB_PTR, period_temp);
  66              		.loc 1 435 0
  67 003e 6323     		movs	r3, #99
  68 0040 A2F80330 		strh	r3, [r2, #3]	@ movhi
  69              	.LVL1:
  70              	.LBE9:
  71              	.LBE8:
  72              	.LBB10:
  73              	.LBB11:
 436:.\Generated_Source\PSoC5/TMR_Os_Tmr_Pre_Emp.c ****     #else
 437:.\Generated_Source\PSoC5/TMR_Os_Tmr_Pre_Emp.c ****         CY_SET_REG16(TMR_Os_Tmr_Pre_Emp_PERIOD_LSB_PTR, period);
 438:.\Generated_Source\PSoC5/TMR_Os_Tmr_Pre_Emp.c ****     #endif /*Write Period value with appropriate resolution suffix depending on UDB or fixed functi
 439:.\Generated_Source\PSoC5/TMR_Os_Tmr_Pre_Emp.c **** }
 440:.\Generated_Source\PSoC5/TMR_Os_Tmr_Pre_Emp.c **** 
ARM GAS  C:\Users\acer\AppData\Local\Temp\ccQB5Mdb.s 			page 10


 441:.\Generated_Source\PSoC5/TMR_Os_Tmr_Pre_Emp.c **** 
 442:.\Generated_Source\PSoC5/TMR_Os_Tmr_Pre_Emp.c **** /*******************************************************************************
 443:.\Generated_Source\PSoC5/TMR_Os_Tmr_Pre_Emp.c **** * Function Name: TMR_Os_Tmr_Pre_Emp_ReadCapture
 444:.\Generated_Source\PSoC5/TMR_Os_Tmr_Pre_Emp.c **** ********************************************************************************
 445:.\Generated_Source\PSoC5/TMR_Os_Tmr_Pre_Emp.c **** *
 446:.\Generated_Source\PSoC5/TMR_Os_Tmr_Pre_Emp.c **** * Summary:
 447:.\Generated_Source\PSoC5/TMR_Os_Tmr_Pre_Emp.c **** *  This function returns the last value captured.
 448:.\Generated_Source\PSoC5/TMR_Os_Tmr_Pre_Emp.c **** *
 449:.\Generated_Source\PSoC5/TMR_Os_Tmr_Pre_Emp.c **** * Parameters:
 450:.\Generated_Source\PSoC5/TMR_Os_Tmr_Pre_Emp.c **** *  void
 451:.\Generated_Source\PSoC5/TMR_Os_Tmr_Pre_Emp.c **** *
 452:.\Generated_Source\PSoC5/TMR_Os_Tmr_Pre_Emp.c **** * Return:
 453:.\Generated_Source\PSoC5/TMR_Os_Tmr_Pre_Emp.c **** *  Present Capture value.
 454:.\Generated_Source\PSoC5/TMR_Os_Tmr_Pre_Emp.c **** *
 455:.\Generated_Source\PSoC5/TMR_Os_Tmr_Pre_Emp.c **** *******************************************************************************/
 456:.\Generated_Source\PSoC5/TMR_Os_Tmr_Pre_Emp.c **** uint16 TMR_Os_Tmr_Pre_Emp_ReadCapture(void) 
 457:.\Generated_Source\PSoC5/TMR_Os_Tmr_Pre_Emp.c **** {
 458:.\Generated_Source\PSoC5/TMR_Os_Tmr_Pre_Emp.c ****    #if(TMR_Os_Tmr_Pre_Emp_UsingFixedFunction)
 459:.\Generated_Source\PSoC5/TMR_Os_Tmr_Pre_Emp.c ****        return ((uint16)CY_GET_REG16(TMR_Os_Tmr_Pre_Emp_CAPTURE_LSB_PTR));
 460:.\Generated_Source\PSoC5/TMR_Os_Tmr_Pre_Emp.c ****    #else
 461:.\Generated_Source\PSoC5/TMR_Os_Tmr_Pre_Emp.c ****        return (CY_GET_REG16(TMR_Os_Tmr_Pre_Emp_CAPTURE_LSB_PTR));
 462:.\Generated_Source\PSoC5/TMR_Os_Tmr_Pre_Emp.c ****    #endif /* (TMR_Os_Tmr_Pre_Emp_UsingFixedFunction) */
 463:.\Generated_Source\PSoC5/TMR_Os_Tmr_Pre_Emp.c **** }
 464:.\Generated_Source\PSoC5/TMR_Os_Tmr_Pre_Emp.c **** 
 465:.\Generated_Source\PSoC5/TMR_Os_Tmr_Pre_Emp.c **** 
 466:.\Generated_Source\PSoC5/TMR_Os_Tmr_Pre_Emp.c **** /*******************************************************************************
 467:.\Generated_Source\PSoC5/TMR_Os_Tmr_Pre_Emp.c **** * Function Name: TMR_Os_Tmr_Pre_Emp_WriteCounter
 468:.\Generated_Source\PSoC5/TMR_Os_Tmr_Pre_Emp.c **** ********************************************************************************
 469:.\Generated_Source\PSoC5/TMR_Os_Tmr_Pre_Emp.c **** *
 470:.\Generated_Source\PSoC5/TMR_Os_Tmr_Pre_Emp.c **** * Summary:
 471:.\Generated_Source\PSoC5/TMR_Os_Tmr_Pre_Emp.c **** *  This funtion is used to set the counter to a specific value
 472:.\Generated_Source\PSoC5/TMR_Os_Tmr_Pre_Emp.c **** *
 473:.\Generated_Source\PSoC5/TMR_Os_Tmr_Pre_Emp.c **** * Parameters:
 474:.\Generated_Source\PSoC5/TMR_Os_Tmr_Pre_Emp.c **** *  counter:  New counter value.
 475:.\Generated_Source\PSoC5/TMR_Os_Tmr_Pre_Emp.c **** *
 476:.\Generated_Source\PSoC5/TMR_Os_Tmr_Pre_Emp.c **** * Return:
 477:.\Generated_Source\PSoC5/TMR_Os_Tmr_Pre_Emp.c **** *  void
 478:.\Generated_Source\PSoC5/TMR_Os_Tmr_Pre_Emp.c **** *
 479:.\Generated_Source\PSoC5/TMR_Os_Tmr_Pre_Emp.c **** *******************************************************************************/
 480:.\Generated_Source\PSoC5/TMR_Os_Tmr_Pre_Emp.c **** void TMR_Os_Tmr_Pre_Emp_WriteCounter(uint16 counter) 
 481:.\Generated_Source\PSoC5/TMR_Os_Tmr_Pre_Emp.c **** {
 482:.\Generated_Source\PSoC5/TMR_Os_Tmr_Pre_Emp.c ****    #if(TMR_Os_Tmr_Pre_Emp_UsingFixedFunction)
 483:.\Generated_Source\PSoC5/TMR_Os_Tmr_Pre_Emp.c ****         /* This functionality is removed until a FixedFunction HW update to
 484:.\Generated_Source\PSoC5/TMR_Os_Tmr_Pre_Emp.c ****          * allow this register to be written
 485:.\Generated_Source\PSoC5/TMR_Os_Tmr_Pre_Emp.c ****          */
 486:.\Generated_Source\PSoC5/TMR_Os_Tmr_Pre_Emp.c ****         CY_SET_REG16(TMR_Os_Tmr_Pre_Emp_COUNTER_LSB_PTR, (uint16)counter);
  74              		.loc 1 486 0
  75 0044 A2F80530 		strh	r3, [r2, #5]	@ movhi
  76              	.LVL2:
  77              	.LBE11:
  78              	.LBE10:
  79              	.LBB12:
  80              	.LBB13:
 281:.\Generated_Source\PSoC5/TMR_Os_Tmr_Pre_Emp.c **** }
  81              		.loc 1 281 0
  82 0048 044B     		ldr	r3, .L2+12
  83 004a 0822     		movs	r2, #8
ARM GAS  C:\Users\acer\AppData\Local\Temp\ccQB5Mdb.s 			page 11


  84 004c 1A70     		strb	r2, [r3]
  85 004e 7047     		bx	lr
  86              	.L3:
  87              		.align	2
  88              	.L2:
  89 0050 0C4F0040 		.word	1073762060
  90 0054 174F0040 		.word	1073762071
  91 0058 0D4F0040 		.word	1073762061
  92 005c 0F4F0040 		.word	1073762063
  93              	.LBE13:
  94              	.LBE12:
  95              		.cfi_endproc
  96              	.LFE0:
  97              		.size	TMR_Os_Tmr_Pre_Emp_Init, .-TMR_Os_Tmr_Pre_Emp_Init
  98              		.section	.text.TMR_Os_Tmr_Pre_Emp_Enable,"ax",%progbits
  99              		.align	1
 100              		.global	TMR_Os_Tmr_Pre_Emp_Enable
 101              		.thumb
 102              		.thumb_func
 103              		.type	TMR_Os_Tmr_Pre_Emp_Enable, %function
 104              	TMR_Os_Tmr_Pre_Emp_Enable:
 105              	.LFB1:
 181:.\Generated_Source\PSoC5/TMR_Os_Tmr_Pre_Emp.c ****     /* Globally Enable the Fixed Function Block chosen */
 106              		.loc 1 181 0
 107              		.cfi_startproc
 108              		@ args = 0, pretend = 0, frame = 0
 109              		@ frame_needed = 0, uses_anonymous_args = 0
 110              		@ link register save eliminated.
 184:.\Generated_Source\PSoC5/TMR_Os_Tmr_Pre_Emp.c ****         TMR_Os_Tmr_Pre_Emp_GLOBAL_STBY_ENABLE |= TMR_Os_Tmr_Pre_Emp_BLOCK_STBY_EN_MASK;
 111              		.loc 1 184 0
 112 0000 074A     		ldr	r2, .L5
 113 0002 1378     		ldrb	r3, [r2]	@ zero_extendqisi2
 114 0004 43F00203 		orr	r3, r3, #2
 115 0008 1370     		strb	r3, [r2]
 185:.\Generated_Source\PSoC5/TMR_Os_Tmr_Pre_Emp.c ****     #endif /* Set Enable bit for enabling Fixed function timer*/
 116              		.loc 1 185 0
 117 000a 137C     		ldrb	r3, [r2, #16]	@ zero_extendqisi2
 118 000c 43F00203 		orr	r3, r3, #2
 119 0010 1374     		strb	r3, [r2, #16]
 190:.\Generated_Source\PSoC5/TMR_Os_Tmr_Pre_Emp.c ****     #endif /* Remove assignment if control register is removed */
 120              		.loc 1 190 0
 121 0012 92F8693B 		ldrb	r3, [r2, #2921]	@ zero_extendqisi2
 122 0016 43F00103 		orr	r3, r3, #1
 123 001a 82F8693B 		strb	r3, [r2, #2921]
 124 001e 7047     		bx	lr
 125              	.L6:
 126              		.align	2
 127              	.L5:
 128 0020 A3430040 		.word	1073759139
 129              		.cfi_endproc
 130              	.LFE1:
 131              		.size	TMR_Os_Tmr_Pre_Emp_Enable, .-TMR_Os_Tmr_Pre_Emp_Enable
 132              		.section	.text.TMR_Os_Tmr_Pre_Emp_Start,"ax",%progbits
 133              		.align	1
 134              		.global	TMR_Os_Tmr_Pre_Emp_Start
 135              		.thumb
 136              		.thumb_func
ARM GAS  C:\Users\acer\AppData\Local\Temp\ccQB5Mdb.s 			page 12


 137              		.type	TMR_Os_Tmr_Pre_Emp_Start, %function
 138              	TMR_Os_Tmr_Pre_Emp_Start:
 139              	.LFB2:
 216:.\Generated_Source\PSoC5/TMR_Os_Tmr_Pre_Emp.c ****     if(TMR_Os_Tmr_Pre_Emp_initVar == 0u)
 140              		.loc 1 216 0
 141              		.cfi_startproc
 142              		@ args = 0, pretend = 0, frame = 0
 143              		@ frame_needed = 0, uses_anonymous_args = 0
 144 0000 10B5     		push	{r4, lr}
 145              		.cfi_def_cfa_offset 8
 146              		.cfi_offset 4, -8
 147              		.cfi_offset 14, -4
 217:.\Generated_Source\PSoC5/TMR_Os_Tmr_Pre_Emp.c ****     {
 148              		.loc 1 217 0
 149 0002 054C     		ldr	r4, .L10
 150 0004 2378     		ldrb	r3, [r4]	@ zero_extendqisi2
 151 0006 1BB9     		cbnz	r3, .L8
 219:.\Generated_Source\PSoC5/TMR_Os_Tmr_Pre_Emp.c **** 
 152              		.loc 1 219 0
 153 0008 FFF7FEFF 		bl	TMR_Os_Tmr_Pre_Emp_Init
 154              	.LVL3:
 221:.\Generated_Source\PSoC5/TMR_Os_Tmr_Pre_Emp.c ****     }
 155              		.loc 1 221 0
 156 000c 0123     		movs	r3, #1
 157 000e 2370     		strb	r3, [r4]
 158              	.L8:
 226:.\Generated_Source\PSoC5/TMR_Os_Tmr_Pre_Emp.c **** 
 159              		.loc 1 226 0
 160 0010 BDE81040 		pop	{r4, lr}
 161              		.cfi_restore 14
 162              		.cfi_restore 4
 163              		.cfi_def_cfa_offset 0
 225:.\Generated_Source\PSoC5/TMR_Os_Tmr_Pre_Emp.c **** }
 164              		.loc 1 225 0
 165 0014 FFF7FEBF 		b	TMR_Os_Tmr_Pre_Emp_Enable
 166              	.LVL4:
 167              	.L11:
 168              		.align	2
 169              	.L10:
 170 0018 00000000 		.word	.LANCHOR0
 171              		.cfi_endproc
 172              	.LFE2:
 173              		.size	TMR_Os_Tmr_Pre_Emp_Start, .-TMR_Os_Tmr_Pre_Emp_Start
 174              		.section	.text.TMR_Os_Tmr_Pre_Emp_Stop,"ax",%progbits
 175              		.align	1
 176              		.global	TMR_Os_Tmr_Pre_Emp_Stop
 177              		.thumb
 178              		.thumb_func
 179              		.type	TMR_Os_Tmr_Pre_Emp_Stop, %function
 180              	TMR_Os_Tmr_Pre_Emp_Stop:
 181              	.LFB3:
 248:.\Generated_Source\PSoC5/TMR_Os_Tmr_Pre_Emp.c ****     /* Disable Timer */
 182              		.loc 1 248 0
 183              		.cfi_startproc
 184              		@ args = 0, pretend = 0, frame = 0
 185              		@ frame_needed = 0, uses_anonymous_args = 0
 186              		@ link register save eliminated.
ARM GAS  C:\Users\acer\AppData\Local\Temp\ccQB5Mdb.s 			page 13


 251:.\Generated_Source\PSoC5/TMR_Os_Tmr_Pre_Emp.c ****     #endif /* Remove assignment if control register is removed */
 187              		.loc 1 251 0
 188 0000 084A     		ldr	r2, .L13
 189 0002 1378     		ldrb	r3, [r2]	@ zero_extendqisi2
 256:.\Generated_Source\PSoC5/TMR_Os_Tmr_Pre_Emp.c ****         TMR_Os_Tmr_Pre_Emp_GLOBAL_STBY_ENABLE &= ((uint8)(~TMR_Os_Tmr_Pre_Emp_BLOCK_STBY_EN_MASK));
 190              		.loc 1 256 0
 191 0004 A2F66932 		subw	r2, r2, #2921
 251:.\Generated_Source\PSoC5/TMR_Os_Tmr_Pre_Emp.c ****     #endif /* Remove assignment if control register is removed */
 192              		.loc 1 251 0
 193 0008 03F0FE03 		and	r3, r3, #254
 194 000c 82F8693B 		strb	r3, [r2, #2921]
 256:.\Generated_Source\PSoC5/TMR_Os_Tmr_Pre_Emp.c ****         TMR_Os_Tmr_Pre_Emp_GLOBAL_STBY_ENABLE &= ((uint8)(~TMR_Os_Tmr_Pre_Emp_BLOCK_STBY_EN_MASK));
 195              		.loc 1 256 0
 196 0010 1378     		ldrb	r3, [r2]	@ zero_extendqisi2
 197 0012 03F0FD03 		and	r3, r3, #253
 198 0016 1370     		strb	r3, [r2]
 257:.\Generated_Source\PSoC5/TMR_Os_Tmr_Pre_Emp.c ****     #endif /* Disable global enable for the Timer Fixed function block to stop the Timer*/
 199              		.loc 1 257 0
 200 0018 137C     		ldrb	r3, [r2, #16]	@ zero_extendqisi2
 201 001a 03F0FD03 		and	r3, r3, #253
 202 001e 1374     		strb	r3, [r2, #16]
 203 0020 7047     		bx	lr
 204              	.L14:
 205 0022 00BF     		.align	2
 206              	.L13:
 207 0024 0C4F0040 		.word	1073762060
 208              		.cfi_endproc
 209              	.LFE3:
 210              		.size	TMR_Os_Tmr_Pre_Emp_Stop, .-TMR_Os_Tmr_Pre_Emp_Stop
 211              		.section	.text.TMR_Os_Tmr_Pre_Emp_SetInterruptMode,"ax",%progbits
 212              		.align	1
 213              		.global	TMR_Os_Tmr_Pre_Emp_SetInterruptMode
 214              		.thumb
 215              		.thumb_func
 216              		.type	TMR_Os_Tmr_Pre_Emp_SetInterruptMode, %function
 217              	TMR_Os_Tmr_Pre_Emp_SetInterruptMode:
 218              	.LFB4:
 280:.\Generated_Source\PSoC5/TMR_Os_Tmr_Pre_Emp.c ****     TMR_Os_Tmr_Pre_Emp_STATUS_MASK = interruptMode;
 219              		.loc 1 280 0
 220              		.cfi_startproc
 221              		@ args = 0, pretend = 0, frame = 0
 222              		@ frame_needed = 0, uses_anonymous_args = 0
 223              		@ link register save eliminated.
 224              	.LVL5:
 281:.\Generated_Source\PSoC5/TMR_Os_Tmr_Pre_Emp.c **** }
 225              		.loc 1 281 0
 226 0000 014B     		ldr	r3, .L16
 227 0002 1870     		strb	r0, [r3]
 228 0004 7047     		bx	lr
 229              	.L17:
 230 0006 00BF     		.align	2
 231              	.L16:
 232 0008 0F4F0040 		.word	1073762063
 233              		.cfi_endproc
 234              	.LFE4:
 235              		.size	TMR_Os_Tmr_Pre_Emp_SetInterruptMode, .-TMR_Os_Tmr_Pre_Emp_SetInterruptMode
 236              		.section	.text.TMR_Os_Tmr_Pre_Emp_SoftwareCapture,"ax",%progbits
ARM GAS  C:\Users\acer\AppData\Local\Temp\ccQB5Mdb.s 			page 14


 237              		.align	1
 238              		.global	TMR_Os_Tmr_Pre_Emp_SoftwareCapture
 239              		.thumb
 240              		.thumb_func
 241              		.type	TMR_Os_Tmr_Pre_Emp_SoftwareCapture, %function
 242              	TMR_Os_Tmr_Pre_Emp_SoftwareCapture:
 243              	.LFB5:
 303:.\Generated_Source\PSoC5/TMR_Os_Tmr_Pre_Emp.c ****     /* Generate a software capture by reading the counter register */
 244              		.loc 1 303 0
 245              		.cfi_startproc
 246              		@ args = 0, pretend = 0, frame = 0
 247              		@ frame_needed = 0, uses_anonymous_args = 0
 248              		@ link register save eliminated.
 306:.\Generated_Source\PSoC5/TMR_Os_Tmr_Pre_Emp.c ****     #else
 249              		.loc 1 306 0
 250 0000 014B     		ldr	r3, .L19
 251 0002 1B88     		ldrh	r3, [r3]
 252 0004 7047     		bx	lr
 253              	.L20:
 254 0006 00BF     		.align	2
 255              	.L19:
 256 0008 124F0040 		.word	1073762066
 257              		.cfi_endproc
 258              	.LFE5:
 259              		.size	TMR_Os_Tmr_Pre_Emp_SoftwareCapture, .-TMR_Os_Tmr_Pre_Emp_SoftwareCapture
 260              		.section	.text.TMR_Os_Tmr_Pre_Emp_ReadStatusRegister,"ax",%progbits
 261              		.align	1
 262              		.global	TMR_Os_Tmr_Pre_Emp_ReadStatusRegister
 263              		.thumb
 264              		.thumb_func
 265              		.type	TMR_Os_Tmr_Pre_Emp_ReadStatusRegister, %function
 266              	TMR_Os_Tmr_Pre_Emp_ReadStatusRegister:
 267              	.LFB6:
 334:.\Generated_Source\PSoC5/TMR_Os_Tmr_Pre_Emp.c ****     return (TMR_Os_Tmr_Pre_Emp_STATUS);
 268              		.loc 1 334 0
 269              		.cfi_startproc
 270              		@ args = 0, pretend = 0, frame = 0
 271              		@ frame_needed = 0, uses_anonymous_args = 0
 272              		@ link register save eliminated.
 335:.\Generated_Source\PSoC5/TMR_Os_Tmr_Pre_Emp.c **** }
 273              		.loc 1 335 0
 274 0000 014B     		ldr	r3, .L22
 275 0002 1878     		ldrb	r0, [r3]	@ zero_extendqisi2
 336:.\Generated_Source\PSoC5/TMR_Os_Tmr_Pre_Emp.c **** 
 276              		.loc 1 336 0
 277 0004 7047     		bx	lr
 278              	.L23:
 279 0006 00BF     		.align	2
 280              	.L22:
 281 0008 0F4F0040 		.word	1073762063
 282              		.cfi_endproc
 283              	.LFE6:
 284              		.size	TMR_Os_Tmr_Pre_Emp_ReadStatusRegister, .-TMR_Os_Tmr_Pre_Emp_ReadStatusRegister
 285              		.section	.text.TMR_Os_Tmr_Pre_Emp_ReadControlRegister,"ax",%progbits
 286              		.align	1
 287              		.global	TMR_Os_Tmr_Pre_Emp_ReadControlRegister
 288              		.thumb
ARM GAS  C:\Users\acer\AppData\Local\Temp\ccQB5Mdb.s 			page 15


 289              		.thumb_func
 290              		.type	TMR_Os_Tmr_Pre_Emp_ReadControlRegister, %function
 291              	TMR_Os_Tmr_Pre_Emp_ReadControlRegister:
 292              	.LFB7:
 357:.\Generated_Source\PSoC5/TMR_Os_Tmr_Pre_Emp.c ****     #if (!TMR_Os_Tmr_Pre_Emp_UDB_CONTROL_REG_REMOVED) 
 293              		.loc 1 357 0
 294              		.cfi_startproc
 295              		@ args = 0, pretend = 0, frame = 0
 296              		@ frame_needed = 0, uses_anonymous_args = 0
 297              		@ link register save eliminated.
 359:.\Generated_Source\PSoC5/TMR_Os_Tmr_Pre_Emp.c ****     #else
 298              		.loc 1 359 0
 299 0000 014B     		ldr	r3, .L25
 300 0002 1878     		ldrb	r0, [r3]	@ zero_extendqisi2
 363:.\Generated_Source\PSoC5/TMR_Os_Tmr_Pre_Emp.c **** 
 301              		.loc 1 363 0
 302 0004 7047     		bx	lr
 303              	.L26:
 304 0006 00BF     		.align	2
 305              	.L25:
 306 0008 0C4F0040 		.word	1073762060
 307              		.cfi_endproc
 308              	.LFE7:
 309              		.size	TMR_Os_Tmr_Pre_Emp_ReadControlRegister, .-TMR_Os_Tmr_Pre_Emp_ReadControlRegister
 310              		.section	.text.TMR_Os_Tmr_Pre_Emp_WriteControlRegister,"ax",%progbits
 311              		.align	1
 312              		.global	TMR_Os_Tmr_Pre_Emp_WriteControlRegister
 313              		.thumb
 314              		.thumb_func
 315              		.type	TMR_Os_Tmr_Pre_Emp_WriteControlRegister, %function
 316              	TMR_Os_Tmr_Pre_Emp_WriteControlRegister:
 317              	.LFB8:
 380:.\Generated_Source\PSoC5/TMR_Os_Tmr_Pre_Emp.c ****     #if (!TMR_Os_Tmr_Pre_Emp_UDB_CONTROL_REG_REMOVED) 
 318              		.loc 1 380 0
 319              		.cfi_startproc
 320              		@ args = 0, pretend = 0, frame = 0
 321              		@ frame_needed = 0, uses_anonymous_args = 0
 322              		@ link register save eliminated.
 323              	.LVL6:
 382:.\Generated_Source\PSoC5/TMR_Os_Tmr_Pre_Emp.c ****     #else
 324              		.loc 1 382 0
 325 0000 014B     		ldr	r3, .L28
 326 0002 1870     		strb	r0, [r3]
 327 0004 7047     		bx	lr
 328              	.L29:
 329 0006 00BF     		.align	2
 330              	.L28:
 331 0008 0C4F0040 		.word	1073762060
 332              		.cfi_endproc
 333              	.LFE8:
 334              		.size	TMR_Os_Tmr_Pre_Emp_WriteControlRegister, .-TMR_Os_Tmr_Pre_Emp_WriteControlRegister
 335              		.section	.text.TMR_Os_Tmr_Pre_Emp_ReadPeriod,"ax",%progbits
 336              		.align	1
 337              		.global	TMR_Os_Tmr_Pre_Emp_ReadPeriod
 338              		.thumb
 339              		.thumb_func
 340              		.type	TMR_Os_Tmr_Pre_Emp_ReadPeriod, %function
ARM GAS  C:\Users\acer\AppData\Local\Temp\ccQB5Mdb.s 			page 16


 341              	TMR_Os_Tmr_Pre_Emp_ReadPeriod:
 342              	.LFB9:
 406:.\Generated_Source\PSoC5/TMR_Os_Tmr_Pre_Emp.c ****    #if(TMR_Os_Tmr_Pre_Emp_UsingFixedFunction)
 343              		.loc 1 406 0
 344              		.cfi_startproc
 345              		@ args = 0, pretend = 0, frame = 0
 346              		@ frame_needed = 0, uses_anonymous_args = 0
 347              		@ link register save eliminated.
 408:.\Generated_Source\PSoC5/TMR_Os_Tmr_Pre_Emp.c ****    #else
 348              		.loc 1 408 0
 349 0000 014B     		ldr	r3, .L31
 350 0002 1888     		ldrh	r0, [r3]
 412:.\Generated_Source\PSoC5/TMR_Os_Tmr_Pre_Emp.c **** 
 351              		.loc 1 412 0
 352 0004 80B2     		uxth	r0, r0
 353 0006 7047     		bx	lr
 354              	.L32:
 355              		.align	2
 356              	.L31:
 357 0008 104F0040 		.word	1073762064
 358              		.cfi_endproc
 359              	.LFE9:
 360              		.size	TMR_Os_Tmr_Pre_Emp_ReadPeriod, .-TMR_Os_Tmr_Pre_Emp_ReadPeriod
 361              		.section	.text.TMR_Os_Tmr_Pre_Emp_WritePeriod,"ax",%progbits
 362              		.align	1
 363              		.global	TMR_Os_Tmr_Pre_Emp_WritePeriod
 364              		.thumb
 365              		.thumb_func
 366              		.type	TMR_Os_Tmr_Pre_Emp_WritePeriod, %function
 367              	TMR_Os_Tmr_Pre_Emp_WritePeriod:
 368              	.LFB10:
 432:.\Generated_Source\PSoC5/TMR_Os_Tmr_Pre_Emp.c ****     #if(TMR_Os_Tmr_Pre_Emp_UsingFixedFunction)
 369              		.loc 1 432 0
 370              		.cfi_startproc
 371              		@ args = 0, pretend = 0, frame = 0
 372              		@ frame_needed = 0, uses_anonymous_args = 0
 373              		@ link register save eliminated.
 374              	.LVL7:
 435:.\Generated_Source\PSoC5/TMR_Os_Tmr_Pre_Emp.c ****     #else
 375              		.loc 1 435 0
 376 0000 014B     		ldr	r3, .L34
 377 0002 1880     		strh	r0, [r3]	@ movhi
 378 0004 7047     		bx	lr
 379              	.L35:
 380 0006 00BF     		.align	2
 381              	.L34:
 382 0008 104F0040 		.word	1073762064
 383              		.cfi_endproc
 384              	.LFE10:
 385              		.size	TMR_Os_Tmr_Pre_Emp_WritePeriod, .-TMR_Os_Tmr_Pre_Emp_WritePeriod
 386              		.section	.text.TMR_Os_Tmr_Pre_Emp_ReadCapture,"ax",%progbits
 387              		.align	1
 388              		.global	TMR_Os_Tmr_Pre_Emp_ReadCapture
 389              		.thumb
 390              		.thumb_func
 391              		.type	TMR_Os_Tmr_Pre_Emp_ReadCapture, %function
 392              	TMR_Os_Tmr_Pre_Emp_ReadCapture:
ARM GAS  C:\Users\acer\AppData\Local\Temp\ccQB5Mdb.s 			page 17


 393              	.LFB11:
 457:.\Generated_Source\PSoC5/TMR_Os_Tmr_Pre_Emp.c ****    #if(TMR_Os_Tmr_Pre_Emp_UsingFixedFunction)
 394              		.loc 1 457 0
 395              		.cfi_startproc
 396              		@ args = 0, pretend = 0, frame = 0
 397              		@ frame_needed = 0, uses_anonymous_args = 0
 398              		@ link register save eliminated.
 459:.\Generated_Source\PSoC5/TMR_Os_Tmr_Pre_Emp.c ****    #else
 399              		.loc 1 459 0
 400 0000 014B     		ldr	r3, .L37
 401 0002 1888     		ldrh	r0, [r3]
 463:.\Generated_Source\PSoC5/TMR_Os_Tmr_Pre_Emp.c **** 
 402              		.loc 1 463 0
 403 0004 80B2     		uxth	r0, r0
 404 0006 7047     		bx	lr
 405              	.L38:
 406              		.align	2
 407              	.L37:
 408 0008 144F0040 		.word	1073762068
 409              		.cfi_endproc
 410              	.LFE11:
 411              		.size	TMR_Os_Tmr_Pre_Emp_ReadCapture, .-TMR_Os_Tmr_Pre_Emp_ReadCapture
 412              		.section	.text.TMR_Os_Tmr_Pre_Emp_WriteCounter,"ax",%progbits
 413              		.align	1
 414              		.global	TMR_Os_Tmr_Pre_Emp_WriteCounter
 415              		.thumb
 416              		.thumb_func
 417              		.type	TMR_Os_Tmr_Pre_Emp_WriteCounter, %function
 418              	TMR_Os_Tmr_Pre_Emp_WriteCounter:
 419              	.LFB12:
 481:.\Generated_Source\PSoC5/TMR_Os_Tmr_Pre_Emp.c ****    #if(TMR_Os_Tmr_Pre_Emp_UsingFixedFunction)
 420              		.loc 1 481 0
 421              		.cfi_startproc
 422              		@ args = 0, pretend = 0, frame = 0
 423              		@ frame_needed = 0, uses_anonymous_args = 0
 424              		@ link register save eliminated.
 425              	.LVL8:
 426              		.loc 1 486 0
 427 0000 014B     		ldr	r3, .L40
 428 0002 1880     		strh	r0, [r3]	@ movhi
 429 0004 7047     		bx	lr
 430              	.L41:
 431 0006 00BF     		.align	2
 432              	.L40:
 433 0008 124F0040 		.word	1073762066
 434              		.cfi_endproc
 435              	.LFE12:
 436              		.size	TMR_Os_Tmr_Pre_Emp_WriteCounter, .-TMR_Os_Tmr_Pre_Emp_WriteCounter
 437              		.section	.text.TMR_Os_Tmr_Pre_Emp_ReadCounter,"ax",%progbits
 438              		.align	1
 439              		.global	TMR_Os_Tmr_Pre_Emp_ReadCounter
 440              		.thumb
 441              		.thumb_func
 442              		.type	TMR_Os_Tmr_Pre_Emp_ReadCounter, %function
 443              	TMR_Os_Tmr_Pre_Emp_ReadCounter:
 444              	.LFB13:
 487:.\Generated_Source\PSoC5/TMR_Os_Tmr_Pre_Emp.c ****         
ARM GAS  C:\Users\acer\AppData\Local\Temp\ccQB5Mdb.s 			page 18


 488:.\Generated_Source\PSoC5/TMR_Os_Tmr_Pre_Emp.c ****     #else
 489:.\Generated_Source\PSoC5/TMR_Os_Tmr_Pre_Emp.c ****         CY_SET_REG16(TMR_Os_Tmr_Pre_Emp_COUNTER_LSB_PTR, counter);
 490:.\Generated_Source\PSoC5/TMR_Os_Tmr_Pre_Emp.c ****     #endif /* Set Write Counter only for the UDB implementation (Write Counter not available in fix
 491:.\Generated_Source\PSoC5/TMR_Os_Tmr_Pre_Emp.c **** }
 492:.\Generated_Source\PSoC5/TMR_Os_Tmr_Pre_Emp.c **** 
 493:.\Generated_Source\PSoC5/TMR_Os_Tmr_Pre_Emp.c **** 
 494:.\Generated_Source\PSoC5/TMR_Os_Tmr_Pre_Emp.c **** /*******************************************************************************
 495:.\Generated_Source\PSoC5/TMR_Os_Tmr_Pre_Emp.c **** * Function Name: TMR_Os_Tmr_Pre_Emp_ReadCounter
 496:.\Generated_Source\PSoC5/TMR_Os_Tmr_Pre_Emp.c **** ********************************************************************************
 497:.\Generated_Source\PSoC5/TMR_Os_Tmr_Pre_Emp.c **** *
 498:.\Generated_Source\PSoC5/TMR_Os_Tmr_Pre_Emp.c **** * Summary:
 499:.\Generated_Source\PSoC5/TMR_Os_Tmr_Pre_Emp.c **** *  This function returns the current counter value.
 500:.\Generated_Source\PSoC5/TMR_Os_Tmr_Pre_Emp.c **** *
 501:.\Generated_Source\PSoC5/TMR_Os_Tmr_Pre_Emp.c **** * Parameters:
 502:.\Generated_Source\PSoC5/TMR_Os_Tmr_Pre_Emp.c **** *  void
 503:.\Generated_Source\PSoC5/TMR_Os_Tmr_Pre_Emp.c **** *
 504:.\Generated_Source\PSoC5/TMR_Os_Tmr_Pre_Emp.c **** * Return:
 505:.\Generated_Source\PSoC5/TMR_Os_Tmr_Pre_Emp.c **** *  Present compare value.
 506:.\Generated_Source\PSoC5/TMR_Os_Tmr_Pre_Emp.c **** *
 507:.\Generated_Source\PSoC5/TMR_Os_Tmr_Pre_Emp.c **** *******************************************************************************/
 508:.\Generated_Source\PSoC5/TMR_Os_Tmr_Pre_Emp.c **** uint16 TMR_Os_Tmr_Pre_Emp_ReadCounter(void) 
 509:.\Generated_Source\PSoC5/TMR_Os_Tmr_Pre_Emp.c **** {
 445              		.loc 1 509 0
 446              		.cfi_startproc
 447              		@ args = 0, pretend = 0, frame = 0
 448              		@ frame_needed = 0, uses_anonymous_args = 0
 449              		@ link register save eliminated.
 510:.\Generated_Source\PSoC5/TMR_Os_Tmr_Pre_Emp.c ****     /* Force capture by reading Accumulator */
 511:.\Generated_Source\PSoC5/TMR_Os_Tmr_Pre_Emp.c ****     /* Must first do a software capture to be able to read the counter */
 512:.\Generated_Source\PSoC5/TMR_Os_Tmr_Pre_Emp.c ****     /* It is up to the user code to make sure there isn't already captured data in the FIFO */
 513:.\Generated_Source\PSoC5/TMR_Os_Tmr_Pre_Emp.c ****     #if(TMR_Os_Tmr_Pre_Emp_UsingFixedFunction)
 514:.\Generated_Source\PSoC5/TMR_Os_Tmr_Pre_Emp.c ****         (void)CY_GET_REG16(TMR_Os_Tmr_Pre_Emp_COUNTER_LSB_PTR);
 450              		.loc 1 514 0
 451 0000 024B     		ldr	r3, .L43
 452 0002 1B88     		ldrh	r3, [r3]
 515:.\Generated_Source\PSoC5/TMR_Os_Tmr_Pre_Emp.c ****     #else
 516:.\Generated_Source\PSoC5/TMR_Os_Tmr_Pre_Emp.c ****         (void)CY_GET_REG8(TMR_Os_Tmr_Pre_Emp_COUNTER_LSB_PTR_8BIT);
 517:.\Generated_Source\PSoC5/TMR_Os_Tmr_Pre_Emp.c ****     #endif/* (TMR_Os_Tmr_Pre_Emp_UsingFixedFunction) */
 518:.\Generated_Source\PSoC5/TMR_Os_Tmr_Pre_Emp.c **** 
 519:.\Generated_Source\PSoC5/TMR_Os_Tmr_Pre_Emp.c ****     /* Read the data from the FIFO (or capture register for Fixed Function)*/
 520:.\Generated_Source\PSoC5/TMR_Os_Tmr_Pre_Emp.c ****     #if(TMR_Os_Tmr_Pre_Emp_UsingFixedFunction)
 521:.\Generated_Source\PSoC5/TMR_Os_Tmr_Pre_Emp.c ****         return ((uint16)CY_GET_REG16(TMR_Os_Tmr_Pre_Emp_CAPTURE_LSB_PTR));
 453              		.loc 1 521 0
 454 0004 024B     		ldr	r3, .L43+4
 455 0006 1888     		ldrh	r0, [r3]
 522:.\Generated_Source\PSoC5/TMR_Os_Tmr_Pre_Emp.c ****     #else
 523:.\Generated_Source\PSoC5/TMR_Os_Tmr_Pre_Emp.c ****         return (CY_GET_REG16(TMR_Os_Tmr_Pre_Emp_CAPTURE_LSB_PTR));
 524:.\Generated_Source\PSoC5/TMR_Os_Tmr_Pre_Emp.c ****     #endif /* (TMR_Os_Tmr_Pre_Emp_UsingFixedFunction) */
 525:.\Generated_Source\PSoC5/TMR_Os_Tmr_Pre_Emp.c **** }
 456              		.loc 1 525 0
 457 0008 80B2     		uxth	r0, r0
 458 000a 7047     		bx	lr
 459              	.L44:
 460              		.align	2
 461              	.L43:
 462 000c 124F0040 		.word	1073762066
 463 0010 144F0040 		.word	1073762068
ARM GAS  C:\Users\acer\AppData\Local\Temp\ccQB5Mdb.s 			page 19


 464              		.cfi_endproc
 465              	.LFE13:
 466              		.size	TMR_Os_Tmr_Pre_Emp_ReadCounter, .-TMR_Os_Tmr_Pre_Emp_ReadCounter
 467              		.global	TMR_Os_Tmr_Pre_Emp_initVar
 468              		.bss
 469              		.set	.LANCHOR0,. + 0
 470              		.type	TMR_Os_Tmr_Pre_Emp_initVar, %object
 471              		.size	TMR_Os_Tmr_Pre_Emp_initVar, 1
 472              	TMR_Os_Tmr_Pre_Emp_initVar:
 473 0000 00       		.space	1
 474              		.text
 475              	.Letext0:
 476              		.file 2 ".\\Generated_Source\\PSoC5\\cytypes.h"