ARM GAS  C:\Users\acer\AppData\Local\Temp\ccQxlELY.s 			page 1


   1              		.syntax unified
   2              		.cpu cortex-m3
   3              		.fpu softvfp
   4              		.eabi_attribute 20, 1
   5              		.eabi_attribute 21, 1
   6              		.eabi_attribute 23, 3
   7              		.eabi_attribute 24, 1
   8              		.eabi_attribute 25, 1
   9              		.eabi_attribute 26, 1
  10              		.eabi_attribute 30, 4
  11              		.eabi_attribute 34, 1
  12              		.eabi_attribute 18, 4
  13              		.thumb
  14              		.file	"UART_1.c"
  15              		.text
  16              	.Ltext0:
  17              		.cfi_sections	.debug_frame
  18              		.section	.text.UART_1_Init,"ax",%progbits
  19              		.align	1
  20              		.global	UART_1_Init
  21              		.thumb
  22              		.thumb_func
  23              		.type	UART_1_Init, %function
  24              	UART_1_Init:
  25              	.LFB1:
  26              		.file 1 ".\\Generated_Source\\PSoC5\\UART_1.c"
   1:.\Generated_Source\PSoC5/UART_1.c **** /*******************************************************************************
   2:.\Generated_Source\PSoC5/UART_1.c **** * File Name: UART_1.c
   3:.\Generated_Source\PSoC5/UART_1.c **** * Version 2.30
   4:.\Generated_Source\PSoC5/UART_1.c **** *
   5:.\Generated_Source\PSoC5/UART_1.c **** * Description:
   6:.\Generated_Source\PSoC5/UART_1.c **** *  This file provides all API functionality of the UART component
   7:.\Generated_Source\PSoC5/UART_1.c **** *
   8:.\Generated_Source\PSoC5/UART_1.c **** * Note:
   9:.\Generated_Source\PSoC5/UART_1.c **** *
  10:.\Generated_Source\PSoC5/UART_1.c **** ********************************************************************************
  11:.\Generated_Source\PSoC5/UART_1.c **** * Copyright 2008-2012, Cypress Semiconductor Corporation.  All rights reserved.
  12:.\Generated_Source\PSoC5/UART_1.c **** * You may use this file only in accordance with the license, terms, conditions,
  13:.\Generated_Source\PSoC5/UART_1.c **** * disclaimers, and limitations in the end user license agreement accompanying
  14:.\Generated_Source\PSoC5/UART_1.c **** * the software package with which this file was provided.
  15:.\Generated_Source\PSoC5/UART_1.c **** *******************************************************************************/
  16:.\Generated_Source\PSoC5/UART_1.c **** 
  17:.\Generated_Source\PSoC5/UART_1.c **** #include "UART_1.h"
  18:.\Generated_Source\PSoC5/UART_1.c **** #include "CyLib.h"
  19:.\Generated_Source\PSoC5/UART_1.c **** #if(UART_1_INTERNAL_CLOCK_USED)
  20:.\Generated_Source\PSoC5/UART_1.c ****     #include "UART_1_IntClock.h"
  21:.\Generated_Source\PSoC5/UART_1.c **** #endif /* End UART_1_INTERNAL_CLOCK_USED */
  22:.\Generated_Source\PSoC5/UART_1.c **** 
  23:.\Generated_Source\PSoC5/UART_1.c **** 
  24:.\Generated_Source\PSoC5/UART_1.c **** /***************************************
  25:.\Generated_Source\PSoC5/UART_1.c **** * Global data allocation
  26:.\Generated_Source\PSoC5/UART_1.c **** ***************************************/
  27:.\Generated_Source\PSoC5/UART_1.c **** 
  28:.\Generated_Source\PSoC5/UART_1.c **** uint8 UART_1_initVar = 0u;
  29:.\Generated_Source\PSoC5/UART_1.c **** #if( UART_1_TX_ENABLED && (UART_1_TXBUFFERSIZE > UART_1_FIFO_LENGTH))
  30:.\Generated_Source\PSoC5/UART_1.c ****     volatile uint8 UART_1_txBuffer[UART_1_TXBUFFERSIZE];
  31:.\Generated_Source\PSoC5/UART_1.c ****     volatile uint8 UART_1_txBufferRead = 0u;
ARM GAS  C:\Users\acer\AppData\Local\Temp\ccQxlELY.s 			page 2


  32:.\Generated_Source\PSoC5/UART_1.c ****     uint8 UART_1_txBufferWrite = 0u;
  33:.\Generated_Source\PSoC5/UART_1.c **** #endif /* End UART_1_TX_ENABLED */
  34:.\Generated_Source\PSoC5/UART_1.c **** #if( ( UART_1_RX_ENABLED || UART_1_HD_ENABLED ) && \
  35:.\Generated_Source\PSoC5/UART_1.c ****      (UART_1_RXBUFFERSIZE > UART_1_FIFO_LENGTH) )
  36:.\Generated_Source\PSoC5/UART_1.c ****     volatile uint8 UART_1_rxBuffer[UART_1_RXBUFFERSIZE];
  37:.\Generated_Source\PSoC5/UART_1.c ****     volatile uint8 UART_1_rxBufferRead = 0u;
  38:.\Generated_Source\PSoC5/UART_1.c ****     volatile uint8 UART_1_rxBufferWrite = 0u;
  39:.\Generated_Source\PSoC5/UART_1.c ****     volatile uint8 UART_1_rxBufferLoopDetect = 0u;
  40:.\Generated_Source\PSoC5/UART_1.c ****     volatile uint8 UART_1_rxBufferOverflow = 0u;
  41:.\Generated_Source\PSoC5/UART_1.c ****     #if (UART_1_RXHW_ADDRESS_ENABLED)
  42:.\Generated_Source\PSoC5/UART_1.c ****         volatile uint8 UART_1_rxAddressMode = UART_1_RXADDRESSMODE;
  43:.\Generated_Source\PSoC5/UART_1.c ****         volatile uint8 UART_1_rxAddressDetected = 0u;
  44:.\Generated_Source\PSoC5/UART_1.c ****     #endif /* End EnableHWAddress */
  45:.\Generated_Source\PSoC5/UART_1.c **** #endif /* End UART_1_RX_ENABLED */
  46:.\Generated_Source\PSoC5/UART_1.c **** 
  47:.\Generated_Source\PSoC5/UART_1.c **** 
  48:.\Generated_Source\PSoC5/UART_1.c **** /*******************************************************************************
  49:.\Generated_Source\PSoC5/UART_1.c **** * Function Name: UART_1_Start
  50:.\Generated_Source\PSoC5/UART_1.c **** ********************************************************************************
  51:.\Generated_Source\PSoC5/UART_1.c **** *
  52:.\Generated_Source\PSoC5/UART_1.c **** * Summary:
  53:.\Generated_Source\PSoC5/UART_1.c **** *  Initialize and Enable the UART component.
  54:.\Generated_Source\PSoC5/UART_1.c **** *  Enable the clock input to enable operation.
  55:.\Generated_Source\PSoC5/UART_1.c **** *
  56:.\Generated_Source\PSoC5/UART_1.c **** * Parameters:
  57:.\Generated_Source\PSoC5/UART_1.c **** *  None.
  58:.\Generated_Source\PSoC5/UART_1.c **** *
  59:.\Generated_Source\PSoC5/UART_1.c **** * Return:
  60:.\Generated_Source\PSoC5/UART_1.c **** *  None.
  61:.\Generated_Source\PSoC5/UART_1.c **** *
  62:.\Generated_Source\PSoC5/UART_1.c **** * Global variables:
  63:.\Generated_Source\PSoC5/UART_1.c **** *  The UART_1_intiVar variable is used to indicate initial
  64:.\Generated_Source\PSoC5/UART_1.c **** *  configuration of this component. The variable is initialized to zero (0u)
  65:.\Generated_Source\PSoC5/UART_1.c **** *  and set to one (1u) the first time UART_Start() is called. This allows for
  66:.\Generated_Source\PSoC5/UART_1.c **** *  component initialization without re-initialization in all subsequent calls
  67:.\Generated_Source\PSoC5/UART_1.c **** *  to the UART_1_Start() routine.
  68:.\Generated_Source\PSoC5/UART_1.c **** *
  69:.\Generated_Source\PSoC5/UART_1.c **** * Reentrant:
  70:.\Generated_Source\PSoC5/UART_1.c **** *  No.
  71:.\Generated_Source\PSoC5/UART_1.c **** *
  72:.\Generated_Source\PSoC5/UART_1.c **** *******************************************************************************/
  73:.\Generated_Source\PSoC5/UART_1.c **** void UART_1_Start(void) 
  74:.\Generated_Source\PSoC5/UART_1.c **** {
  75:.\Generated_Source\PSoC5/UART_1.c ****     /* If not Initialized then initialize all required hardware and software */
  76:.\Generated_Source\PSoC5/UART_1.c ****     if(UART_1_initVar == 0u)
  77:.\Generated_Source\PSoC5/UART_1.c ****     {
  78:.\Generated_Source\PSoC5/UART_1.c ****         UART_1_Init();
  79:.\Generated_Source\PSoC5/UART_1.c ****         UART_1_initVar = 1u;
  80:.\Generated_Source\PSoC5/UART_1.c ****     }
  81:.\Generated_Source\PSoC5/UART_1.c ****     UART_1_Enable();
  82:.\Generated_Source\PSoC5/UART_1.c **** }
  83:.\Generated_Source\PSoC5/UART_1.c **** 
  84:.\Generated_Source\PSoC5/UART_1.c **** 
  85:.\Generated_Source\PSoC5/UART_1.c **** /*******************************************************************************
  86:.\Generated_Source\PSoC5/UART_1.c **** * Function Name: UART_1_Init
  87:.\Generated_Source\PSoC5/UART_1.c **** ********************************************************************************
  88:.\Generated_Source\PSoC5/UART_1.c **** *
ARM GAS  C:\Users\acer\AppData\Local\Temp\ccQxlELY.s 			page 3


  89:.\Generated_Source\PSoC5/UART_1.c **** * Summary:
  90:.\Generated_Source\PSoC5/UART_1.c **** *  Initialize component's parameters to the parameters set by user in the
  91:.\Generated_Source\PSoC5/UART_1.c **** *  customizer of the component placed onto schematic. Usually called in
  92:.\Generated_Source\PSoC5/UART_1.c **** *  UART_1_Start().
  93:.\Generated_Source\PSoC5/UART_1.c **** *
  94:.\Generated_Source\PSoC5/UART_1.c **** * Parameters:
  95:.\Generated_Source\PSoC5/UART_1.c **** *  None.
  96:.\Generated_Source\PSoC5/UART_1.c **** *
  97:.\Generated_Source\PSoC5/UART_1.c **** * Return:
  98:.\Generated_Source\PSoC5/UART_1.c **** *  None.
  99:.\Generated_Source\PSoC5/UART_1.c **** *
 100:.\Generated_Source\PSoC5/UART_1.c **** *******************************************************************************/
 101:.\Generated_Source\PSoC5/UART_1.c **** void UART_1_Init(void) 
 102:.\Generated_Source\PSoC5/UART_1.c **** {
  27              		.loc 1 102 0
  28              		.cfi_startproc
  29              		@ args = 0, pretend = 0, frame = 0
  30              		@ frame_needed = 0, uses_anonymous_args = 0
  31 0000 08B5     		push	{r3, lr}
  32              		.cfi_def_cfa_offset 8
  33              		.cfi_offset 3, -8
  34              		.cfi_offset 14, -4
 103:.\Generated_Source\PSoC5/UART_1.c ****     #if(UART_1_RX_ENABLED || UART_1_HD_ENABLED)
 104:.\Generated_Source\PSoC5/UART_1.c **** 
 105:.\Generated_Source\PSoC5/UART_1.c ****         #if(UART_1_RX_INTERRUPT_ENABLED && (UART_1_RXBUFFERSIZE > UART_1_FIFO_LENGTH))
 106:.\Generated_Source\PSoC5/UART_1.c ****             /* Set the RX Interrupt. */
 107:.\Generated_Source\PSoC5/UART_1.c ****             (void)CyIntSetVector(UART_1_RX_VECT_NUM, &UART_1_RXISR);
  35              		.loc 1 107 0
  36 0002 0F49     		ldr	r1, .L2
  37 0004 0120     		movs	r0, #1
  38 0006 FFF7FEFF 		bl	CyIntSetVector
  39              	.LVL0:
 108:.\Generated_Source\PSoC5/UART_1.c ****             CyIntSetPriority(UART_1_RX_VECT_NUM, UART_1_RX_PRIOR_NUM);
  40              		.loc 1 108 0
  41 000a 0120     		movs	r0, #1
  42 000c 0721     		movs	r1, #7
  43 000e FFF7FEFF 		bl	CyIntSetPriority
  44              	.LVL1:
 109:.\Generated_Source\PSoC5/UART_1.c ****         #endif /* End UART_1_RX_INTERRUPT_ENABLED */
 110:.\Generated_Source\PSoC5/UART_1.c **** 
 111:.\Generated_Source\PSoC5/UART_1.c ****         #if (UART_1_RXHW_ADDRESS_ENABLED)
 112:.\Generated_Source\PSoC5/UART_1.c ****             UART_1_SetRxAddressMode(UART_1_RXAddressMode);
 113:.\Generated_Source\PSoC5/UART_1.c ****             UART_1_SetRxAddress1(UART_1_RXHWADDRESS1);
 114:.\Generated_Source\PSoC5/UART_1.c ****             UART_1_SetRxAddress2(UART_1_RXHWADDRESS2);
 115:.\Generated_Source\PSoC5/UART_1.c ****         #endif /* End UART_1_RXHW_ADDRESS_ENABLED */
 116:.\Generated_Source\PSoC5/UART_1.c **** 
 117:.\Generated_Source\PSoC5/UART_1.c ****         /* Init Count7 period */
 118:.\Generated_Source\PSoC5/UART_1.c ****         UART_1_RXBITCTR_PERIOD_REG = UART_1_RXBITCTR_INIT;
  45              		.loc 1 118 0
  46 0012 0C4B     		ldr	r3, .L2+4
  47 0014 7222     		movs	r2, #114
  48 0016 1A70     		strb	r2, [r3]
 119:.\Generated_Source\PSoC5/UART_1.c ****         /* Configure the Initial RX interrupt mask */
 120:.\Generated_Source\PSoC5/UART_1.c ****         UART_1_RXSTATUS_MASK_REG  = UART_1_INIT_RX_INTERRUPTS_MASK;
  49              		.loc 1 120 0
  50 0018 2022     		movs	r2, #32
  51 001a 5A70     		strb	r2, [r3, #1]
ARM GAS  C:\Users\acer\AppData\Local\Temp\ccQxlELY.s 			page 4


 121:.\Generated_Source\PSoC5/UART_1.c ****     #endif /* End UART_1_RX_ENABLED || UART_1_HD_ENABLED*/
 122:.\Generated_Source\PSoC5/UART_1.c **** 
 123:.\Generated_Source\PSoC5/UART_1.c ****     #if(UART_1_TX_ENABLED)
 124:.\Generated_Source\PSoC5/UART_1.c ****         #if(UART_1_TX_INTERRUPT_ENABLED && (UART_1_TXBUFFERSIZE > UART_1_FIFO_LENGTH))
 125:.\Generated_Source\PSoC5/UART_1.c ****             /* Set the TX Interrupt. */
 126:.\Generated_Source\PSoC5/UART_1.c ****             (void)CyIntSetVector(UART_1_TX_VECT_NUM, &UART_1_TXISR);
  52              		.loc 1 126 0
  53 001c 0A49     		ldr	r1, .L2+8
  54 001e 0220     		movs	r0, #2
  55 0020 FFF7FEFF 		bl	CyIntSetVector
  56              	.LVL2:
 127:.\Generated_Source\PSoC5/UART_1.c ****             CyIntSetPriority(UART_1_TX_VECT_NUM, UART_1_TX_PRIOR_NUM);
  57              		.loc 1 127 0
  58 0024 0220     		movs	r0, #2
  59 0026 0721     		movs	r1, #7
  60 0028 FFF7FEFF 		bl	CyIntSetPriority
  61              	.LVL3:
 128:.\Generated_Source\PSoC5/UART_1.c ****         #endif /* End UART_1_TX_INTERRUPT_ENABLED */
 129:.\Generated_Source\PSoC5/UART_1.c **** 
 130:.\Generated_Source\PSoC5/UART_1.c ****         /* Write Counter Value for TX Bit Clk Generator*/
 131:.\Generated_Source\PSoC5/UART_1.c ****         #if(UART_1_TXCLKGEN_DP)
 132:.\Generated_Source\PSoC5/UART_1.c ****             UART_1_TXBITCLKGEN_CTR_REG = UART_1_BIT_CENTER;
  62              		.loc 1 132 0
  63 002c 074B     		ldr	r3, .L2+12
  64 002e 0722     		movs	r2, #7
  65 0030 1A70     		strb	r2, [r3]
 133:.\Generated_Source\PSoC5/UART_1.c ****             UART_1_TXBITCLKTX_COMPLETE_REG = (UART_1_NUMBER_OF_DATA_BITS +
  66              		.loc 1 133 0
  67 0032 4822     		movs	r2, #72
  68 0034 1A74     		strb	r2, [r3, #16]
 134:.\Generated_Source\PSoC5/UART_1.c ****                         UART_1_NUMBER_OF_START_BIT) * UART_1_OVER_SAMPLE_COUNT;
 135:.\Generated_Source\PSoC5/UART_1.c ****         #else
 136:.\Generated_Source\PSoC5/UART_1.c ****             UART_1_TXBITCTR_PERIOD_REG = ((UART_1_NUMBER_OF_DATA_BITS +
 137:.\Generated_Source\PSoC5/UART_1.c ****                         UART_1_NUMBER_OF_START_BIT) * UART_1_OVER_SAMPLE_8) - 1u;
 138:.\Generated_Source\PSoC5/UART_1.c ****         #endif /* End UART_1_TXCLKGEN_DP */
 139:.\Generated_Source\PSoC5/UART_1.c **** 
 140:.\Generated_Source\PSoC5/UART_1.c ****         /* Configure the Initial TX interrupt mask */
 141:.\Generated_Source\PSoC5/UART_1.c ****         #if(UART_1_TX_INTERRUPT_ENABLED && (UART_1_TXBUFFERSIZE > UART_1_FIFO_LENGTH))
 142:.\Generated_Source\PSoC5/UART_1.c ****             UART_1_TXSTATUS_MASK_REG = UART_1_TX_STS_FIFO_EMPTY;
  69              		.loc 1 142 0
  70 0036 0222     		movs	r2, #2
  71 0038 83F85F20 		strb	r2, [r3, #95]
  72 003c 08BD     		pop	{r3, pc}
  73              	.L3:
  74 003e 00BF     		.align	2
  75              	.L2:
  76 0040 00000000 		.word	UART_1_RXISR
  77 0044 85640040 		.word	1073767557
  78 0048 00000000 		.word	UART_1_TXISR
  79 004c 23640040 		.word	1073767459
  80              		.cfi_endproc
  81              	.LFE1:
  82              		.size	UART_1_Init, .-UART_1_Init
  83              		.section	.text.UART_1_Enable,"ax",%progbits
  84              		.align	1
  85              		.global	UART_1_Enable
  86              		.thumb
ARM GAS  C:\Users\acer\AppData\Local\Temp\ccQxlELY.s 			page 5


  87              		.thumb_func
  88              		.type	UART_1_Enable, %function
  89              	UART_1_Enable:
  90              	.LFB2:
 143:.\Generated_Source\PSoC5/UART_1.c ****         #else
 144:.\Generated_Source\PSoC5/UART_1.c ****             UART_1_TXSTATUS_MASK_REG = UART_1_INIT_TX_INTERRUPTS_MASK;
 145:.\Generated_Source\PSoC5/UART_1.c ****         #endif /*End UART_1_TX_INTERRUPT_ENABLED*/
 146:.\Generated_Source\PSoC5/UART_1.c **** 
 147:.\Generated_Source\PSoC5/UART_1.c ****     #endif /* End UART_1_TX_ENABLED */
 148:.\Generated_Source\PSoC5/UART_1.c **** 
 149:.\Generated_Source\PSoC5/UART_1.c ****     #if(UART_1_PARITY_TYPE_SW)  /* Write Parity to Control Register */
 150:.\Generated_Source\PSoC5/UART_1.c ****         UART_1_WriteControlRegister( \
 151:.\Generated_Source\PSoC5/UART_1.c ****             (UART_1_ReadControlRegister() & (uint8)~UART_1_CTRL_PARITY_TYPE_MASK) | \
 152:.\Generated_Source\PSoC5/UART_1.c ****             (uint8)(UART_1_PARITY_TYPE << UART_1_CTRL_PARITY_TYPE0_SHIFT) );
 153:.\Generated_Source\PSoC5/UART_1.c ****     #endif /* End UART_1_PARITY_TYPE_SW */
 154:.\Generated_Source\PSoC5/UART_1.c **** }
 155:.\Generated_Source\PSoC5/UART_1.c **** 
 156:.\Generated_Source\PSoC5/UART_1.c **** 
 157:.\Generated_Source\PSoC5/UART_1.c **** /*******************************************************************************
 158:.\Generated_Source\PSoC5/UART_1.c **** * Function Name: UART_1_Enable
 159:.\Generated_Source\PSoC5/UART_1.c **** ********************************************************************************
 160:.\Generated_Source\PSoC5/UART_1.c **** *
 161:.\Generated_Source\PSoC5/UART_1.c **** * Summary:
 162:.\Generated_Source\PSoC5/UART_1.c **** *  Enables the UART block operation
 163:.\Generated_Source\PSoC5/UART_1.c **** *
 164:.\Generated_Source\PSoC5/UART_1.c **** * Parameters:
 165:.\Generated_Source\PSoC5/UART_1.c **** *  None.
 166:.\Generated_Source\PSoC5/UART_1.c **** *
 167:.\Generated_Source\PSoC5/UART_1.c **** * Return:
 168:.\Generated_Source\PSoC5/UART_1.c **** *  None.
 169:.\Generated_Source\PSoC5/UART_1.c **** *
 170:.\Generated_Source\PSoC5/UART_1.c **** * Global Variables:
 171:.\Generated_Source\PSoC5/UART_1.c **** *  UART_1_rxAddressDetected - set to initial state (0).
 172:.\Generated_Source\PSoC5/UART_1.c **** *
 173:.\Generated_Source\PSoC5/UART_1.c **** *******************************************************************************/
 174:.\Generated_Source\PSoC5/UART_1.c **** void UART_1_Enable(void) 
 175:.\Generated_Source\PSoC5/UART_1.c **** {
  91              		.loc 1 175 0
  92              		.cfi_startproc
  93              		@ args = 0, pretend = 0, frame = 0
  94              		@ frame_needed = 0, uses_anonymous_args = 0
  95 0000 10B5     		push	{r4, lr}
  96              		.cfi_def_cfa_offset 8
  97              		.cfi_offset 4, -8
  98              		.cfi_offset 14, -4
 176:.\Generated_Source\PSoC5/UART_1.c ****     uint8 enableInterrupts;
 177:.\Generated_Source\PSoC5/UART_1.c ****     enableInterrupts = CyEnterCriticalSection();
  99              		.loc 1 177 0
 100 0002 FFF7FEFF 		bl	CyEnterCriticalSection
 101              	.LVL4:
 102 0006 0446     		mov	r4, r0
 103              	.LVL5:
 178:.\Generated_Source\PSoC5/UART_1.c **** 
 179:.\Generated_Source\PSoC5/UART_1.c ****     #if(UART_1_RX_ENABLED || UART_1_HD_ENABLED)
 180:.\Generated_Source\PSoC5/UART_1.c ****         /*RX Counter (Count7) Enable */
 181:.\Generated_Source\PSoC5/UART_1.c ****         UART_1_RXBITCTR_CONTROL_REG |= UART_1_CNTR_ENABLE;
 104              		.loc 1 181 0
ARM GAS  C:\Users\acer\AppData\Local\Temp\ccQxlELY.s 			page 6


 105 0008 0C4A     		ldr	r2, .L5
 182:.\Generated_Source\PSoC5/UART_1.c ****         /* Enable the RX Interrupt. */
 183:.\Generated_Source\PSoC5/UART_1.c ****         UART_1_RXSTATUS_ACTL_REG  |= UART_1_INT_ENABLE;
 184:.\Generated_Source\PSoC5/UART_1.c ****         #if(UART_1_RX_INTERRUPT_ENABLED && (UART_1_RXBUFFERSIZE > UART_1_FIFO_LENGTH))
 185:.\Generated_Source\PSoC5/UART_1.c ****             CyIntEnable(UART_1_RX_VECT_NUM);
 186:.\Generated_Source\PSoC5/UART_1.c ****             #if (UART_1_RXHW_ADDRESS_ENABLED)
 187:.\Generated_Source\PSoC5/UART_1.c ****                 UART_1_rxAddressDetected = 0u;
 188:.\Generated_Source\PSoC5/UART_1.c ****             #endif /* End UART_1_RXHW_ADDRESS_ENABLED */
 189:.\Generated_Source\PSoC5/UART_1.c ****         #endif /* End UART_1_RX_INTERRUPT_ENABLED */
 190:.\Generated_Source\PSoC5/UART_1.c ****     #endif /* End UART_1_RX_ENABLED || UART_1_HD_ENABLED*/
 191:.\Generated_Source\PSoC5/UART_1.c **** 
 192:.\Generated_Source\PSoC5/UART_1.c ****     #if(UART_1_TX_ENABLED)
 193:.\Generated_Source\PSoC5/UART_1.c ****         /*TX Counter (DP/Count7) Enable */
 194:.\Generated_Source\PSoC5/UART_1.c ****         #if(!UART_1_TXCLKGEN_DP)
 195:.\Generated_Source\PSoC5/UART_1.c ****             UART_1_TXBITCTR_CONTROL_REG |= UART_1_CNTR_ENABLE;
 196:.\Generated_Source\PSoC5/UART_1.c ****         #endif /* End UART_1_TXCLKGEN_DP */
 197:.\Generated_Source\PSoC5/UART_1.c ****         /* Enable the TX Interrupt. */
 198:.\Generated_Source\PSoC5/UART_1.c ****         UART_1_TXSTATUS_ACTL_REG |= UART_1_INT_ENABLE;
 106              		.loc 1 198 0
 107 000a 0D49     		ldr	r1, .L5+4
 181:.\Generated_Source\PSoC5/UART_1.c ****         /* Enable the RX Interrupt. */
 108              		.loc 1 181 0
 109 000c 1378     		ldrb	r3, [r2]	@ zero_extendqisi2
 110 000e 43F02003 		orr	r3, r3, #32
 111 0012 1370     		strb	r3, [r2]
 183:.\Generated_Source\PSoC5/UART_1.c ****         #if(UART_1_RX_INTERRUPT_ENABLED && (UART_1_RXBUFFERSIZE > UART_1_FIFO_LENGTH))
 112              		.loc 1 183 0
 113 0014 5378     		ldrb	r3, [r2, #1]	@ zero_extendqisi2
 114 0016 43F01003 		orr	r3, r3, #16
 115 001a 5370     		strb	r3, [r2, #1]
 185:.\Generated_Source\PSoC5/UART_1.c ****             #if (UART_1_RXHW_ADDRESS_ENABLED)
 116              		.loc 1 185 0
 117 001c 094A     		ldr	r2, .L5+8
 118 001e 0223     		movs	r3, #2
 119 0020 1360     		str	r3, [r2]
 120              		.loc 1 198 0
 121 0022 0B78     		ldrb	r3, [r1]	@ zero_extendqisi2
 122 0024 43F01003 		orr	r3, r3, #16
 123 0028 0B70     		strb	r3, [r1]
 199:.\Generated_Source\PSoC5/UART_1.c ****         #if(UART_1_TX_INTERRUPT_ENABLED && (UART_1_TXBUFFERSIZE > UART_1_FIFO_LENGTH))
 200:.\Generated_Source\PSoC5/UART_1.c ****             CyIntEnable(UART_1_TX_VECT_NUM);
 124              		.loc 1 200 0
 125 002a 0423     		movs	r3, #4
 126 002c 1360     		str	r3, [r2]
 201:.\Generated_Source\PSoC5/UART_1.c ****         #endif /* End UART_1_TX_INTERRUPT_ENABLED*/
 202:.\Generated_Source\PSoC5/UART_1.c ****      #endif /* End UART_1_TX_ENABLED */
 203:.\Generated_Source\PSoC5/UART_1.c **** 
 204:.\Generated_Source\PSoC5/UART_1.c ****     #if(UART_1_INTERNAL_CLOCK_USED)
 205:.\Generated_Source\PSoC5/UART_1.c ****         /* Enable the clock. */
 206:.\Generated_Source\PSoC5/UART_1.c ****         UART_1_IntClock_Start();
 127              		.loc 1 206 0
 128 002e FFF7FEFF 		bl	UART_1_IntClock_Start
 129              	.LVL6:
 207:.\Generated_Source\PSoC5/UART_1.c ****     #endif /* End UART_1_INTERNAL_CLOCK_USED */
 208:.\Generated_Source\PSoC5/UART_1.c **** 
 209:.\Generated_Source\PSoC5/UART_1.c ****     CyExitCriticalSection(enableInterrupts);
 130              		.loc 1 209 0
ARM GAS  C:\Users\acer\AppData\Local\Temp\ccQxlELY.s 			page 7


 131 0032 2046     		mov	r0, r4
 210:.\Generated_Source\PSoC5/UART_1.c **** }
 132              		.loc 1 210 0
 133 0034 BDE81040 		pop	{r4, lr}
 134              		.cfi_restore 14
 135              		.cfi_restore 4
 136              		.cfi_def_cfa_offset 0
 137              	.LVL7:
 209:.\Generated_Source\PSoC5/UART_1.c **** }
 138              		.loc 1 209 0
 139 0038 FFF7FEBF 		b	CyExitCriticalSection
 140              	.LVL8:
 141              	.L6:
 142              		.align	2
 143              	.L5:
 144 003c 95640040 		.word	1073767573
 145 0040 92640040 		.word	1073767570
 146 0044 00E100E0 		.word	-536813312
 147              		.cfi_endproc
 148              	.LFE2:
 149              		.size	UART_1_Enable, .-UART_1_Enable
 150              		.section	.text.UART_1_Start,"ax",%progbits
 151              		.align	1
 152              		.global	UART_1_Start
 153              		.thumb
 154              		.thumb_func
 155              		.type	UART_1_Start, %function
 156              	UART_1_Start:
 157              	.LFB0:
  74:.\Generated_Source\PSoC5/UART_1.c ****     /* If not Initialized then initialize all required hardware and software */
 158              		.loc 1 74 0
 159              		.cfi_startproc
 160              		@ args = 0, pretend = 0, frame = 0
 161              		@ frame_needed = 0, uses_anonymous_args = 0
 162 0000 10B5     		push	{r4, lr}
 163              		.cfi_def_cfa_offset 8
 164              		.cfi_offset 4, -8
 165              		.cfi_offset 14, -4
  76:.\Generated_Source\PSoC5/UART_1.c ****     {
 166              		.loc 1 76 0
 167 0002 054C     		ldr	r4, .L10
 168 0004 2378     		ldrb	r3, [r4]	@ zero_extendqisi2
 169 0006 1BB9     		cbnz	r3, .L8
  78:.\Generated_Source\PSoC5/UART_1.c ****         UART_1_initVar = 1u;
 170              		.loc 1 78 0
 171 0008 FFF7FEFF 		bl	UART_1_Init
 172              	.LVL9:
  79:.\Generated_Source\PSoC5/UART_1.c ****     }
 173              		.loc 1 79 0
 174 000c 0123     		movs	r3, #1
 175 000e 2370     		strb	r3, [r4]
 176              	.L8:
  82:.\Generated_Source\PSoC5/UART_1.c **** 
 177              		.loc 1 82 0
 178 0010 BDE81040 		pop	{r4, lr}
 179              		.cfi_restore 14
 180              		.cfi_restore 4
ARM GAS  C:\Users\acer\AppData\Local\Temp\ccQxlELY.s 			page 8


 181              		.cfi_def_cfa_offset 0
  81:.\Generated_Source\PSoC5/UART_1.c **** }
 182              		.loc 1 81 0
 183 0014 FFF7FEBF 		b	UART_1_Enable
 184              	.LVL10:
 185              	.L11:
 186              		.align	2
 187              	.L10:
 188 0018 00000000 		.word	.LANCHOR0
 189              		.cfi_endproc
 190              	.LFE0:
 191              		.size	UART_1_Start, .-UART_1_Start
 192              		.section	.text.UART_1_Stop,"ax",%progbits
 193              		.align	1
 194              		.global	UART_1_Stop
 195              		.thumb
 196              		.thumb_func
 197              		.type	UART_1_Stop, %function
 198              	UART_1_Stop:
 199              	.LFB3:
 211:.\Generated_Source\PSoC5/UART_1.c **** 
 212:.\Generated_Source\PSoC5/UART_1.c **** 
 213:.\Generated_Source\PSoC5/UART_1.c **** /*******************************************************************************
 214:.\Generated_Source\PSoC5/UART_1.c **** * Function Name: UART_1_Stop
 215:.\Generated_Source\PSoC5/UART_1.c **** ********************************************************************************
 216:.\Generated_Source\PSoC5/UART_1.c **** *
 217:.\Generated_Source\PSoC5/UART_1.c **** * Summary:
 218:.\Generated_Source\PSoC5/UART_1.c **** *  Disable the UART component
 219:.\Generated_Source\PSoC5/UART_1.c **** *
 220:.\Generated_Source\PSoC5/UART_1.c **** * Parameters:
 221:.\Generated_Source\PSoC5/UART_1.c **** *  None.
 222:.\Generated_Source\PSoC5/UART_1.c **** *
 223:.\Generated_Source\PSoC5/UART_1.c **** * Return:
 224:.\Generated_Source\PSoC5/UART_1.c **** *  None.
 225:.\Generated_Source\PSoC5/UART_1.c **** *
 226:.\Generated_Source\PSoC5/UART_1.c **** *******************************************************************************/
 227:.\Generated_Source\PSoC5/UART_1.c **** void UART_1_Stop(void) 
 228:.\Generated_Source\PSoC5/UART_1.c **** {
 200              		.loc 1 228 0
 201              		.cfi_startproc
 202              		@ args = 0, pretend = 0, frame = 0
 203              		@ frame_needed = 0, uses_anonymous_args = 0
 204 0000 10B5     		push	{r4, lr}
 205              		.cfi_def_cfa_offset 8
 206              		.cfi_offset 4, -8
 207              		.cfi_offset 14, -4
 229:.\Generated_Source\PSoC5/UART_1.c ****     uint8 enableInterrupts;
 230:.\Generated_Source\PSoC5/UART_1.c ****     enableInterrupts = CyEnterCriticalSection();
 208              		.loc 1 230 0
 209 0002 FFF7FEFF 		bl	CyEnterCriticalSection
 210              	.LVL11:
 211 0006 0446     		mov	r4, r0
 212              	.LVL12:
 231:.\Generated_Source\PSoC5/UART_1.c **** 
 232:.\Generated_Source\PSoC5/UART_1.c ****     /* Write Bit Counter Disable */
 233:.\Generated_Source\PSoC5/UART_1.c ****     #if(UART_1_RX_ENABLED || UART_1_HD_ENABLED)
 234:.\Generated_Source\PSoC5/UART_1.c ****         UART_1_RXBITCTR_CONTROL_REG &= (uint8)~UART_1_CNTR_ENABLE;
ARM GAS  C:\Users\acer\AppData\Local\Temp\ccQxlELY.s 			page 9


 213              		.loc 1 234 0
 214 0008 0D4A     		ldr	r2, .L13
 215 000a 1378     		ldrb	r3, [r2]	@ zero_extendqisi2
 216 000c 03F0DF03 		and	r3, r3, #223
 217 0010 1370     		strb	r3, [r2]
 235:.\Generated_Source\PSoC5/UART_1.c ****     #endif /* End UART_1_RX_ENABLED */
 236:.\Generated_Source\PSoC5/UART_1.c **** 
 237:.\Generated_Source\PSoC5/UART_1.c ****     #if(UART_1_TX_ENABLED)
 238:.\Generated_Source\PSoC5/UART_1.c ****         #if(!UART_1_TXCLKGEN_DP)
 239:.\Generated_Source\PSoC5/UART_1.c ****             UART_1_TXBITCTR_CONTROL_REG &= (uint8)~UART_1_CNTR_ENABLE;
 240:.\Generated_Source\PSoC5/UART_1.c ****         #endif /* End UART_1_TXCLKGEN_DP */
 241:.\Generated_Source\PSoC5/UART_1.c ****     #endif /* UART_1_TX_ENABLED */
 242:.\Generated_Source\PSoC5/UART_1.c **** 
 243:.\Generated_Source\PSoC5/UART_1.c ****     #if(UART_1_INTERNAL_CLOCK_USED)
 244:.\Generated_Source\PSoC5/UART_1.c ****         /* Disable the clock. */
 245:.\Generated_Source\PSoC5/UART_1.c ****         UART_1_IntClock_Stop();
 218              		.loc 1 245 0
 219 0012 FFF7FEFF 		bl	UART_1_IntClock_Stop
 220              	.LVL13:
 246:.\Generated_Source\PSoC5/UART_1.c ****     #endif /* End UART_1_INTERNAL_CLOCK_USED */
 247:.\Generated_Source\PSoC5/UART_1.c **** 
 248:.\Generated_Source\PSoC5/UART_1.c ****     /* Disable internal interrupt component */
 249:.\Generated_Source\PSoC5/UART_1.c ****     #if(UART_1_RX_ENABLED || UART_1_HD_ENABLED)
 250:.\Generated_Source\PSoC5/UART_1.c ****         UART_1_RXSTATUS_ACTL_REG  &= (uint8)~UART_1_INT_ENABLE;
 221              		.loc 1 250 0
 222 0016 0B4A     		ldr	r2, .L13+4
 251:.\Generated_Source\PSoC5/UART_1.c ****         #if(UART_1_RX_INTERRUPT_ENABLED && (UART_1_RXBUFFERSIZE > UART_1_FIFO_LENGTH))
 252:.\Generated_Source\PSoC5/UART_1.c ****             UART_1_DisableRxInt();
 253:.\Generated_Source\PSoC5/UART_1.c ****         #endif /* End UART_1_RX_INTERRUPT_ENABLED */
 254:.\Generated_Source\PSoC5/UART_1.c ****     #endif /* End UART_1_RX_ENABLED */
 255:.\Generated_Source\PSoC5/UART_1.c **** 
 256:.\Generated_Source\PSoC5/UART_1.c ****     #if(UART_1_TX_ENABLED)
 257:.\Generated_Source\PSoC5/UART_1.c ****         UART_1_TXSTATUS_ACTL_REG &= (uint8)~UART_1_INT_ENABLE;
 223              		.loc 1 257 0
 224 0018 0B49     		ldr	r1, .L13+8
 250:.\Generated_Source\PSoC5/UART_1.c ****         #if(UART_1_RX_INTERRUPT_ENABLED && (UART_1_RXBUFFERSIZE > UART_1_FIFO_LENGTH))
 225              		.loc 1 250 0
 226 001a 1378     		ldrb	r3, [r2]	@ zero_extendqisi2
 258:.\Generated_Source\PSoC5/UART_1.c ****         #if(UART_1_TX_INTERRUPT_ENABLED && (UART_1_TXBUFFERSIZE > UART_1_FIFO_LENGTH))
 259:.\Generated_Source\PSoC5/UART_1.c ****             UART_1_DisableTxInt();
 260:.\Generated_Source\PSoC5/UART_1.c ****         #endif /* End UART_1_TX_INTERRUPT_ENABLED */
 261:.\Generated_Source\PSoC5/UART_1.c ****     #endif /* End UART_1_TX_ENABLED */
 262:.\Generated_Source\PSoC5/UART_1.c **** 
 263:.\Generated_Source\PSoC5/UART_1.c ****     CyExitCriticalSection(enableInterrupts);
 227              		.loc 1 263 0
 228 001c 2046     		mov	r0, r4
 250:.\Generated_Source\PSoC5/UART_1.c ****         #if(UART_1_RX_INTERRUPT_ENABLED && (UART_1_RXBUFFERSIZE > UART_1_FIFO_LENGTH))
 229              		.loc 1 250 0
 230 001e 03F0EF03 		and	r3, r3, #239
 231 0022 1370     		strb	r3, [r2]
 232              	.LBB34:
 233              	.LBB35:
 264:.\Generated_Source\PSoC5/UART_1.c **** }
 265:.\Generated_Source\PSoC5/UART_1.c **** 
 266:.\Generated_Source\PSoC5/UART_1.c **** 
 267:.\Generated_Source\PSoC5/UART_1.c **** /*******************************************************************************
 268:.\Generated_Source\PSoC5/UART_1.c **** * Function Name: UART_1_ReadControlRegister
ARM GAS  C:\Users\acer\AppData\Local\Temp\ccQxlELY.s 			page 10


 269:.\Generated_Source\PSoC5/UART_1.c **** ********************************************************************************
 270:.\Generated_Source\PSoC5/UART_1.c **** *
 271:.\Generated_Source\PSoC5/UART_1.c **** * Summary:
 272:.\Generated_Source\PSoC5/UART_1.c **** *  Read the current state of the control register
 273:.\Generated_Source\PSoC5/UART_1.c **** *
 274:.\Generated_Source\PSoC5/UART_1.c **** * Parameters:
 275:.\Generated_Source\PSoC5/UART_1.c **** *  None.
 276:.\Generated_Source\PSoC5/UART_1.c **** *
 277:.\Generated_Source\PSoC5/UART_1.c **** * Return:
 278:.\Generated_Source\PSoC5/UART_1.c **** *  Current state of the control register.
 279:.\Generated_Source\PSoC5/UART_1.c **** *
 280:.\Generated_Source\PSoC5/UART_1.c **** *******************************************************************************/
 281:.\Generated_Source\PSoC5/UART_1.c **** uint8 UART_1_ReadControlRegister(void) 
 282:.\Generated_Source\PSoC5/UART_1.c **** {
 283:.\Generated_Source\PSoC5/UART_1.c ****     #if( UART_1_CONTROL_REG_REMOVED )
 284:.\Generated_Source\PSoC5/UART_1.c ****         return(0u);
 285:.\Generated_Source\PSoC5/UART_1.c ****     #else
 286:.\Generated_Source\PSoC5/UART_1.c ****         return(UART_1_CONTROL_REG);
 287:.\Generated_Source\PSoC5/UART_1.c ****     #endif /* End UART_1_CONTROL_REG_REMOVED */
 288:.\Generated_Source\PSoC5/UART_1.c **** }
 289:.\Generated_Source\PSoC5/UART_1.c **** 
 290:.\Generated_Source\PSoC5/UART_1.c **** 
 291:.\Generated_Source\PSoC5/UART_1.c **** /*******************************************************************************
 292:.\Generated_Source\PSoC5/UART_1.c **** * Function Name: UART_1_WriteControlRegister
 293:.\Generated_Source\PSoC5/UART_1.c **** ********************************************************************************
 294:.\Generated_Source\PSoC5/UART_1.c **** *
 295:.\Generated_Source\PSoC5/UART_1.c **** * Summary:
 296:.\Generated_Source\PSoC5/UART_1.c **** *  Writes an 8-bit value into the control register
 297:.\Generated_Source\PSoC5/UART_1.c **** *
 298:.\Generated_Source\PSoC5/UART_1.c **** * Parameters:
 299:.\Generated_Source\PSoC5/UART_1.c **** *  control:  control register value
 300:.\Generated_Source\PSoC5/UART_1.c **** *
 301:.\Generated_Source\PSoC5/UART_1.c **** * Return:
 302:.\Generated_Source\PSoC5/UART_1.c **** *  None.
 303:.\Generated_Source\PSoC5/UART_1.c **** *
 304:.\Generated_Source\PSoC5/UART_1.c **** *******************************************************************************/
 305:.\Generated_Source\PSoC5/UART_1.c **** void  UART_1_WriteControlRegister(uint8 control) 
 306:.\Generated_Source\PSoC5/UART_1.c **** {
 307:.\Generated_Source\PSoC5/UART_1.c ****     #if( UART_1_CONTROL_REG_REMOVED )
 308:.\Generated_Source\PSoC5/UART_1.c ****         if(control != 0u) { }      /* release compiler warning */
 309:.\Generated_Source\PSoC5/UART_1.c ****     #else
 310:.\Generated_Source\PSoC5/UART_1.c ****        UART_1_CONTROL_REG = control;
 311:.\Generated_Source\PSoC5/UART_1.c ****     #endif /* End UART_1_CONTROL_REG_REMOVED */
 312:.\Generated_Source\PSoC5/UART_1.c **** }
 313:.\Generated_Source\PSoC5/UART_1.c **** 
 314:.\Generated_Source\PSoC5/UART_1.c **** 
 315:.\Generated_Source\PSoC5/UART_1.c **** #if(UART_1_RX_ENABLED || UART_1_HD_ENABLED)
 316:.\Generated_Source\PSoC5/UART_1.c **** 
 317:.\Generated_Source\PSoC5/UART_1.c ****     #if(UART_1_RX_INTERRUPT_ENABLED)
 318:.\Generated_Source\PSoC5/UART_1.c **** 
 319:.\Generated_Source\PSoC5/UART_1.c ****         /*******************************************************************************
 320:.\Generated_Source\PSoC5/UART_1.c ****         * Function Name: UART_1_EnableRxInt
 321:.\Generated_Source\PSoC5/UART_1.c ****         ********************************************************************************
 322:.\Generated_Source\PSoC5/UART_1.c ****         *
 323:.\Generated_Source\PSoC5/UART_1.c ****         * Summary:
 324:.\Generated_Source\PSoC5/UART_1.c ****         *  Enable RX interrupt generation
 325:.\Generated_Source\PSoC5/UART_1.c ****         *
ARM GAS  C:\Users\acer\AppData\Local\Temp\ccQxlELY.s 			page 11


 326:.\Generated_Source\PSoC5/UART_1.c ****         * Parameters:
 327:.\Generated_Source\PSoC5/UART_1.c ****         *  None.
 328:.\Generated_Source\PSoC5/UART_1.c ****         *
 329:.\Generated_Source\PSoC5/UART_1.c ****         * Return:
 330:.\Generated_Source\PSoC5/UART_1.c ****         *  None.
 331:.\Generated_Source\PSoC5/UART_1.c ****         *
 332:.\Generated_Source\PSoC5/UART_1.c ****         * Theory:
 333:.\Generated_Source\PSoC5/UART_1.c ****         *  Enable the interrupt output -or- the interrupt component itself
 334:.\Generated_Source\PSoC5/UART_1.c ****         *
 335:.\Generated_Source\PSoC5/UART_1.c ****         *******************************************************************************/
 336:.\Generated_Source\PSoC5/UART_1.c ****         void UART_1_EnableRxInt(void) 
 337:.\Generated_Source\PSoC5/UART_1.c ****         {
 338:.\Generated_Source\PSoC5/UART_1.c ****             CyIntEnable(UART_1_RX_VECT_NUM);
 339:.\Generated_Source\PSoC5/UART_1.c ****         }
 340:.\Generated_Source\PSoC5/UART_1.c **** 
 341:.\Generated_Source\PSoC5/UART_1.c **** 
 342:.\Generated_Source\PSoC5/UART_1.c ****         /*******************************************************************************
 343:.\Generated_Source\PSoC5/UART_1.c ****         * Function Name: UART_1_DisableRxInt
 344:.\Generated_Source\PSoC5/UART_1.c ****         ********************************************************************************
 345:.\Generated_Source\PSoC5/UART_1.c ****         *
 346:.\Generated_Source\PSoC5/UART_1.c ****         * Summary:
 347:.\Generated_Source\PSoC5/UART_1.c ****         *  Disable RX interrupt generation
 348:.\Generated_Source\PSoC5/UART_1.c ****         *
 349:.\Generated_Source\PSoC5/UART_1.c ****         * Parameters:
 350:.\Generated_Source\PSoC5/UART_1.c ****         *  None.
 351:.\Generated_Source\PSoC5/UART_1.c ****         *
 352:.\Generated_Source\PSoC5/UART_1.c ****         * Return:
 353:.\Generated_Source\PSoC5/UART_1.c ****         *  None.
 354:.\Generated_Source\PSoC5/UART_1.c ****         *
 355:.\Generated_Source\PSoC5/UART_1.c ****         * Theory:
 356:.\Generated_Source\PSoC5/UART_1.c ****         *  Disable the interrupt output -or- the interrupt component itself
 357:.\Generated_Source\PSoC5/UART_1.c ****         *
 358:.\Generated_Source\PSoC5/UART_1.c ****         *******************************************************************************/
 359:.\Generated_Source\PSoC5/UART_1.c ****         void UART_1_DisableRxInt(void) 
 360:.\Generated_Source\PSoC5/UART_1.c ****         {
 361:.\Generated_Source\PSoC5/UART_1.c ****             CyIntDisable(UART_1_RX_VECT_NUM);
 234              		.loc 1 361 0
 235 0024 094A     		ldr	r2, .L13+12
 236 0026 0223     		movs	r3, #2
 237 0028 1360     		str	r3, [r2]
 238              	.LBE35:
 239              	.LBE34:
 257:.\Generated_Source\PSoC5/UART_1.c ****         #if(UART_1_TX_INTERRUPT_ENABLED && (UART_1_TXBUFFERSIZE > UART_1_FIFO_LENGTH))
 240              		.loc 1 257 0
 241 002a 0B78     		ldrb	r3, [r1]	@ zero_extendqisi2
 242 002c 03F0EF03 		and	r3, r3, #239
 243 0030 0B70     		strb	r3, [r1]
 244              	.LBB36:
 245              	.LBB37:
 362:.\Generated_Source\PSoC5/UART_1.c ****         }
 363:.\Generated_Source\PSoC5/UART_1.c **** 
 364:.\Generated_Source\PSoC5/UART_1.c ****     #endif /* UART_1_RX_INTERRUPT_ENABLED */
 365:.\Generated_Source\PSoC5/UART_1.c **** 
 366:.\Generated_Source\PSoC5/UART_1.c **** 
 367:.\Generated_Source\PSoC5/UART_1.c ****     /*******************************************************************************
 368:.\Generated_Source\PSoC5/UART_1.c ****     * Function Name: UART_1_SetRxInterruptMode
 369:.\Generated_Source\PSoC5/UART_1.c ****     ********************************************************************************
ARM GAS  C:\Users\acer\AppData\Local\Temp\ccQxlELY.s 			page 12


 370:.\Generated_Source\PSoC5/UART_1.c ****     *
 371:.\Generated_Source\PSoC5/UART_1.c ****     * Summary:
 372:.\Generated_Source\PSoC5/UART_1.c ****     *  Configure which status bits trigger an interrupt event
 373:.\Generated_Source\PSoC5/UART_1.c ****     *
 374:.\Generated_Source\PSoC5/UART_1.c ****     * Parameters:
 375:.\Generated_Source\PSoC5/UART_1.c ****     *  IntSrc:  An or'd combination of the desired status bit masks (defined in
 376:.\Generated_Source\PSoC5/UART_1.c ****     *           the header file)
 377:.\Generated_Source\PSoC5/UART_1.c ****     *
 378:.\Generated_Source\PSoC5/UART_1.c ****     * Return:
 379:.\Generated_Source\PSoC5/UART_1.c ****     *  None.
 380:.\Generated_Source\PSoC5/UART_1.c ****     *
 381:.\Generated_Source\PSoC5/UART_1.c ****     * Theory:
 382:.\Generated_Source\PSoC5/UART_1.c ****     *  Enables the output of specific status bits to the interrupt controller
 383:.\Generated_Source\PSoC5/UART_1.c ****     *
 384:.\Generated_Source\PSoC5/UART_1.c ****     *******************************************************************************/
 385:.\Generated_Source\PSoC5/UART_1.c ****     void UART_1_SetRxInterruptMode(uint8 intSrc) 
 386:.\Generated_Source\PSoC5/UART_1.c ****     {
 387:.\Generated_Source\PSoC5/UART_1.c ****         UART_1_RXSTATUS_MASK_REG  = intSrc;
 388:.\Generated_Source\PSoC5/UART_1.c ****     }
 389:.\Generated_Source\PSoC5/UART_1.c **** 
 390:.\Generated_Source\PSoC5/UART_1.c **** 
 391:.\Generated_Source\PSoC5/UART_1.c ****     /*******************************************************************************
 392:.\Generated_Source\PSoC5/UART_1.c ****     * Function Name: UART_1_ReadRxData
 393:.\Generated_Source\PSoC5/UART_1.c ****     ********************************************************************************
 394:.\Generated_Source\PSoC5/UART_1.c ****     *
 395:.\Generated_Source\PSoC5/UART_1.c ****     * Summary:
 396:.\Generated_Source\PSoC5/UART_1.c ****     *  Returns data in RX Data register without checking status register to
 397:.\Generated_Source\PSoC5/UART_1.c ****     *  determine if data is valid
 398:.\Generated_Source\PSoC5/UART_1.c ****     *
 399:.\Generated_Source\PSoC5/UART_1.c ****     * Parameters:
 400:.\Generated_Source\PSoC5/UART_1.c ****     *  None.
 401:.\Generated_Source\PSoC5/UART_1.c ****     *
 402:.\Generated_Source\PSoC5/UART_1.c ****     * Return:
 403:.\Generated_Source\PSoC5/UART_1.c ****     *  Received data from RX register
 404:.\Generated_Source\PSoC5/UART_1.c ****     *
 405:.\Generated_Source\PSoC5/UART_1.c ****     * Global Variables:
 406:.\Generated_Source\PSoC5/UART_1.c ****     *  UART_1_rxBuffer - RAM buffer pointer for save received data.
 407:.\Generated_Source\PSoC5/UART_1.c ****     *  UART_1_rxBufferWrite - cyclic index for write to rxBuffer,
 408:.\Generated_Source\PSoC5/UART_1.c ****     *     checked to identify new data.
 409:.\Generated_Source\PSoC5/UART_1.c ****     *  UART_1_rxBufferRead - cyclic index for read from rxBuffer,
 410:.\Generated_Source\PSoC5/UART_1.c ****     *     incremented after each byte has been read from buffer.
 411:.\Generated_Source\PSoC5/UART_1.c ****     *  UART_1_rxBufferLoopDetect - creared if loop condition was detected
 412:.\Generated_Source\PSoC5/UART_1.c ****     *     in RX ISR.
 413:.\Generated_Source\PSoC5/UART_1.c ****     *
 414:.\Generated_Source\PSoC5/UART_1.c ****     * Reentrant:
 415:.\Generated_Source\PSoC5/UART_1.c ****     *  No.
 416:.\Generated_Source\PSoC5/UART_1.c ****     *
 417:.\Generated_Source\PSoC5/UART_1.c ****     *******************************************************************************/
 418:.\Generated_Source\PSoC5/UART_1.c ****     uint8 UART_1_ReadRxData(void) 
 419:.\Generated_Source\PSoC5/UART_1.c ****     {
 420:.\Generated_Source\PSoC5/UART_1.c ****         uint8 rxData;
 421:.\Generated_Source\PSoC5/UART_1.c **** 
 422:.\Generated_Source\PSoC5/UART_1.c ****         #if(UART_1_RXBUFFERSIZE > UART_1_FIFO_LENGTH)
 423:.\Generated_Source\PSoC5/UART_1.c ****             uint8 loc_rxBufferRead;
 424:.\Generated_Source\PSoC5/UART_1.c ****             uint8 loc_rxBufferWrite;
 425:.\Generated_Source\PSoC5/UART_1.c ****             /* Protect variables that could change on interrupt. */
 426:.\Generated_Source\PSoC5/UART_1.c ****             /* Disable Rx interrupt. */
ARM GAS  C:\Users\acer\AppData\Local\Temp\ccQxlELY.s 			page 13


 427:.\Generated_Source\PSoC5/UART_1.c ****             #if(UART_1_RX_INTERRUPT_ENABLED)
 428:.\Generated_Source\PSoC5/UART_1.c ****                 UART_1_DisableRxInt();
 429:.\Generated_Source\PSoC5/UART_1.c ****             #endif /* UART_1_RX_INTERRUPT_ENABLED */
 430:.\Generated_Source\PSoC5/UART_1.c ****             loc_rxBufferRead = UART_1_rxBufferRead;
 431:.\Generated_Source\PSoC5/UART_1.c ****             loc_rxBufferWrite = UART_1_rxBufferWrite;
 432:.\Generated_Source\PSoC5/UART_1.c **** 
 433:.\Generated_Source\PSoC5/UART_1.c ****             if( (UART_1_rxBufferLoopDetect != 0u) || (loc_rxBufferRead != loc_rxBufferWrite) )
 434:.\Generated_Source\PSoC5/UART_1.c ****             {
 435:.\Generated_Source\PSoC5/UART_1.c ****                 rxData = UART_1_rxBuffer[loc_rxBufferRead];
 436:.\Generated_Source\PSoC5/UART_1.c ****                 loc_rxBufferRead++;
 437:.\Generated_Source\PSoC5/UART_1.c **** 
 438:.\Generated_Source\PSoC5/UART_1.c ****                 if(loc_rxBufferRead >= UART_1_RXBUFFERSIZE)
 439:.\Generated_Source\PSoC5/UART_1.c ****                 {
 440:.\Generated_Source\PSoC5/UART_1.c ****                     loc_rxBufferRead = 0u;
 441:.\Generated_Source\PSoC5/UART_1.c ****                 }
 442:.\Generated_Source\PSoC5/UART_1.c ****                 /* Update the real pointer */
 443:.\Generated_Source\PSoC5/UART_1.c ****                 UART_1_rxBufferRead = loc_rxBufferRead;
 444:.\Generated_Source\PSoC5/UART_1.c **** 
 445:.\Generated_Source\PSoC5/UART_1.c ****                 if(UART_1_rxBufferLoopDetect != 0u )
 446:.\Generated_Source\PSoC5/UART_1.c ****                 {
 447:.\Generated_Source\PSoC5/UART_1.c ****                     UART_1_rxBufferLoopDetect = 0u;
 448:.\Generated_Source\PSoC5/UART_1.c ****                     #if( (UART_1_RX_INTERRUPT_ENABLED) && (UART_1_FLOW_CONTROL != 0u) && \
 449:.\Generated_Source\PSoC5/UART_1.c ****                          (UART_1_RXBUFFERSIZE > UART_1_FIFO_LENGTH) )
 450:.\Generated_Source\PSoC5/UART_1.c ****                         /* When Hardware Flow Control selected - return RX mask */
 451:.\Generated_Source\PSoC5/UART_1.c ****                         #if( UART_1_HD_ENABLED )
 452:.\Generated_Source\PSoC5/UART_1.c ****                             if((UART_1_CONTROL_REG & UART_1_CTRL_HD_SEND) == 0u)
 453:.\Generated_Source\PSoC5/UART_1.c ****                             {   /* In Half duplex mode return RX mask only in RX
 454:.\Generated_Source\PSoC5/UART_1.c ****                                 *  configuration set, otherwise
 455:.\Generated_Source\PSoC5/UART_1.c ****                                 *  mask will be returned in LoadRxConfig() API.
 456:.\Generated_Source\PSoC5/UART_1.c ****                                 */
 457:.\Generated_Source\PSoC5/UART_1.c ****                                 UART_1_RXSTATUS_MASK_REG  |= UART_1_RX_STS_FIFO_NOTEMPTY;
 458:.\Generated_Source\PSoC5/UART_1.c ****                             }
 459:.\Generated_Source\PSoC5/UART_1.c ****                         #else
 460:.\Generated_Source\PSoC5/UART_1.c ****                             UART_1_RXSTATUS_MASK_REG  |= UART_1_RX_STS_FIFO_NOTEMPTY;
 461:.\Generated_Source\PSoC5/UART_1.c ****                         #endif /* end UART_1_HD_ENABLED */
 462:.\Generated_Source\PSoC5/UART_1.c ****                     #endif /* UART_1_RX_INTERRUPT_ENABLED and Hardware flow control*/
 463:.\Generated_Source\PSoC5/UART_1.c ****                 }
 464:.\Generated_Source\PSoC5/UART_1.c ****             }
 465:.\Generated_Source\PSoC5/UART_1.c ****             else
 466:.\Generated_Source\PSoC5/UART_1.c ****             {   /* Needs to check status for RX_STS_FIFO_NOTEMPTY bit*/
 467:.\Generated_Source\PSoC5/UART_1.c ****                 rxData = UART_1_RXDATA_REG;
 468:.\Generated_Source\PSoC5/UART_1.c ****             }
 469:.\Generated_Source\PSoC5/UART_1.c **** 
 470:.\Generated_Source\PSoC5/UART_1.c ****             /* Enable Rx interrupt. */
 471:.\Generated_Source\PSoC5/UART_1.c ****             #if(UART_1_RX_INTERRUPT_ENABLED)
 472:.\Generated_Source\PSoC5/UART_1.c ****                 UART_1_EnableRxInt();
 473:.\Generated_Source\PSoC5/UART_1.c ****             #endif /* End UART_1_RX_INTERRUPT_ENABLED */
 474:.\Generated_Source\PSoC5/UART_1.c **** 
 475:.\Generated_Source\PSoC5/UART_1.c ****         #else /* UART_1_RXBUFFERSIZE > UART_1_FIFO_LENGTH */
 476:.\Generated_Source\PSoC5/UART_1.c **** 
 477:.\Generated_Source\PSoC5/UART_1.c ****             /* Needs to check status for RX_STS_FIFO_NOTEMPTY bit*/
 478:.\Generated_Source\PSoC5/UART_1.c ****             rxData = UART_1_RXDATA_REG;
 479:.\Generated_Source\PSoC5/UART_1.c **** 
 480:.\Generated_Source\PSoC5/UART_1.c ****         #endif /* UART_1_RXBUFFERSIZE > UART_1_FIFO_LENGTH */
 481:.\Generated_Source\PSoC5/UART_1.c **** 
 482:.\Generated_Source\PSoC5/UART_1.c ****         return(rxData);
 483:.\Generated_Source\PSoC5/UART_1.c ****     }
ARM GAS  C:\Users\acer\AppData\Local\Temp\ccQxlELY.s 			page 14


 484:.\Generated_Source\PSoC5/UART_1.c **** 
 485:.\Generated_Source\PSoC5/UART_1.c **** 
 486:.\Generated_Source\PSoC5/UART_1.c ****     /*******************************************************************************
 487:.\Generated_Source\PSoC5/UART_1.c ****     * Function Name: UART_1_ReadRxStatus
 488:.\Generated_Source\PSoC5/UART_1.c ****     ********************************************************************************
 489:.\Generated_Source\PSoC5/UART_1.c ****     *
 490:.\Generated_Source\PSoC5/UART_1.c ****     * Summary:
 491:.\Generated_Source\PSoC5/UART_1.c ****     *  Read the current state of the status register
 492:.\Generated_Source\PSoC5/UART_1.c ****     *  And detect software buffer overflow.
 493:.\Generated_Source\PSoC5/UART_1.c ****     *
 494:.\Generated_Source\PSoC5/UART_1.c ****     * Parameters:
 495:.\Generated_Source\PSoC5/UART_1.c ****     *  None.
 496:.\Generated_Source\PSoC5/UART_1.c ****     *
 497:.\Generated_Source\PSoC5/UART_1.c ****     * Return:
 498:.\Generated_Source\PSoC5/UART_1.c ****     *  Current state of the status register.
 499:.\Generated_Source\PSoC5/UART_1.c ****     *
 500:.\Generated_Source\PSoC5/UART_1.c ****     * Global Variables:
 501:.\Generated_Source\PSoC5/UART_1.c ****     *  UART_1_rxBufferOverflow - used to indicate overload condition.
 502:.\Generated_Source\PSoC5/UART_1.c ****     *   It set to one in RX interrupt when there isn?t free space in
 503:.\Generated_Source\PSoC5/UART_1.c ****     *   UART_1_rxBufferRead to write new data. This condition returned
 504:.\Generated_Source\PSoC5/UART_1.c ****     *   and cleared to zero by this API as an
 505:.\Generated_Source\PSoC5/UART_1.c ****     *   UART_1_RX_STS_SOFT_BUFF_OVER bit along with RX Status register
 506:.\Generated_Source\PSoC5/UART_1.c ****     *   bits.
 507:.\Generated_Source\PSoC5/UART_1.c ****     *
 508:.\Generated_Source\PSoC5/UART_1.c ****     *******************************************************************************/
 509:.\Generated_Source\PSoC5/UART_1.c ****     uint8 UART_1_ReadRxStatus(void) 
 510:.\Generated_Source\PSoC5/UART_1.c ****     {
 511:.\Generated_Source\PSoC5/UART_1.c ****         uint8 status;
 512:.\Generated_Source\PSoC5/UART_1.c **** 
 513:.\Generated_Source\PSoC5/UART_1.c ****         status = UART_1_RXSTATUS_REG & UART_1_RX_HW_MASK;
 514:.\Generated_Source\PSoC5/UART_1.c **** 
 515:.\Generated_Source\PSoC5/UART_1.c ****         #if(UART_1_RXBUFFERSIZE > UART_1_FIFO_LENGTH)
 516:.\Generated_Source\PSoC5/UART_1.c ****             if( UART_1_rxBufferOverflow != 0u )
 517:.\Generated_Source\PSoC5/UART_1.c ****             {
 518:.\Generated_Source\PSoC5/UART_1.c ****                 status |= UART_1_RX_STS_SOFT_BUFF_OVER;
 519:.\Generated_Source\PSoC5/UART_1.c ****                 UART_1_rxBufferOverflow = 0u;
 520:.\Generated_Source\PSoC5/UART_1.c ****             }
 521:.\Generated_Source\PSoC5/UART_1.c ****         #endif /* UART_1_RXBUFFERSIZE */
 522:.\Generated_Source\PSoC5/UART_1.c **** 
 523:.\Generated_Source\PSoC5/UART_1.c ****         return(status);
 524:.\Generated_Source\PSoC5/UART_1.c ****     }
 525:.\Generated_Source\PSoC5/UART_1.c **** 
 526:.\Generated_Source\PSoC5/UART_1.c **** 
 527:.\Generated_Source\PSoC5/UART_1.c ****     /*******************************************************************************
 528:.\Generated_Source\PSoC5/UART_1.c ****     * Function Name: UART_1_GetChar
 529:.\Generated_Source\PSoC5/UART_1.c ****     ********************************************************************************
 530:.\Generated_Source\PSoC5/UART_1.c ****     *
 531:.\Generated_Source\PSoC5/UART_1.c ****     * Summary:
 532:.\Generated_Source\PSoC5/UART_1.c ****     *  Reads UART RX buffer immediately, if data is not available or an error
 533:.\Generated_Source\PSoC5/UART_1.c ****     *  condition exists, zero is returned; otherwise, character is read and
 534:.\Generated_Source\PSoC5/UART_1.c ****     *  returned.
 535:.\Generated_Source\PSoC5/UART_1.c ****     *
 536:.\Generated_Source\PSoC5/UART_1.c ****     * Parameters:
 537:.\Generated_Source\PSoC5/UART_1.c ****     *  None.
 538:.\Generated_Source\PSoC5/UART_1.c ****     *
 539:.\Generated_Source\PSoC5/UART_1.c ****     * Return:
 540:.\Generated_Source\PSoC5/UART_1.c ****     *  Character read from UART RX buffer. ASCII characters from 1 to 255 are valid.
ARM GAS  C:\Users\acer\AppData\Local\Temp\ccQxlELY.s 			page 15


 541:.\Generated_Source\PSoC5/UART_1.c ****     *  A returned zero signifies an error condition or no data available.
 542:.\Generated_Source\PSoC5/UART_1.c ****     *
 543:.\Generated_Source\PSoC5/UART_1.c ****     * Global Variables:
 544:.\Generated_Source\PSoC5/UART_1.c ****     *  UART_1_rxBuffer - RAM buffer pointer for save received data.
 545:.\Generated_Source\PSoC5/UART_1.c ****     *  UART_1_rxBufferWrite - cyclic index for write to rxBuffer,
 546:.\Generated_Source\PSoC5/UART_1.c ****     *     checked to identify new data.
 547:.\Generated_Source\PSoC5/UART_1.c ****     *  UART_1_rxBufferRead - cyclic index for read from rxBuffer,
 548:.\Generated_Source\PSoC5/UART_1.c ****     *     incremented after each byte has been read from buffer.
 549:.\Generated_Source\PSoC5/UART_1.c ****     *  UART_1_rxBufferLoopDetect - creared if loop condition was detected
 550:.\Generated_Source\PSoC5/UART_1.c ****     *     in RX ISR.
 551:.\Generated_Source\PSoC5/UART_1.c ****     *
 552:.\Generated_Source\PSoC5/UART_1.c ****     * Reentrant:
 553:.\Generated_Source\PSoC5/UART_1.c ****     *  No.
 554:.\Generated_Source\PSoC5/UART_1.c ****     *
 555:.\Generated_Source\PSoC5/UART_1.c ****     *******************************************************************************/
 556:.\Generated_Source\PSoC5/UART_1.c ****     uint8 UART_1_GetChar(void) 
 557:.\Generated_Source\PSoC5/UART_1.c ****     {
 558:.\Generated_Source\PSoC5/UART_1.c ****         uint8 rxData = 0u;
 559:.\Generated_Source\PSoC5/UART_1.c ****         uint8 rxStatus;
 560:.\Generated_Source\PSoC5/UART_1.c **** 
 561:.\Generated_Source\PSoC5/UART_1.c ****         #if(UART_1_RXBUFFERSIZE > UART_1_FIFO_LENGTH)
 562:.\Generated_Source\PSoC5/UART_1.c ****             uint8 loc_rxBufferRead;
 563:.\Generated_Source\PSoC5/UART_1.c ****             uint8 loc_rxBufferWrite;
 564:.\Generated_Source\PSoC5/UART_1.c ****             /* Protect variables that could change on interrupt. */
 565:.\Generated_Source\PSoC5/UART_1.c ****             /* Disable Rx interrupt. */
 566:.\Generated_Source\PSoC5/UART_1.c ****             #if(UART_1_RX_INTERRUPT_ENABLED)
 567:.\Generated_Source\PSoC5/UART_1.c ****                 UART_1_DisableRxInt();
 568:.\Generated_Source\PSoC5/UART_1.c ****             #endif /* UART_1_RX_INTERRUPT_ENABLED */
 569:.\Generated_Source\PSoC5/UART_1.c ****             loc_rxBufferRead = UART_1_rxBufferRead;
 570:.\Generated_Source\PSoC5/UART_1.c ****             loc_rxBufferWrite = UART_1_rxBufferWrite;
 571:.\Generated_Source\PSoC5/UART_1.c **** 
 572:.\Generated_Source\PSoC5/UART_1.c ****             if( (UART_1_rxBufferLoopDetect != 0u) || (loc_rxBufferRead != loc_rxBufferWrite) )
 573:.\Generated_Source\PSoC5/UART_1.c ****             {
 574:.\Generated_Source\PSoC5/UART_1.c ****                 rxData = UART_1_rxBuffer[loc_rxBufferRead];
 575:.\Generated_Source\PSoC5/UART_1.c ****                 loc_rxBufferRead++;
 576:.\Generated_Source\PSoC5/UART_1.c ****                 if(loc_rxBufferRead >= UART_1_RXBUFFERSIZE)
 577:.\Generated_Source\PSoC5/UART_1.c ****                 {
 578:.\Generated_Source\PSoC5/UART_1.c ****                     loc_rxBufferRead = 0u;
 579:.\Generated_Source\PSoC5/UART_1.c ****                 }
 580:.\Generated_Source\PSoC5/UART_1.c ****                 /* Update the real pointer */
 581:.\Generated_Source\PSoC5/UART_1.c ****                 UART_1_rxBufferRead = loc_rxBufferRead;
 582:.\Generated_Source\PSoC5/UART_1.c **** 
 583:.\Generated_Source\PSoC5/UART_1.c ****                 if(UART_1_rxBufferLoopDetect > 0u )
 584:.\Generated_Source\PSoC5/UART_1.c ****                 {
 585:.\Generated_Source\PSoC5/UART_1.c ****                     UART_1_rxBufferLoopDetect = 0u;
 586:.\Generated_Source\PSoC5/UART_1.c ****                     #if( (UART_1_RX_INTERRUPT_ENABLED) && (UART_1_FLOW_CONTROL != 0u) )
 587:.\Generated_Source\PSoC5/UART_1.c ****                         /* When Hardware Flow Control selected - return RX mask */
 588:.\Generated_Source\PSoC5/UART_1.c ****                         #if( UART_1_HD_ENABLED )
 589:.\Generated_Source\PSoC5/UART_1.c ****                             if((UART_1_CONTROL_REG & UART_1_CTRL_HD_SEND) == 0u)
 590:.\Generated_Source\PSoC5/UART_1.c ****                             {   /* In Half duplex mode return RX mask only if
 591:.\Generated_Source\PSoC5/UART_1.c ****                                 *  RX configuration set, otherwise
 592:.\Generated_Source\PSoC5/UART_1.c ****                                 *  mask will be returned in LoadRxConfig() API.
 593:.\Generated_Source\PSoC5/UART_1.c ****                                 */
 594:.\Generated_Source\PSoC5/UART_1.c ****                                 UART_1_RXSTATUS_MASK_REG  |= UART_1_RX_STS_FIFO_NOTEMPTY;
 595:.\Generated_Source\PSoC5/UART_1.c ****                             }
 596:.\Generated_Source\PSoC5/UART_1.c ****                         #else
 597:.\Generated_Source\PSoC5/UART_1.c ****                             UART_1_RXSTATUS_MASK_REG  |= UART_1_RX_STS_FIFO_NOTEMPTY;
ARM GAS  C:\Users\acer\AppData\Local\Temp\ccQxlELY.s 			page 16


 598:.\Generated_Source\PSoC5/UART_1.c ****                         #endif /* end UART_1_HD_ENABLED */
 599:.\Generated_Source\PSoC5/UART_1.c ****                     #endif /* UART_1_RX_INTERRUPT_ENABLED and Hardware flow control*/
 600:.\Generated_Source\PSoC5/UART_1.c ****                 }
 601:.\Generated_Source\PSoC5/UART_1.c **** 
 602:.\Generated_Source\PSoC5/UART_1.c ****             }
 603:.\Generated_Source\PSoC5/UART_1.c ****             else
 604:.\Generated_Source\PSoC5/UART_1.c ****             {   rxStatus = UART_1_RXSTATUS_REG;
 605:.\Generated_Source\PSoC5/UART_1.c ****                 if((rxStatus & UART_1_RX_STS_FIFO_NOTEMPTY) != 0u)
 606:.\Generated_Source\PSoC5/UART_1.c ****                 {   /* Read received data from FIFO*/
 607:.\Generated_Source\PSoC5/UART_1.c ****                     rxData = UART_1_RXDATA_REG;
 608:.\Generated_Source\PSoC5/UART_1.c ****                     /*Check status on error*/
 609:.\Generated_Source\PSoC5/UART_1.c ****                     if((rxStatus & (UART_1_RX_STS_BREAK | UART_1_RX_STS_PAR_ERROR |
 610:.\Generated_Source\PSoC5/UART_1.c ****                                    UART_1_RX_STS_STOP_ERROR | UART_1_RX_STS_OVERRUN)) != 0u)
 611:.\Generated_Source\PSoC5/UART_1.c ****                     {
 612:.\Generated_Source\PSoC5/UART_1.c ****                         rxData = 0u;
 613:.\Generated_Source\PSoC5/UART_1.c ****                     }
 614:.\Generated_Source\PSoC5/UART_1.c ****                 }
 615:.\Generated_Source\PSoC5/UART_1.c ****             }
 616:.\Generated_Source\PSoC5/UART_1.c **** 
 617:.\Generated_Source\PSoC5/UART_1.c ****             /* Enable Rx interrupt. */
 618:.\Generated_Source\PSoC5/UART_1.c ****             #if(UART_1_RX_INTERRUPT_ENABLED)
 619:.\Generated_Source\PSoC5/UART_1.c ****                 UART_1_EnableRxInt();
 620:.\Generated_Source\PSoC5/UART_1.c ****             #endif /* UART_1_RX_INTERRUPT_ENABLED */
 621:.\Generated_Source\PSoC5/UART_1.c **** 
 622:.\Generated_Source\PSoC5/UART_1.c ****         #else /* UART_1_RXBUFFERSIZE > UART_1_FIFO_LENGTH */
 623:.\Generated_Source\PSoC5/UART_1.c **** 
 624:.\Generated_Source\PSoC5/UART_1.c ****             rxStatus =UART_1_RXSTATUS_REG;
 625:.\Generated_Source\PSoC5/UART_1.c ****             if((rxStatus & UART_1_RX_STS_FIFO_NOTEMPTY) != 0u)
 626:.\Generated_Source\PSoC5/UART_1.c ****             {   /* Read received data from FIFO*/
 627:.\Generated_Source\PSoC5/UART_1.c ****                 rxData = UART_1_RXDATA_REG;
 628:.\Generated_Source\PSoC5/UART_1.c ****                 /*Check status on error*/
 629:.\Generated_Source\PSoC5/UART_1.c ****                 if((rxStatus & (UART_1_RX_STS_BREAK | UART_1_RX_STS_PAR_ERROR |
 630:.\Generated_Source\PSoC5/UART_1.c ****                                UART_1_RX_STS_STOP_ERROR | UART_1_RX_STS_OVERRUN)) != 0u)
 631:.\Generated_Source\PSoC5/UART_1.c ****                 {
 632:.\Generated_Source\PSoC5/UART_1.c ****                     rxData = 0u;
 633:.\Generated_Source\PSoC5/UART_1.c ****                 }
 634:.\Generated_Source\PSoC5/UART_1.c ****             }
 635:.\Generated_Source\PSoC5/UART_1.c ****         #endif /* UART_1_RXBUFFERSIZE > UART_1_FIFO_LENGTH */
 636:.\Generated_Source\PSoC5/UART_1.c **** 
 637:.\Generated_Source\PSoC5/UART_1.c ****         return(rxData);
 638:.\Generated_Source\PSoC5/UART_1.c ****     }
 639:.\Generated_Source\PSoC5/UART_1.c **** 
 640:.\Generated_Source\PSoC5/UART_1.c **** 
 641:.\Generated_Source\PSoC5/UART_1.c ****     /*******************************************************************************
 642:.\Generated_Source\PSoC5/UART_1.c ****     * Function Name: UART_1_GetByte
 643:.\Generated_Source\PSoC5/UART_1.c ****     ********************************************************************************
 644:.\Generated_Source\PSoC5/UART_1.c ****     *
 645:.\Generated_Source\PSoC5/UART_1.c ****     * Summary:
 646:.\Generated_Source\PSoC5/UART_1.c ****     *  Grab the next available byte of data from the recieve FIFO
 647:.\Generated_Source\PSoC5/UART_1.c ****     *
 648:.\Generated_Source\PSoC5/UART_1.c ****     * Parameters:
 649:.\Generated_Source\PSoC5/UART_1.c ****     *  None.
 650:.\Generated_Source\PSoC5/UART_1.c ****     *
 651:.\Generated_Source\PSoC5/UART_1.c ****     * Return:
 652:.\Generated_Source\PSoC5/UART_1.c ****     *  MSB contains Status Register and LSB contains UART RX data
 653:.\Generated_Source\PSoC5/UART_1.c ****     *
 654:.\Generated_Source\PSoC5/UART_1.c ****     * Reentrant:
ARM GAS  C:\Users\acer\AppData\Local\Temp\ccQxlELY.s 			page 17


 655:.\Generated_Source\PSoC5/UART_1.c ****     *  No.
 656:.\Generated_Source\PSoC5/UART_1.c ****     *
 657:.\Generated_Source\PSoC5/UART_1.c ****     *******************************************************************************/
 658:.\Generated_Source\PSoC5/UART_1.c ****     uint16 UART_1_GetByte(void) 
 659:.\Generated_Source\PSoC5/UART_1.c ****     {
 660:.\Generated_Source\PSoC5/UART_1.c ****         return ( ((uint16)UART_1_ReadRxStatus() << 8u) | UART_1_ReadRxData() );
 661:.\Generated_Source\PSoC5/UART_1.c ****     }
 662:.\Generated_Source\PSoC5/UART_1.c **** 
 663:.\Generated_Source\PSoC5/UART_1.c **** 
 664:.\Generated_Source\PSoC5/UART_1.c ****     /*******************************************************************************
 665:.\Generated_Source\PSoC5/UART_1.c ****     * Function Name: UART_1_GetRxBufferSize
 666:.\Generated_Source\PSoC5/UART_1.c ****     ********************************************************************************
 667:.\Generated_Source\PSoC5/UART_1.c ****     *
 668:.\Generated_Source\PSoC5/UART_1.c ****     * Summary:
 669:.\Generated_Source\PSoC5/UART_1.c ****     *  Determine the amount of bytes left in the RX buffer and return the count in
 670:.\Generated_Source\PSoC5/UART_1.c ****     *  bytes
 671:.\Generated_Source\PSoC5/UART_1.c ****     *
 672:.\Generated_Source\PSoC5/UART_1.c ****     * Parameters:
 673:.\Generated_Source\PSoC5/UART_1.c ****     *  None.
 674:.\Generated_Source\PSoC5/UART_1.c ****     *
 675:.\Generated_Source\PSoC5/UART_1.c ****     * Return:
 676:.\Generated_Source\PSoC5/UART_1.c ****     *  uint8: Integer count of the number of bytes left
 677:.\Generated_Source\PSoC5/UART_1.c ****     *  in the RX buffer
 678:.\Generated_Source\PSoC5/UART_1.c ****     *
 679:.\Generated_Source\PSoC5/UART_1.c ****     * Global Variables:
 680:.\Generated_Source\PSoC5/UART_1.c ****     *  UART_1_rxBufferWrite - used to calculate left bytes.
 681:.\Generated_Source\PSoC5/UART_1.c ****     *  UART_1_rxBufferRead - used to calculate left bytes.
 682:.\Generated_Source\PSoC5/UART_1.c ****     *  UART_1_rxBufferLoopDetect - checked to decide left bytes amount.
 683:.\Generated_Source\PSoC5/UART_1.c ****     *
 684:.\Generated_Source\PSoC5/UART_1.c ****     * Reentrant:
 685:.\Generated_Source\PSoC5/UART_1.c ****     *  No.
 686:.\Generated_Source\PSoC5/UART_1.c ****     *
 687:.\Generated_Source\PSoC5/UART_1.c ****     * Theory:
 688:.\Generated_Source\PSoC5/UART_1.c ****     *  Allows the user to find out how full the RX Buffer is.
 689:.\Generated_Source\PSoC5/UART_1.c ****     *
 690:.\Generated_Source\PSoC5/UART_1.c ****     *******************************************************************************/
 691:.\Generated_Source\PSoC5/UART_1.c ****     uint8 UART_1_GetRxBufferSize(void)
 692:.\Generated_Source\PSoC5/UART_1.c ****                                                             
 693:.\Generated_Source\PSoC5/UART_1.c ****     {
 694:.\Generated_Source\PSoC5/UART_1.c ****         uint8 size;
 695:.\Generated_Source\PSoC5/UART_1.c **** 
 696:.\Generated_Source\PSoC5/UART_1.c ****         #if(UART_1_RXBUFFERSIZE > UART_1_FIFO_LENGTH)
 697:.\Generated_Source\PSoC5/UART_1.c **** 
 698:.\Generated_Source\PSoC5/UART_1.c ****             /* Disable Rx interrupt. */
 699:.\Generated_Source\PSoC5/UART_1.c ****             /* Protect variables that could change on interrupt. */
 700:.\Generated_Source\PSoC5/UART_1.c ****             #if(UART_1_RX_INTERRUPT_ENABLED)
 701:.\Generated_Source\PSoC5/UART_1.c ****                 UART_1_DisableRxInt();
 702:.\Generated_Source\PSoC5/UART_1.c ****             #endif /* UART_1_RX_INTERRUPT_ENABLED */
 703:.\Generated_Source\PSoC5/UART_1.c **** 
 704:.\Generated_Source\PSoC5/UART_1.c ****             if(UART_1_rxBufferRead == UART_1_rxBufferWrite)
 705:.\Generated_Source\PSoC5/UART_1.c ****             {
 706:.\Generated_Source\PSoC5/UART_1.c ****                 if(UART_1_rxBufferLoopDetect > 0u)
 707:.\Generated_Source\PSoC5/UART_1.c ****                 {
 708:.\Generated_Source\PSoC5/UART_1.c ****                     size = UART_1_RXBUFFERSIZE;
 709:.\Generated_Source\PSoC5/UART_1.c ****                 }
 710:.\Generated_Source\PSoC5/UART_1.c ****                 else
 711:.\Generated_Source\PSoC5/UART_1.c ****                 {
ARM GAS  C:\Users\acer\AppData\Local\Temp\ccQxlELY.s 			page 18


 712:.\Generated_Source\PSoC5/UART_1.c ****                     size = 0u;
 713:.\Generated_Source\PSoC5/UART_1.c ****                 }
 714:.\Generated_Source\PSoC5/UART_1.c ****             }
 715:.\Generated_Source\PSoC5/UART_1.c ****             else if(UART_1_rxBufferRead < UART_1_rxBufferWrite)
 716:.\Generated_Source\PSoC5/UART_1.c ****             {
 717:.\Generated_Source\PSoC5/UART_1.c ****                 size = (UART_1_rxBufferWrite - UART_1_rxBufferRead);
 718:.\Generated_Source\PSoC5/UART_1.c ****             }
 719:.\Generated_Source\PSoC5/UART_1.c ****             else
 720:.\Generated_Source\PSoC5/UART_1.c ****             {
 721:.\Generated_Source\PSoC5/UART_1.c ****                 size = (UART_1_RXBUFFERSIZE - UART_1_rxBufferRead) + UART_1_rxBufferWrite;
 722:.\Generated_Source\PSoC5/UART_1.c ****             }
 723:.\Generated_Source\PSoC5/UART_1.c **** 
 724:.\Generated_Source\PSoC5/UART_1.c ****             /* Enable Rx interrupt. */
 725:.\Generated_Source\PSoC5/UART_1.c ****             #if(UART_1_RX_INTERRUPT_ENABLED)
 726:.\Generated_Source\PSoC5/UART_1.c ****                 UART_1_EnableRxInt();
 727:.\Generated_Source\PSoC5/UART_1.c ****             #endif /* End UART_1_RX_INTERRUPT_ENABLED */
 728:.\Generated_Source\PSoC5/UART_1.c **** 
 729:.\Generated_Source\PSoC5/UART_1.c ****         #else /* UART_1_RXBUFFERSIZE > UART_1_FIFO_LENGTH */
 730:.\Generated_Source\PSoC5/UART_1.c **** 
 731:.\Generated_Source\PSoC5/UART_1.c ****             /* We can only know if there is data in the fifo. */
 732:.\Generated_Source\PSoC5/UART_1.c ****             size = ((UART_1_RXSTATUS_REG & UART_1_RX_STS_FIFO_NOTEMPTY) != 0u) ? 1u : 0u;
 733:.\Generated_Source\PSoC5/UART_1.c **** 
 734:.\Generated_Source\PSoC5/UART_1.c ****         #endif /* End UART_1_RXBUFFERSIZE > UART_1_FIFO_LENGTH */
 735:.\Generated_Source\PSoC5/UART_1.c **** 
 736:.\Generated_Source\PSoC5/UART_1.c ****         return(size);
 737:.\Generated_Source\PSoC5/UART_1.c ****     }
 738:.\Generated_Source\PSoC5/UART_1.c **** 
 739:.\Generated_Source\PSoC5/UART_1.c **** 
 740:.\Generated_Source\PSoC5/UART_1.c ****     /*******************************************************************************
 741:.\Generated_Source\PSoC5/UART_1.c ****     * Function Name: UART_1_ClearRxBuffer
 742:.\Generated_Source\PSoC5/UART_1.c ****     ********************************************************************************
 743:.\Generated_Source\PSoC5/UART_1.c ****     *
 744:.\Generated_Source\PSoC5/UART_1.c ****     * Summary:
 745:.\Generated_Source\PSoC5/UART_1.c ****     *  Clears the RX RAM buffer by setting the read and write pointers both to zero.
 746:.\Generated_Source\PSoC5/UART_1.c ****     *  Clears hardware RX FIFO.
 747:.\Generated_Source\PSoC5/UART_1.c ****     *
 748:.\Generated_Source\PSoC5/UART_1.c ****     * Parameters:
 749:.\Generated_Source\PSoC5/UART_1.c ****     *  None.
 750:.\Generated_Source\PSoC5/UART_1.c ****     *
 751:.\Generated_Source\PSoC5/UART_1.c ****     * Return:
 752:.\Generated_Source\PSoC5/UART_1.c ****     *  None.
 753:.\Generated_Source\PSoC5/UART_1.c ****     *
 754:.\Generated_Source\PSoC5/UART_1.c ****     * Global Variables:
 755:.\Generated_Source\PSoC5/UART_1.c ****     *  UART_1_rxBufferWrite - cleared to zero.
 756:.\Generated_Source\PSoC5/UART_1.c ****     *  UART_1_rxBufferRead - cleared to zero.
 757:.\Generated_Source\PSoC5/UART_1.c ****     *  UART_1_rxBufferLoopDetect - cleared to zero.
 758:.\Generated_Source\PSoC5/UART_1.c ****     *  UART_1_rxBufferOverflow - cleared to zero.
 759:.\Generated_Source\PSoC5/UART_1.c ****     *
 760:.\Generated_Source\PSoC5/UART_1.c ****     * Reentrant:
 761:.\Generated_Source\PSoC5/UART_1.c ****     *  No.
 762:.\Generated_Source\PSoC5/UART_1.c ****     *
 763:.\Generated_Source\PSoC5/UART_1.c ****     * Theory:
 764:.\Generated_Source\PSoC5/UART_1.c ****     *  Setting the pointers to zero makes the system believe there is no data to
 765:.\Generated_Source\PSoC5/UART_1.c ****     *  read and writing will resume at address 0 overwriting any data that may
 766:.\Generated_Source\PSoC5/UART_1.c ****     *  have remained in the RAM.
 767:.\Generated_Source\PSoC5/UART_1.c ****     *
 768:.\Generated_Source\PSoC5/UART_1.c ****     * Side Effects:
ARM GAS  C:\Users\acer\AppData\Local\Temp\ccQxlELY.s 			page 19


 769:.\Generated_Source\PSoC5/UART_1.c ****     *  Any received data not read from the RAM or FIFO buffer will be lost.
 770:.\Generated_Source\PSoC5/UART_1.c ****     *******************************************************************************/
 771:.\Generated_Source\PSoC5/UART_1.c ****     void UART_1_ClearRxBuffer(void) 
 772:.\Generated_Source\PSoC5/UART_1.c ****     {
 773:.\Generated_Source\PSoC5/UART_1.c ****         uint8 enableInterrupts;
 774:.\Generated_Source\PSoC5/UART_1.c **** 
 775:.\Generated_Source\PSoC5/UART_1.c ****         /* clear the HW FIFO */
 776:.\Generated_Source\PSoC5/UART_1.c ****         /* Enter critical section */
 777:.\Generated_Source\PSoC5/UART_1.c ****         enableInterrupts = CyEnterCriticalSection();
 778:.\Generated_Source\PSoC5/UART_1.c ****         UART_1_RXDATA_AUX_CTL_REG |=  UART_1_RX_FIFO_CLR;
 779:.\Generated_Source\PSoC5/UART_1.c ****         UART_1_RXDATA_AUX_CTL_REG &= (uint8)~UART_1_RX_FIFO_CLR;
 780:.\Generated_Source\PSoC5/UART_1.c ****         /* Exit critical section */
 781:.\Generated_Source\PSoC5/UART_1.c ****         CyExitCriticalSection(enableInterrupts);
 782:.\Generated_Source\PSoC5/UART_1.c **** 
 783:.\Generated_Source\PSoC5/UART_1.c ****         #if(UART_1_RXBUFFERSIZE > UART_1_FIFO_LENGTH)
 784:.\Generated_Source\PSoC5/UART_1.c ****             /* Disable Rx interrupt. */
 785:.\Generated_Source\PSoC5/UART_1.c ****             /* Protect variables that could change on interrupt. */
 786:.\Generated_Source\PSoC5/UART_1.c ****             #if(UART_1_RX_INTERRUPT_ENABLED)
 787:.\Generated_Source\PSoC5/UART_1.c ****                 UART_1_DisableRxInt();
 788:.\Generated_Source\PSoC5/UART_1.c ****             #endif /* End UART_1_RX_INTERRUPT_ENABLED */
 789:.\Generated_Source\PSoC5/UART_1.c **** 
 790:.\Generated_Source\PSoC5/UART_1.c ****             UART_1_rxBufferRead = 0u;
 791:.\Generated_Source\PSoC5/UART_1.c ****             UART_1_rxBufferWrite = 0u;
 792:.\Generated_Source\PSoC5/UART_1.c ****             UART_1_rxBufferLoopDetect = 0u;
 793:.\Generated_Source\PSoC5/UART_1.c ****             UART_1_rxBufferOverflow = 0u;
 794:.\Generated_Source\PSoC5/UART_1.c **** 
 795:.\Generated_Source\PSoC5/UART_1.c ****             /* Enable Rx interrupt. */
 796:.\Generated_Source\PSoC5/UART_1.c ****             #if(UART_1_RX_INTERRUPT_ENABLED)
 797:.\Generated_Source\PSoC5/UART_1.c ****                 UART_1_EnableRxInt();
 798:.\Generated_Source\PSoC5/UART_1.c ****             #endif /* End UART_1_RX_INTERRUPT_ENABLED */
 799:.\Generated_Source\PSoC5/UART_1.c ****         #endif /* End UART_1_RXBUFFERSIZE > UART_1_FIFO_LENGTH */
 800:.\Generated_Source\PSoC5/UART_1.c **** 
 801:.\Generated_Source\PSoC5/UART_1.c ****     }
 802:.\Generated_Source\PSoC5/UART_1.c **** 
 803:.\Generated_Source\PSoC5/UART_1.c **** 
 804:.\Generated_Source\PSoC5/UART_1.c ****     /*******************************************************************************
 805:.\Generated_Source\PSoC5/UART_1.c ****     * Function Name: UART_1_SetRxAddressMode
 806:.\Generated_Source\PSoC5/UART_1.c ****     ********************************************************************************
 807:.\Generated_Source\PSoC5/UART_1.c ****     *
 808:.\Generated_Source\PSoC5/UART_1.c ****     * Summary:
 809:.\Generated_Source\PSoC5/UART_1.c ****     *  Set the receive addressing mode
 810:.\Generated_Source\PSoC5/UART_1.c ****     *
 811:.\Generated_Source\PSoC5/UART_1.c ****     * Parameters:
 812:.\Generated_Source\PSoC5/UART_1.c ****     *  addressMode: Enumerated value indicating the mode of RX addressing
 813:.\Generated_Source\PSoC5/UART_1.c ****     *  UART_1__B_UART__AM_SW_BYTE_BYTE -  Software Byte-by-Byte address
 814:.\Generated_Source\PSoC5/UART_1.c ****     *                                               detection
 815:.\Generated_Source\PSoC5/UART_1.c ****     *  UART_1__B_UART__AM_SW_DETECT_TO_BUFFER - Software Detect to Buffer
 816:.\Generated_Source\PSoC5/UART_1.c ****     *                                               address detection
 817:.\Generated_Source\PSoC5/UART_1.c ****     *  UART_1__B_UART__AM_HW_BYTE_BY_BYTE - Hardware Byte-by-Byte address
 818:.\Generated_Source\PSoC5/UART_1.c ****     *                                               detection
 819:.\Generated_Source\PSoC5/UART_1.c ****     *  UART_1__B_UART__AM_HW_DETECT_TO_BUFFER - Hardware Detect to Buffer
 820:.\Generated_Source\PSoC5/UART_1.c ****     *                                               address detection
 821:.\Generated_Source\PSoC5/UART_1.c ****     *  UART_1__B_UART__AM_NONE - No address detection
 822:.\Generated_Source\PSoC5/UART_1.c ****     *
 823:.\Generated_Source\PSoC5/UART_1.c ****     * Return:
 824:.\Generated_Source\PSoC5/UART_1.c ****     *  None.
 825:.\Generated_Source\PSoC5/UART_1.c ****     *
ARM GAS  C:\Users\acer\AppData\Local\Temp\ccQxlELY.s 			page 20


 826:.\Generated_Source\PSoC5/UART_1.c ****     * Global Variables:
 827:.\Generated_Source\PSoC5/UART_1.c ****     *  UART_1_rxAddressMode - the parameter stored in this variable for
 828:.\Generated_Source\PSoC5/UART_1.c ****     *   the farther usage in RX ISR.
 829:.\Generated_Source\PSoC5/UART_1.c ****     *  UART_1_rxAddressDetected - set to initial state (0).
 830:.\Generated_Source\PSoC5/UART_1.c ****     *
 831:.\Generated_Source\PSoC5/UART_1.c ****     *******************************************************************************/
 832:.\Generated_Source\PSoC5/UART_1.c ****     void UART_1_SetRxAddressMode(uint8 addressMode)
 833:.\Generated_Source\PSoC5/UART_1.c ****                                                         
 834:.\Generated_Source\PSoC5/UART_1.c ****     {
 835:.\Generated_Source\PSoC5/UART_1.c ****         #if(UART_1_RXHW_ADDRESS_ENABLED)
 836:.\Generated_Source\PSoC5/UART_1.c ****             #if(UART_1_CONTROL_REG_REMOVED)
 837:.\Generated_Source\PSoC5/UART_1.c ****                 if(addressMode != 0u) { }     /* release compiler warning */
 838:.\Generated_Source\PSoC5/UART_1.c ****             #else /* UART_1_CONTROL_REG_REMOVED */
 839:.\Generated_Source\PSoC5/UART_1.c ****                 uint8 tmpCtrl;
 840:.\Generated_Source\PSoC5/UART_1.c ****                 tmpCtrl = UART_1_CONTROL_REG & (uint8)~UART_1_CTRL_RXADDR_MODE_MASK;
 841:.\Generated_Source\PSoC5/UART_1.c ****                 tmpCtrl |= (uint8)(addressMode << UART_1_CTRL_RXADDR_MODE0_SHIFT);
 842:.\Generated_Source\PSoC5/UART_1.c ****                 UART_1_CONTROL_REG = tmpCtrl;
 843:.\Generated_Source\PSoC5/UART_1.c ****                 #if(UART_1_RX_INTERRUPT_ENABLED && \
 844:.\Generated_Source\PSoC5/UART_1.c ****                    (UART_1_RXBUFFERSIZE > UART_1_FIFO_LENGTH) )
 845:.\Generated_Source\PSoC5/UART_1.c ****                     UART_1_rxAddressMode = addressMode;
 846:.\Generated_Source\PSoC5/UART_1.c ****                     UART_1_rxAddressDetected = 0u;
 847:.\Generated_Source\PSoC5/UART_1.c ****                 #endif /* End UART_1_RXBUFFERSIZE > UART_1_FIFO_LENGTH*/
 848:.\Generated_Source\PSoC5/UART_1.c ****             #endif /* End UART_1_CONTROL_REG_REMOVED */
 849:.\Generated_Source\PSoC5/UART_1.c ****         #else /* UART_1_RXHW_ADDRESS_ENABLED */
 850:.\Generated_Source\PSoC5/UART_1.c ****             if(addressMode != 0u) { }     /* release compiler warning */
 851:.\Generated_Source\PSoC5/UART_1.c ****         #endif /* End UART_1_RXHW_ADDRESS_ENABLED */
 852:.\Generated_Source\PSoC5/UART_1.c ****     }
 853:.\Generated_Source\PSoC5/UART_1.c **** 
 854:.\Generated_Source\PSoC5/UART_1.c **** 
 855:.\Generated_Source\PSoC5/UART_1.c ****     /*******************************************************************************
 856:.\Generated_Source\PSoC5/UART_1.c ****     * Function Name: UART_1_SetRxAddress1
 857:.\Generated_Source\PSoC5/UART_1.c ****     ********************************************************************************
 858:.\Generated_Source\PSoC5/UART_1.c ****     *
 859:.\Generated_Source\PSoC5/UART_1.c ****     * Summary:
 860:.\Generated_Source\PSoC5/UART_1.c ****     *  Set the first hardware address compare value
 861:.\Generated_Source\PSoC5/UART_1.c ****     *
 862:.\Generated_Source\PSoC5/UART_1.c ****     * Parameters:
 863:.\Generated_Source\PSoC5/UART_1.c ****     *  address
 864:.\Generated_Source\PSoC5/UART_1.c ****     *
 865:.\Generated_Source\PSoC5/UART_1.c ****     * Return:
 866:.\Generated_Source\PSoC5/UART_1.c ****     *  None.
 867:.\Generated_Source\PSoC5/UART_1.c ****     *
 868:.\Generated_Source\PSoC5/UART_1.c ****     *******************************************************************************/
 869:.\Generated_Source\PSoC5/UART_1.c ****     void UART_1_SetRxAddress1(uint8 address) 
 870:.\Generated_Source\PSoC5/UART_1.c **** 
 871:.\Generated_Source\PSoC5/UART_1.c ****     {
 872:.\Generated_Source\PSoC5/UART_1.c ****         UART_1_RXADDRESS1_REG = address;
 873:.\Generated_Source\PSoC5/UART_1.c ****     }
 874:.\Generated_Source\PSoC5/UART_1.c **** 
 875:.\Generated_Source\PSoC5/UART_1.c **** 
 876:.\Generated_Source\PSoC5/UART_1.c ****     /*******************************************************************************
 877:.\Generated_Source\PSoC5/UART_1.c ****     * Function Name: UART_1_SetRxAddress2
 878:.\Generated_Source\PSoC5/UART_1.c ****     ********************************************************************************
 879:.\Generated_Source\PSoC5/UART_1.c ****     *
 880:.\Generated_Source\PSoC5/UART_1.c ****     * Summary:
 881:.\Generated_Source\PSoC5/UART_1.c ****     *  Set the second hardware address compare value
 882:.\Generated_Source\PSoC5/UART_1.c ****     *
ARM GAS  C:\Users\acer\AppData\Local\Temp\ccQxlELY.s 			page 21


 883:.\Generated_Source\PSoC5/UART_1.c ****     * Parameters:
 884:.\Generated_Source\PSoC5/UART_1.c ****     *  address
 885:.\Generated_Source\PSoC5/UART_1.c ****     *
 886:.\Generated_Source\PSoC5/UART_1.c ****     * Return:
 887:.\Generated_Source\PSoC5/UART_1.c ****     *  None.
 888:.\Generated_Source\PSoC5/UART_1.c ****     *
 889:.\Generated_Source\PSoC5/UART_1.c ****     *******************************************************************************/
 890:.\Generated_Source\PSoC5/UART_1.c ****     void UART_1_SetRxAddress2(uint8 address) 
 891:.\Generated_Source\PSoC5/UART_1.c ****     {
 892:.\Generated_Source\PSoC5/UART_1.c ****         UART_1_RXADDRESS2_REG = address;
 893:.\Generated_Source\PSoC5/UART_1.c ****     }
 894:.\Generated_Source\PSoC5/UART_1.c **** 
 895:.\Generated_Source\PSoC5/UART_1.c **** #endif  /* UART_1_RX_ENABLED || UART_1_HD_ENABLED*/
 896:.\Generated_Source\PSoC5/UART_1.c **** 
 897:.\Generated_Source\PSoC5/UART_1.c **** 
 898:.\Generated_Source\PSoC5/UART_1.c **** #if( (UART_1_TX_ENABLED) || (UART_1_HD_ENABLED) )
 899:.\Generated_Source\PSoC5/UART_1.c **** 
 900:.\Generated_Source\PSoC5/UART_1.c ****     #if(UART_1_TX_INTERRUPT_ENABLED)
 901:.\Generated_Source\PSoC5/UART_1.c **** 
 902:.\Generated_Source\PSoC5/UART_1.c ****         /*******************************************************************************
 903:.\Generated_Source\PSoC5/UART_1.c ****         * Function Name: UART_1_EnableTxInt
 904:.\Generated_Source\PSoC5/UART_1.c ****         ********************************************************************************
 905:.\Generated_Source\PSoC5/UART_1.c ****         *
 906:.\Generated_Source\PSoC5/UART_1.c ****         * Summary:
 907:.\Generated_Source\PSoC5/UART_1.c ****         *  Enable TX interrupt generation
 908:.\Generated_Source\PSoC5/UART_1.c ****         *
 909:.\Generated_Source\PSoC5/UART_1.c ****         * Parameters:
 910:.\Generated_Source\PSoC5/UART_1.c ****         *  None.
 911:.\Generated_Source\PSoC5/UART_1.c ****         *
 912:.\Generated_Source\PSoC5/UART_1.c ****         * Return:
 913:.\Generated_Source\PSoC5/UART_1.c ****         *  None.
 914:.\Generated_Source\PSoC5/UART_1.c ****         *
 915:.\Generated_Source\PSoC5/UART_1.c ****         * Theory:
 916:.\Generated_Source\PSoC5/UART_1.c ****         *  Enable the interrupt output -or- the interrupt component itself
 917:.\Generated_Source\PSoC5/UART_1.c ****         *
 918:.\Generated_Source\PSoC5/UART_1.c ****         *******************************************************************************/
 919:.\Generated_Source\PSoC5/UART_1.c ****         void UART_1_EnableTxInt(void) 
 920:.\Generated_Source\PSoC5/UART_1.c ****         {
 921:.\Generated_Source\PSoC5/UART_1.c ****             CyIntEnable(UART_1_TX_VECT_NUM);
 922:.\Generated_Source\PSoC5/UART_1.c ****         }
 923:.\Generated_Source\PSoC5/UART_1.c **** 
 924:.\Generated_Source\PSoC5/UART_1.c **** 
 925:.\Generated_Source\PSoC5/UART_1.c ****         /*******************************************************************************
 926:.\Generated_Source\PSoC5/UART_1.c ****         * Function Name: UART_1_DisableTxInt
 927:.\Generated_Source\PSoC5/UART_1.c ****         ********************************************************************************
 928:.\Generated_Source\PSoC5/UART_1.c ****         *
 929:.\Generated_Source\PSoC5/UART_1.c ****         * Summary:
 930:.\Generated_Source\PSoC5/UART_1.c ****         *  Disable TX interrupt generation
 931:.\Generated_Source\PSoC5/UART_1.c ****         *
 932:.\Generated_Source\PSoC5/UART_1.c ****         * Parameters:
 933:.\Generated_Source\PSoC5/UART_1.c ****         *  None.
 934:.\Generated_Source\PSoC5/UART_1.c ****         *
 935:.\Generated_Source\PSoC5/UART_1.c ****         * Return:
 936:.\Generated_Source\PSoC5/UART_1.c ****         *  None.
 937:.\Generated_Source\PSoC5/UART_1.c ****         *
 938:.\Generated_Source\PSoC5/UART_1.c ****         * Theory:
 939:.\Generated_Source\PSoC5/UART_1.c ****         *  Disable the interrupt output -or- the interrupt component itself
ARM GAS  C:\Users\acer\AppData\Local\Temp\ccQxlELY.s 			page 22


 940:.\Generated_Source\PSoC5/UART_1.c ****         *
 941:.\Generated_Source\PSoC5/UART_1.c ****         *******************************************************************************/
 942:.\Generated_Source\PSoC5/UART_1.c ****         void UART_1_DisableTxInt(void) 
 943:.\Generated_Source\PSoC5/UART_1.c ****         {
 944:.\Generated_Source\PSoC5/UART_1.c ****             CyIntDisable(UART_1_TX_VECT_NUM);
 246              		.loc 1 944 0
 247 0032 0423     		movs	r3, #4
 248 0034 1360     		str	r3, [r2]
 249              	.LBE37:
 250              	.LBE36:
 264:.\Generated_Source\PSoC5/UART_1.c **** 
 251              		.loc 1 264 0
 252 0036 BDE81040 		pop	{r4, lr}
 253              		.cfi_restore 14
 254              		.cfi_restore 4
 255              		.cfi_def_cfa_offset 0
 256              	.LVL14:
 263:.\Generated_Source\PSoC5/UART_1.c **** }
 257              		.loc 1 263 0
 258 003a FFF7FEBF 		b	CyExitCriticalSection
 259              	.LVL15:
 260              	.L14:
 261 003e 00BF     		.align	2
 262              	.L13:
 263 0040 95640040 		.word	1073767573
 264 0044 96640040 		.word	1073767574
 265 0048 92640040 		.word	1073767570
 266 004c 80E100E0 		.word	-536813184
 267              		.cfi_endproc
 268              	.LFE3:
 269              		.size	UART_1_Stop, .-UART_1_Stop
 270              		.section	.text.UART_1_ReadControlRegister,"ax",%progbits
 271              		.align	1
 272              		.global	UART_1_ReadControlRegister
 273              		.thumb
 274              		.thumb_func
 275              		.type	UART_1_ReadControlRegister, %function
 276              	UART_1_ReadControlRegister:
 277              	.LFB4:
 282:.\Generated_Source\PSoC5/UART_1.c ****     #if( UART_1_CONTROL_REG_REMOVED )
 278              		.loc 1 282 0
 279              		.cfi_startproc
 280              		@ args = 0, pretend = 0, frame = 0
 281              		@ frame_needed = 0, uses_anonymous_args = 0
 282              		@ link register save eliminated.
 288:.\Generated_Source\PSoC5/UART_1.c **** 
 283              		.loc 1 288 0
 284 0000 0020     		movs	r0, #0
 285 0002 7047     		bx	lr
 286              		.cfi_endproc
 287              	.LFE4:
 288              		.size	UART_1_ReadControlRegister, .-UART_1_ReadControlRegister
 289              		.section	.text.UART_1_WriteControlRegister,"ax",%progbits
 290              		.align	1
 291              		.global	UART_1_WriteControlRegister
 292              		.thumb
 293              		.thumb_func
ARM GAS  C:\Users\acer\AppData\Local\Temp\ccQxlELY.s 			page 23


 294              		.type	UART_1_WriteControlRegister, %function
 295              	UART_1_WriteControlRegister:
 296              	.LFB5:
 306:.\Generated_Source\PSoC5/UART_1.c ****     #if( UART_1_CONTROL_REG_REMOVED )
 297              		.loc 1 306 0
 298              		.cfi_startproc
 299              		@ args = 0, pretend = 0, frame = 0
 300              		@ frame_needed = 0, uses_anonymous_args = 0
 301              		@ link register save eliminated.
 302              	.LVL16:
 303 0000 7047     		bx	lr
 304              		.cfi_endproc
 305              	.LFE5:
 306              		.size	UART_1_WriteControlRegister, .-UART_1_WriteControlRegister
 307              		.section	.text.UART_1_EnableRxInt,"ax",%progbits
 308              		.align	1
 309              		.global	UART_1_EnableRxInt
 310              		.thumb
 311              		.thumb_func
 312              		.type	UART_1_EnableRxInt, %function
 313              	UART_1_EnableRxInt:
 314              	.LFB6:
 337:.\Generated_Source\PSoC5/UART_1.c ****             CyIntEnable(UART_1_RX_VECT_NUM);
 315              		.loc 1 337 0
 316              		.cfi_startproc
 317              		@ args = 0, pretend = 0, frame = 0
 318              		@ frame_needed = 0, uses_anonymous_args = 0
 319              		@ link register save eliminated.
 338:.\Generated_Source\PSoC5/UART_1.c ****         }
 320              		.loc 1 338 0
 321 0000 014B     		ldr	r3, .L18
 322 0002 0222     		movs	r2, #2
 323 0004 1A60     		str	r2, [r3]
 324 0006 7047     		bx	lr
 325              	.L19:
 326              		.align	2
 327              	.L18:
 328 0008 00E100E0 		.word	-536813312
 329              		.cfi_endproc
 330              	.LFE6:
 331              		.size	UART_1_EnableRxInt, .-UART_1_EnableRxInt
 332              		.section	.text.UART_1_DisableRxInt,"ax",%progbits
 333              		.align	1
 334              		.global	UART_1_DisableRxInt
 335              		.thumb
 336              		.thumb_func
 337              		.type	UART_1_DisableRxInt, %function
 338              	UART_1_DisableRxInt:
 339              	.LFB7:
 360:.\Generated_Source\PSoC5/UART_1.c ****             CyIntDisable(UART_1_RX_VECT_NUM);
 340              		.loc 1 360 0
 341              		.cfi_startproc
 342              		@ args = 0, pretend = 0, frame = 0
 343              		@ frame_needed = 0, uses_anonymous_args = 0
 344              		@ link register save eliminated.
 361:.\Generated_Source\PSoC5/UART_1.c ****         }
 345              		.loc 1 361 0
ARM GAS  C:\Users\acer\AppData\Local\Temp\ccQxlELY.s 			page 24


 346 0000 014B     		ldr	r3, .L21
 347 0002 0222     		movs	r2, #2
 348 0004 1A60     		str	r2, [r3]
 349 0006 7047     		bx	lr
 350              	.L22:
 351              		.align	2
 352              	.L21:
 353 0008 80E100E0 		.word	-536813184
 354              		.cfi_endproc
 355              	.LFE7:
 356              		.size	UART_1_DisableRxInt, .-UART_1_DisableRxInt
 357              		.section	.text.UART_1_SetRxInterruptMode,"ax",%progbits
 358              		.align	1
 359              		.global	UART_1_SetRxInterruptMode
 360              		.thumb
 361              		.thumb_func
 362              		.type	UART_1_SetRxInterruptMode, %function
 363              	UART_1_SetRxInterruptMode:
 364              	.LFB8:
 386:.\Generated_Source\PSoC5/UART_1.c ****         UART_1_RXSTATUS_MASK_REG  = intSrc;
 365              		.loc 1 386 0
 366              		.cfi_startproc
 367              		@ args = 0, pretend = 0, frame = 0
 368              		@ frame_needed = 0, uses_anonymous_args = 0
 369              		@ link register save eliminated.
 370              	.LVL17:
 387:.\Generated_Source\PSoC5/UART_1.c ****     }
 371              		.loc 1 387 0
 372 0000 014B     		ldr	r3, .L24
 373 0002 1870     		strb	r0, [r3]
 374 0004 7047     		bx	lr
 375              	.L25:
 376 0006 00BF     		.align	2
 377              	.L24:
 378 0008 86640040 		.word	1073767558
 379              		.cfi_endproc
 380              	.LFE8:
 381              		.size	UART_1_SetRxInterruptMode, .-UART_1_SetRxInterruptMode
 382              		.section	.text.UART_1_ReadRxData,"ax",%progbits
 383              		.align	1
 384              		.global	UART_1_ReadRxData
 385              		.thumb
 386              		.thumb_func
 387              		.type	UART_1_ReadRxData, %function
 388              	UART_1_ReadRxData:
 389              	.LFB9:
 419:.\Generated_Source\PSoC5/UART_1.c ****         uint8 rxData;
 390              		.loc 1 419 0
 391              		.cfi_startproc
 392              		@ args = 0, pretend = 0, frame = 0
 393              		@ frame_needed = 0, uses_anonymous_args = 0
 394              		@ link register save eliminated.
 395              	.LBB38:
 396              	.LBB39:
 361:.\Generated_Source\PSoC5/UART_1.c ****         }
 397              		.loc 1 361 0
 398 0000 104B     		ldr	r3, .L34
ARM GAS  C:\Users\acer\AppData\Local\Temp\ccQxlELY.s 			page 25


 399 0002 0222     		movs	r2, #2
 400 0004 1A60     		str	r2, [r3]
 401              	.LBE39:
 402              	.LBE38:
 430:.\Generated_Source\PSoC5/UART_1.c ****             loc_rxBufferWrite = UART_1_rxBufferWrite;
 403              		.loc 1 430 0
 404 0006 104A     		ldr	r2, .L34+4
 405 0008 5378     		ldrb	r3, [r2, #1]	@ zero_extendqisi2
 431:.\Generated_Source\PSoC5/UART_1.c **** 
 406              		.loc 1 431 0
 407 000a 9178     		ldrb	r1, [r2, #2]	@ zero_extendqisi2
 433:.\Generated_Source\PSoC5/UART_1.c ****             {
 408              		.loc 1 433 0
 409 000c D078     		ldrb	r0, [r2, #3]	@ zero_extendqisi2
 430:.\Generated_Source\PSoC5/UART_1.c ****             loc_rxBufferWrite = UART_1_rxBufferWrite;
 410              		.loc 1 430 0
 411 000e DBB2     		uxtb	r3, r3
 412              	.LVL18:
 431:.\Generated_Source\PSoC5/UART_1.c **** 
 413              		.loc 1 431 0
 414 0010 C9B2     		uxtb	r1, r1
 415              	.LVL19:
 433:.\Generated_Source\PSoC5/UART_1.c ****             {
 416              		.loc 1 433 0
 417 0012 08B9     		cbnz	r0, .L27
 433:.\Generated_Source\PSoC5/UART_1.c ****             {
 418              		.loc 1 433 0 is_stmt 0 discriminator 1
 419 0014 8B42     		cmp	r3, r1
 420 0016 0ED0     		beq	.L28
 421              	.L27:
 435:.\Generated_Source\PSoC5/UART_1.c ****                 loc_rxBufferRead++;
 422              		.loc 1 435 0 is_stmt 1
 423 0018 0C49     		ldr	r1, .L34+8
 424              	.LVL20:
 425 001a C85C     		ldrb	r0, [r1, r3]	@ zero_extendqisi2
 436:.\Generated_Source\PSoC5/UART_1.c **** 
 426              		.loc 1 436 0
 427 001c 0133     		adds	r3, r3, #1
 428              	.LVL21:
 429 001e DBB2     		uxtb	r3, r3
 430              	.LVL22:
 440:.\Generated_Source\PSoC5/UART_1.c ****                 }
 431              		.loc 1 440 0
 432 0020 102B     		cmp	r3, #16
 433 0022 28BF     		it	cs
 434 0024 0023     		movcs	r3, #0
 443:.\Generated_Source\PSoC5/UART_1.c **** 
 435              		.loc 1 443 0
 436 0026 5370     		strb	r3, [r2, #1]
 445:.\Generated_Source\PSoC5/UART_1.c ****                 {
 437              		.loc 1 445 0
 438 0028 D378     		ldrb	r3, [r2, #3]	@ zero_extendqisi2
 435:.\Generated_Source\PSoC5/UART_1.c ****                 loc_rxBufferRead++;
 439              		.loc 1 435 0
 440 002a C0B2     		uxtb	r0, r0
 441              	.LVL23:
 445:.\Generated_Source\PSoC5/UART_1.c ****                 {
ARM GAS  C:\Users\acer\AppData\Local\Temp\ccQxlELY.s 			page 26


 442              		.loc 1 445 0
 443 002c 33B1     		cbz	r3, .L30
 447:.\Generated_Source\PSoC5/UART_1.c ****                     #if( (UART_1_RX_INTERRUPT_ENABLED) && (UART_1_FLOW_CONTROL != 0u) && \
 444              		.loc 1 447 0
 445 002e 064B     		ldr	r3, .L34+4
 446 0030 0022     		movs	r2, #0
 447 0032 DA70     		strb	r2, [r3, #3]
 448 0034 02E0     		b	.L30
 449              	.LVL24:
 450              	.L28:
 467:.\Generated_Source\PSoC5/UART_1.c ****             }
 451              		.loc 1 467 0
 452 0036 064B     		ldr	r3, .L34+12
 453              	.LVL25:
 454 0038 1878     		ldrb	r0, [r3]	@ zero_extendqisi2
 455 003a C0B2     		uxtb	r0, r0
 456              	.LVL26:
 457              	.L30:
 458              	.LBB40:
 459              	.LBB41:
 338:.\Generated_Source\PSoC5/UART_1.c ****         }
 460              		.loc 1 338 0
 461 003c 054B     		ldr	r3, .L34+16
 462 003e 0222     		movs	r2, #2
 463 0040 1A60     		str	r2, [r3]
 464              	.LBE41:
 465              	.LBE40:
 483:.\Generated_Source\PSoC5/UART_1.c **** 
 466              		.loc 1 483 0
 467 0042 7047     		bx	lr
 468              	.L35:
 469              		.align	2
 470              	.L34:
 471 0044 80E100E0 		.word	-536813184
 472 0048 00000000 		.word	.LANCHOR0
 473 004c 00000000 		.word	UART_1_rxBuffer
 474 0050 45640040 		.word	1073767493
 475 0054 00E100E0 		.word	-536813312
 476              		.cfi_endproc
 477              	.LFE9:
 478              		.size	UART_1_ReadRxData, .-UART_1_ReadRxData
 479              		.section	.text.UART_1_ReadRxStatus,"ax",%progbits
 480              		.align	1
 481              		.global	UART_1_ReadRxStatus
 482              		.thumb
 483              		.thumb_func
 484              		.type	UART_1_ReadRxStatus, %function
 485              	UART_1_ReadRxStatus:
 486              	.LFB10:
 510:.\Generated_Source\PSoC5/UART_1.c ****         uint8 status;
 487              		.loc 1 510 0
 488              		.cfi_startproc
 489              		@ args = 0, pretend = 0, frame = 0
 490              		@ frame_needed = 0, uses_anonymous_args = 0
 491              		@ link register save eliminated.
 513:.\Generated_Source\PSoC5/UART_1.c **** 
 492              		.loc 1 513 0
ARM GAS  C:\Users\acer\AppData\Local\Temp\ccQxlELY.s 			page 27


 493 0000 054B     		ldr	r3, .L41
 494 0002 1878     		ldrb	r0, [r3]	@ zero_extendqisi2
 516:.\Generated_Source\PSoC5/UART_1.c ****             {
 495              		.loc 1 516 0
 496 0004 054B     		ldr	r3, .L41+4
 513:.\Generated_Source\PSoC5/UART_1.c **** 
 497              		.loc 1 513 0
 498 0006 00F07F00 		and	r0, r0, #127
 499              	.LVL27:
 516:.\Generated_Source\PSoC5/UART_1.c ****             {
 500              		.loc 1 516 0
 501 000a 1A79     		ldrb	r2, [r3, #4]	@ zero_extendqisi2
 502 000c 1AB1     		cbz	r2, .L37
 519:.\Generated_Source\PSoC5/UART_1.c ****             }
 503              		.loc 1 519 0
 504 000e 0022     		movs	r2, #0
 518:.\Generated_Source\PSoC5/UART_1.c ****                 UART_1_rxBufferOverflow = 0u;
 505              		.loc 1 518 0
 506 0010 40F08000 		orr	r0, r0, #128
 507              	.LVL28:
 519:.\Generated_Source\PSoC5/UART_1.c ****             }
 508              		.loc 1 519 0
 509 0014 1A71     		strb	r2, [r3, #4]
 510              	.L37:
 524:.\Generated_Source\PSoC5/UART_1.c **** 
 511              		.loc 1 524 0
 512 0016 7047     		bx	lr
 513              	.L42:
 514              		.align	2
 515              	.L41:
 516 0018 66640040 		.word	1073767526
 517 001c 00000000 		.word	.LANCHOR0
 518              		.cfi_endproc
 519              	.LFE10:
 520              		.size	UART_1_ReadRxStatus, .-UART_1_ReadRxStatus
 521              		.section	.text.UART_1_GetChar,"ax",%progbits
 522              		.align	1
 523              		.global	UART_1_GetChar
 524              		.thumb
 525              		.thumb_func
 526              		.type	UART_1_GetChar, %function
 527              	UART_1_GetChar:
 528              	.LFB11:
 557:.\Generated_Source\PSoC5/UART_1.c ****         uint8 rxData = 0u;
 529              		.loc 1 557 0
 530              		.cfi_startproc
 531              		@ args = 0, pretend = 0, frame = 0
 532              		@ frame_needed = 0, uses_anonymous_args = 0
 533              		@ link register save eliminated.
 534              	.LVL29:
 535              	.LBB42:
 536              	.LBB43:
 361:.\Generated_Source\PSoC5/UART_1.c ****         }
 537              		.loc 1 361 0
 538 0000 164B     		ldr	r3, .L54
 539 0002 0222     		movs	r2, #2
 540 0004 1A60     		str	r2, [r3]
ARM GAS  C:\Users\acer\AppData\Local\Temp\ccQxlELY.s 			page 28


 541              	.LBE43:
 542              	.LBE42:
 569:.\Generated_Source\PSoC5/UART_1.c ****             loc_rxBufferWrite = UART_1_rxBufferWrite;
 543              		.loc 1 569 0
 544 0006 164A     		ldr	r2, .L54+4
 545 0008 5378     		ldrb	r3, [r2, #1]	@ zero_extendqisi2
 570:.\Generated_Source\PSoC5/UART_1.c **** 
 546              		.loc 1 570 0
 547 000a 9178     		ldrb	r1, [r2, #2]	@ zero_extendqisi2
 572:.\Generated_Source\PSoC5/UART_1.c ****             {
 548              		.loc 1 572 0
 549 000c D078     		ldrb	r0, [r2, #3]	@ zero_extendqisi2
 569:.\Generated_Source\PSoC5/UART_1.c ****             loc_rxBufferWrite = UART_1_rxBufferWrite;
 550              		.loc 1 569 0
 551 000e DBB2     		uxtb	r3, r3
 552              	.LVL30:
 570:.\Generated_Source\PSoC5/UART_1.c **** 
 553              		.loc 1 570 0
 554 0010 C9B2     		uxtb	r1, r1
 555              	.LVL31:
 572:.\Generated_Source\PSoC5/UART_1.c ****             {
 556              		.loc 1 572 0
 557 0012 08B9     		cbnz	r0, .L44
 572:.\Generated_Source\PSoC5/UART_1.c ****             {
 558              		.loc 1 572 0 is_stmt 0 discriminator 1
 559 0014 8B42     		cmp	r3, r1
 560 0016 0ED0     		beq	.L45
 561              	.L44:
 574:.\Generated_Source\PSoC5/UART_1.c ****                 loc_rxBufferRead++;
 562              		.loc 1 574 0 is_stmt 1
 563 0018 1249     		ldr	r1, .L54+8
 564              	.LVL32:
 565 001a C85C     		ldrb	r0, [r1, r3]	@ zero_extendqisi2
 575:.\Generated_Source\PSoC5/UART_1.c ****                 if(loc_rxBufferRead >= UART_1_RXBUFFERSIZE)
 566              		.loc 1 575 0
 567 001c 0133     		adds	r3, r3, #1
 568              	.LVL33:
 569 001e DBB2     		uxtb	r3, r3
 570              	.LVL34:
 578:.\Generated_Source\PSoC5/UART_1.c ****                 }
 571              		.loc 1 578 0
 572 0020 102B     		cmp	r3, #16
 573 0022 28BF     		it	cs
 574 0024 0023     		movcs	r3, #0
 581:.\Generated_Source\PSoC5/UART_1.c **** 
 575              		.loc 1 581 0
 576 0026 5370     		strb	r3, [r2, #1]
 583:.\Generated_Source\PSoC5/UART_1.c ****                 {
 577              		.loc 1 583 0
 578 0028 D378     		ldrb	r3, [r2, #3]	@ zero_extendqisi2
 574:.\Generated_Source\PSoC5/UART_1.c ****                 loc_rxBufferRead++;
 579              		.loc 1 574 0
 580 002a C0B2     		uxtb	r0, r0
 581              	.LVL35:
 583:.\Generated_Source\PSoC5/UART_1.c ****                 {
 582              		.loc 1 583 0
 583 002c 8BB1     		cbz	r3, .L47
ARM GAS  C:\Users\acer\AppData\Local\Temp\ccQxlELY.s 			page 29


 585:.\Generated_Source\PSoC5/UART_1.c ****                     #if( (UART_1_RX_INTERRUPT_ENABLED) && (UART_1_FLOW_CONTROL != 0u) )
 584              		.loc 1 585 0
 585 002e 0C4B     		ldr	r3, .L54+4
 586 0030 0022     		movs	r2, #0
 587 0032 DA70     		strb	r2, [r3, #3]
 588 0034 0DE0     		b	.L47
 589              	.LVL36:
 590              	.L45:
 604:.\Generated_Source\PSoC5/UART_1.c ****                 if((rxStatus & UART_1_RX_STS_FIFO_NOTEMPTY) != 0u)
 591              		.loc 1 604 0
 592 0036 0C4B     		ldr	r3, .L54+12
 593              	.LVL37:
 594 0038 1B78     		ldrb	r3, [r3]	@ zero_extendqisi2
 595 003a DBB2     		uxtb	r3, r3
 596              	.LVL38:
 605:.\Generated_Source\PSoC5/UART_1.c ****                 {   /* Read received data from FIFO*/
 597              		.loc 1 605 0
 598 003c 03F02002 		and	r2, r3, #32
 599 0040 02F0FF00 		and	r0, r2, #255
 600 0044 2AB1     		cbz	r2, .L47
 607:.\Generated_Source\PSoC5/UART_1.c ****                     /*Check status on error*/
 601              		.loc 1 607 0
 602 0046 094A     		ldr	r2, .L54+16
 612:.\Generated_Source\PSoC5/UART_1.c ****                     }
 603              		.loc 1 612 0
 604 0048 13F01E0F 		tst	r3, #30
 607:.\Generated_Source\PSoC5/UART_1.c ****                     /*Check status on error*/
 605              		.loc 1 607 0
 606 004c 1078     		ldrb	r0, [r2]	@ zero_extendqisi2
 607              	.LVL39:
 612:.\Generated_Source\PSoC5/UART_1.c ****                     }
 608              		.loc 1 612 0
 609 004e 18BF     		it	ne
 610 0050 0020     		movne	r0, #0
 611              	.LVL40:
 612              	.L47:
 613              	.LBB44:
 614              	.LBB45:
 338:.\Generated_Source\PSoC5/UART_1.c ****         }
 615              		.loc 1 338 0
 616 0052 074B     		ldr	r3, .L54+20
 617 0054 0222     		movs	r2, #2
 618 0056 1A60     		str	r2, [r3]
 619              	.LBE45:
 620              	.LBE44:
 638:.\Generated_Source\PSoC5/UART_1.c **** 
 621              		.loc 1 638 0
 622 0058 7047     		bx	lr
 623              	.L55:
 624 005a 00BF     		.align	2
 625              	.L54:
 626 005c 80E100E0 		.word	-536813184
 627 0060 00000000 		.word	.LANCHOR0
 628 0064 00000000 		.word	UART_1_rxBuffer
 629 0068 66640040 		.word	1073767526
 630 006c 45640040 		.word	1073767493
 631 0070 00E100E0 		.word	-536813312
ARM GAS  C:\Users\acer\AppData\Local\Temp\ccQxlELY.s 			page 30


 632              		.cfi_endproc
 633              	.LFE11:
 634              		.size	UART_1_GetChar, .-UART_1_GetChar
 635              		.section	.text.UART_1_GetByte,"ax",%progbits
 636              		.align	1
 637              		.global	UART_1_GetByte
 638              		.thumb
 639              		.thumb_func
 640              		.type	UART_1_GetByte, %function
 641              	UART_1_GetByte:
 642              	.LFB12:
 659:.\Generated_Source\PSoC5/UART_1.c ****         return ( ((uint16)UART_1_ReadRxStatus() << 8u) | UART_1_ReadRxData() );
 643              		.loc 1 659 0
 644              		.cfi_startproc
 645              		@ args = 0, pretend = 0, frame = 0
 646              		@ frame_needed = 0, uses_anonymous_args = 0
 647 0000 10B5     		push	{r4, lr}
 648              		.cfi_def_cfa_offset 8
 649              		.cfi_offset 4, -8
 650              		.cfi_offset 14, -4
 660:.\Generated_Source\PSoC5/UART_1.c ****     }
 651              		.loc 1 660 0
 652 0002 FFF7FEFF 		bl	UART_1_ReadRxStatus
 653              	.LVL41:
 654 0006 0446     		mov	r4, r0
 655 0008 FFF7FEFF 		bl	UART_1_ReadRxData
 656              	.LVL42:
 657 000c 40EA0420 		orr	r0, r0, r4, lsl #8
 661:.\Generated_Source\PSoC5/UART_1.c **** 
 658              		.loc 1 661 0
 659 0010 80B2     		uxth	r0, r0
 660 0012 10BD     		pop	{r4, pc}
 661              		.cfi_endproc
 662              	.LFE12:
 663              		.size	UART_1_GetByte, .-UART_1_GetByte
 664              		.section	.text.UART_1_GetRxBufferSize,"ax",%progbits
 665              		.align	1
 666              		.global	UART_1_GetRxBufferSize
 667              		.thumb
 668              		.thumb_func
 669              		.type	UART_1_GetRxBufferSize, %function
 670              	UART_1_GetRxBufferSize:
 671              	.LFB13:
 693:.\Generated_Source\PSoC5/UART_1.c ****         uint8 size;
 672              		.loc 1 693 0
 673              		.cfi_startproc
 674              		@ args = 0, pretend = 0, frame = 0
 675              		@ frame_needed = 0, uses_anonymous_args = 0
 676              		@ link register save eliminated.
 677              	.LBB46:
 678              	.LBB47:
 361:.\Generated_Source\PSoC5/UART_1.c ****         }
 679              		.loc 1 361 0
 680 0000 0F4B     		ldr	r3, .L63
 681 0002 0222     		movs	r2, #2
 682 0004 1A60     		str	r2, [r3]
 683              	.LBE47:
ARM GAS  C:\Users\acer\AppData\Local\Temp\ccQxlELY.s 			page 31


 684              	.LBE46:
 704:.\Generated_Source\PSoC5/UART_1.c ****             {
 685              		.loc 1 704 0
 686 0006 0F4A     		ldr	r2, .L63+4
 687 0008 5178     		ldrb	r1, [r2, #1]	@ zero_extendqisi2
 688 000a 9378     		ldrb	r3, [r2, #2]	@ zero_extendqisi2
 689 000c 9942     		cmp	r1, r3
 690 000e 05D1     		bne	.L58
 706:.\Generated_Source\PSoC5/UART_1.c ****                 {
 691              		.loc 1 706 0
 692 0010 D378     		ldrb	r3, [r2, #3]	@ zero_extendqisi2
 693 0012 002B     		cmp	r3, #0
 712:.\Generated_Source\PSoC5/UART_1.c ****                 }
 694              		.loc 1 712 0
 695 0014 14BF     		ite	ne
 696 0016 1020     		movne	r0, #16
 697 0018 0020     		moveq	r0, #0
 698 001a 0CE0     		b	.L59
 699              	.L58:
 715:.\Generated_Source\PSoC5/UART_1.c ****             {
 700              		.loc 1 715 0
 701 001c 5178     		ldrb	r1, [r2, #1]	@ zero_extendqisi2
 702 001e 9378     		ldrb	r3, [r2, #2]	@ zero_extendqisi2
 703 0020 9942     		cmp	r1, r3
 721:.\Generated_Source\PSoC5/UART_1.c ****             }
 704              		.loc 1 721 0
 705 0022 2BBF     		itete	cs
 706 0024 9078     		ldrbcs	r0, [r2, #2]	@ zero_extendqisi2
 717:.\Generated_Source\PSoC5/UART_1.c ****             }
 707              		.loc 1 717 0
 708 0026 9378     		ldrbcc	r3, [r2, #2]	@ zero_extendqisi2
 721:.\Generated_Source\PSoC5/UART_1.c ****             }
 709              		.loc 1 721 0
 710 0028 5378     		ldrbcs	r3, [r2, #1]	@ zero_extendqisi2
 717:.\Generated_Source\PSoC5/UART_1.c ****             }
 711              		.loc 1 717 0
 712 002a 5078     		ldrbcc	r0, [r2, #1]	@ zero_extendqisi2
 713 002c 2ABF     		itet	cs
 714 002e 1030     		addcs	r0, r0, #16
 715 0030 181A     		subcc	r0, r3, r0
 721:.\Generated_Source\PSoC5/UART_1.c ****             }
 716              		.loc 1 721 0
 717 0032 C01A     		subcs	r0, r0, r3
 718 0034 C0B2     		uxtb	r0, r0
 719              	.LVL43:
 720              	.L59:
 721              	.LBB48:
 722              	.LBB49:
 338:.\Generated_Source\PSoC5/UART_1.c ****         }
 723              		.loc 1 338 0
 724 0036 044B     		ldr	r3, .L63+8
 725 0038 0222     		movs	r2, #2
 726 003a 1A60     		str	r2, [r3]
 727              	.LBE49:
 728              	.LBE48:
 737:.\Generated_Source\PSoC5/UART_1.c **** 
 729              		.loc 1 737 0
ARM GAS  C:\Users\acer\AppData\Local\Temp\ccQxlELY.s 			page 32


 730 003c 7047     		bx	lr
 731              	.L64:
 732 003e 00BF     		.align	2
 733              	.L63:
 734 0040 80E100E0 		.word	-536813184
 735 0044 00000000 		.word	.LANCHOR0
 736 0048 00E100E0 		.word	-536813312
 737              		.cfi_endproc
 738              	.LFE13:
 739              		.size	UART_1_GetRxBufferSize, .-UART_1_GetRxBufferSize
 740              		.section	.text.UART_1_ClearRxBuffer,"ax",%progbits
 741              		.align	1
 742              		.global	UART_1_ClearRxBuffer
 743              		.thumb
 744              		.thumb_func
 745              		.type	UART_1_ClearRxBuffer, %function
 746              	UART_1_ClearRxBuffer:
 747              	.LFB14:
 772:.\Generated_Source\PSoC5/UART_1.c ****         uint8 enableInterrupts;
 748              		.loc 1 772 0
 749              		.cfi_startproc
 750              		@ args = 0, pretend = 0, frame = 0
 751              		@ frame_needed = 0, uses_anonymous_args = 0
 752 0000 08B5     		push	{r3, lr}
 753              		.cfi_def_cfa_offset 8
 754              		.cfi_offset 3, -8
 755              		.cfi_offset 14, -4
 777:.\Generated_Source\PSoC5/UART_1.c ****         UART_1_RXDATA_AUX_CTL_REG |=  UART_1_RX_FIFO_CLR;
 756              		.loc 1 777 0
 757 0002 FFF7FEFF 		bl	CyEnterCriticalSection
 758              	.LVL44:
 778:.\Generated_Source\PSoC5/UART_1.c ****         UART_1_RXDATA_AUX_CTL_REG &= (uint8)~UART_1_RX_FIFO_CLR;
 759              		.loc 1 778 0
 760 0006 0B4B     		ldr	r3, .L66
 761 0008 1A78     		ldrb	r2, [r3]	@ zero_extendqisi2
 762 000a 42F00102 		orr	r2, r2, #1
 763 000e 1A70     		strb	r2, [r3]
 779:.\Generated_Source\PSoC5/UART_1.c ****         /* Exit critical section */
 764              		.loc 1 779 0
 765 0010 1A78     		ldrb	r2, [r3]	@ zero_extendqisi2
 766 0012 02F0FE02 		and	r2, r2, #254
 767 0016 1A70     		strb	r2, [r3]
 781:.\Generated_Source\PSoC5/UART_1.c **** 
 768              		.loc 1 781 0
 769 0018 FFF7FEFF 		bl	CyExitCriticalSection
 770              	.LVL45:
 771              	.LBB50:
 772              	.LBB51:
 361:.\Generated_Source\PSoC5/UART_1.c ****         }
 773              		.loc 1 361 0
 774 001c 064B     		ldr	r3, .L66+4
 775 001e 0221     		movs	r1, #2
 776 0020 1960     		str	r1, [r3]
 777              	.LBE51:
 778              	.LBE50:
 790:.\Generated_Source\PSoC5/UART_1.c ****             UART_1_rxBufferWrite = 0u;
 779              		.loc 1 790 0
ARM GAS  C:\Users\acer\AppData\Local\Temp\ccQxlELY.s 			page 33


 780 0022 064B     		ldr	r3, .L66+8
 781 0024 0022     		movs	r2, #0
 782 0026 5A70     		strb	r2, [r3, #1]
 791:.\Generated_Source\PSoC5/UART_1.c ****             UART_1_rxBufferLoopDetect = 0u;
 783              		.loc 1 791 0
 784 0028 9A70     		strb	r2, [r3, #2]
 792:.\Generated_Source\PSoC5/UART_1.c ****             UART_1_rxBufferOverflow = 0u;
 785              		.loc 1 792 0
 786 002a DA70     		strb	r2, [r3, #3]
 793:.\Generated_Source\PSoC5/UART_1.c **** 
 787              		.loc 1 793 0
 788 002c 1A71     		strb	r2, [r3, #4]
 789              	.LBB52:
 790              	.LBB53:
 338:.\Generated_Source\PSoC5/UART_1.c ****         }
 791              		.loc 1 338 0
 792 002e 044B     		ldr	r3, .L66+12
 793 0030 1960     		str	r1, [r3]
 794 0032 08BD     		pop	{r3, pc}
 795              	.L67:
 796              		.align	2
 797              	.L66:
 798 0034 95640040 		.word	1073767573
 799 0038 80E100E0 		.word	-536813184
 800 003c 00000000 		.word	.LANCHOR0
 801 0040 00E100E0 		.word	-536813312
 802              	.LBE53:
 803              	.LBE52:
 804              		.cfi_endproc
 805              	.LFE14:
 806              		.size	UART_1_ClearRxBuffer, .-UART_1_ClearRxBuffer
 807              		.section	.text.UART_1_SetRxAddressMode,"ax",%progbits
 808              		.align	1
 809              		.global	UART_1_SetRxAddressMode
 810              		.thumb
 811              		.thumb_func
 812              		.type	UART_1_SetRxAddressMode, %function
 813              	UART_1_SetRxAddressMode:
 814              	.LFB15:
 834:.\Generated_Source\PSoC5/UART_1.c ****         #if(UART_1_RXHW_ADDRESS_ENABLED)
 815              		.loc 1 834 0
 816              		.cfi_startproc
 817              		@ args = 0, pretend = 0, frame = 0
 818              		@ frame_needed = 0, uses_anonymous_args = 0
 819              		@ link register save eliminated.
 820              	.LVL46:
 821 0000 7047     		bx	lr
 822              		.cfi_endproc
 823              	.LFE15:
 824              		.size	UART_1_SetRxAddressMode, .-UART_1_SetRxAddressMode
 825              		.section	.text.UART_1_SetRxAddress1,"ax",%progbits
 826              		.align	1
 827              		.global	UART_1_SetRxAddress1
 828              		.thumb
 829              		.thumb_func
 830              		.type	UART_1_SetRxAddress1, %function
 831              	UART_1_SetRxAddress1:
ARM GAS  C:\Users\acer\AppData\Local\Temp\ccQxlELY.s 			page 34


 832              	.LFB16:
 871:.\Generated_Source\PSoC5/UART_1.c ****         UART_1_RXADDRESS1_REG = address;
 833              		.loc 1 871 0
 834              		.cfi_startproc
 835              		@ args = 0, pretend = 0, frame = 0
 836              		@ frame_needed = 0, uses_anonymous_args = 0
 837              		@ link register save eliminated.
 838              	.LVL47:
 872:.\Generated_Source\PSoC5/UART_1.c ****     }
 839              		.loc 1 872 0
 840 0000 014B     		ldr	r3, .L70
 841 0002 1870     		strb	r0, [r3]
 842 0004 7047     		bx	lr
 843              	.L71:
 844 0006 00BF     		.align	2
 845              	.L70:
 846 0008 25640040 		.word	1073767461
 847              		.cfi_endproc
 848              	.LFE16:
 849              		.size	UART_1_SetRxAddress1, .-UART_1_SetRxAddress1
 850              		.section	.text.UART_1_SetRxAddress2,"ax",%progbits
 851              		.align	1
 852              		.global	UART_1_SetRxAddress2
 853              		.thumb
 854              		.thumb_func
 855              		.type	UART_1_SetRxAddress2, %function
 856              	UART_1_SetRxAddress2:
 857              	.LFB17:
 891:.\Generated_Source\PSoC5/UART_1.c ****         UART_1_RXADDRESS2_REG = address;
 858              		.loc 1 891 0
 859              		.cfi_startproc
 860              		@ args = 0, pretend = 0, frame = 0
 861              		@ frame_needed = 0, uses_anonymous_args = 0
 862              		@ link register save eliminated.
 863              	.LVL48:
 892:.\Generated_Source\PSoC5/UART_1.c ****     }
 864              		.loc 1 892 0
 865 0000 014B     		ldr	r3, .L73
 866 0002 1870     		strb	r0, [r3]
 867 0004 7047     		bx	lr
 868              	.L74:
 869 0006 00BF     		.align	2
 870              	.L73:
 871 0008 35640040 		.word	1073767477
 872              		.cfi_endproc
 873              	.LFE17:
 874              		.size	UART_1_SetRxAddress2, .-UART_1_SetRxAddress2
 875              		.section	.text.UART_1_EnableTxInt,"ax",%progbits
 876              		.align	1
 877              		.global	UART_1_EnableTxInt
 878              		.thumb
 879              		.thumb_func
 880              		.type	UART_1_EnableTxInt, %function
 881              	UART_1_EnableTxInt:
 882              	.LFB18:
 920:.\Generated_Source\PSoC5/UART_1.c ****             CyIntEnable(UART_1_TX_VECT_NUM);
 883              		.loc 1 920 0
ARM GAS  C:\Users\acer\AppData\Local\Temp\ccQxlELY.s 			page 35


 884              		.cfi_startproc
 885              		@ args = 0, pretend = 0, frame = 0
 886              		@ frame_needed = 0, uses_anonymous_args = 0
 887              		@ link register save eliminated.
 921:.\Generated_Source\PSoC5/UART_1.c ****         }
 888              		.loc 1 921 0
 889 0000 014B     		ldr	r3, .L76
 890 0002 0422     		movs	r2, #4
 891 0004 1A60     		str	r2, [r3]
 892 0006 7047     		bx	lr
 893              	.L77:
 894              		.align	2
 895              	.L76:
 896 0008 00E100E0 		.word	-536813312
 897              		.cfi_endproc
 898              	.LFE18:
 899              		.size	UART_1_EnableTxInt, .-UART_1_EnableTxInt
 900              		.section	.text.UART_1_DisableTxInt,"ax",%progbits
 901              		.align	1
 902              		.global	UART_1_DisableTxInt
 903              		.thumb
 904              		.thumb_func
 905              		.type	UART_1_DisableTxInt, %function
 906              	UART_1_DisableTxInt:
 907              	.LFB19:
 943:.\Generated_Source\PSoC5/UART_1.c ****             CyIntDisable(UART_1_TX_VECT_NUM);
 908              		.loc 1 943 0
 909              		.cfi_startproc
 910              		@ args = 0, pretend = 0, frame = 0
 911              		@ frame_needed = 0, uses_anonymous_args = 0
 912              		@ link register save eliminated.
 913              		.loc 1 944 0
 914 0000 014B     		ldr	r3, .L79
 915 0002 0422     		movs	r2, #4
 916 0004 1A60     		str	r2, [r3]
 917 0006 7047     		bx	lr
 918              	.L80:
 919              		.align	2
 920              	.L79:
 921 0008 80E100E0 		.word	-536813184
 922              		.cfi_endproc
 923              	.LFE19:
 924              		.size	UART_1_DisableTxInt, .-UART_1_DisableTxInt
 925              		.section	.text.UART_1_SetTxInterruptMode,"ax",%progbits
 926              		.align	1
 927              		.global	UART_1_SetTxInterruptMode
 928              		.thumb
 929              		.thumb_func
 930              		.type	UART_1_SetTxInterruptMode, %function
 931              	UART_1_SetTxInterruptMode:
 932              	.LFB20:
 945:.\Generated_Source\PSoC5/UART_1.c ****         }
 946:.\Generated_Source\PSoC5/UART_1.c **** 
 947:.\Generated_Source\PSoC5/UART_1.c ****     #endif /* UART_1_TX_INTERRUPT_ENABLED */
 948:.\Generated_Source\PSoC5/UART_1.c **** 
 949:.\Generated_Source\PSoC5/UART_1.c **** 
 950:.\Generated_Source\PSoC5/UART_1.c ****     /*******************************************************************************
ARM GAS  C:\Users\acer\AppData\Local\Temp\ccQxlELY.s 			page 36


 951:.\Generated_Source\PSoC5/UART_1.c ****     * Function Name: UART_1_SetTxInterruptMode
 952:.\Generated_Source\PSoC5/UART_1.c ****     ********************************************************************************
 953:.\Generated_Source\PSoC5/UART_1.c ****     *
 954:.\Generated_Source\PSoC5/UART_1.c ****     * Summary:
 955:.\Generated_Source\PSoC5/UART_1.c ****     *  Configure which status bits trigger an interrupt event
 956:.\Generated_Source\PSoC5/UART_1.c ****     *
 957:.\Generated_Source\PSoC5/UART_1.c ****     * Parameters:
 958:.\Generated_Source\PSoC5/UART_1.c ****     *  intSrc: An or'd combination of the desired status bit masks (defined in
 959:.\Generated_Source\PSoC5/UART_1.c ****     *          the header file)
 960:.\Generated_Source\PSoC5/UART_1.c ****     *
 961:.\Generated_Source\PSoC5/UART_1.c ****     * Return:
 962:.\Generated_Source\PSoC5/UART_1.c ****     *  None.
 963:.\Generated_Source\PSoC5/UART_1.c ****     *
 964:.\Generated_Source\PSoC5/UART_1.c ****     * Theory:
 965:.\Generated_Source\PSoC5/UART_1.c ****     *  Enables the output of specific status bits to the interrupt controller
 966:.\Generated_Source\PSoC5/UART_1.c ****     *
 967:.\Generated_Source\PSoC5/UART_1.c ****     *******************************************************************************/
 968:.\Generated_Source\PSoC5/UART_1.c ****     void UART_1_SetTxInterruptMode(uint8 intSrc) 
 969:.\Generated_Source\PSoC5/UART_1.c ****     {
 933              		.loc 1 969 0
 934              		.cfi_startproc
 935              		@ args = 0, pretend = 0, frame = 0
 936              		@ frame_needed = 0, uses_anonymous_args = 0
 937              		@ link register save eliminated.
 938              	.LVL49:
 970:.\Generated_Source\PSoC5/UART_1.c ****         UART_1_TXSTATUS_MASK_REG = intSrc;
 939              		.loc 1 970 0
 940 0000 014B     		ldr	r3, .L82
 941 0002 1870     		strb	r0, [r3]
 942 0004 7047     		bx	lr
 943              	.L83:
 944 0006 00BF     		.align	2
 945              	.L82:
 946 0008 82640040 		.word	1073767554
 947              		.cfi_endproc
 948              	.LFE20:
 949              		.size	UART_1_SetTxInterruptMode, .-UART_1_SetTxInterruptMode
 950              		.section	.text.UART_1_WriteTxData,"ax",%progbits
 951              		.align	1
 952              		.global	UART_1_WriteTxData
 953              		.thumb
 954              		.thumb_func
 955              		.type	UART_1_WriteTxData, %function
 956              	UART_1_WriteTxData:
 957              	.LFB21:
 971:.\Generated_Source\PSoC5/UART_1.c ****     }
 972:.\Generated_Source\PSoC5/UART_1.c **** 
 973:.\Generated_Source\PSoC5/UART_1.c **** 
 974:.\Generated_Source\PSoC5/UART_1.c ****     /*******************************************************************************
 975:.\Generated_Source\PSoC5/UART_1.c ****     * Function Name: UART_1_WriteTxData
 976:.\Generated_Source\PSoC5/UART_1.c ****     ********************************************************************************
 977:.\Generated_Source\PSoC5/UART_1.c ****     *
 978:.\Generated_Source\PSoC5/UART_1.c ****     * Summary:
 979:.\Generated_Source\PSoC5/UART_1.c ****     *  Write a byte of data to the Transmit FIFO or TX buffer to be sent when the
 980:.\Generated_Source\PSoC5/UART_1.c ****     *  bus is available. WriteTxData sends a byte without checking for buffer room
 981:.\Generated_Source\PSoC5/UART_1.c ****     *  or status. It is up to the user to separately check status.
 982:.\Generated_Source\PSoC5/UART_1.c ****     *
ARM GAS  C:\Users\acer\AppData\Local\Temp\ccQxlELY.s 			page 37


 983:.\Generated_Source\PSoC5/UART_1.c ****     * Parameters:
 984:.\Generated_Source\PSoC5/UART_1.c ****     *  TXDataByte: byte of data to place in the transmit FIFO
 985:.\Generated_Source\PSoC5/UART_1.c ****     *
 986:.\Generated_Source\PSoC5/UART_1.c ****     * Return:
 987:.\Generated_Source\PSoC5/UART_1.c ****     * void
 988:.\Generated_Source\PSoC5/UART_1.c ****     *
 989:.\Generated_Source\PSoC5/UART_1.c ****     * Global Variables:
 990:.\Generated_Source\PSoC5/UART_1.c ****     *  UART_1_txBuffer - RAM buffer pointer for save data for transmission
 991:.\Generated_Source\PSoC5/UART_1.c ****     *  UART_1_txBufferWrite - cyclic index for write to txBuffer,
 992:.\Generated_Source\PSoC5/UART_1.c ****     *    incremented after each byte saved to buffer.
 993:.\Generated_Source\PSoC5/UART_1.c ****     *  UART_1_txBufferRead - cyclic index for read from txBuffer,
 994:.\Generated_Source\PSoC5/UART_1.c ****     *    checked to identify the condition to write to FIFO directly or to TX buffer
 995:.\Generated_Source\PSoC5/UART_1.c ****     *  UART_1_initVar - checked to identify that the component has been
 996:.\Generated_Source\PSoC5/UART_1.c ****     *    initialized.
 997:.\Generated_Source\PSoC5/UART_1.c ****     *
 998:.\Generated_Source\PSoC5/UART_1.c ****     * Reentrant:
 999:.\Generated_Source\PSoC5/UART_1.c ****     *  No.
1000:.\Generated_Source\PSoC5/UART_1.c ****     *
1001:.\Generated_Source\PSoC5/UART_1.c ****     *******************************************************************************/
1002:.\Generated_Source\PSoC5/UART_1.c ****     void UART_1_WriteTxData(uint8 txDataByte) 
1003:.\Generated_Source\PSoC5/UART_1.c ****     {
 958              		.loc 1 1003 0
 959              		.cfi_startproc
 960              		@ args = 0, pretend = 0, frame = 0
 961              		@ frame_needed = 0, uses_anonymous_args = 0
 962              	.LVL50:
 963 0000 10B5     		push	{r4, lr}
 964              		.cfi_def_cfa_offset 8
 965              		.cfi_offset 4, -8
 966              		.cfi_offset 14, -4
1004:.\Generated_Source\PSoC5/UART_1.c ****         /* If not Initialized then skip this function*/
1005:.\Generated_Source\PSoC5/UART_1.c ****         if(UART_1_initVar != 0u)
 967              		.loc 1 1005 0
 968 0002 0F4B     		ldr	r3, .L92
 969 0004 1978     		ldrb	r1, [r3]	@ zero_extendqisi2
 970 0006 1A46     		mov	r2, r3
 971 0008 C9B1     		cbz	r1, .L84
 972              	.LBB54:
 973              	.LBB55:
 944:.\Generated_Source\PSoC5/UART_1.c ****         }
 974              		.loc 1 944 0
 975 000a 0E49     		ldr	r1, .L92+4
 976 000c 0424     		movs	r4, #4
 977 000e 0C60     		str	r4, [r1]
 978              	.LBE55:
 979              	.LBE54:
1006:.\Generated_Source\PSoC5/UART_1.c ****         {
1007:.\Generated_Source\PSoC5/UART_1.c ****             #if(UART_1_TXBUFFERSIZE > UART_1_FIFO_LENGTH)
1008:.\Generated_Source\PSoC5/UART_1.c **** 
1009:.\Generated_Source\PSoC5/UART_1.c ****                 /* Disable Tx interrupt. */
1010:.\Generated_Source\PSoC5/UART_1.c ****                 /* Protect variables that could change on interrupt. */
1011:.\Generated_Source\PSoC5/UART_1.c ****                 #if(UART_1_TX_INTERRUPT_ENABLED)
1012:.\Generated_Source\PSoC5/UART_1.c ****                     UART_1_DisableTxInt();
1013:.\Generated_Source\PSoC5/UART_1.c ****                 #endif /* End UART_1_TX_INTERRUPT_ENABLED */
1014:.\Generated_Source\PSoC5/UART_1.c **** 
1015:.\Generated_Source\PSoC5/UART_1.c ****                 if( (UART_1_txBufferRead == UART_1_txBufferWrite) &&
 980              		.loc 1 1015 0
ARM GAS  C:\Users\acer\AppData\Local\Temp\ccQxlELY.s 			page 38


 981 0010 5979     		ldrb	r1, [r3, #5]	@ zero_extendqisi2
 982 0012 9B79     		ldrb	r3, [r3, #6]	@ zero_extendqisi2
 983 0014 9942     		cmp	r1, r3
 984 0016 06D1     		bne	.L86
1016:.\Generated_Source\PSoC5/UART_1.c ****                     ((UART_1_TXSTATUS_REG & UART_1_TX_STS_FIFO_FULL) == 0u) )
 985              		.loc 1 1016 0 discriminator 1
 986 0018 0B49     		ldr	r1, .L92+8
 987 001a 0978     		ldrb	r1, [r1]	@ zero_extendqisi2
1015:.\Generated_Source\PSoC5/UART_1.c ****                     ((UART_1_TXSTATUS_REG & UART_1_TX_STS_FIFO_FULL) == 0u) )
 988              		.loc 1 1015 0 discriminator 1
 989 001c 4907     		lsls	r1, r1, #29
 990 001e 02D4     		bmi	.L86
1017:.\Generated_Source\PSoC5/UART_1.c ****                 {
1018:.\Generated_Source\PSoC5/UART_1.c ****                     /* Add directly to the FIFO. */
1019:.\Generated_Source\PSoC5/UART_1.c ****                     UART_1_TXDATA_REG = txDataByte;
 991              		.loc 1 1019 0
 992 0020 0A4B     		ldr	r3, .L92+12
 993 0022 1870     		strb	r0, [r3]
 994 0024 08E0     		b	.L87
 995              	.L86:
1020:.\Generated_Source\PSoC5/UART_1.c ****                 }
1021:.\Generated_Source\PSoC5/UART_1.c ****                 else
1022:.\Generated_Source\PSoC5/UART_1.c ****                 {
1023:.\Generated_Source\PSoC5/UART_1.c ****                     if(UART_1_txBufferWrite >= UART_1_TXBUFFERSIZE)
 996              		.loc 1 1023 0
 997 0026 0F2B     		cmp	r3, #15
1024:.\Generated_Source\PSoC5/UART_1.c ****                     {
1025:.\Generated_Source\PSoC5/UART_1.c ****                         UART_1_txBufferWrite = 0u;
 998              		.loc 1 1025 0
 999 0028 84BF     		itt	hi
 1000 002a 0023     		movhi	r3, #0
 1001 002c 9371     		strbhi	r3, [r2, #6]
1026:.\Generated_Source\PSoC5/UART_1.c ****                     }
1027:.\Generated_Source\PSoC5/UART_1.c **** 
1028:.\Generated_Source\PSoC5/UART_1.c ****                     UART_1_txBuffer[UART_1_txBufferWrite] = txDataByte;
 1002              		.loc 1 1028 0
 1003 002e 9379     		ldrb	r3, [r2, #6]	@ zero_extendqisi2
 1004 0030 0749     		ldr	r1, .L92+16
 1005 0032 C854     		strb	r0, [r1, r3]
1029:.\Generated_Source\PSoC5/UART_1.c **** 
1030:.\Generated_Source\PSoC5/UART_1.c ****                     /* Add to the software buffer. */
1031:.\Generated_Source\PSoC5/UART_1.c ****                     UART_1_txBufferWrite++;
 1006              		.loc 1 1031 0
 1007 0034 0133     		adds	r3, r3, #1
 1008 0036 9371     		strb	r3, [r2, #6]
 1009              	.L87:
 1010              	.LBB56:
 1011              	.LBB57:
 921:.\Generated_Source\PSoC5/UART_1.c ****         }
 1012              		.loc 1 921 0
 1013 0038 064B     		ldr	r3, .L92+20
 1014 003a 0422     		movs	r2, #4
 1015 003c 1A60     		str	r2, [r3]
 1016              	.L84:
 1017 003e 10BD     		pop	{r4, pc}
 1018              	.L93:
 1019              		.align	2
ARM GAS  C:\Users\acer\AppData\Local\Temp\ccQxlELY.s 			page 39


 1020              	.L92:
 1021 0040 00000000 		.word	.LANCHOR0
 1022 0044 80E100E0 		.word	-536813184
 1023 0048 62640040 		.word	1073767522
 1024 004c 42640040 		.word	1073767490
 1025 0050 00000000 		.word	UART_1_txBuffer
 1026 0054 00E100E0 		.word	-536813312
 1027              	.LBE57:
 1028              	.LBE56:
 1029              		.cfi_endproc
 1030              	.LFE21:
 1031              		.size	UART_1_WriteTxData, .-UART_1_WriteTxData
 1032              		.section	.text.UART_1_ReadTxStatus,"ax",%progbits
 1033              		.align	1
 1034              		.global	UART_1_ReadTxStatus
 1035              		.thumb
 1036              		.thumb_func
 1037              		.type	UART_1_ReadTxStatus, %function
 1038              	UART_1_ReadTxStatus:
 1039              	.LFB22:
1032:.\Generated_Source\PSoC5/UART_1.c **** 
1033:.\Generated_Source\PSoC5/UART_1.c ****                 }
1034:.\Generated_Source\PSoC5/UART_1.c **** 
1035:.\Generated_Source\PSoC5/UART_1.c ****                 /* Enable Tx interrupt. */
1036:.\Generated_Source\PSoC5/UART_1.c ****                 #if(UART_1_TX_INTERRUPT_ENABLED)
1037:.\Generated_Source\PSoC5/UART_1.c ****                     UART_1_EnableTxInt();
1038:.\Generated_Source\PSoC5/UART_1.c ****                 #endif /* End UART_1_TX_INTERRUPT_ENABLED */
1039:.\Generated_Source\PSoC5/UART_1.c **** 
1040:.\Generated_Source\PSoC5/UART_1.c ****             #else /* UART_1_TXBUFFERSIZE > UART_1_FIFO_LENGTH */
1041:.\Generated_Source\PSoC5/UART_1.c **** 
1042:.\Generated_Source\PSoC5/UART_1.c ****                 /* Add directly to the FIFO. */
1043:.\Generated_Source\PSoC5/UART_1.c ****                 UART_1_TXDATA_REG = txDataByte;
1044:.\Generated_Source\PSoC5/UART_1.c **** 
1045:.\Generated_Source\PSoC5/UART_1.c ****             #endif /* End UART_1_TXBUFFERSIZE > UART_1_FIFO_LENGTH */
1046:.\Generated_Source\PSoC5/UART_1.c ****         }
1047:.\Generated_Source\PSoC5/UART_1.c ****     }
1048:.\Generated_Source\PSoC5/UART_1.c **** 
1049:.\Generated_Source\PSoC5/UART_1.c **** 
1050:.\Generated_Source\PSoC5/UART_1.c ****     /*******************************************************************************
1051:.\Generated_Source\PSoC5/UART_1.c ****     * Function Name: UART_1_ReadTxStatus
1052:.\Generated_Source\PSoC5/UART_1.c ****     ********************************************************************************
1053:.\Generated_Source\PSoC5/UART_1.c ****     *
1054:.\Generated_Source\PSoC5/UART_1.c ****     * Summary:
1055:.\Generated_Source\PSoC5/UART_1.c ****     *  Read the status register for the component
1056:.\Generated_Source\PSoC5/UART_1.c ****     *
1057:.\Generated_Source\PSoC5/UART_1.c ****     * Parameters:
1058:.\Generated_Source\PSoC5/UART_1.c ****     *  None.
1059:.\Generated_Source\PSoC5/UART_1.c ****     *
1060:.\Generated_Source\PSoC5/UART_1.c ****     * Return:
1061:.\Generated_Source\PSoC5/UART_1.c ****     *  Contents of the status register
1062:.\Generated_Source\PSoC5/UART_1.c ****     *
1063:.\Generated_Source\PSoC5/UART_1.c ****     * Theory:
1064:.\Generated_Source\PSoC5/UART_1.c ****     *  This function reads the status register which is clear on read. It is up to
1065:.\Generated_Source\PSoC5/UART_1.c ****     *  the user to handle all bits in this return value accordingly, even if the bit
1066:.\Generated_Source\PSoC5/UART_1.c ****     *  was not enabled as an interrupt source the event happened and must be handled
1067:.\Generated_Source\PSoC5/UART_1.c ****     *  accordingly.
1068:.\Generated_Source\PSoC5/UART_1.c ****     *
ARM GAS  C:\Users\acer\AppData\Local\Temp\ccQxlELY.s 			page 40


1069:.\Generated_Source\PSoC5/UART_1.c ****     *******************************************************************************/
1070:.\Generated_Source\PSoC5/UART_1.c ****     uint8 UART_1_ReadTxStatus(void) 
1071:.\Generated_Source\PSoC5/UART_1.c ****     {
 1040              		.loc 1 1071 0
 1041              		.cfi_startproc
 1042              		@ args = 0, pretend = 0, frame = 0
 1043              		@ frame_needed = 0, uses_anonymous_args = 0
 1044              		@ link register save eliminated.
1072:.\Generated_Source\PSoC5/UART_1.c ****         return(UART_1_TXSTATUS_REG);
 1045              		.loc 1 1072 0
 1046 0000 014B     		ldr	r3, .L95
 1047 0002 1878     		ldrb	r0, [r3]	@ zero_extendqisi2
1073:.\Generated_Source\PSoC5/UART_1.c ****     }
 1048              		.loc 1 1073 0
 1049 0004 7047     		bx	lr
 1050              	.L96:
 1051 0006 00BF     		.align	2
 1052              	.L95:
 1053 0008 62640040 		.word	1073767522
 1054              		.cfi_endproc
 1055              	.LFE22:
 1056              		.size	UART_1_ReadTxStatus, .-UART_1_ReadTxStatus
 1057              		.section	.text.UART_1_PutChar,"ax",%progbits
 1058              		.align	1
 1059              		.global	UART_1_PutChar
 1060              		.thumb
 1061              		.thumb_func
 1062              		.type	UART_1_PutChar, %function
 1063              	UART_1_PutChar:
 1064              	.LFB23:
1074:.\Generated_Source\PSoC5/UART_1.c **** 
1075:.\Generated_Source\PSoC5/UART_1.c **** 
1076:.\Generated_Source\PSoC5/UART_1.c ****     /*******************************************************************************
1077:.\Generated_Source\PSoC5/UART_1.c ****     * Function Name: UART_1_PutChar
1078:.\Generated_Source\PSoC5/UART_1.c ****     ********************************************************************************
1079:.\Generated_Source\PSoC5/UART_1.c ****     *
1080:.\Generated_Source\PSoC5/UART_1.c ****     * Summary:
1081:.\Generated_Source\PSoC5/UART_1.c ****     *  Wait to send byte until TX register or buffer has room.
1082:.\Generated_Source\PSoC5/UART_1.c ****     *
1083:.\Generated_Source\PSoC5/UART_1.c ****     * Parameters:
1084:.\Generated_Source\PSoC5/UART_1.c ****     *  txDataByte: The 8-bit data value to send across the UART.
1085:.\Generated_Source\PSoC5/UART_1.c ****     *
1086:.\Generated_Source\PSoC5/UART_1.c ****     * Return:
1087:.\Generated_Source\PSoC5/UART_1.c ****     *  None.
1088:.\Generated_Source\PSoC5/UART_1.c ****     *
1089:.\Generated_Source\PSoC5/UART_1.c ****     * Global Variables:
1090:.\Generated_Source\PSoC5/UART_1.c ****     *  UART_1_txBuffer - RAM buffer pointer for save data for transmission
1091:.\Generated_Source\PSoC5/UART_1.c ****     *  UART_1_txBufferWrite - cyclic index for write to txBuffer,
1092:.\Generated_Source\PSoC5/UART_1.c ****     *     checked to identify free space in txBuffer and incremented after each byte
1093:.\Generated_Source\PSoC5/UART_1.c ****     *     saved to buffer.
1094:.\Generated_Source\PSoC5/UART_1.c ****     *  UART_1_txBufferRead - cyclic index for read from txBuffer,
1095:.\Generated_Source\PSoC5/UART_1.c ****     *     checked to identify free space in txBuffer.
1096:.\Generated_Source\PSoC5/UART_1.c ****     *  UART_1_initVar - checked to identify that the component has been
1097:.\Generated_Source\PSoC5/UART_1.c ****     *     initialized.
1098:.\Generated_Source\PSoC5/UART_1.c ****     *
1099:.\Generated_Source\PSoC5/UART_1.c ****     * Reentrant:
1100:.\Generated_Source\PSoC5/UART_1.c ****     *  No.
ARM GAS  C:\Users\acer\AppData\Local\Temp\ccQxlELY.s 			page 41


1101:.\Generated_Source\PSoC5/UART_1.c ****     *
1102:.\Generated_Source\PSoC5/UART_1.c ****     * Theory:
1103:.\Generated_Source\PSoC5/UART_1.c ****     *  Allows the user to transmit any byte of data in a single transfer
1104:.\Generated_Source\PSoC5/UART_1.c ****     *
1105:.\Generated_Source\PSoC5/UART_1.c ****     *******************************************************************************/
1106:.\Generated_Source\PSoC5/UART_1.c ****     void UART_1_PutChar(uint8 txDataByte) 
1107:.\Generated_Source\PSoC5/UART_1.c ****     {
 1065              		.loc 1 1107 0
 1066              		.cfi_startproc
 1067              		@ args = 0, pretend = 0, frame = 0
 1068              		@ frame_needed = 0, uses_anonymous_args = 0
 1069              	.LVL51:
 1070 0000 10B5     		push	{r4, lr}
 1071              		.cfi_def_cfa_offset 8
 1072              		.cfi_offset 4, -8
 1073              		.cfi_offset 14, -4
1108:.\Generated_Source\PSoC5/UART_1.c ****             #if(UART_1_TXBUFFERSIZE > UART_1_FIFO_LENGTH)
1109:.\Generated_Source\PSoC5/UART_1.c ****                 /* The temporary output pointer is used since it takes two instructions
1110:.\Generated_Source\PSoC5/UART_1.c ****                 *  to increment with a wrap, and we can't risk doing that with the real
1111:.\Generated_Source\PSoC5/UART_1.c ****                 *  pointer and getting an interrupt in between instructions.
1112:.\Generated_Source\PSoC5/UART_1.c ****                 */
1113:.\Generated_Source\PSoC5/UART_1.c ****                 uint8 loc_txBufferWrite;
1114:.\Generated_Source\PSoC5/UART_1.c ****                 uint8 loc_txBufferRead;
1115:.\Generated_Source\PSoC5/UART_1.c **** 
1116:.\Generated_Source\PSoC5/UART_1.c ****                 do{
1117:.\Generated_Source\PSoC5/UART_1.c ****                     /* Block if software buffer is full, so we don't overwrite. */
1118:.\Generated_Source\PSoC5/UART_1.c ****                     #if ((UART_1_TXBUFFERSIZE > UART_1_MAX_BYTE_VALUE) && (CY_PSOC3))
1119:.\Generated_Source\PSoC5/UART_1.c ****                         /* Disable TX interrupt to protect variables that could change on interrupt
1120:.\Generated_Source\PSoC5/UART_1.c ****                         CyIntDisable(UART_1_TX_VECT_NUM);
1121:.\Generated_Source\PSoC5/UART_1.c ****                     #endif /* End TXBUFFERSIZE > 255 */
1122:.\Generated_Source\PSoC5/UART_1.c ****                     loc_txBufferWrite = UART_1_txBufferWrite;
 1074              		.loc 1 1122 0
 1075 0002 104C     		ldr	r4, .L106
 1076 0004 A379     		ldrb	r3, [r4, #6]	@ zero_extendqisi2
 1077              	.L100:
 1078              	.LVL52:
1123:.\Generated_Source\PSoC5/UART_1.c ****                     loc_txBufferRead = UART_1_txBufferRead;
 1079              		.loc 1 1123 0
 1080 0006 6279     		ldrb	r2, [r4, #5]	@ zero_extendqisi2
 1081 0008 D2B2     		uxtb	r2, r2
 1082              	.LVL53:
1124:.\Generated_Source\PSoC5/UART_1.c ****                     #if ((UART_1_TXBUFFERSIZE > UART_1_MAX_BYTE_VALUE) && (CY_PSOC3))
1125:.\Generated_Source\PSoC5/UART_1.c ****                         /* Enable interrupt to continue transmission */
1126:.\Generated_Source\PSoC5/UART_1.c ****                         CyIntEnable(UART_1_TX_VECT_NUM);
1127:.\Generated_Source\PSoC5/UART_1.c ****                     #endif /* End TXBUFFERSIZE > 255 */
1128:.\Generated_Source\PSoC5/UART_1.c ****                 }while( (loc_txBufferWrite < loc_txBufferRead) ? (loc_txBufferWrite == (loc_txBuffe
 1083              		.loc 1 1128 0
 1084 000a 9342     		cmp	r3, r2
 1085 000c 02D2     		bcs	.L98
 1086              		.loc 1 1128 0 is_stmt 0 discriminator 1
 1087 000e 511E     		subs	r1, r2, #1
 1088 0010 8B42     		cmp	r3, r1
 1089 0012 01E0     		b	.L105
 1090              	.L98:
1129:.\Generated_Source\PSoC5/UART_1.c ****                                         ((loc_txBufferWrite - loc_txBufferRead) ==
 1091              		.loc 1 1129 0 is_stmt 1 discriminator 2
 1092 0014 991A     		subs	r1, r3, r2
ARM GAS  C:\Users\acer\AppData\Local\Temp\ccQxlELY.s 			page 42


1128:.\Generated_Source\PSoC5/UART_1.c ****                                         ((loc_txBufferWrite - loc_txBufferRead) ==
 1093              		.loc 1 1128 0 discriminator 2
 1094 0016 0F29     		cmp	r1, #15
 1095              	.L105:
 1096 0018 14BF     		ite	ne
 1097 001a 0021     		movne	r1, #0
 1098 001c 0121     		moveq	r1, #1
1130:.\Generated_Source\PSoC5/UART_1.c ****                                         (uint8)(UART_1_TXBUFFERSIZE - 1u)) );
 1099              		.loc 1 1130 0 discriminator 2
 1100 001e 0029     		cmp	r1, #0
 1101 0020 F1D1     		bne	.L100
1131:.\Generated_Source\PSoC5/UART_1.c **** 
1132:.\Generated_Source\PSoC5/UART_1.c ****                 if( (loc_txBufferRead == loc_txBufferWrite) &&
 1102              		.loc 1 1132 0
 1103 0022 9A42     		cmp	r2, r3
 1104 0024 06D1     		bne	.L101
1133:.\Generated_Source\PSoC5/UART_1.c ****                     ((UART_1_TXSTATUS_REG & UART_1_TX_STS_FIFO_FULL) == 0u) )
 1105              		.loc 1 1133 0 discriminator 1
 1106 0026 084A     		ldr	r2, .L106+4
 1107              	.LVL54:
 1108 0028 1278     		ldrb	r2, [r2]	@ zero_extendqisi2
1132:.\Generated_Source\PSoC5/UART_1.c ****                     ((UART_1_TXSTATUS_REG & UART_1_TX_STS_FIFO_FULL) == 0u) )
 1109              		.loc 1 1132 0 discriminator 1
 1110 002a 5207     		lsls	r2, r2, #29
 1111 002c 02D4     		bmi	.L101
1134:.\Generated_Source\PSoC5/UART_1.c ****                 {
1135:.\Generated_Source\PSoC5/UART_1.c ****                     /* Add directly to the FIFO. */
1136:.\Generated_Source\PSoC5/UART_1.c ****                     UART_1_TXDATA_REG = txDataByte;
 1112              		.loc 1 1136 0
 1113 002e 074B     		ldr	r3, .L106+8
 1114 0030 1870     		strb	r0, [r3]
 1115              	.LVL55:
 1116 0032 10BD     		pop	{r4, pc}
 1117              	.LVL56:
 1118              	.L101:
1137:.\Generated_Source\PSoC5/UART_1.c ****                 }
1138:.\Generated_Source\PSoC5/UART_1.c ****                 else
1139:.\Generated_Source\PSoC5/UART_1.c ****                 {
1140:.\Generated_Source\PSoC5/UART_1.c ****                     if(loc_txBufferWrite >= UART_1_TXBUFFERSIZE)
1141:.\Generated_Source\PSoC5/UART_1.c ****                     {
1142:.\Generated_Source\PSoC5/UART_1.c ****                         loc_txBufferWrite = 0u;
 1119              		.loc 1 1142 0
 1120 0034 102B     		cmp	r3, #16
1143:.\Generated_Source\PSoC5/UART_1.c ****                     }
1144:.\Generated_Source\PSoC5/UART_1.c ****                     /* Add to the software buffer. */
1145:.\Generated_Source\PSoC5/UART_1.c ****                     UART_1_txBuffer[loc_txBufferWrite] = txDataByte;
 1121              		.loc 1 1145 0
 1122 0036 064A     		ldr	r2, .L106+12
1142:.\Generated_Source\PSoC5/UART_1.c ****                     }
 1123              		.loc 1 1142 0
 1124 0038 28BF     		it	cs
 1125 003a 0023     		movcs	r3, #0
 1126              	.LVL57:
 1127              		.loc 1 1145 0
 1128 003c D054     		strb	r0, [r2, r3]
 1129              	.LVL58:
1146:.\Generated_Source\PSoC5/UART_1.c ****                     loc_txBufferWrite++;
ARM GAS  C:\Users\acer\AppData\Local\Temp\ccQxlELY.s 			page 43


 1130              		.loc 1 1146 0
 1131 003e 0133     		adds	r3, r3, #1
 1132              	.LVL59:
1147:.\Generated_Source\PSoC5/UART_1.c **** 
1148:.\Generated_Source\PSoC5/UART_1.c ****                     /* Finally, update the real output pointer */
1149:.\Generated_Source\PSoC5/UART_1.c ****                     #if ((UART_1_TXBUFFERSIZE > UART_1_MAX_BYTE_VALUE) && (CY_PSOC3))
1150:.\Generated_Source\PSoC5/UART_1.c ****                         CyIntDisable(UART_1_TX_VECT_NUM);
1151:.\Generated_Source\PSoC5/UART_1.c ****                     #endif /* End TXBUFFERSIZE > 255 */
1152:.\Generated_Source\PSoC5/UART_1.c ****                     UART_1_txBufferWrite = loc_txBufferWrite;
 1133              		.loc 1 1152 0
 1134 0040 A371     		strb	r3, [r4, #6]
 1135 0042 10BD     		pop	{r4, pc}
 1136              	.L107:
 1137              		.align	2
 1138              	.L106:
 1139 0044 00000000 		.word	.LANCHOR0
 1140 0048 62640040 		.word	1073767522
 1141 004c 42640040 		.word	1073767490
 1142 0050 00000000 		.word	UART_1_txBuffer
 1143              		.cfi_endproc
 1144              	.LFE23:
 1145              		.size	UART_1_PutChar, .-UART_1_PutChar
 1146              		.section	.text.UART_1_PutString,"ax",%progbits
 1147              		.align	1
 1148              		.global	UART_1_PutString
 1149              		.thumb
 1150              		.thumb_func
 1151              		.type	UART_1_PutString, %function
 1152              	UART_1_PutString:
 1153              	.LFB24:
1153:.\Generated_Source\PSoC5/UART_1.c ****                     #if ((UART_1_TXBUFFERSIZE > UART_1_MAX_BYTE_VALUE) && (CY_PSOC3))
1154:.\Generated_Source\PSoC5/UART_1.c ****                         CyIntEnable(UART_1_TX_VECT_NUM);
1155:.\Generated_Source\PSoC5/UART_1.c ****                     #endif /* End TXBUFFERSIZE > 255 */
1156:.\Generated_Source\PSoC5/UART_1.c ****                 }
1157:.\Generated_Source\PSoC5/UART_1.c **** 
1158:.\Generated_Source\PSoC5/UART_1.c ****             #else /* UART_1_TXBUFFERSIZE > UART_1_FIFO_LENGTH */
1159:.\Generated_Source\PSoC5/UART_1.c **** 
1160:.\Generated_Source\PSoC5/UART_1.c ****                 while((UART_1_TXSTATUS_REG & UART_1_TX_STS_FIFO_FULL) != 0u)
1161:.\Generated_Source\PSoC5/UART_1.c ****                 {
1162:.\Generated_Source\PSoC5/UART_1.c ****                     ; /* Wait for room in the FIFO. */
1163:.\Generated_Source\PSoC5/UART_1.c ****                 }
1164:.\Generated_Source\PSoC5/UART_1.c **** 
1165:.\Generated_Source\PSoC5/UART_1.c ****                 /* Add directly to the FIFO. */
1166:.\Generated_Source\PSoC5/UART_1.c ****                 UART_1_TXDATA_REG = txDataByte;
1167:.\Generated_Source\PSoC5/UART_1.c **** 
1168:.\Generated_Source\PSoC5/UART_1.c ****             #endif /* End UART_1_TXBUFFERSIZE > UART_1_FIFO_LENGTH */
1169:.\Generated_Source\PSoC5/UART_1.c ****     }
1170:.\Generated_Source\PSoC5/UART_1.c **** 
1171:.\Generated_Source\PSoC5/UART_1.c **** 
1172:.\Generated_Source\PSoC5/UART_1.c ****     /*******************************************************************************
1173:.\Generated_Source\PSoC5/UART_1.c ****     * Function Name: UART_1_PutString
1174:.\Generated_Source\PSoC5/UART_1.c ****     ********************************************************************************
1175:.\Generated_Source\PSoC5/UART_1.c ****     *
1176:.\Generated_Source\PSoC5/UART_1.c ****     * Summary:
1177:.\Generated_Source\PSoC5/UART_1.c ****     *  Write a Sequence of bytes on the Transmit line. Data comes from RAM or ROM.
1178:.\Generated_Source\PSoC5/UART_1.c ****     *
1179:.\Generated_Source\PSoC5/UART_1.c ****     * Parameters:
ARM GAS  C:\Users\acer\AppData\Local\Temp\ccQxlELY.s 			page 44


1180:.\Generated_Source\PSoC5/UART_1.c ****     *  string: char pointer to character string of Data to Send.
1181:.\Generated_Source\PSoC5/UART_1.c ****     *
1182:.\Generated_Source\PSoC5/UART_1.c ****     * Return:
1183:.\Generated_Source\PSoC5/UART_1.c ****     *  None.
1184:.\Generated_Source\PSoC5/UART_1.c ****     *
1185:.\Generated_Source\PSoC5/UART_1.c ****     * Global Variables:
1186:.\Generated_Source\PSoC5/UART_1.c ****     *  UART_1_initVar - checked to identify that the component has been
1187:.\Generated_Source\PSoC5/UART_1.c ****     *     initialized.
1188:.\Generated_Source\PSoC5/UART_1.c ****     *
1189:.\Generated_Source\PSoC5/UART_1.c ****     * Reentrant:
1190:.\Generated_Source\PSoC5/UART_1.c ****     *  No.
1191:.\Generated_Source\PSoC5/UART_1.c ****     *
1192:.\Generated_Source\PSoC5/UART_1.c ****     * Theory:
1193:.\Generated_Source\PSoC5/UART_1.c ****     *  This function will block if there is not enough memory to place the whole
1194:.\Generated_Source\PSoC5/UART_1.c ****     *  string, it will block until the entire string has been written to the
1195:.\Generated_Source\PSoC5/UART_1.c ****     *  transmit buffer.
1196:.\Generated_Source\PSoC5/UART_1.c ****     *
1197:.\Generated_Source\PSoC5/UART_1.c ****     *******************************************************************************/
1198:.\Generated_Source\PSoC5/UART_1.c ****     void UART_1_PutString(const char8 string[]) 
1199:.\Generated_Source\PSoC5/UART_1.c ****     {
 1154              		.loc 1 1199 0
 1155              		.cfi_startproc
 1156              		@ args = 0, pretend = 0, frame = 0
 1157              		@ frame_needed = 0, uses_anonymous_args = 0
 1158              	.LVL60:
 1159 0000 38B5     		push	{r3, r4, r5, lr}
 1160              		.cfi_def_cfa_offset 16
 1161              		.cfi_offset 3, -16
 1162              		.cfi_offset 4, -12
 1163              		.cfi_offset 5, -8
 1164              		.cfi_offset 14, -4
1200:.\Generated_Source\PSoC5/UART_1.c ****         uint16 buf_index = 0u;
1201:.\Generated_Source\PSoC5/UART_1.c ****         /* If not Initialized then skip this function*/
1202:.\Generated_Source\PSoC5/UART_1.c ****         if(UART_1_initVar != 0u)
 1165              		.loc 1 1202 0
 1166 0002 074B     		ldr	r3, .L114
1199:.\Generated_Source\PSoC5/UART_1.c ****         uint16 buf_index = 0u;
 1167              		.loc 1 1199 0
 1168 0004 0546     		mov	r5, r0
 1169              		.loc 1 1202 0
 1170 0006 1B78     		ldrb	r3, [r3]	@ zero_extendqisi2
 1171 0008 03B9     		cbnz	r3, .L112
 1172 000a 38BD     		pop	{r3, r4, r5, pc}
 1173              	.L112:
 1174 000c 0024     		movs	r4, #0
 1175              	.LVL61:
 1176              	.L109:
1203:.\Generated_Source\PSoC5/UART_1.c ****         {
1204:.\Generated_Source\PSoC5/UART_1.c ****             /* This is a blocking function, it will not exit until all data is sent*/
1205:.\Generated_Source\PSoC5/UART_1.c ****             while(string[buf_index] != (char8)0)
 1177              		.loc 1 1205 0
 1178 000e A3B2     		uxth	r3, r4
 1179              	.LVL62:
 1180 0010 E85C     		ldrb	r0, [r5, r3]	@ zero_extendqisi2
 1181 0012 0134     		adds	r4, r4, #1
 1182 0014 10B1     		cbz	r0, .L113
1206:.\Generated_Source\PSoC5/UART_1.c ****             {
ARM GAS  C:\Users\acer\AppData\Local\Temp\ccQxlELY.s 			page 45


1207:.\Generated_Source\PSoC5/UART_1.c ****                 UART_1_PutChar((uint8)string[buf_index]);
 1183              		.loc 1 1207 0
 1184 0016 FFF7FEFF 		bl	UART_1_PutChar
 1185              	.LVL63:
 1186 001a F8E7     		b	.L109
 1187              	.LVL64:
 1188              	.L113:
 1189 001c 38BD     		pop	{r3, r4, r5, pc}
 1190              	.LVL65:
 1191              	.L115:
 1192 001e 00BF     		.align	2
 1193              	.L114:
 1194 0020 00000000 		.word	.LANCHOR0
 1195              		.cfi_endproc
 1196              	.LFE24:
 1197              		.size	UART_1_PutString, .-UART_1_PutString
 1198              		.section	.text.UART_1_PutArray,"ax",%progbits
 1199              		.align	1
 1200              		.global	UART_1_PutArray
 1201              		.thumb
 1202              		.thumb_func
 1203              		.type	UART_1_PutArray, %function
 1204              	UART_1_PutArray:
 1205              	.LFB25:
1208:.\Generated_Source\PSoC5/UART_1.c ****                 buf_index++;
1209:.\Generated_Source\PSoC5/UART_1.c ****             }
1210:.\Generated_Source\PSoC5/UART_1.c ****         }
1211:.\Generated_Source\PSoC5/UART_1.c ****     }
1212:.\Generated_Source\PSoC5/UART_1.c **** 
1213:.\Generated_Source\PSoC5/UART_1.c **** 
1214:.\Generated_Source\PSoC5/UART_1.c ****     /*******************************************************************************
1215:.\Generated_Source\PSoC5/UART_1.c ****     * Function Name: UART_1_PutArray
1216:.\Generated_Source\PSoC5/UART_1.c ****     ********************************************************************************
1217:.\Generated_Source\PSoC5/UART_1.c ****     *
1218:.\Generated_Source\PSoC5/UART_1.c ****     * Summary:
1219:.\Generated_Source\PSoC5/UART_1.c ****     *  Write a Sequence of bytes on the Transmit line. Data comes from RAM or ROM.
1220:.\Generated_Source\PSoC5/UART_1.c ****     *
1221:.\Generated_Source\PSoC5/UART_1.c ****     * Parameters:
1222:.\Generated_Source\PSoC5/UART_1.c ****     *  string: Address of the memory array residing in RAM or ROM.
1223:.\Generated_Source\PSoC5/UART_1.c ****     *  byteCount: Number of Bytes to be transmitted.
1224:.\Generated_Source\PSoC5/UART_1.c ****     *
1225:.\Generated_Source\PSoC5/UART_1.c ****     * Return:
1226:.\Generated_Source\PSoC5/UART_1.c ****     *  None.
1227:.\Generated_Source\PSoC5/UART_1.c ****     *
1228:.\Generated_Source\PSoC5/UART_1.c ****     * Global Variables:
1229:.\Generated_Source\PSoC5/UART_1.c ****     *  UART_1_initVar - checked to identify that the component has been
1230:.\Generated_Source\PSoC5/UART_1.c ****     *     initialized.
1231:.\Generated_Source\PSoC5/UART_1.c ****     *
1232:.\Generated_Source\PSoC5/UART_1.c ****     * Reentrant:
1233:.\Generated_Source\PSoC5/UART_1.c ****     *  No.
1234:.\Generated_Source\PSoC5/UART_1.c ****     *
1235:.\Generated_Source\PSoC5/UART_1.c ****     *******************************************************************************/
1236:.\Generated_Source\PSoC5/UART_1.c ****     void UART_1_PutArray(const uint8 string[], uint8 byteCount)
1237:.\Generated_Source\PSoC5/UART_1.c ****                                                                     
1238:.\Generated_Source\PSoC5/UART_1.c ****     {
 1206              		.loc 1 1238 0
 1207              		.cfi_startproc
ARM GAS  C:\Users\acer\AppData\Local\Temp\ccQxlELY.s 			page 46


 1208              		@ args = 0, pretend = 0, frame = 0
 1209              		@ frame_needed = 0, uses_anonymous_args = 0
 1210              	.LVL66:
 1211 0000 70B5     		push	{r4, r5, r6, lr}
 1212              		.cfi_def_cfa_offset 16
 1213              		.cfi_offset 4, -16
 1214              		.cfi_offset 5, -12
 1215              		.cfi_offset 6, -8
 1216              		.cfi_offset 14, -4
1239:.\Generated_Source\PSoC5/UART_1.c ****         uint8 buf_index = 0u;
1240:.\Generated_Source\PSoC5/UART_1.c ****         /* If not Initialized then skip this function*/
1241:.\Generated_Source\PSoC5/UART_1.c ****         if(UART_1_initVar != 0u)
 1217              		.loc 1 1241 0
 1218 0002 074B     		ldr	r3, .L121
1238:.\Generated_Source\PSoC5/UART_1.c ****         uint8 buf_index = 0u;
 1219              		.loc 1 1238 0
 1220 0004 0546     		mov	r5, r0
 1221              		.loc 1 1241 0
 1222 0006 1B78     		ldrb	r3, [r3]	@ zero_extendqisi2
1238:.\Generated_Source\PSoC5/UART_1.c ****         uint8 buf_index = 0u;
 1223              		.loc 1 1238 0
 1224 0008 0E46     		mov	r6, r1
 1225              		.loc 1 1241 0
 1226 000a 43B1     		cbz	r3, .L116
 1227 000c 0446     		mov	r4, r0
 1228              	.LVL67:
 1229              	.L118:
1242:.\Generated_Source\PSoC5/UART_1.c ****         {
1243:.\Generated_Source\PSoC5/UART_1.c ****             do
1244:.\Generated_Source\PSoC5/UART_1.c ****             {
1245:.\Generated_Source\PSoC5/UART_1.c ****                 UART_1_PutChar(string[buf_index]);
 1230              		.loc 1 1245 0 discriminator 1
 1231 000e 14F8010B 		ldrb	r0, [r4], #1	@ zero_extendqisi2
 1232              	.LVL68:
 1233 0012 FFF7FEFF 		bl	UART_1_PutChar
 1234              	.LVL69:
 1235 0016 631B     		subs	r3, r4, r5
1246:.\Generated_Source\PSoC5/UART_1.c ****                 buf_index++;
1247:.\Generated_Source\PSoC5/UART_1.c ****             }while(buf_index < byteCount);
 1236              		.loc 1 1247 0 discriminator 1
 1237 0018 DBB2     		uxtb	r3, r3
 1238 001a B342     		cmp	r3, r6
 1239 001c F7D3     		bcc	.L118
 1240              	.LVL70:
 1241              	.L116:
 1242 001e 70BD     		pop	{r4, r5, r6, pc}
 1243              	.LVL71:
 1244              	.L122:
 1245              		.align	2
 1246              	.L121:
 1247 0020 00000000 		.word	.LANCHOR0
 1248              		.cfi_endproc
 1249              	.LFE25:
 1250              		.size	UART_1_PutArray, .-UART_1_PutArray
 1251              		.section	.text.UART_1_PutCRLF,"ax",%progbits
 1252              		.align	1
 1253              		.global	UART_1_PutCRLF
ARM GAS  C:\Users\acer\AppData\Local\Temp\ccQxlELY.s 			page 47


 1254              		.thumb
 1255              		.thumb_func
 1256              		.type	UART_1_PutCRLF, %function
 1257              	UART_1_PutCRLF:
 1258              	.LFB26:
1248:.\Generated_Source\PSoC5/UART_1.c ****         }
1249:.\Generated_Source\PSoC5/UART_1.c ****     }
1250:.\Generated_Source\PSoC5/UART_1.c **** 
1251:.\Generated_Source\PSoC5/UART_1.c **** 
1252:.\Generated_Source\PSoC5/UART_1.c ****     /*******************************************************************************
1253:.\Generated_Source\PSoC5/UART_1.c ****     * Function Name: UART_1_PutCRLF
1254:.\Generated_Source\PSoC5/UART_1.c ****     ********************************************************************************
1255:.\Generated_Source\PSoC5/UART_1.c ****     *
1256:.\Generated_Source\PSoC5/UART_1.c ****     * Summary:
1257:.\Generated_Source\PSoC5/UART_1.c ****     *  Write a character and then carriage return and line feed.
1258:.\Generated_Source\PSoC5/UART_1.c ****     *
1259:.\Generated_Source\PSoC5/UART_1.c ****     * Parameters:
1260:.\Generated_Source\PSoC5/UART_1.c ****     *  txDataByte: uint8 Character to send.
1261:.\Generated_Source\PSoC5/UART_1.c ****     *
1262:.\Generated_Source\PSoC5/UART_1.c ****     * Return:
1263:.\Generated_Source\PSoC5/UART_1.c ****     *  None.
1264:.\Generated_Source\PSoC5/UART_1.c ****     *
1265:.\Generated_Source\PSoC5/UART_1.c ****     * Global Variables:
1266:.\Generated_Source\PSoC5/UART_1.c ****     *  UART_1_initVar - checked to identify that the component has been
1267:.\Generated_Source\PSoC5/UART_1.c ****     *     initialized.
1268:.\Generated_Source\PSoC5/UART_1.c ****     *
1269:.\Generated_Source\PSoC5/UART_1.c ****     * Reentrant:
1270:.\Generated_Source\PSoC5/UART_1.c ****     *  No.
1271:.\Generated_Source\PSoC5/UART_1.c ****     *
1272:.\Generated_Source\PSoC5/UART_1.c ****     *******************************************************************************/
1273:.\Generated_Source\PSoC5/UART_1.c ****     void UART_1_PutCRLF(uint8 txDataByte) 
1274:.\Generated_Source\PSoC5/UART_1.c ****     {
 1259              		.loc 1 1274 0
 1260              		.cfi_startproc
 1261              		@ args = 0, pretend = 0, frame = 0
 1262              		@ frame_needed = 0, uses_anonymous_args = 0
 1263              	.LVL72:
 1264 0000 08B5     		push	{r3, lr}
 1265              		.cfi_def_cfa_offset 8
 1266              		.cfi_offset 3, -8
 1267              		.cfi_offset 14, -4
1275:.\Generated_Source\PSoC5/UART_1.c ****         /* If not Initialized then skip this function*/
1276:.\Generated_Source\PSoC5/UART_1.c ****         if(UART_1_initVar != 0u)
 1268              		.loc 1 1276 0
 1269 0002 074B     		ldr	r3, .L125
 1270 0004 1B78     		ldrb	r3, [r3]	@ zero_extendqisi2
 1271 0006 4BB1     		cbz	r3, .L123
1277:.\Generated_Source\PSoC5/UART_1.c ****         {
1278:.\Generated_Source\PSoC5/UART_1.c ****             UART_1_PutChar(txDataByte);
 1272              		.loc 1 1278 0
 1273 0008 FFF7FEFF 		bl	UART_1_PutChar
 1274              	.LVL73:
1279:.\Generated_Source\PSoC5/UART_1.c ****             UART_1_PutChar(0x0Du);
 1275              		.loc 1 1279 0
 1276 000c 0D20     		movs	r0, #13
 1277 000e FFF7FEFF 		bl	UART_1_PutChar
 1278              	.LVL74:
ARM GAS  C:\Users\acer\AppData\Local\Temp\ccQxlELY.s 			page 48


1280:.\Generated_Source\PSoC5/UART_1.c ****             UART_1_PutChar(0x0Au);
1281:.\Generated_Source\PSoC5/UART_1.c ****         }
1282:.\Generated_Source\PSoC5/UART_1.c ****     }
 1279              		.loc 1 1282 0
 1280 0012 BDE80840 		pop	{r3, lr}
 1281              		.cfi_remember_state
 1282              		.cfi_restore 14
 1283              		.cfi_restore 3
 1284              		.cfi_def_cfa_offset 0
1280:.\Generated_Source\PSoC5/UART_1.c ****             UART_1_PutChar(0x0Au);
 1285              		.loc 1 1280 0
 1286 0016 0A20     		movs	r0, #10
 1287 0018 FFF7FEBF 		b	UART_1_PutChar
 1288              	.LVL75:
 1289              	.L123:
 1290              		.cfi_restore_state
 1291 001c 08BD     		pop	{r3, pc}
 1292              	.L126:
 1293 001e 00BF     		.align	2
 1294              	.L125:
 1295 0020 00000000 		.word	.LANCHOR0
 1296              		.cfi_endproc
 1297              	.LFE26:
 1298              		.size	UART_1_PutCRLF, .-UART_1_PutCRLF
 1299              		.section	.text.UART_1_GetTxBufferSize,"ax",%progbits
 1300              		.align	1
 1301              		.global	UART_1_GetTxBufferSize
 1302              		.thumb
 1303              		.thumb_func
 1304              		.type	UART_1_GetTxBufferSize, %function
 1305              	UART_1_GetTxBufferSize:
 1306              	.LFB27:
1283:.\Generated_Source\PSoC5/UART_1.c **** 
1284:.\Generated_Source\PSoC5/UART_1.c **** 
1285:.\Generated_Source\PSoC5/UART_1.c ****     /*******************************************************************************
1286:.\Generated_Source\PSoC5/UART_1.c ****     * Function Name: UART_1_GetTxBufferSize
1287:.\Generated_Source\PSoC5/UART_1.c ****     ********************************************************************************
1288:.\Generated_Source\PSoC5/UART_1.c ****     *
1289:.\Generated_Source\PSoC5/UART_1.c ****     * Summary:
1290:.\Generated_Source\PSoC5/UART_1.c ****     *  Determine the amount of space left in the TX buffer and return the count in
1291:.\Generated_Source\PSoC5/UART_1.c ****     *  bytes
1292:.\Generated_Source\PSoC5/UART_1.c ****     *
1293:.\Generated_Source\PSoC5/UART_1.c ****     * Parameters:
1294:.\Generated_Source\PSoC5/UART_1.c ****     *  None.
1295:.\Generated_Source\PSoC5/UART_1.c ****     *
1296:.\Generated_Source\PSoC5/UART_1.c ****     * Return:
1297:.\Generated_Source\PSoC5/UART_1.c ****     *  Integer count of the number of bytes left in the TX buffer
1298:.\Generated_Source\PSoC5/UART_1.c ****     *
1299:.\Generated_Source\PSoC5/UART_1.c ****     * Global Variables:
1300:.\Generated_Source\PSoC5/UART_1.c ****     *  UART_1_txBufferWrite - used to calculate left space.
1301:.\Generated_Source\PSoC5/UART_1.c ****     *  UART_1_txBufferRead - used to calculate left space.
1302:.\Generated_Source\PSoC5/UART_1.c ****     *
1303:.\Generated_Source\PSoC5/UART_1.c ****     * Reentrant:
1304:.\Generated_Source\PSoC5/UART_1.c ****     *  No.
1305:.\Generated_Source\PSoC5/UART_1.c ****     *
1306:.\Generated_Source\PSoC5/UART_1.c ****     * Theory:
1307:.\Generated_Source\PSoC5/UART_1.c ****     *  Allows the user to find out how full the TX Buffer is.
ARM GAS  C:\Users\acer\AppData\Local\Temp\ccQxlELY.s 			page 49


1308:.\Generated_Source\PSoC5/UART_1.c ****     *
1309:.\Generated_Source\PSoC5/UART_1.c ****     *******************************************************************************/
1310:.\Generated_Source\PSoC5/UART_1.c ****     uint8 UART_1_GetTxBufferSize(void)
1311:.\Generated_Source\PSoC5/UART_1.c ****                                                             
1312:.\Generated_Source\PSoC5/UART_1.c ****     {
 1307              		.loc 1 1312 0
 1308              		.cfi_startproc
 1309              		@ args = 0, pretend = 0, frame = 0
 1310              		@ frame_needed = 0, uses_anonymous_args = 0
 1311              		@ link register save eliminated.
 1312              	.LBB58:
 1313              	.LBB59:
 944:.\Generated_Source\PSoC5/UART_1.c ****         }
 1314              		.loc 1 944 0
 1315 0000 0A4B     		ldr	r3, .L132
 1316 0002 0422     		movs	r2, #4
 1317 0004 1A60     		str	r2, [r3]
 1318              	.LBE59:
 1319              	.LBE58:
1313:.\Generated_Source\PSoC5/UART_1.c ****         uint8 size;
1314:.\Generated_Source\PSoC5/UART_1.c **** 
1315:.\Generated_Source\PSoC5/UART_1.c ****         #if(UART_1_TXBUFFERSIZE > UART_1_FIFO_LENGTH)
1316:.\Generated_Source\PSoC5/UART_1.c **** 
1317:.\Generated_Source\PSoC5/UART_1.c ****             /* Disable Tx interrupt. */
1318:.\Generated_Source\PSoC5/UART_1.c ****             /* Protect variables that could change on interrupt. */
1319:.\Generated_Source\PSoC5/UART_1.c ****             #if(UART_1_TX_INTERRUPT_ENABLED)
1320:.\Generated_Source\PSoC5/UART_1.c ****                 UART_1_DisableTxInt();
1321:.\Generated_Source\PSoC5/UART_1.c ****             #endif /* End UART_1_TX_INTERRUPT_ENABLED */
1322:.\Generated_Source\PSoC5/UART_1.c **** 
1323:.\Generated_Source\PSoC5/UART_1.c ****             if(UART_1_txBufferRead == UART_1_txBufferWrite)
 1320              		.loc 1 1323 0
 1321 0006 0A4A     		ldr	r2, .L132+4
 1322 0008 5179     		ldrb	r1, [r2, #5]	@ zero_extendqisi2
 1323 000a 9379     		ldrb	r3, [r2, #6]	@ zero_extendqisi2
 1324 000c 9942     		cmp	r1, r3
 1325 000e 07D0     		beq	.L130
1324:.\Generated_Source\PSoC5/UART_1.c ****             {
1325:.\Generated_Source\PSoC5/UART_1.c ****                 size = 0u;
1326:.\Generated_Source\PSoC5/UART_1.c ****             }
1327:.\Generated_Source\PSoC5/UART_1.c ****             else if(UART_1_txBufferRead < UART_1_txBufferWrite)
 1326              		.loc 1 1327 0
 1327 0010 5179     		ldrb	r1, [r2, #5]	@ zero_extendqisi2
1328:.\Generated_Source\PSoC5/UART_1.c ****             {
1329:.\Generated_Source\PSoC5/UART_1.c ****                 size = (UART_1_txBufferWrite - UART_1_txBufferRead);
 1328              		.loc 1 1329 0
 1329 0012 5079     		ldrb	r0, [r2, #5]	@ zero_extendqisi2
1327:.\Generated_Source\PSoC5/UART_1.c ****             {
 1330              		.loc 1 1327 0
 1331 0014 9942     		cmp	r1, r3
 1332 0016 28BF     		it	cs
 1333 0018 1033     		addcs	r3, r3, #16
1330:.\Generated_Source\PSoC5/UART_1.c ****             }
1331:.\Generated_Source\PSoC5/UART_1.c ****             else
1332:.\Generated_Source\PSoC5/UART_1.c ****             {
1333:.\Generated_Source\PSoC5/UART_1.c ****                 size = (UART_1_TXBUFFERSIZE - UART_1_txBufferRead) + UART_1_txBufferWrite;
 1334              		.loc 1 1333 0
 1335 001a 181A     		subs	r0, r3, r0
ARM GAS  C:\Users\acer\AppData\Local\Temp\ccQxlELY.s 			page 50


 1336 001c C0B2     		uxtb	r0, r0
 1337              	.LVL76:
 1338 001e 00E0     		b	.L128
 1339              	.LVL77:
 1340              	.L130:
1325:.\Generated_Source\PSoC5/UART_1.c ****             }
 1341              		.loc 1 1325 0
 1342 0020 0020     		movs	r0, #0
 1343              	.L128:
 1344              	.LVL78:
 1345              	.LBB60:
 1346              	.LBB61:
 921:.\Generated_Source\PSoC5/UART_1.c ****         }
 1347              		.loc 1 921 0
 1348 0022 044B     		ldr	r3, .L132+8
 1349 0024 0422     		movs	r2, #4
 1350 0026 1A60     		str	r2, [r3]
 1351              	.LBE61:
 1352              	.LBE60:
1334:.\Generated_Source\PSoC5/UART_1.c ****             }
1335:.\Generated_Source\PSoC5/UART_1.c **** 
1336:.\Generated_Source\PSoC5/UART_1.c ****             /* Enable Tx interrupt. */
1337:.\Generated_Source\PSoC5/UART_1.c ****             #if(UART_1_TX_INTERRUPT_ENABLED)
1338:.\Generated_Source\PSoC5/UART_1.c ****                 UART_1_EnableTxInt();
1339:.\Generated_Source\PSoC5/UART_1.c ****             #endif /* End UART_1_TX_INTERRUPT_ENABLED */
1340:.\Generated_Source\PSoC5/UART_1.c **** 
1341:.\Generated_Source\PSoC5/UART_1.c ****         #else /* UART_1_TXBUFFERSIZE > UART_1_FIFO_LENGTH */
1342:.\Generated_Source\PSoC5/UART_1.c **** 
1343:.\Generated_Source\PSoC5/UART_1.c ****             size = UART_1_TXSTATUS_REG;
1344:.\Generated_Source\PSoC5/UART_1.c **** 
1345:.\Generated_Source\PSoC5/UART_1.c ****             /* Is the fifo is full. */
1346:.\Generated_Source\PSoC5/UART_1.c ****             if((size & UART_1_TX_STS_FIFO_FULL) != 0u)
1347:.\Generated_Source\PSoC5/UART_1.c ****             {
1348:.\Generated_Source\PSoC5/UART_1.c ****                 size = UART_1_FIFO_LENGTH;
1349:.\Generated_Source\PSoC5/UART_1.c ****             }
1350:.\Generated_Source\PSoC5/UART_1.c ****             else if((size & UART_1_TX_STS_FIFO_EMPTY) != 0u)
1351:.\Generated_Source\PSoC5/UART_1.c ****             {
1352:.\Generated_Source\PSoC5/UART_1.c ****                 size = 0u;
1353:.\Generated_Source\PSoC5/UART_1.c ****             }
1354:.\Generated_Source\PSoC5/UART_1.c ****             else
1355:.\Generated_Source\PSoC5/UART_1.c ****             {
1356:.\Generated_Source\PSoC5/UART_1.c ****                 /* We only know there is data in the fifo. */
1357:.\Generated_Source\PSoC5/UART_1.c ****                 size = 1u;
1358:.\Generated_Source\PSoC5/UART_1.c ****             }
1359:.\Generated_Source\PSoC5/UART_1.c **** 
1360:.\Generated_Source\PSoC5/UART_1.c ****         #endif /* End UART_1_TXBUFFERSIZE > UART_1_FIFO_LENGTH */
1361:.\Generated_Source\PSoC5/UART_1.c **** 
1362:.\Generated_Source\PSoC5/UART_1.c ****         return(size);
1363:.\Generated_Source\PSoC5/UART_1.c ****     }
 1353              		.loc 1 1363 0
 1354 0028 7047     		bx	lr
 1355              	.L133:
 1356 002a 00BF     		.align	2
 1357              	.L132:
 1358 002c 80E100E0 		.word	-536813184
 1359 0030 00000000 		.word	.LANCHOR0
 1360 0034 00E100E0 		.word	-536813312
ARM GAS  C:\Users\acer\AppData\Local\Temp\ccQxlELY.s 			page 51


 1361              		.cfi_endproc
 1362              	.LFE27:
 1363              		.size	UART_1_GetTxBufferSize, .-UART_1_GetTxBufferSize
 1364              		.section	.text.UART_1_ClearTxBuffer,"ax",%progbits
 1365              		.align	1
 1366              		.global	UART_1_ClearTxBuffer
 1367              		.thumb
 1368              		.thumb_func
 1369              		.type	UART_1_ClearTxBuffer, %function
 1370              	UART_1_ClearTxBuffer:
 1371              	.LFB28:
1364:.\Generated_Source\PSoC5/UART_1.c **** 
1365:.\Generated_Source\PSoC5/UART_1.c **** 
1366:.\Generated_Source\PSoC5/UART_1.c ****     /*******************************************************************************
1367:.\Generated_Source\PSoC5/UART_1.c ****     * Function Name: UART_1_ClearTxBuffer
1368:.\Generated_Source\PSoC5/UART_1.c ****     ********************************************************************************
1369:.\Generated_Source\PSoC5/UART_1.c ****     *
1370:.\Generated_Source\PSoC5/UART_1.c ****     * Summary:
1371:.\Generated_Source\PSoC5/UART_1.c ****     *  Clears the TX RAM buffer by setting the read and write pointers both to zero.
1372:.\Generated_Source\PSoC5/UART_1.c ****     *  Clears the hardware TX FIFO.  Any data present in the FIFO will not be sent.
1373:.\Generated_Source\PSoC5/UART_1.c ****     *
1374:.\Generated_Source\PSoC5/UART_1.c ****     * Parameters:
1375:.\Generated_Source\PSoC5/UART_1.c ****     *  None.
1376:.\Generated_Source\PSoC5/UART_1.c ****     *
1377:.\Generated_Source\PSoC5/UART_1.c ****     * Return:
1378:.\Generated_Source\PSoC5/UART_1.c ****     *  None.
1379:.\Generated_Source\PSoC5/UART_1.c ****     *
1380:.\Generated_Source\PSoC5/UART_1.c ****     * Global Variables:
1381:.\Generated_Source\PSoC5/UART_1.c ****     *  UART_1_txBufferWrite - cleared to zero.
1382:.\Generated_Source\PSoC5/UART_1.c ****     *  UART_1_txBufferRead - cleared to zero.
1383:.\Generated_Source\PSoC5/UART_1.c ****     *
1384:.\Generated_Source\PSoC5/UART_1.c ****     * Reentrant:
1385:.\Generated_Source\PSoC5/UART_1.c ****     *  No.
1386:.\Generated_Source\PSoC5/UART_1.c ****     *
1387:.\Generated_Source\PSoC5/UART_1.c ****     * Theory:
1388:.\Generated_Source\PSoC5/UART_1.c ****     *  Setting the pointers to zero makes the system believe there is no data to
1389:.\Generated_Source\PSoC5/UART_1.c ****     *  read and writing will resume at address 0 overwriting any data that may have
1390:.\Generated_Source\PSoC5/UART_1.c ****     *  remained in the RAM.
1391:.\Generated_Source\PSoC5/UART_1.c ****     *
1392:.\Generated_Source\PSoC5/UART_1.c ****     * Side Effects:
1393:.\Generated_Source\PSoC5/UART_1.c ****     *  Any received data not read from the RAM buffer will be lost when overwritten.
1394:.\Generated_Source\PSoC5/UART_1.c ****     *
1395:.\Generated_Source\PSoC5/UART_1.c ****     *******************************************************************************/
1396:.\Generated_Source\PSoC5/UART_1.c ****     void UART_1_ClearTxBuffer(void) 
1397:.\Generated_Source\PSoC5/UART_1.c ****     {
 1372              		.loc 1 1397 0
 1373              		.cfi_startproc
 1374              		@ args = 0, pretend = 0, frame = 0
 1375              		@ frame_needed = 0, uses_anonymous_args = 0
 1376 0000 08B5     		push	{r3, lr}
 1377              		.cfi_def_cfa_offset 8
 1378              		.cfi_offset 3, -8
 1379              		.cfi_offset 14, -4
1398:.\Generated_Source\PSoC5/UART_1.c ****         uint8 enableInterrupts;
1399:.\Generated_Source\PSoC5/UART_1.c **** 
1400:.\Generated_Source\PSoC5/UART_1.c ****         /* Enter critical section */
1401:.\Generated_Source\PSoC5/UART_1.c ****         enableInterrupts = CyEnterCriticalSection();
ARM GAS  C:\Users\acer\AppData\Local\Temp\ccQxlELY.s 			page 52


 1380              		.loc 1 1401 0
 1381 0002 FFF7FEFF 		bl	CyEnterCriticalSection
 1382              	.LVL79:
1402:.\Generated_Source\PSoC5/UART_1.c ****         /* clear the HW FIFO */
1403:.\Generated_Source\PSoC5/UART_1.c ****         UART_1_TXDATA_AUX_CTL_REG |=  UART_1_TX_FIFO_CLR;
 1383              		.loc 1 1403 0
 1384 0006 0A4B     		ldr	r3, .L135
 1385 0008 1A78     		ldrb	r2, [r3]	@ zero_extendqisi2
 1386 000a 42F00102 		orr	r2, r2, #1
 1387 000e 1A70     		strb	r2, [r3]
1404:.\Generated_Source\PSoC5/UART_1.c ****         UART_1_TXDATA_AUX_CTL_REG &= (uint8)~UART_1_TX_FIFO_CLR;
 1388              		.loc 1 1404 0
 1389 0010 1A78     		ldrb	r2, [r3]	@ zero_extendqisi2
 1390 0012 02F0FE02 		and	r2, r2, #254
 1391 0016 1A70     		strb	r2, [r3]
1405:.\Generated_Source\PSoC5/UART_1.c ****         /* Exit critical section */
1406:.\Generated_Source\PSoC5/UART_1.c ****         CyExitCriticalSection(enableInterrupts);
 1392              		.loc 1 1406 0
 1393 0018 FFF7FEFF 		bl	CyExitCriticalSection
 1394              	.LVL80:
 1395              	.LBB62:
 1396              	.LBB63:
 944:.\Generated_Source\PSoC5/UART_1.c ****         }
 1397              		.loc 1 944 0
 1398 001c 054A     		ldr	r2, .L135+4
 1399 001e 0423     		movs	r3, #4
 1400 0020 1360     		str	r3, [r2]
 1401              	.LBE63:
 1402              	.LBE62:
1407:.\Generated_Source\PSoC5/UART_1.c **** 
1408:.\Generated_Source\PSoC5/UART_1.c ****         #if(UART_1_TXBUFFERSIZE > UART_1_FIFO_LENGTH)
1409:.\Generated_Source\PSoC5/UART_1.c **** 
1410:.\Generated_Source\PSoC5/UART_1.c ****             /* Disable Tx interrupt. */
1411:.\Generated_Source\PSoC5/UART_1.c ****             /* Protect variables that could change on interrupt. */
1412:.\Generated_Source\PSoC5/UART_1.c ****             #if(UART_1_TX_INTERRUPT_ENABLED)
1413:.\Generated_Source\PSoC5/UART_1.c ****                 UART_1_DisableTxInt();
1414:.\Generated_Source\PSoC5/UART_1.c ****             #endif /* End UART_1_TX_INTERRUPT_ENABLED */
1415:.\Generated_Source\PSoC5/UART_1.c **** 
1416:.\Generated_Source\PSoC5/UART_1.c ****             UART_1_txBufferRead = 0u;
 1403              		.loc 1 1416 0
 1404 0022 054A     		ldr	r2, .L135+8
 1405 0024 0021     		movs	r1, #0
 1406 0026 5171     		strb	r1, [r2, #5]
1417:.\Generated_Source\PSoC5/UART_1.c ****             UART_1_txBufferWrite = 0u;
 1407              		.loc 1 1417 0
 1408 0028 9171     		strb	r1, [r2, #6]
 1409              	.LBB64:
 1410              	.LBB65:
 921:.\Generated_Source\PSoC5/UART_1.c ****         }
 1411              		.loc 1 921 0
 1412 002a 044A     		ldr	r2, .L135+12
 1413 002c 1360     		str	r3, [r2]
 1414 002e 08BD     		pop	{r3, pc}
 1415              	.L136:
 1416              		.align	2
 1417              	.L135:
 1418 0030 92640040 		.word	1073767570
ARM GAS  C:\Users\acer\AppData\Local\Temp\ccQxlELY.s 			page 53


 1419 0034 80E100E0 		.word	-536813184
 1420 0038 00000000 		.word	.LANCHOR0
 1421 003c 00E100E0 		.word	-536813312
 1422              	.LBE65:
 1423              	.LBE64:
 1424              		.cfi_endproc
 1425              	.LFE28:
 1426              		.size	UART_1_ClearTxBuffer, .-UART_1_ClearTxBuffer
 1427              		.section	.text.UART_1_SendBreak,"ax",%progbits
 1428              		.align	1
 1429              		.global	UART_1_SendBreak
 1430              		.thumb
 1431              		.thumb_func
 1432              		.type	UART_1_SendBreak, %function
 1433              	UART_1_SendBreak:
 1434              	.LFB29:
1418:.\Generated_Source\PSoC5/UART_1.c **** 
1419:.\Generated_Source\PSoC5/UART_1.c ****             /* Enable Tx interrupt. */
1420:.\Generated_Source\PSoC5/UART_1.c ****             #if(UART_1_TX_INTERRUPT_ENABLED)
1421:.\Generated_Source\PSoC5/UART_1.c ****                 UART_1_EnableTxInt();
1422:.\Generated_Source\PSoC5/UART_1.c ****             #endif /* End UART_1_TX_INTERRUPT_ENABLED */
1423:.\Generated_Source\PSoC5/UART_1.c **** 
1424:.\Generated_Source\PSoC5/UART_1.c ****         #endif /* End UART_1_TXBUFFERSIZE > UART_1_FIFO_LENGTH */
1425:.\Generated_Source\PSoC5/UART_1.c ****     }
1426:.\Generated_Source\PSoC5/UART_1.c **** 
1427:.\Generated_Source\PSoC5/UART_1.c **** 
1428:.\Generated_Source\PSoC5/UART_1.c ****     /*******************************************************************************
1429:.\Generated_Source\PSoC5/UART_1.c ****     * Function Name: UART_1_SendBreak
1430:.\Generated_Source\PSoC5/UART_1.c ****     ********************************************************************************
1431:.\Generated_Source\PSoC5/UART_1.c ****     *
1432:.\Generated_Source\PSoC5/UART_1.c ****     * Summary:
1433:.\Generated_Source\PSoC5/UART_1.c ****     *  Write a Break command to the UART
1434:.\Generated_Source\PSoC5/UART_1.c ****     *
1435:.\Generated_Source\PSoC5/UART_1.c ****     * Parameters:
1436:.\Generated_Source\PSoC5/UART_1.c ****     *  uint8 retMode:  Wait mode,
1437:.\Generated_Source\PSoC5/UART_1.c ****     *   0 - Initialize registers for Break, sends the Break signal and return
1438:.\Generated_Source\PSoC5/UART_1.c ****     *       imediately.
1439:.\Generated_Source\PSoC5/UART_1.c ****     *   1 - Wait until Break sending is complete, reinitialize registers to normal
1440:.\Generated_Source\PSoC5/UART_1.c ****     *       transmission mode then return.
1441:.\Generated_Source\PSoC5/UART_1.c ****     *   2 - Reinitialize registers to normal transmission mode then return.
1442:.\Generated_Source\PSoC5/UART_1.c ****     *   3 - both steps: 0 and 1
1443:.\Generated_Source\PSoC5/UART_1.c ****     *       init registers for Break, send Break signal
1444:.\Generated_Source\PSoC5/UART_1.c ****     *       wait until Break sending is complete, reinit registers to normal
1445:.\Generated_Source\PSoC5/UART_1.c ****     *       transmission mode then return.
1446:.\Generated_Source\PSoC5/UART_1.c ****     *
1447:.\Generated_Source\PSoC5/UART_1.c ****     * Return:
1448:.\Generated_Source\PSoC5/UART_1.c ****     *  None.
1449:.\Generated_Source\PSoC5/UART_1.c ****     *
1450:.\Generated_Source\PSoC5/UART_1.c ****     * Global Variables:
1451:.\Generated_Source\PSoC5/UART_1.c ****     *  UART_1_initVar - checked to identify that the component has been
1452:.\Generated_Source\PSoC5/UART_1.c ****     *     initialized.
1453:.\Generated_Source\PSoC5/UART_1.c ****     *  tx_period - static variable, used for keeping TX period configuration.
1454:.\Generated_Source\PSoC5/UART_1.c ****     *
1455:.\Generated_Source\PSoC5/UART_1.c ****     * Reentrant:
1456:.\Generated_Source\PSoC5/UART_1.c ****     *  No.
1457:.\Generated_Source\PSoC5/UART_1.c ****     *
1458:.\Generated_Source\PSoC5/UART_1.c ****     * Theory:
ARM GAS  C:\Users\acer\AppData\Local\Temp\ccQxlELY.s 			page 54


1459:.\Generated_Source\PSoC5/UART_1.c ****     *  SendBreak function initializes registers to send 13-bit break signal. It is
1460:.\Generated_Source\PSoC5/UART_1.c ****     *  important to return the registers configuration to normal for continue 8-bit
1461:.\Generated_Source\PSoC5/UART_1.c ****     *  operation.
1462:.\Generated_Source\PSoC5/UART_1.c ****     *  Trere are 3 variants for this API usage:
1463:.\Generated_Source\PSoC5/UART_1.c ****     *  1) SendBreak(3) - function will send the Break signal and take care on the
1464:.\Generated_Source\PSoC5/UART_1.c ****     *     configuration returning. Funcition will block CPU untill transmition
1465:.\Generated_Source\PSoC5/UART_1.c ****     *     complete.
1466:.\Generated_Source\PSoC5/UART_1.c ****     *  2) User may want to use bloking time if UART configured to the low speed
1467:.\Generated_Source\PSoC5/UART_1.c ****     *     operation
1468:.\Generated_Source\PSoC5/UART_1.c ****     *     Emample for this case:
1469:.\Generated_Source\PSoC5/UART_1.c ****     *     SendBreak(0);     - init Break signal transmition
1470:.\Generated_Source\PSoC5/UART_1.c ****     *         Add your code here to use CPU time
1471:.\Generated_Source\PSoC5/UART_1.c ****     *     SendBreak(1);     - complete Break operation
1472:.\Generated_Source\PSoC5/UART_1.c ****     *  3) Same to 2) but user may want to init and use the interrupt for complete
1473:.\Generated_Source\PSoC5/UART_1.c ****     *     break operation.
1474:.\Generated_Source\PSoC5/UART_1.c ****     *     Example for this case:
1475:.\Generated_Source\PSoC5/UART_1.c ****     *     Init TX interrupt whith "TX - On TX Complete" parameter
1476:.\Generated_Source\PSoC5/UART_1.c ****     *     SendBreak(0);     - init Break signal transmition
1477:.\Generated_Source\PSoC5/UART_1.c ****     *         Add your code here to use CPU time
1478:.\Generated_Source\PSoC5/UART_1.c ****     *     When interrupt appear with UART_TX_STS_COMPLETE status:
1479:.\Generated_Source\PSoC5/UART_1.c ****     *     SendBreak(2);     - complete Break operation
1480:.\Generated_Source\PSoC5/UART_1.c ****     *
1481:.\Generated_Source\PSoC5/UART_1.c ****     * Side Effects:
1482:.\Generated_Source\PSoC5/UART_1.c ****     *   Uses static variable to keep registers configuration.
1483:.\Generated_Source\PSoC5/UART_1.c ****     *
1484:.\Generated_Source\PSoC5/UART_1.c ****     *******************************************************************************/
1485:.\Generated_Source\PSoC5/UART_1.c ****     void UART_1_SendBreak(uint8 retMode) 
1486:.\Generated_Source\PSoC5/UART_1.c ****     {
 1435              		.loc 1 1486 0
 1436              		.cfi_startproc
 1437              		@ args = 0, pretend = 0, frame = 0
 1438              		@ frame_needed = 0, uses_anonymous_args = 0
 1439              		@ link register save eliminated.
 1440              	.LVL81:
1487:.\Generated_Source\PSoC5/UART_1.c **** 
1488:.\Generated_Source\PSoC5/UART_1.c ****         /* If not Initialized then skip this function*/
1489:.\Generated_Source\PSoC5/UART_1.c ****         if(UART_1_initVar != 0u)
 1441              		.loc 1 1489 0
 1442 0000 124B     		ldr	r3, .L160
 1443 0002 1A78     		ldrb	r2, [r3]	@ zero_extendqisi2
 1444 0004 02B3     		cbz	r2, .L137
 1445              	.LBB66:
1490:.\Generated_Source\PSoC5/UART_1.c ****         {
1491:.\Generated_Source\PSoC5/UART_1.c ****             /*Set the Counter to 13-bits and transmit a 00 byte*/
1492:.\Generated_Source\PSoC5/UART_1.c ****             /*When that is done then reset the counter value back*/
1493:.\Generated_Source\PSoC5/UART_1.c ****             uint8 tmpStat;
1494:.\Generated_Source\PSoC5/UART_1.c **** 
1495:.\Generated_Source\PSoC5/UART_1.c ****             #if(UART_1_HD_ENABLED) /* Half Duplex mode*/
1496:.\Generated_Source\PSoC5/UART_1.c **** 
1497:.\Generated_Source\PSoC5/UART_1.c ****                 if( (retMode == UART_1_SEND_BREAK) ||
1498:.\Generated_Source\PSoC5/UART_1.c ****                     (retMode == UART_1_SEND_WAIT_REINIT ) )
1499:.\Generated_Source\PSoC5/UART_1.c ****                 {
1500:.\Generated_Source\PSoC5/UART_1.c ****                     /* CTRL_HD_SEND_BREAK - sends break bits in HD mode*/
1501:.\Generated_Source\PSoC5/UART_1.c ****                     UART_1_WriteControlRegister(UART_1_ReadControlRegister() |
1502:.\Generated_Source\PSoC5/UART_1.c ****                                                           UART_1_CTRL_HD_SEND_BREAK);
1503:.\Generated_Source\PSoC5/UART_1.c ****                     /* Send zeros*/
1504:.\Generated_Source\PSoC5/UART_1.c ****                     UART_1_TXDATA_REG = 0u;
ARM GAS  C:\Users\acer\AppData\Local\Temp\ccQxlELY.s 			page 55


1505:.\Generated_Source\PSoC5/UART_1.c **** 
1506:.\Generated_Source\PSoC5/UART_1.c ****                     do /*wait until transmit starts*/
1507:.\Generated_Source\PSoC5/UART_1.c ****                     {
1508:.\Generated_Source\PSoC5/UART_1.c ****                         tmpStat = UART_1_TXSTATUS_REG;
1509:.\Generated_Source\PSoC5/UART_1.c ****                     }while((tmpStat & UART_1_TX_STS_FIFO_EMPTY) != 0u);
1510:.\Generated_Source\PSoC5/UART_1.c ****                 }
1511:.\Generated_Source\PSoC5/UART_1.c **** 
1512:.\Generated_Source\PSoC5/UART_1.c ****                 if( (retMode == UART_1_WAIT_FOR_COMPLETE_REINIT) ||
1513:.\Generated_Source\PSoC5/UART_1.c ****                     (retMode == UART_1_SEND_WAIT_REINIT) )
1514:.\Generated_Source\PSoC5/UART_1.c ****                 {
1515:.\Generated_Source\PSoC5/UART_1.c ****                     do /*wait until transmit complete*/
1516:.\Generated_Source\PSoC5/UART_1.c ****                     {
1517:.\Generated_Source\PSoC5/UART_1.c ****                         tmpStat = UART_1_TXSTATUS_REG;
1518:.\Generated_Source\PSoC5/UART_1.c ****                     }while(((uint8)~tmpStat & UART_1_TX_STS_COMPLETE) != 0u);
1519:.\Generated_Source\PSoC5/UART_1.c ****                 }
1520:.\Generated_Source\PSoC5/UART_1.c **** 
1521:.\Generated_Source\PSoC5/UART_1.c ****                 if( (retMode == UART_1_WAIT_FOR_COMPLETE_REINIT) ||
1522:.\Generated_Source\PSoC5/UART_1.c ****                     (retMode == UART_1_REINIT) ||
1523:.\Generated_Source\PSoC5/UART_1.c ****                     (retMode == UART_1_SEND_WAIT_REINIT) )
1524:.\Generated_Source\PSoC5/UART_1.c ****                 {
1525:.\Generated_Source\PSoC5/UART_1.c ****                     UART_1_WriteControlRegister(UART_1_ReadControlRegister() &
1526:.\Generated_Source\PSoC5/UART_1.c ****                                                   (uint8)~UART_1_CTRL_HD_SEND_BREAK);
1527:.\Generated_Source\PSoC5/UART_1.c ****                 }
1528:.\Generated_Source\PSoC5/UART_1.c **** 
1529:.\Generated_Source\PSoC5/UART_1.c ****             #else /* UART_1_HD_ENABLED Full Duplex mode */
1530:.\Generated_Source\PSoC5/UART_1.c **** 
1531:.\Generated_Source\PSoC5/UART_1.c ****                 static uint8 tx_period;
1532:.\Generated_Source\PSoC5/UART_1.c **** 
1533:.\Generated_Source\PSoC5/UART_1.c ****                 if( (retMode == UART_1_SEND_BREAK) ||
 1446              		.loc 1 1533 0
 1447 0006 08B1     		cbz	r0, .L140
 1448              		.loc 1 1533 0 is_stmt 0 discriminator 1
 1449 0008 0328     		cmp	r0, #3
 1450 000a 1BD1     		bne	.L141
 1451              	.L140:
1534:.\Generated_Source\PSoC5/UART_1.c ****                     (retMode == UART_1_SEND_WAIT_REINIT) )
1535:.\Generated_Source\PSoC5/UART_1.c ****                 {
1536:.\Generated_Source\PSoC5/UART_1.c ****                     /* CTRL_HD_SEND_BREAK - skip to send parity bit at Break signal in Full Duplex 
1537:.\Generated_Source\PSoC5/UART_1.c ****                     #if( (UART_1_PARITY_TYPE != UART_1__B_UART__NONE_REVB) || \
1538:.\Generated_Source\PSoC5/UART_1.c ****                                         (UART_1_PARITY_TYPE_SW != 0u) )
1539:.\Generated_Source\PSoC5/UART_1.c ****                         UART_1_WriteControlRegister(UART_1_ReadControlRegister() |
1540:.\Generated_Source\PSoC5/UART_1.c ****                                                               UART_1_CTRL_HD_SEND_BREAK);
1541:.\Generated_Source\PSoC5/UART_1.c ****                     #endif /* End UART_1_PARITY_TYPE != UART_1__B_UART__NONE_REVB  */
1542:.\Generated_Source\PSoC5/UART_1.c **** 
1543:.\Generated_Source\PSoC5/UART_1.c ****                     #if(UART_1_TXCLKGEN_DP)
1544:.\Generated_Source\PSoC5/UART_1.c ****                         tx_period = UART_1_TXBITCLKTX_COMPLETE_REG;
 1452              		.loc 1 1544 0 is_stmt 1
 1453 000c 104A     		ldr	r2, .L160+4
 1454 000e 1178     		ldrb	r1, [r2]	@ zero_extendqisi2
 1455 0010 D971     		strb	r1, [r3, #7]
1545:.\Generated_Source\PSoC5/UART_1.c ****                         UART_1_TXBITCLKTX_COMPLETE_REG = UART_1_TXBITCTR_BREAKBITS;
 1456              		.loc 1 1545 0
 1457 0012 6721     		movs	r1, #103
 1458 0014 1170     		strb	r1, [r2]
1546:.\Generated_Source\PSoC5/UART_1.c ****                     #else
1547:.\Generated_Source\PSoC5/UART_1.c ****                         tx_period = UART_1_TXBITCTR_PERIOD_REG;
1548:.\Generated_Source\PSoC5/UART_1.c ****                         UART_1_TXBITCTR_PERIOD_REG = UART_1_TXBITCTR_BREAKBITS8X;
ARM GAS  C:\Users\acer\AppData\Local\Temp\ccQxlELY.s 			page 56


1549:.\Generated_Source\PSoC5/UART_1.c ****                     #endif /* End UART_1_TXCLKGEN_DP */
1550:.\Generated_Source\PSoC5/UART_1.c **** 
1551:.\Generated_Source\PSoC5/UART_1.c ****                     /* Send zeros*/
1552:.\Generated_Source\PSoC5/UART_1.c ****                     UART_1_TXDATA_REG = 0u;
 1459              		.loc 1 1552 0
 1460 0016 0021     		movs	r1, #0
 1461 0018 D173     		strb	r1, [r2, #15]
 1462              	.L142:
1553:.\Generated_Source\PSoC5/UART_1.c **** 
1554:.\Generated_Source\PSoC5/UART_1.c ****                     do /* wait until transmit starts */
1555:.\Generated_Source\PSoC5/UART_1.c ****                     {
1556:.\Generated_Source\PSoC5/UART_1.c ****                         tmpStat = UART_1_TXSTATUS_REG;
 1463              		.loc 1 1556 0 discriminator 1
 1464 001a 0E4A     		ldr	r2, .L160+8
 1465 001c 1278     		ldrb	r2, [r2]	@ zero_extendqisi2
 1466              	.LVL82:
1557:.\Generated_Source\PSoC5/UART_1.c ****                     }while((tmpStat & UART_1_TX_STS_FIFO_EMPTY) != 0u);
 1467              		.loc 1 1557 0 discriminator 1
 1468 001e 9107     		lsls	r1, r2, #30
 1469 0020 FBD4     		bmi	.L142
1558:.\Generated_Source\PSoC5/UART_1.c ****                 }
1559:.\Generated_Source\PSoC5/UART_1.c **** 
1560:.\Generated_Source\PSoC5/UART_1.c ****                 if( (retMode == UART_1_WAIT_FOR_COMPLETE_REINIT) ||
 1470              		.loc 1 1560 0
 1471 0022 00F0FD02 		and	r2, r0, #253
 1472              	.LVL83:
 1473 0026 012A     		cmp	r2, #1
 1474              	.L159:
 1475 0028 03D0     		beq	.L146
 1476              	.L147:
1561:.\Generated_Source\PSoC5/UART_1.c ****                     (retMode == UART_1_SEND_WAIT_REINIT) )
1562:.\Generated_Source\PSoC5/UART_1.c ****                 {
1563:.\Generated_Source\PSoC5/UART_1.c ****                     do /*wait until transmit complete*/
1564:.\Generated_Source\PSoC5/UART_1.c ****                     {
1565:.\Generated_Source\PSoC5/UART_1.c ****                         tmpStat = UART_1_TXSTATUS_REG;
1566:.\Generated_Source\PSoC5/UART_1.c ****                     }while(((uint8)~tmpStat & UART_1_TX_STS_COMPLETE) != 0u);
1567:.\Generated_Source\PSoC5/UART_1.c ****                 }
1568:.\Generated_Source\PSoC5/UART_1.c **** 
1569:.\Generated_Source\PSoC5/UART_1.c ****                 if( (retMode == UART_1_WAIT_FOR_COMPLETE_REINIT) ||
 1477              		.loc 1 1569 0
 1478 002a 0138     		subs	r0, r0, #1
 1479              	.LVL84:
 1480 002c 0228     		cmp	r0, #2
 1481 002e 05D9     		bls	.L144
 1482 0030 7047     		bx	lr
 1483              	.LVL85:
 1484              	.L146:
1565:.\Generated_Source\PSoC5/UART_1.c ****                     }while(((uint8)~tmpStat & UART_1_TX_STS_COMPLETE) != 0u);
 1485              		.loc 1 1565 0 discriminator 1
 1486 0032 084A     		ldr	r2, .L160+8
 1487 0034 1278     		ldrb	r2, [r2]	@ zero_extendqisi2
 1488              	.LVL86:
1566:.\Generated_Source\PSoC5/UART_1.c ****                 }
 1489              		.loc 1 1566 0 discriminator 1
 1490 0036 D207     		lsls	r2, r2, #31
 1491              	.LVL87:
 1492 0038 FBD5     		bpl	.L146
ARM GAS  C:\Users\acer\AppData\Local\Temp\ccQxlELY.s 			page 57


 1493 003a F6E7     		b	.L147
 1494              	.LVL88:
 1495              	.L144:
1570:.\Generated_Source\PSoC5/UART_1.c ****                     (retMode == UART_1_REINIT) ||
1571:.\Generated_Source\PSoC5/UART_1.c ****                     (retMode == UART_1_SEND_WAIT_REINIT) )
1572:.\Generated_Source\PSoC5/UART_1.c ****                 {
1573:.\Generated_Source\PSoC5/UART_1.c **** 
1574:.\Generated_Source\PSoC5/UART_1.c ****                     #if(UART_1_TXCLKGEN_DP)
1575:.\Generated_Source\PSoC5/UART_1.c ****                         UART_1_TXBITCLKTX_COMPLETE_REG = tx_period;
 1496              		.loc 1 1575 0
 1497 003c DA79     		ldrb	r2, [r3, #7]	@ zero_extendqisi2
 1498 003e 044B     		ldr	r3, .L160+4
 1499 0040 1A70     		strb	r2, [r3]
 1500 0042 7047     		bx	lr
 1501              	.LVL89:
 1502              	.L141:
1560:.\Generated_Source\PSoC5/UART_1.c ****                     (retMode == UART_1_SEND_WAIT_REINIT) )
 1503              		.loc 1 1560 0
 1504 0044 0128     		cmp	r0, #1
 1505 0046 EFE7     		b	.L159
 1506              	.L137:
 1507 0048 7047     		bx	lr
 1508              	.L161:
 1509 004a 00BF     		.align	2
 1510              	.L160:
 1511 004c 00000000 		.word	.LANCHOR0
 1512 0050 33640040 		.word	1073767475
 1513 0054 62640040 		.word	1073767522
 1514              	.LBE66:
 1515              		.cfi_endproc
 1516              	.LFE29:
 1517              		.size	UART_1_SendBreak, .-UART_1_SendBreak
 1518              		.section	.text.UART_1_SetTxAddressMode,"ax",%progbits
 1519              		.align	1
 1520              		.global	UART_1_SetTxAddressMode
 1521              		.thumb
 1522              		.thumb_func
 1523              		.type	UART_1_SetTxAddressMode, %function
 1524              	UART_1_SetTxAddressMode:
 1525              	.LFB30:
1576:.\Generated_Source\PSoC5/UART_1.c ****                     #else
1577:.\Generated_Source\PSoC5/UART_1.c ****                         UART_1_TXBITCTR_PERIOD_REG = tx_period;
1578:.\Generated_Source\PSoC5/UART_1.c ****                     #endif /* End UART_1_TXCLKGEN_DP */
1579:.\Generated_Source\PSoC5/UART_1.c **** 
1580:.\Generated_Source\PSoC5/UART_1.c ****                     #if( (UART_1_PARITY_TYPE != UART_1__B_UART__NONE_REVB) || \
1581:.\Generated_Source\PSoC5/UART_1.c ****                          (UART_1_PARITY_TYPE_SW != 0u) )
1582:.\Generated_Source\PSoC5/UART_1.c ****                         UART_1_WriteControlRegister(UART_1_ReadControlRegister() &
1583:.\Generated_Source\PSoC5/UART_1.c ****                                                       (uint8)~UART_1_CTRL_HD_SEND_BREAK);
1584:.\Generated_Source\PSoC5/UART_1.c ****                     #endif /* End UART_1_PARITY_TYPE != NONE */
1585:.\Generated_Source\PSoC5/UART_1.c ****                 }
1586:.\Generated_Source\PSoC5/UART_1.c ****             #endif    /* End UART_1_HD_ENABLED */
1587:.\Generated_Source\PSoC5/UART_1.c ****         }
1588:.\Generated_Source\PSoC5/UART_1.c ****     }
1589:.\Generated_Source\PSoC5/UART_1.c **** 
1590:.\Generated_Source\PSoC5/UART_1.c **** 
1591:.\Generated_Source\PSoC5/UART_1.c ****     /*******************************************************************************
1592:.\Generated_Source\PSoC5/UART_1.c ****     * Function Name: UART_1_SetTxAddressMode
ARM GAS  C:\Users\acer\AppData\Local\Temp\ccQxlELY.s 			page 58


1593:.\Generated_Source\PSoC5/UART_1.c ****     ********************************************************************************
1594:.\Generated_Source\PSoC5/UART_1.c ****     *
1595:.\Generated_Source\PSoC5/UART_1.c ****     * Summary:
1596:.\Generated_Source\PSoC5/UART_1.c ****     *  Set the transmit addressing mode
1597:.\Generated_Source\PSoC5/UART_1.c ****     *
1598:.\Generated_Source\PSoC5/UART_1.c ****     * Parameters:
1599:.\Generated_Source\PSoC5/UART_1.c ****     *  addressMode: 0 -> Space
1600:.\Generated_Source\PSoC5/UART_1.c ****     *               1 -> Mark
1601:.\Generated_Source\PSoC5/UART_1.c ****     *
1602:.\Generated_Source\PSoC5/UART_1.c ****     * Return:
1603:.\Generated_Source\PSoC5/UART_1.c ****     *  None.
1604:.\Generated_Source\PSoC5/UART_1.c ****     *
1605:.\Generated_Source\PSoC5/UART_1.c ****     *******************************************************************************/
1606:.\Generated_Source\PSoC5/UART_1.c ****     void UART_1_SetTxAddressMode(uint8 addressMode) 
1607:.\Generated_Source\PSoC5/UART_1.c ****     {
 1526              		.loc 1 1607 0
 1527              		.cfi_startproc
 1528              		@ args = 0, pretend = 0, frame = 0
 1529              		@ frame_needed = 0, uses_anonymous_args = 0
 1530              		@ link register save eliminated.
 1531              	.LVL90:
 1532 0000 7047     		bx	lr
 1533              		.cfi_endproc
 1534              	.LFE30:
 1535              		.size	UART_1_SetTxAddressMode, .-UART_1_SetTxAddressMode
 1536              		.global	UART_1_rxBufferOverflow
 1537              		.global	UART_1_rxBufferLoopDetect
 1538              		.global	UART_1_rxBufferWrite
 1539              		.global	UART_1_rxBufferRead
 1540              		.comm	UART_1_rxBuffer,16,1
 1541              		.global	UART_1_txBufferWrite
 1542              		.global	UART_1_txBufferRead
 1543              		.comm	UART_1_txBuffer,16,1
 1544              		.global	UART_1_initVar
 1545              		.bss
 1546              		.set	.LANCHOR0,. + 0
 1547              		.type	UART_1_initVar, %object
 1548              		.size	UART_1_initVar, 1
 1549              	UART_1_initVar:
 1550 0000 00       		.space	1
 1551              		.type	UART_1_rxBufferRead, %object
 1552              		.size	UART_1_rxBufferRead, 1
 1553              	UART_1_rxBufferRead:
 1554 0001 00       		.space	1
 1555              		.type	UART_1_rxBufferWrite, %object
 1556              		.size	UART_1_rxBufferWrite, 1
 1557              	UART_1_rxBufferWrite:
 1558 0002 00       		.space	1
 1559              		.type	UART_1_rxBufferLoopDetect, %object
 1560              		.size	UART_1_rxBufferLoopDetect, 1
 1561              	UART_1_rxBufferLoopDetect:
 1562 0003 00       		.space	1
 1563              		.type	UART_1_rxBufferOverflow, %object
 1564              		.size	UART_1_rxBufferOverflow, 1
 1565              	UART_1_rxBufferOverflow:
 1566 0004 00       		.space	1
 1567              		.type	UART_1_txBufferRead, %object
ARM GAS  C:\Users\acer\AppData\Local\Temp\ccQxlELY.s 			page 59


 1568              		.size	UART_1_txBufferRead, 1
 1569              	UART_1_txBufferRead:
 1570 0005 00       		.space	1
 1571              		.type	UART_1_txBufferWrite, %object
 1572              		.size	UART_1_txBufferWrite, 1
 1573              	UART_1_txBufferWrite:
 1574 0006 00       		.space	1
 1575              		.type	tx_period.5031, %object
 1576              		.size	tx_period.5031, 1
 1577              	tx_period.5031:
 1578 0007 00       		.space	1
 1579              		.text
 1580              	.Letext0:
 1581              		.file 2 ".\\Generated_Source\\PSoC5\\cytypes.h"
 1582              		.file 3 ".\\Generated_Source\\PSoC5\\UART_1_IntClock.h"
 1583              		.file 4 ".\\Generated_Source\\PSoC5\\CyLib.h"