ARM GAS  C:\Users\acer\AppData\Local\Temp\ccHC6Meq.s 			page 1


   1              		.syntax unified
   2              		.cpu cortex-m3
   3              		.fpu softvfp
   4              		.eabi_attribute 20, 1
   5              		.eabi_attribute 21, 1
   6              		.eabi_attribute 23, 3
   7              		.eabi_attribute 24, 1
   8              		.eabi_attribute 25, 1
   9              		.eabi_attribute 26, 1
  10              		.eabi_attribute 30, 4
  11              		.eabi_attribute 34, 1
  12              		.eabi_attribute 18, 4
  13              		.thumb
  14              		.file	"uart.c"
  15              		.text
  16              	.Ltext0:
  17              		.cfi_sections	.debug_frame
  18              		.section	.text.Uart_Ini,"ax",%progbits
  19              		.align	1
  20              		.global	Uart_Ini
  21              		.thumb
  22              		.thumb_func
  23              		.type	Uart_Ini, %function
  24              	Uart_Ini:
  25              	.LFB56:
  26              		.file 1 ".\\uart.c"
   1:.\uart.c      **** /* ========================================
   2:.\uart.c      ****  *
   3:.\uart.c      ****  * Copyright YOUR COMPANY, THE YEAR
   4:.\uart.c      ****  * All Rights Reserved
   5:.\uart.c      ****  * UNPUBLISHED, LICENSED SOFTWARE.
   6:.\uart.c      ****  *
   7:.\uart.c      ****  * CONFIDENTIAL AND PROPRIETARY INFORMATION
   8:.\uart.c      ****  * WHICH IS THE PROPERTY OF your company.
   9:.\uart.c      ****  *
  10:.\uart.c      ****  * ========================================
  11:.\uart.c      **** */
  12:.\uart.c      **** #include <project.h>
  13:.\uart.c      **** void Uart_Ini(void)
  14:.\uart.c      **** {
  27              		.loc 1 14 0
  28              		.cfi_startproc
  29              		@ args = 0, pretend = 0, frame = 0
  30              		@ frame_needed = 0, uses_anonymous_args = 0
  31              		@ link register save eliminated.
  15:.\uart.c      ****   UART_1_Start();  
  32              		.loc 1 15 0
  33 0000 FFF7FEBF 		b	UART_1_Start
  34              	.LVL0:
  35              		.cfi_endproc
  36              	.LFE56:
  37              		.size	Uart_Ini, .-Uart_Ini
  38              		.section	.text.Uart_DeIni,"ax",%progbits
  39              		.align	1
  40              		.global	Uart_DeIni
  41              		.thumb
  42              		.thumb_func
ARM GAS  C:\Users\acer\AppData\Local\Temp\ccHC6Meq.s 			page 2


  43              		.type	Uart_DeIni, %function
  44              	Uart_DeIni:
  45              	.LFB57:
  16:.\uart.c      ****   //UART_1_EnableRxInt();
  17:.\uart.c      ****   //UART_1_EnableTxInt();
  18:.\uart.c      ****   
  19:.\uart.c      **** }
  20:.\uart.c      **** void Uart_DeIni(void)
  21:.\uart.c      **** {
  46              		.loc 1 21 0
  47              		.cfi_startproc
  48              		@ args = 0, pretend = 0, frame = 0
  49              		@ frame_needed = 0, uses_anonymous_args = 0
  50 0000 08B5     		push	{r3, lr}
  51              		.cfi_def_cfa_offset 8
  52              		.cfi_offset 3, -8
  53              		.cfi_offset 14, -4
  22:.\uart.c      ****   UART_1_Stop();  
  54              		.loc 1 22 0
  55 0002 FFF7FEFF 		bl	UART_1_Stop
  56              	.LVL1:
  23:.\uart.c      ****   UART_1_DisableRxInt();
  57              		.loc 1 23 0
  58 0006 FFF7FEFF 		bl	UART_1_DisableRxInt
  59              	.LVL2:
  24:.\uart.c      ****   UART_1_DisableTxInt();
  25:.\uart.c      **** }
  60              		.loc 1 25 0
  61 000a BDE80840 		pop	{r3, lr}
  62              		.cfi_restore 14
  63              		.cfi_restore 3
  64              		.cfi_def_cfa_offset 0
  24:.\uart.c      ****   UART_1_DisableTxInt();
  65              		.loc 1 24 0
  66 000e FFF7FEBF 		b	UART_1_DisableTxInt
  67              	.LVL3:
  68              		.cfi_endproc
  69              	.LFE57:
  70              		.size	Uart_DeIni, .-Uart_DeIni
  71              		.text
  72              	.Letext0:
  73              		.file 2 "c:\\program files\\cypress\\psoc creator\\3.3\\psoc creator\\import\\gnu\\arm\\4.9.3\\arm
  74              		.file 3 "c:\\program files\\cypress\\psoc creator\\3.3\\psoc creator\\import\\gnu\\arm\\4.9.3\\arm
  75              		.file 4 "Generated_Source\\PSoC5/UART_1.h"
  76              		.file 5 "Generated_Source\\PSoC5/core_cm3.h"