ARM GAS  C:\Users\acer\AppData\Local\Temp\ccQxlELY.s 			page 1


   1              		.syntax unified
   2              		.cpu cortex-m3
   3              		.fpu softvfp
   4              		.eabi_attribute 20, 1
   5              		.eabi_attribute 21, 1
   6              		.eabi_attribute 23, 3
   7              		.eabi_attribute 24, 1
   8              		.eabi_attribute 25, 1
   9              		.eabi_attribute 26, 1
  10              		.eabi_attribute 30, 4
  11              		.eabi_attribute 34, 1
  12              		.eabi_attribute 18, 4
  13              		.thumb
  14              		.file	"UART_1.c"
  15              		.text
  16              	.Ltext0:
  17              		.cfi_sections	.debug_frame
  18              		.section	.text.UART_1_Init,"ax",%progbits
  19              		.align	1
  20              		.global	UART_1_Init
  21              		.thumb
  22              		.thumb_func
  23              		.type	UART_1_Init, %function
  24              	UART_1_Init:
  25              	.LFB1:
  26              		.file 1 ".\\Generated_Source\\PSoC5\\UART_1.c"
   1:.\Generated_Source\PSoC5/UART_1.c **** /*******************************************************************************
   2:.\Generated_Source\PSoC5/UART_1.c **** * File Name: UART_1.c
   3:.\Generated_Source\PSoC5/UART_1.c **** * Version 2.30
   4:.\Generated_Source\PSoC5/UART_1.c **** *
   5:.\Generated_Source\PSoC5/UART_1.c **** * Description:
   6:.\Generated_Source\PSoC5/UART_1.c **** *  This file provides all API functionality of the UART component
   7:.\Generated_Source\PSoC5/UART_1.c **** *
   8:.\Generated_Source\PSoC5/UART_1.c **** * Note:
   9:.\Generated_Source\PSoC5/UART_1.c **** *
  10:.\Generated_Source\PSoC5/UART_1.c **** ********************************************************************************
  11:.\Generated_Source\PSoC5/UART_1.c **** * Copyright 2008-2012, Cypress Semiconductor Corporation.  All rights reserved.
  12:.\Generated_Source\PSoC5/UART_1.c **** * You may use this file only in accordance with the license, terms, conditions,
  13:.\Generated_Source\PSoC5/UART_1.c **** * disclaimers, and limitations in the end user license agreement accompanying
  14:.\Generated_Source\PSoC5/UART_1.c **** * the software package with which this file was provided.
  15:.\Generated_Source\PSoC5/UART_1.c **** *******************************************************************************/
  16:.\Generated_Source\PSoC5/UART_1.c **** 
  17:.\Generated_Source\PSoC5/UART_1.c **** #include "UART_1.h"
  18:.\Generated_Source\PSoC5/UART_1.c **** #include "CyLib.h"
  19:.\Generated_Source\PSoC5/UART_1.c **** #if(UART_1_INTERNAL_CLOCK_USED)
  20:.\Generated_Source\PSoC5/UART_1.c ****     #include "UART_1_IntClock.h"
  21:.\Generated_Source\PSoC5/UART_1.c **** #endif /* End UART_1_INTERNAL_CLOCK_USED */
  22:.\Generated_Source\PSoC5/UART_1.c **** 
  23:.\Generated_Source\PSoC5/UART_1.c **** 
  24:.\Generated_Source\PSoC5/UART_1.c **** /***************************************
  25:.\Generated_Source\PSoC5/UART_1.c **** * Global data allocation
  26:.\Generated_Source\PSoC5/UART_1.c **** ***************************************/
  27:.\Generated_Source\PSoC5/UART_1.c **** 
  28:.\Generated_Source\PSoC5/UART_1.c **** uint8 UART_1_initVar = 0u;
  29:.\Generated_Source\PSoC5/UART_1.c **** #if( UART_1_TX_ENABLED && (UART_1_TXBUFFERSIZE > UART_1_FIFO_LENGTH))
  30:.\Generated_Source\PSoC5/UART_1.c ****     volatile uint8 UART_1_txBuffer[UART_1_TXBUFFERSIZE];
  31:.\Generated_Source\PSoC5/UART_1.c ****     volatile uint8 UART_1_txBufferRead = 0u;
ARM GAS  C:\Users\acer\AppData\Local\Temp\ccQxlELY.s 			page 2


  32:.\Generated_Source\PSoC5/UART_1.c ****     uint8 UART_1_txBufferWrite = 0u;
  33:.\Generated_Source\PSoC5/UART_1.c **** #endif /* End UART_1_TX_ENABLED */
  34:.\Generated_Source\PSoC5/UART_1.c **** #if( ( UART_1_RX_ENABLED || UART_1_HD_ENABLED ) && \
  35:.\Generated_Source\PSoC5/UART_1.c ****      (UART_1_RXBUFFERSIZE > UART_1_FIFO_LENGTH) )
  36:.\Generated_Source\PSoC5/UART_1.c ****     volatile uint8 UART_1_rxBuffer[UART_1_RXBUFFERSIZE];
  37:.\Generated_Source\PSoC5/UART_1.c ****     volatile uint8 UART_1_rxBufferRead = 0u;
  38:.\Generated_Source\PSoC5/UART_1.c ****     volatile uint8 UART_1_rxBufferWrite = 0u;
  39:.\Generated_Source\PSoC5/UART_1.c ****     volatile uint8 UART_1_rxBufferLoopDetect = 0u;
  40:.\Generated_Source\PSoC5/UART_1.c ****     volatile uint8 UART_1_rxBufferOverflow = 0u;
  41:.\Generated_Source\PSoC5/UART_1.c ****     #if (UART_1_RXHW_ADDRESS_ENABLED)
  42:.\Generated_Source\PSoC5/UART_1.c ****         volatile uint8 UART_1_rxAddressMode = UART_1_RXADDRESSMODE;
  43:.\Generated_Source\PSoC5/UART_1.c ****         volatile uint8 UART_1_rxAddressDetected = 0u;
  44:.\Generated_Source\PSoC5/UART_1.c ****     #endif /* End EnableHWAddress */
  45:.\Generated_Source\PSoC5/UART_1.c **** #endif /* End UART_1_RX_ENABLED */
  46:.\Generated_Source\PSoC5/UART_1.c **** 
  47:.\Generated_Source\PSoC5/UART_1.c **** 
  48:.\Generated_Source\PSoC5/UART_1.c **** /*******************************************************************************
  49:.\Generated_Source\PSoC5/UART_1.c **** * Function Name: UART_1_Start
  50:.\Generated_Source\PSoC5/UART_1.c **** ********************************************************************************
  51:.\Generated_Source\PSoC5/UART_1.c **** *
  52:.\Generated_Source\PSoC5/UART_1.c **** * Summary:
  53:.\Generated_Source\PSoC5/UART_1.c **** *  Initialize and Enable the UART component.
  54:.\Generated_Source\PSoC5/UART_1.c **** *  Enable the clock input to enable operation.
  55:.\Generated_Source\PSoC5/UART_1.c **** *
  56:.\Generated_Source\PSoC5/UART_1.c **** * Parameters:
  57:.\Generated_Source\PSoC5/UART_1.c **** *  None.
  58:.\Generated_Source\PSoC5/UART_1.c **** *
  59:.\Generated_Source\PSoC5/UART_1.c **** * Return:
  60:.\Generated_Source\PSoC5/UART_1.c **** *  None.
  61:.\Generated_Source\PSoC5/UART_1.c **** *
  62:.\Generated_Source\PSoC5/UART_1.c **** * Global variables:
  63:.\Generated_Source\PSoC5/UART_1.c **** *  The UART_1_intiVar variable is used to indicate initial
  64:.\Generated_Source\PSoC5/UART_1.c **** *  configuration of this component. The variable is initialized to zero (0u)
  65:.\Generated_Source\PSoC5/UART_1.c **** *  and set to one (1u) the first time UART_Start() is called. This allows for
  66:.\Generated_Source\PSoC5/UART_1.c **** *  component initialization without re-initialization in all subsequent calls
  67:.\Generated_Source\PSoC5/UART_1.c **** *  to the UART_1_Start() routine.
  68:.\Generated_Source\PSoC5/UART_1.c **** *
  69:.\Generated_Source\PSoC5/UART_1.c **** * Reentrant:
  70:.\Generated_Source\PSoC5/UART_1.c **** *  No.
  71:.\Generated_Source\PSoC5/UART_1.c **** *
  72:.\Generated_Source\PSoC5/UART_1.c **** *******************************************************************************/
  73:.\Generated_Source\PSoC5/UART_1.c **** void UART_1_Start(void) 
  74:.\Generated_Source\PSoC5/UART_1.c **** {
  75:.\Generated_Source\PSoC5/UART_1.c ****     /* If not Initialized then initialize all required hardware and software */
  76:.\Generated_Source\PSoC5/UART_1.c ****     if(UART_1_initVar == 0u)
  77:.\Generated_Source\PSoC5/UART_1.c ****     {
  78:.\Generated_Source\PSoC5/UART_1.c ****         UART_1_Init();
  79:.\Generated_Source\PSoC5/UART_1.c ****         UART_1_initVar = 1u;
  80:.\Generated_Source\PSoC5/UART_1.c ****     }
  81:.\Generated_Source\PSoC5/UART_1.c ****     UART_1_Enable();
  82:.\Generated_Source\PSoC5/UART_1.c **** }
  83:.\Generated_Source\PSoC5/UART_1.c **** 
  84:.\Generated_Source\PSoC5/UART_1.c **** 
  85:.\Generated_Source\PSoC5/UART_1.c **** /*******************************************************************************
  86:.\Generated_Source\PSoC5/UART_1.c **** * Function Name: UART_1_Init
  87:.\Generated_Source\PSoC5/UART_1.c **** ********************************************************************************
  88:.\Generated_Source\PSoC5/UART_1.c **** *
ARM GAS  C:\Users\acer\AppData\Local\Temp\ccQxlELY.s 			page 3


  89:.\Generated_Source\PSoC5/UART_1.c **** * Summary:
  90:.\Generated_Source\PSoC5/UART_1.c **** *  Initialize component's parameters to the parameters set by user in the
  91:.\Generated_Source\PSoC5/UART_1.c **** *  customizer of the component placed onto schematic. Usually called in
  92:.\Generated_Source\PSoC5/UART_1.c **** *  UART_1_Start().
  93:.\Generated_Source\PSoC5/UART_1.c **** *
  94:.\Generated_Source\PSoC5/UART_1.c **** * Parameters:
  95:.\Generated_Source\PSoC5/UART_1.c **** *  None.
  96:.\Generated_Source\PSoC5/UART_1.c **** *
  97:.\Generated_Source\PSoC5/UART_1.c **** * Return:
  98:.\Generated_Source\PSoC5/UART_1.c **** *  None.
  99:.\Generated_Source\PSoC5/UART_1.c **** *
 100:.\Generated_Source\PSoC5/UART_1.c **** *******************************************************************************/
 101:.\Generated_Source\PSoC5/UART_1.c **** void UART_1_Init(void) 
 102:.\Generated_Source\PSoC5/UART_1.c **** {
  27              		.loc 1 102 0
  28              		.cfi_startproc
  29              		@ args = 0, pretend = 0, frame = 0
  30              		@ frame_needed = 0, uses_anonymous_args = 0
  31 0000 08B5     		push	{r3, lr}
  32              		.cfi_def_cfa_offset 8
  33              		.cfi_offset 3, -8
  34              		.cfi_offset 14, -4
 103:.\Generated_Source\PSoC5/UART_1.c ****     #if(UART_1_RX_ENABLED || UART_1_HD_ENABLED)
 104:.\Generated_Source\PSoC5/UART_1.c **** 
 105:.\Generated_Source\PSoC5/UART_1.c ****         #if(UART_1_RX_INTERRUPT_ENABLED && (UART_1_RXBUFFERSIZE > UART_1_FIFO_LENGTH))
 106:.\Generated_Source\PSoC5/UART_1.c ****             /* Set the RX Interrupt. */
 107:.\Generated_Source\PSoC5/UART_1.c ****             (void)CyIntSetVector(UART_1_RX_VECT_NUM, &UART_1_RXISR);
  35              		.loc 1 107 0
  36 0002 0F49     		ldr	r1, .L2
  37 0004 0120     		movs	r0, #1
  38 0006 FFF7FEFF 		bl	CyIntSetVector
  39              	.LVL0:
 108:.\Generated_Source\PSoC5/UART_1.c ****             CyIntSetPriority(UART_1_RX_VECT_NUM, UART_1_RX_PRIOR_NUM);
  40              		.loc 1 108 0
  41 000a 0120     		movs	r0, #1
  42 000c 0721     		movs	r1, #7
  43 000e FFF7FEFF 		bl	CyIntSetPriority
  44              	.LVL1:
 109:.\Generated_Source\PSoC5/UART_1.c ****         #endif /* End UART_1_RX_INTERRUPT_ENABLED */
 110:.\Generated_Source\PSoC5/UART_1.c **** 
 111:.\Generated_Source\PSoC5/UART_1.c ****         #if (UART_1_RXHW_ADDRESS_ENABLED)
 112:.\Generated_Source\PSoC5/UART_1.c ****             UART_1_SetRxAddressMode(UART_1_RXAddressMode);
 113:.\Generated_Source\PSoC5/UART_1.c ****             UART_1_SetRxAddress1(UART_1_RXHWADDRESS1);
 114:.\Generated_Source\PSoC5/UART_1.c ****             UART_1_SetRxAddress2(UART_1_RXHWADDRESS2);
 115:.\Generated_Source\PSoC5/UART_1.c ****         #endif /* End UART_1_RXHW_ADDRESS_ENABLED */
 116:.\Generated_Source\PSoC5/UART_1.c **** 
 117:.\Generated_Source\PSoC5/UART_1.c ****         /* Init Count7 period */
 118:.\Generated_Source\PSoC5/UART_1.c ****         UART_1_RXBITCTR_PERIOD_REG = UART_1_RXBITCTR_INIT;
  45              		.loc 1 118 0
  46 0012 0C4B     		ldr	r3, .L2+4
  47 0014 7222     		movs	r2, #114
  48 0016 1A70     		strb	r2, [r3]
 119:.\Generated_Source\PSoC5/UART_1.c ****         /* Configure the Initial RX interrupt mask */
 120:.\Generated_Source\PSoC5/UART_1.c ****         UART_1_RXSTATUS_MASK_REG  = UART_1_INIT_RX_INTERRUPTS_MASK;
  49              		.loc 1 120 0
  50 0018 2022     		movs	r2, #32
  51 001a 5A70     		strb	r2, [r3, #1]
ARM GAS  C:\Users\acer\AppData\Local\Temp\ccQxlELY.s 			page 4


 121:.\Generated_Source\PSoC5/UART_1.c ****     #endif /* End UART_1_RX_ENABLED || UART_1_HD_ENABLED*/
 122:.\Generated_Source\PSoC5/UART_1.c **** 
 123:.\Generated_Source\PSoC5/UART_1.c ****     #if(UART_1_TX_ENABLED)
 124:.\Generated_Source\PSoC5/UART_1.c ****         #if(UART_1_TX_INTERRUPT_ENABLED && (UART_1_TXBUFFERSIZE > UART_1_FIFO_LENGTH))
 125:.\Generated_Source\PSoC5/UART_1.c ****             /* Set the TX Interrupt. */
 126:.\Generated_Source\PSoC5/UART_1.c ****             (void)CyIntSetVector(UART_1_TX_VECT_NUM, &UART_1_TXISR);
  52              		.loc 1 126 0
  53 001c 0A49     		ldr	r1, .L2+8
  54 001e 0220     		movs	r0, #2
  55 0020 FFF7FEFF 		bl	CyIntSetVector
  56              	.LVL2:
 127:.\Generated_Source\PSoC5/UART_1.c ****             CyIntSetPriority(UART_1_TX_VECT_NUM, UART_1_TX_PRIOR_NUM);
  57              		.loc 1 127 0
  58 0024 0220     		movs	r0, #2
  59 0026 0721     		movs	r1, #7
  60 0028 FFF7FEFF 		bl	CyIntSetPriority
  61              	.LVL3:
 128:.\Generated_Source\PSoC5/UART_1.c ****         #endif /* End UART_1_TX_INTERRUPT_ENABLED */
 129:.\Generated_Source\PSoC5/UART_1.c **** 
 130:.\Generated_Source\PSoC5/UART_1.c ****         /* Write Counter Value for TX Bit Clk Generator*/
 131:.\Generated_Source\PSoC5/UART_1.c ****         #if(UART_1_TXCLKGEN_DP)
 132:.\Generated_Source\PSoC5/UART_1.c ****             UART_1_TXBITCLKGEN_CTR_REG = UART_1_BIT_CENTER;
  62              		.loc 1 132 0
  63 002c 074B     		ldr	r3, .L2+12
  64 002e 0722     		movs	r2, #7
  65 0030 1A70     		strb	r2, [r3]
 133:.\Generated_Source\PSoC5/UART_1.c ****             UART_1_TXBITCLKTX_COMPLETE_REG = (UART_1_NUMBER_OF_DATA_BITS +
  66              		.loc 1 133 0
  67 0032 4822     		movs	r2, #72
  68 0034 1A74     		strb	r2, [r3, #16]
 134:.\Generated_Source\PSoC5/UART_1.c ****                         UART_1_NUMBER_OF_START_BIT) * UART_1_OVER_SAMPLE_COUNT;
 135:.\Generated_Source\PSoC5/UART_1.c ****         #else
 136:.\Generated_Source\PSoC5/UART_1.c ****             UART_1_TXBITCTR_PERIOD_REG = ((UART_1_NUMBER_OF_DATA_BITS +
 137:.\Generated_Source\PSoC5/UART_1.c ****                         UART_1_NUMBER_OF_START_BIT) * UART_1_OVER_SAMPLE_8) - 1u;
 138:.\Generated_Source\PSoC5/UART_1.c ****         #endif /* End UART_1_TXCLKGEN_DP */
 139:.\Generated_Source\PSoC5/UART_1.c **** 
 140:.\Generated_Source\PSoC5/UART_1.c ****         /* Configure the Initial TX interrupt mask */
 141:.\Generated_Source\PSoC5/UART_1.c ****         #if(UART_1_TX_INTERRUPT_ENABLED && (UART_1_TXBUFFERSIZE > UART_1_FIFO_LENGTH))
 142:.\Generated_Source\PSoC5/UART_1.c ****             UART_1_TXSTATUS_MASK_REG = UART_1_TX_STS_FIFO_EMPTY;
  69              		.loc 1 142 0
  70 0036 0222     		movs	r2, #2
  71 0038 83F85F20 		strb	r2, [r3, #95]
  72 003c 08BD     		pop	{r3, pc}
  73              	.L3:
  74 003e 00BF     		.align	2
  75              	.L2:
  76 0040 00000000 		.word	UART_1_RXISR
  77 0044 85640040 		.word	1073767557
  78 0048 00000000 		.word	UART_1_TXISR
  79 004c 23640040 		.word	1073767459
  80              		.cfi_endproc
  81              	.LFE1:
  82              		.size	UART_1_Init, .-UART_1_Init
  83              		.section	.text.UART_1_Enable,"ax",%progbits
  84              		.align	1
  85              		.global	UART_1_Enable
  86              		.thumb
ARM GAS  C:\Users\acer\AppData\Local\Temp\ccQxlELY.s 			page 5


  87              		.thumb_func
  88              		.type	UART_1_Enable, %function
  89              	UART_1_Enable:
  90              	.LFB2:
 143:.\Generated_Source\PSoC5/UART_1.c ****         #else
 144:.\Generated_Source\PSoC5/UART_1.c ****             UART_1_TXSTATUS_MASK_REG = UART_1_INIT_TX_INTERRUPTS_MASK;
 145:.\Generated_Source\PSoC5/UART_1.c ****         #endif /*End UART_1_TX_INTERRUPT_ENABLED*/
 146:.\Generated_Source\PSoC5/UART_1.c **** 
 147:.\Generated_Source\PSoC5/UART_1.c ****     #endif /* End UART_1_TX_ENABLED */
 148:.\Generated_Source\PSoC5/UART_1.c **** 
 149:.\Generated_Source\PSoC5/UART_1.c ****     #if(UART_1_PARITY_TYPE_SW)  /* Write Parity to Control Register */
 150:.\Generated_Source\PSoC5/UART_1.c ****         UART_1_WriteControlRegister( \
 151:.\Generated_Source\PSoC5/UART_1.c ****             (UART_1_ReadControlRegister() & (uint8)~UART_1_CTRL_PARITY_TYPE_MASK) | \
 152:.\Generated_Source\PSoC5/UART_1.c ****             (uint8)(UART_1_PARITY_TYPE << UART_1_CTRL_PARITY_TYPE0_SHIFT) );
 153:.\Generated_Source\PSoC5/UART_1.c ****     #endif /* End UART_1_PARITY_TYPE_SW */
 154:.\Generated_Source\PSoC5/UART_1.c **** }
 155:.\Generated_Source\PSoC5/UART_1.c **** 
 156:.\Generated_Source\PSoC5/UART_1.c **** 
 157:.\Generated_Source\PSoC5/UART_1.c **** /*******************************************************************************
 158:.\Generated_Source\PSoC5/UART_1.c **** * Function Name: UART_1_Enable
 159:.\Generated_Source\PSoC5/UART_1.c **** ********************************************************************************
 160:.\Generated_Source\PSoC5/UART_1.c **** *
 161:.\Generated_Source\PSoC5/UART_1.c **** * Summary:
 162:.\Generated_Source\PSoC5/UART_1.c **** *  Enables the UART block operation
 163:.\Generated_Source\PSoC5/UART_1.c **** *
 164:.\Generated_Source\PSoC5/UART_1.c **** * Parameters:
 165:.\Generated_Source\PSoC5/UART_1.c **** *  None.
 166:.\Generated_Source\PSoC5/UART_1.c **** *
 167:.\Generated_Source\PSoC5/UART_1.c **** * Return:
 168:.\Generated_Source\PSoC5/UART_1.c **** *  None.
 169:.\Generated_Source\PSoC5/UART_1.c **** *
 170:.\Generated_Source\PSoC5/UART_1.c **** * Global Variables:
 171:.\Generated_Source\PSoC5/UART_1.c **** *  UART_1_rxAddressDetected - set to initial state (0).
 172:.\Generated_Source\PSoC5/UART_1.c **** *
 173:.\Generated_Source\PSoC5/UART_1.c **** *******************************************************************************/
 174:.\Generated_Source\PSoC5/UART_1.c **** void UART_1_Enable(void) 
 175:.\Generated_Source\PSoC5/UART_1.c **** {
  91              		.loc 1 175 0
  92              		.cfi_startproc
  93              		@ args = 0, pretend = 0, frame = 0
  94              		@ frame_needed = 0, uses_anonymous_args = 0
  95 0000 10B5     		push	{r4, lr}
  96              		.cfi_def_cfa_offset 8
  97              		.cfi_offset 4, -8
  98              		.cfi_offset 14, -4
 176:.\Generated_Source\PSoC5/UART_1.c ****     uint8 enableInterrupts;
 177:.\Generated_Source\PSoC5/UART_1.c ****     enableInterrupts = CyEnterCriticalSection();
  99              		.loc 1 177 0
 100 0002 FFF7FEFF 		bl	CyEnterCriticalSection
 101              	.LVL4:
 102 0006 0446     		mov	r4, r0
 103              	.LVL5:
 178:.\Generated_Source\PSoC5/UART_1.c **** 
 179:.\Generated_Source\PSoC5/UART_1.c ****     #if(UART_1_RX_ENABLED || UART_1_HD_ENABLED)
 180:.\Generated_Source\PSoC5/UART_1.c ****         /*RX Counter (Count7) Enable */
 181:.\Generated_Source\PSoC5/UART_1.c ****         UART_1_RXBITCTR_CONTROL_REG |= UART_1_CNTR_ENABLE;
 104              		.loc 1 181 0
ARM GAS  C:\Users\acer\AppData\Local\Temp\ccQxlELY.s 			page 6


 105 0008 0C4A     		ldr	r2, .L5
 182:.\Generated_Source\PSoC5/UART_1.c ****         /* Enable the RX Interrupt. */
 183:.\Generated_Source\PSoC5/UART_1.c ****         UART_1_RXSTATUS_ACTL_REG  |= UART_1_INT_ENABLE;
 184:.\Generated_Source\PSoC5/UART_1.c ****         #if(UART_1_RX_INTERRUPT_ENABLED && (UART_1_RXBUFFERSIZE > UART_1_FIFO_LENGTH))
 185:.\Generated_Source\PSoC5/UART_1.c ****             CyIntEnable(UART_1_RX_VECT_NUM);
 186:.\Generated_Source\PSoC5/UART_1.c ****             #if (UART_1_RXHW_ADDRESS_ENABLED)
 187:.\Generated_Source\PSoC5/UART_1.c ****                 UART_1_rxAddressDetected = 0u;
 188:.\Generated_Source\PSoC5/UART_1.c ****             #endif /* End UART_1_RXHW_ADDRESS_ENABLED */
 189:.\Generated_Source\PSoC5/UART_1.c ****         #endif /* End UART_1_RX_INTERRUPT_ENABLED */
 190:.\Generated_Source\PSoC5/UART_1.c ****     #endif /* End UART_1_RX_ENABLED || UART_1_HD_ENABLED*/
 191:.\Generated_Source\PSoC5/UART_1.c **** 
 192:.\Generated_Source\PSoC5/UART_1.c ****     #if(UART_1_TX_ENABLED)
 193:.\Generated_Source\PSoC5/UART_1.c ****         /*TX Counter (DP/Count7) Enable */
 194:.\Generated_Source\PSoC5/UART_1.c ****         #if(!UART_1_TXCLKGEN_DP)
 195:.\Generated_Source\PSoC5/UART_1.c ****             UART_1_TXBITCTR_CONTROL_REG |= UART_1_CNTR_ENABLE;
 196:.\Generated_Source\PSoC5/UART_1.c ****         #endif /* End UART_1_TXCLKGEN_DP */
 197:.\Generated_Source\PSoC5/UART_1.c ****         /* Enable the TX Interrupt. */
 198:.\Generated_Source\PSoC5/UART_1.c ****         UART_1_TXSTATUS_ACTL_REG |= UART_1_INT_ENABLE;
 106              		.loc 1 198 0
 107 000a 0D49     		ldr	r1, .L5+4
 181:.\Generated_Source\PSoC5/UART_1.c ****         /* Enable the RX Interrupt. */
 108              		.loc 1 181 0
 109 000c 1378     		ldrb	r3, [r2]	@ zero_extendqisi2
 110 000e 43F02003 		orr	r3, r3, #32
 111 0012 1370     		strb	r3, [r2]
 183:.\Generated_Source\PSoC5/UART_1.c ****         #if(UART_1_RX_INTERRUPT_ENABLED && (UART_1_RXBUFFERSIZE > UART_1_FIFO_LENGTH))
 112              		.loc 1 183 0
 113 0014 5378     		ldrb	r3, [r2, #1]	@ zero_extendqisi2
 114 0016 43F01003 		orr	r3, r3, #16
 115 001a 5370     		strb	r3, [r2, #1]
 185:.\Generated_Source\PSoC5/UART_1.c ****             #if (UART_1_RXHW_ADDRESS_ENABLED)
 116              		.loc 1 185 0
 117 001c 094A     		ldr	r2, .L5+8
 118 001e 0223     		movs	r3, #2
 119 0020 1360     		str	r3, [r2]
 120              		.loc 1 198 0
 121 0022 0B78     		ldrb	r3, [r1]	@ zero_extendqisi2
 122 0024 43F01003 		orr	r3, r3, #16
 123 0028 0B70     		strb	r3, [r1]
 199:.\Generated_Source\PSoC5/UART_1.c ****         #if(UART_1_TX_INTERRUPT_ENABLED && (UART_1_TXBUFFERSIZE > UART_1_FIFO_LENGTH))
 200:.\Generated_Source\PSoC5/UART_1.c ****             CyIntEnable(UART_1_TX_VECT_NUM);
 124              		.loc 1 200 0
 125 002a 0423     		movs	r3, #4
 126 002c 1360     		str	r3, [r2]
 201:.\Generated_Source\PSoC5/UART_1.c ****         #endif /* End UART_1_TX_INTERRUPT_ENABLED*/
 202:.\Generated_Source\PSoC5/UART_1.c ****      #endif /* End UART_1_TX_ENABLED */
 203:.\Generated_Source\PSoC5/UART_1.c **** 
 204:.\Generated_Source\PSoC5/UART_1.c ****     #if(UART_1_INTERNAL_CLOCK_USED)
 205:.\Generated_Source\PSoC5/UART_1.c ****         /* Enable the clock. */
 206:.\Generated_Source\PSoC5/UART_1.c ****         UART_1_IntClock_Start();
 127              		.loc 1 206 0
 128 002e FFF7FEFF 		bl	UART_1_IntClock_Start
 129              	.LVL6:
 207:.\Generated_Source\PSoC5/UART_1.c ****     #endif /* End UART_1_INTERNAL_CLOCK_USED */
 208:.\Generated_Source\PSoC5/UART_1.c **** 
 209:.\Generated_Source\PSoC5/UART_1.c ****     CyExitCriticalSection(enableInterrupts);
 130              		.loc 1 209 0
ARM GAS  C:\Users\acer\AppData\Local\Temp\ccQxlELY.s 			page 7


 131 0032 2046     		mov	r0, r4
 210:.\Generated_Source\PSoC5/UART_1.c **** }
 132              		.loc 1 210 0
 133 0034 BDE81040 		pop	{r4, lr}
 134              		.cfi_restore 14
 135              		.cfi_restore 4
 136              		.cfi_def_cfa_offset 0
 137              	.LVL7:
 209:.\Generated_Source\PSoC5/UART_1.c **** }
 138              		.loc 1 209 0
 139 0038 FFF7FEBF 		b	CyExitCriticalSection
 140              	.LVL8:
 141              	.L6:
 142              		.align	2
 143              	.L5:
 144 003c 95640040 		.word	1073767573
 145 0040 92640040 		.word	1073767570
 146 0044 00E100E0 		.word	-536813312
 147              		.cfi_endproc
 148              	.LFE2:
 149              		.size	UART_1_Enable, .-UART_1_Enable
 150              		.section	.text.UART_1_Start,"ax",%progbits
 151              		.align	1
 152              		.global	UART_1_Start
 153              		.thumb
 154              		.thumb_func
 155              		.type	UART_1_Start, %function
 156              	UART_1_Start:
 157              	.LFB0:
  74:.\Generated_Source\PSoC5/UART_1.c ****     /* If not Initialized then initialize all required hardware and software */
 158              		.loc 1 74 0
 159              		.cfi_startproc
 160              		@ args = 0, pretend = 0, frame = 0
 161              		@ frame_needed = 0, uses_anonymous_args = 0
 162 0000 10B5     		push	{r4, lr}
 163              		.cfi_def_cfa_offset 8
 164              		.cfi_offset 4, -8
 165              		.cfi_offset 14, -4
  76:.\Generated_Source\PSoC5/UART_1.c ****     {
 166              		.loc 1 76 0
 167 0002 054C     		ldr	r4, .L10
 168 0004 2378     		ldrb	r3, [r4]	@ zero_extendqisi2
 169 0006 1BB9     		cbnz	r3, .L8
  78:.\Generated_Source\PSoC5/UART_1.c ****         UART_1_initVar = 1u;
 170              		.loc 1 78 0
 171 0008 FFF7FEFF 		bl	UART_1_Init
 172              	.LVL9:
  79:.\Generated_Source\PSoC5/UART_1.c ****     }
 173              		.loc 1 79 0
 174 000c 0123     		movs	r3, #1
 175 000e 2370     		strb	r3, [r4]
 176              	.L8:
  82:.\Generated_Source\PSoC5/UART_1.c **** 
 177              		.loc 1 82 0
 178 0010 BDE81040 		pop	{r4, lr}
 179              		.cfi_restore 14
 180              		.cfi_restore 4
ARM GAS  C:\Users\acer\AppData\Local\Temp\ccQxlELY.s 			page 8


 181              		.cfi_def_cfa_offset 0
  81:.\Generated_Source\PSoC5/UART_1.c **** }
 182              		.loc 1 81 0
 183 0014 FFF7FEBF 		b	UART_1_Enable
 184              	.LVL10:
 185              	.L11:
 186              		.align	2
 187              	.L10:
 188 0018 00000000 		.word	.LANCHOR0
 189              		.cfi_endproc
 190              	.LFE0:
 191              		.size	UART_1_Start, .-UART_1_Start
 192              		.section	.text.UART_1_Stop,"ax",%progbits
 193              		.align	1
 194              		.global	UART_1_Stop
 195              		.thumb
 196              		.thumb_func
 197              		.type	UART_1_Stop, %function
 198              	UART_1_Stop:
 199              	.LFB3:
 211:.\Generated_Source\PSoC5/UART_1.c **** 
 212:.\Generated_Source\PSoC5/UART_1.c **** 
 213:.\Generated_Source\PSoC5/UART_1.c **** /*******************************************************************************
 214:.\Generated_Source\PSoC5/UART_1.c **** * Function Name: UART_1_Stop
 215:.\Generated_Source\PSoC5/UART_1.c **** ********************************************************************************
 216:.\Generated_Source\PSoC5/UART_1.c **** *
 217:.\Generated_Source\PSoC5/UART_1.c **** * Summary:
 218:.\Generated_Source\PSoC5/UART_1.c **** *  Disable the UART component
 219:.\Generated_Source\PSoC5/UART_1.c **** *
 220:.\Generated_Source\PSoC5/UART_1.c **** * Parameters:
 221:.\Generated_Source\PSoC5/UART_1.c **** *  None.
 222:.\Generated_Source\PSoC5/UART_1.c **** *
 223:.\Generated_Source\PSoC5/UART_1.c **** * Return:
 224:.\Generated_Source\PSoC5/UART_1.c **** *  None.
 225:.\Generated_Source\PSoC5/UART_1.c **** *
 226:.\Generated_Source\PSoC5/UART_1.c **** *******************************************************************************/
 227:.\Generated_Source\PSoC5/UART_1.c **** void UART_1_Stop(void) 
 228:.\Generated_Source\PSoC5/UART_1.c **** {
 200              		.loc 1 228 0
 201              		.cfi_startproc
 202              		@ args = 0, pretend = 0, frame = 0
 203              		@ frame_needed = 0, uses_anonymous_args = 0
 204 0000 10B5     		push	{r4, lr}
 205              		.cfi_def_cfa_offset 8
 206              		.cfi_offset 4, -8
 207              		.cfi_offset 14, -4
 229:.\Generated_Source\PSoC5/UART_1.c ****     uint8 enableInterrupts;
 230:.\Generated_Source\PSoC5/UART_1.c ****     enableInterrupts = CyEnterCriticalSection();
 208              		.loc 1 230 0
 209 0002 FFF7FEFF 		bl	CyEnterCriticalSection
 210              	.LVL11:
 211 0006 0446     		mov	r4, r0
 212              	.LVL12:
 231:.\Generated_Source\PSoC5/UART_1.c **** 
 232:.\Generated_Source\PSoC5/UART_1.c ****     /* Write Bit Counter Disable */
 233:.\Generated_Source\PSoC5/UART_1.c ****     #if(UART_1_RX_ENABLED || UART_1_HD_ENABLED)
 234:.\Generated_Source\PSoC5/UART_1.c ****         UART_1_RXBITCTR_CONTROL_REG &= (uint8)~UART_1_CNTR_ENABLE;
ARM GAS  C:\Users\acer\AppData\Local\Temp\ccQxlELY.s 			page 9


 213              		.loc 1 234 0
 214 0008 0D4A     		ldr	r2, .L13
 215 000a 1378     		ldrb	r3, [r2]	@ zero_extendqisi2
 216 000c 03F0DF03 		and	r3, r3, #223
 217 0010 1370     		strb	r3, [r2]
 235:.\Generated_Source\PSoC5/UART_1.c ****     #endif /* End UART_1_RX_ENABLED */
 236:.\Generated_Source\PSoC5/UART_1.c **** 
 237:.\Generated_Source\PSoC5/UART_1.c ****     #if(UART_1_TX_ENABLED)
 238:.\Generated_Source\PSoC5/UART_1.c ****         #if(!UART_1_TXCLKGEN_DP)
 239:.\Generated_Source\PSoC5/UART_1.c ****             UART_1_TXBITCTR_CONTROL_REG &= (uint8)~UART_1_CNTR_ENABLE;
 240:.\Generated_Source\PSoC5/UART_1.c ****         #endif /* End UART_1_TXCLKGEN_DP */
 241:.\Generated_Source\PSoC5/UART_1.c ****     #endif /* UART_1_TX_ENABLED */
 242:.\Generated_Source\PSoC5/UART_1.c **** 
 243:.\Generated_Source\PSoC5/UART_1.c ****     #if(UART_1_INTERNAL_CLOCK_USED)
 244:.\Generated_Source\PSoC5/UART_1.c ****         /* Disable the clock. */
 245:.\Generated_Source\PSoC5/UART_1.c ****         UART_1_IntClock_Stop();
 218              		.loc 1 245 0
 219 0012 FFF7FEFF 		bl	UART_1_IntClock_Stop
 220              	.LVL13:
 246:.\Generated_Source\PSoC5/UART_1.c ****     #endif /* End UART_1_INTERNAL_CLOCK_USED */
 247:.\Generated_Source\PSoC5/UART_1.c **** 
 248:.\Generated_Source\PSoC5/UART_1.c ****     /* Disable internal interrupt component */
 249:.\Generated_Source\PSoC5/UART_1.c ****     #if(UART_1_RX_ENABLED || UART_1_HD_ENABLED)
 250:.\Generated_Source\PSoC5/UART_1.c ****         UART_1_RXSTATUS_ACTL_REG  &= (uint8)~UART_1_INT_ENABLE;
 221              		.loc 1 250 0
 222 0016 0B4A     		ldr	r2, .L13+4
 251:.\Generated_Source\PSoC5/UART_1.c ****         #if(UART_1_RX_INTERRUPT_ENABLED && (UART_1_RXBUFFERSIZE > UART_1_FIFO_LENGTH))
 252:.\Generated_Source\PSoC5/UART_1.c ****             UART_1_DisableRxInt();
 253:.\Generated_Source\PSoC5/UART_1.c ****         #endif /* End UART_1_RX_INTERRUPT_ENABLED */
 254:.\Generated_Source\PSoC5/UART_1.c ****     #endif /* End UART_1_RX_ENABLED */
 255:.\Generated_Source\PSoC5/UART_1.c **** 
 256:.\Generated_Source\PSoC5/UART_1.c ****     #if(UART_1_TX_ENABLED)
 257:.\Generated_Source\PSoC5/UART_1.c ****         UART_1_TXSTATUS_ACTL_REG &= (uint8)~UART_1_INT_ENABLE;
 223              		.loc 1 257 0
 224 0018 0B49     		ldr	r1, .L13+8
 250:.\Generated_Source\PSoC5/UART_1.c ****         #if(UART_1_RX_INTERRUPT_ENABLED && (UART_1_RXBUFFERSIZE > UART_1_FIFO_LENGTH))
 225              		.loc 1 250 0
 226 001a 1378     		ldrb	r3, [r2]	@ zero_extendqisi2
 258:.\Generated_Source\PSoC5/UART_1.c ****         #if(UART_1_TX_INTERRUPT_ENABLED && (UART_1_TXBUFFERSIZE > UART_1_FIFO_LENGTH))
 259:.\Generated_Source\PSoC5/UART_1.c ****             UART_1_DisableTxInt();
 260:.\Generated_Source\PSoC5/UART_1.c ****         #endif /* End UART_1_TX_INTERRUPT_ENABLED */
 261:.\Generated_Source\PSoC5/UART_1.c ****     #endif /* End UART_1_TX_ENABLED */
 262:.\Generated_Source\PSoC5/UART_1.c **** 
 263:.\Generated_Source\PSoC5/UART_1.c ****     CyExitCriticalSection(enableInterrupts);
 227              		.loc 1 263 0
 228 001c 2046     		mov	r0, r4
 250:.\Generated_Source\PSoC5/UART_1.c ****         #if(UART_1_RX_INTERRUPT_ENABLED && (UART_1_RXBUFFERSIZE > UART_1_FIFO_LENGTH))
 229              		.loc 1 250 0
 230 001e 03F0EF03 		and	r3, r3, #239
 231 0022 1370     		strb	r3, [r2]
 232              	.LBB34:
 233              	.LBB35:
 264:.\Generated_Source\PSoC5/UART_1.c **** }
 265:.\Generated_Source\PSoC5/UART_1.c **** 
 266:.\Generated_Source\PSoC5/UART_1.c **** 
 267:.\Generated_Source\PSoC5/UART_1.c **** /*******************************************************************************
 268:.\Generated_Source\PSoC5/UART_1.c **** * Function Name: UART_1_ReadControlRegister
ARM GAS  C:\Users\acer\AppData\Local\Temp\ccQxlELY.s 			page 10


 269:.\Generated_Source\PSoC5/UART_1.c **** ********************************************************************************
 270:.\Generated_Source\PSoC5/UART_1.c **** *
 271:.\Generated_Source\PSoC5/UART_1.c **** * Summary:
 272:.\Generated_Source\PSoC5/UART_1.c **** *  Read the current state of the control register
 273:.\Generated_Source\PSoC5/UART_1.c **** *
 274:.\Generated_Source\PSoC5/UART_1.c **** * Parameters:
 275:.\Generated_Source\PSoC5/UART_1.c **** *  None.
 276:.\Generated_Source\PSoC5/UART_1.c **** *
 277:.\Generated_Source\PSoC5/UART_1.c **** * Return:
 278:.\Generated_Source\PSoC5/UART_1.c **** *  Current state of the control register.
 279:.\Generated_Source\PSoC5/UART_1.c **** *
 280:.\Generated_Source\PSoC5/UART_1.c **** *******************************************************************************/
 281:.\Generated_Source\PSoC5/UART_1.c **** uint8 UART_1_ReadControlRegister(void) 
 282:.\Generated_Source\PSoC5/UART_1.c **** {
 283:.\Generated_Source\PSoC5/UART_1.c ****     #if( UART_1_CONTROL_REG_REMOVED )
 284:.\Generated_Source\PSoC5/UART_1.c ****         return(0u);
 285:.\Generated_Source\PSoC5/UART_1.c ****     #else
 286:.\Generated_Source\PSoC5/UART_1.c ****         return(UART_1_CONTROL_REG);
 287:.\Generated_Source\PSoC5/UART_1.c ****     #endif /* End UART_1_CONTROL_REG_REMOVED */
 288:.\Generated_Source\PSoC5/UART_1.c **** }
 289:.\Generated_Source\PSoC5/UART_1.c **** 
 290:.\Generated_Source\PSoC5/UART_1.c **** 
 291:.\Generated_Source\PSoC5/UART_1.c **** /*******************************************************************************
 292:.\Generated_Source\PSoC5/UART_1.c **** * Function Name: UART_1_WriteControlRegister
 293:.\Generated_Source\PSoC5/UART_1.c **** ********************************************************************************
 294:.\Generated_Source\PSoC5/UART_1.c **** *
 295:.\Generated_Source\PSoC5/UART_1.c **** * Summary:
 296:.\Generated_Source\PSoC5/UART_1.c **** *  Writes an 8-bit value into the control register
 297:.\Generated_Source\PSoC5/UART_1.c **** *
 298:.\Generated_Source\PSoC5/UART_1.c **** * Parameters:
 299:.\Generated_Source\PSoC5/UART_1.c **** *  control:  control register value
 300:.\Generated_Source\PSoC5/UART_1.c **** *
 301:.\Generated_Source\PSoC5/UART_1.c **** * Return:
 302:.\Generated_Source\PSoC5/UART_1.c **** *  None.
 303:.\Generated_Source\PSoC5/UART_1.c **** *
 304:.\Generated_Source\PSoC5/UART_1.c **** *******************************************************************************/
 305:.\Generated_Source\PSoC5/UART_1.c **** void  UART_1_WriteControlRegister(uint8 control) 
 306:.\Generated_Source\PSoC5/UART_1.c **** {
 307:.\Generated_Source\PSoC5/UART_1.c ****     #if( UART_1_CONTROL_REG_REMOVED )
 308:.\Generated_Source\PSoC5/UART_1.c ****         if(control != 0u) { }      /* release compiler warning */
 309:.\Generated_Source\PSoC5/UART_1.c ****     #else
 310:.\Generated_Source\PSoC5/UART_1.c ****        UART_1_CONTROL_REG = control;
 311:.\Generated_Source\PSoC5/UART_1.c ****     #endif /* End UART_1_CONTROL_REG_REMOVED */
 312:.\Generated_Source\PSoC5/UART_1.c **** }
 313:.\Generated_Source\PSoC5/UART_1.c **** 
 314:.\Generated_Source\PSoC5/UART_1.c **** 
 315:.\Generated_Source\PSoC5/UART_1.c **** #if(UART_1_RX_ENABLED || UART_1_HD_ENABLED)
 316:.\Generated_Source\PSoC5/UART_1.c **** 
 317:.\Generated_Source\PSoC5/UART_1.c ****     #if(UART_1_RX_INTERRUPT_ENABLED)
 318:.\Generated_Source\PSoC5/UART_1.c **** 
 319:.\Generated_Source\PSoC5/UART_1.c ****         /*******************************************************************************
 320:.\Generated_Source\PSoC5/UART_1.c ****         * Function Name: UART_1_EnableRxInt
 321:.\Generated_Source\PSoC5/UART_1.c ****         ********************************************************************************
 322:.\Generated_Source\PSoC5/UART_1.c ****         *
 323:.\Generated_Source\PSoC5/UART_1.c ****         * Summary:
 324:.\Generated_Source\PSoC5/UART_1.c ****         *  Enable RX interrupt generation
 325:.\Generated_Source\PSoC5/UART_1.c ****         *
ARM GAS  C:\Users\acer\AppData\Local\Temp\ccQxlELY.s 			page 11


 326:.\Generated_Source\PSoC5/UART_1.c ****         * Parameters:
 327:.\Generated_Source\PSoC5/UART_1.c ****         *  None.
 328:.\Generated_Source\PSoC5/UART_1.c ****         *
 329:.\Generated_Source\PSoC5/UART_1.c ****         * Return:
 330:.\Generated_Source\PSoC5/UART_1.c ****         *  None.
 331:.\Generated_Source\PSoC5/UART_1.c ****         *
 332:.\Generated_Source\PSoC5/UART_1.c ****         * Theory:
 333:.\Generated_Source\PSoC5/UART_1.c ****         *  Enable the interrupt output -or- the interrupt component itself
 334:.\Generated_Source\PSoC5/UART_1.c ****         *
 335:.\Generated_Source\PSoC5/UART_1.c ****         *******************************************************************************/
 336:.\Generated_Source\PSoC5/UART_1.c ****         void UART_1_EnableRxInt(void) 
 337:.\Generated_Source\PSoC5/UART_1.c ****         {
 338:.\Generated_Source\PSoC5/UART_1.c ****             CyIntEnable(UART_1_RX_VECT_NUM);
 339:.\Generated_Source\PSoC5/UART_1.c ****         }
 340:.\Generated_Source\PSoC5/UART_1.c **** 
 341:.\Generated_Source\PSoC5/UART_1.c **** 
 342:.\Generated_Source\PSoC5/UART_1.c ****         /*******************************************************************************
 343:.\Generated_Source\PSoC5/UART_1.c ****         * Function Name: UART_1_DisableRxInt
 344:.\Generated_Source\PSoC5/UART_1.c ****         ********************************************************************************
 345:.\Generated_Source\PSoC5/UART_1.c ****         *
 346:.\Generated_Source\PSoC5/UART_1.c ****         * Summary:
 347:.\Generated_Source\PSoC5/UART_1.c ****         *  Disable RX interrupt generation
 348:.\Generated_Source\PSoC5/UART_1.c ****         *
 349:.\Generated_Source\PSoC5/UART_1.c ****         * Parameters:
 350:.\Generated_Source\PSoC5/UART_1.c ****         *  None.
 351:.\Generated_Source\PSoC5/UART_1.c ****         *
 352:.\Generated_Source\PSoC5/UART_1.c ****         * Return:
 353:.\Generated_Source\PSoC5/UART_1.c ****         *  None.
 354:.\Generated_Source\PSoC5/UART_1.c ****         *
 355:.\Generated_Source\PSoC5/UART_1.c ****         * Theory:
 356:.\Generated_Source\PSoC5/UART_1.c ****         *  Disable the interrupt output -or- the interrupt component itself
 357:.\Generated_Source\PSoC5/UART_1.c ****         *
 358:.\Generated_Source\PSoC5/UART_1.c ****         *******************************************************************************/
 359:.\Generated_Source\PSoC5/UART_1.c ****         void UART_1_DisableRxInt(void) 
 360:.\Generated_Source\PSoC5/UART_1.c ****         {
 361:.\Generated_Source\PSoC5/UART_1.c ****             CyIntDisable(UART_1_RX_VECT_NUM);
 234              		.loc 1 361 0
 235 0024 094A     		ldr	r2, .L13+12
 236 0026 0223     		movs	r3, #2
 237 0028 1360     		str	r3, [r2]
 238              	.LBE35:
 239              	.LBE34:
 257:.\Generated_Source\PSoC5/UART_1.c ****         #if(UART_1_TX_INTERRUPT_ENABLED && (UART_1_TXBUFFERSIZE > UART_1_FIFO_LENGTH))
 240              		.loc 1 257 0
 241 002a 0B78     		ldrb	r3, [r1]	@ zero_extendqisi2
 242 002c 03F0EF03 		and	r3, r3, #239
 243 0030 0B70     		strb	r3, [r1]
 244              	.LBB36:
 245              	.LBB37:
 362:.\Generated_Source\PSoC5/UART_1.c ****         }
 363:.\Generated_Source\PSoC5/UART_1.c **** 
 364:.\Generated_Source\PSoC5/UART_1.c ****     #endif /* UART_1_RX_INTERRUPT_ENABLED */
 365:.\Generated_Source\PSoC5/UART_1.c **** 
 366:.\Generated_Source\PSoC5/UART_1.c **** 
 367:.\Generated_Source\PSoC5/UART_1.c ****     /*******************************************************************************
 368:.\Generated_Source\PSoC5/UART_1.c ****     * Function Name: UART_1_SetRxInterruptMode
 369:.\Generated_Source\PSoC5/UART_1.c ****     ********************************************************************************
ARM GAS  C:\Users\acer\AppData\Local\Temp\ccQxlELY.s 			page 12


 370:.\Generated_Source\PSoC5/UART_1.c ****     *
 371:.\Generated_Source\PSoC5/UART_1.c ****     * Summary:
 372:.\Generated_Source\PSoC5/UART_1.c ****     *  Configure which status bits trigger an interrupt event
 373:.\Generated_Source\PSoC5/UART_1.c ****     *
 374:.\Generated_Source\PSoC5/UART_1.c ****     * Parameters:
 375:.\Generated_Source\PSoC5/UART_1.c ****     *  IntSrc:  An or'd combination of the desired status bit masks (defined in
 376:.\Generated_Source\PSoC5/UART_1.c ****     *           the header file)
 377:.\Generated_Source\PSoC5/UART_1.c ****     *
 378:.\Generated_Source\PSoC5/UART_1.c ****     * Return:
 379:.\Generated_Source\PSoC5/UART_1.c ****     *  None.
 380:.\Generated_Source\PSoC5/UART_1.c ****     *
 381:.\Generated_Source\PSoC5/UART_1.c ****     * Theory:
 382:.\Generated_Source\PSoC5/UART_1.c ****     *  Enables the output of specific status bits to the interrupt controller
 383:.\Generated_Source\PSoC5/UART_1.c ****     *
 384:.\Generated_Source\PSoC5/UART_1.c ****     *******************************************************************************/
 385:.\Generated_Source\PSoC5/UART_1.c ****     void UART_1_SetRxInterruptMode(uint8 intSrc) 
 386:.\Generated_Source\PSoC5/UART_1.c ****     {
 387:.\Generated_Source\PSoC5/UART_1.c ****         UART_1_RXSTATUS_MASK_REG  = intSrc;
 388:.\Generated_Source\PSoC5/UART_1.c ****     }
 389:.\Generated_Source\PSoC5/UART_1.c **** 
 390:.\Generated_Source\PSoC5/UART_1.c **** 
 391:.\Generated_Source\PSoC5/UART_1.c ****     /*******************************************************************************
 392:.\Generated_Source\PSoC5/UART_1.c ****     * Function Name: UART_1_ReadRxData
 393:.\Generated_Source\PSoC5/UART_1.c ****     ********************************************************************************
 394:.\Generated_Source\PSoC5/UART_1.c ****     *
 395:.\Generated_Source\PSoC5/UART_1.c ****     * Summary:
 396:.\Generated_Source\PSoC5/UART_1.c ****     *  Returns data in RX Data register without checking status register to
 397:.\Generated_Source\PSoC5/UART_1.c ****     *  determine if data is valid
 398:.\Generated_Source\PSoC5/UART_1.c ****     *
 399:.\Generated_Source\PSoC5/UART_1.c ****     * Parameters:
 400:.\Generated_Source\PSoC5/UART_1.c ****     *  None.
 401:.\Generated_Source\PSoC5/UART_1.c ****     *
 402:.\Generated_Source\PSoC5/UART_1.c ****     * Return:
 403:.\Generated_Source\PSoC5/UART_1.c ****     *  Received data from RX register
 404:.\Generated_Source\PSoC5/UART_1.c ****     *
 405:.\Generated_Source\PSoC5/UART_1.c ****     * Global Variables:
 406:.\Generated_Source\PSoC5/UART_1.c ****     *  UART_1_rxBuffer - RAM buffer pointer for save received data.
 407:.\Generated_Source\PSoC5/UART_1.c ****     *  UART_1_rxBufferWrite - cyclic index for write to rxBuffer,
 408:.\Generated_Source\PSoC5/UART_1.c ****     *     checked to identify new data.
 409:.\Generated_Source\PSoC5/UART_1.c ****     *  UART_1_rxBufferRead - cyclic index for read from rxBuffer,
 410:.\Generated_Source\PSoC5/UART_1.c ****     *     incremented after each byte has been read from buffer.
 411:.\Generated_Source\PSoC5/UART_1.c ****     *  UART_1_rxBufferLoopDetect - creared if loop condition was detected
 412:.\Generated_Source\PSoC5/UART_1.c ****     *     in RX ISR.
 413:.\Generated_Source\PSoC5/UART_1.c ****     *
 414:.\Generated_Source\PSoC5/UART_1.c ****     * Reentrant:
 415:.\Generated_Source\PSoC5/UART_1.c ****     *  No.
 416:.\Generated_Source\PSoC5/UART_1.c ****     *
 417:.\Generated_Source\PSoC5/UART_1.c ****     *******************************************************************************/
 418:.\Generated_Source\PSoC5/UART_1.c ****     uint8 UART_1_ReadRxData(void) 
 419:.\Generated_Source\PSoC5/UART_1.c ****     {
 420:.\Generated_Source\PSoC5/UART_1.c ****         uint8 rxData;
 421:.\Generated_Source\PSoC5/UART_1.c **** 
 422:.\Generated_Source\PSoC5/UART_1.c ****         #if(UART_1_RXBUFFERSIZE > UART_1_FIFO_LENGTH)
 423:.\Generated_Source\PSoC5/UART_1.c ****             uint8 loc_rxBufferRead;
 424:.\Generated_Source\PSoC5/UART_1.c ****             uint8 loc_rxBufferWrite;
 425:.\Generated_Source\PSoC5/UART_1.c ****             /* Protect variables that could change on interrupt. */
 426:.\Generated_Source\PSoC5/UART_1.c ****             /* Disable Rx interrupt. */
ARM GAS  C:\Users\acer\AppData\Local\Temp\ccQxlELY.s 			page 13


 427:.\Generated_Source\PSoC5/UART_1.c ****             #if(UART_1_RX_INTERRUPT_ENABLED)
 428:.\Generated_Source\PSoC5/UART_1.c ****                 UART_1_DisableRxInt();
 429:.\Generated_Source\PSoC5/UART_1.c ****             #endif /* UART_1_RX_INTERRUPT_ENABLED */
 430:.\Generated_Source\PSoC5/UART_1.c ****             loc_rxBufferRead = UART_1_rxBufferRead;
 431:.\Generated_Source\PSoC5/UART_1.c ****             loc_rxBufferWrite = UART_1_rxBufferWrite;
 432:.\Generated_Source\PSoC5/UART_1.c **** 
 433:.\Generated_Source\PSoC5/UART_1.c ****             if( (UART_1_rxBufferLoopDetect != 0u) || (loc_rxBufferRead != loc_rxBufferWrite) )
 434:.\Generated_Source\PSoC5/UART_1.c ****             {
 435:.\Generated_Source\PSoC5/UART_1.c ****                 rxData = UART_1_rxBuffer[loc_rxBufferRead];
 436:.\Generated_Source\PSoC5/UART_1.c ****                 loc_rxBufferRead++;
 437:.\Generated_Source\PSoC5/UART_1.c **** 
 438:.\Generated_Source\PSoC5/UART_1.c ****                 if(loc_rxBufferRead >= UART_1_RXBUFFERSIZE)
 439:.\Generated_Source\PSoC5/UART_1.c ****                 {
 440:.\Generated_Source\PSoC5/UART_1.c ****                     loc_rxBufferRead = 0u;
 441:.\Generated_Source\PSoC5/UART_1.c ****                 }
 442:.\Generated_Source\PSoC5/UART_1.c ****                 /* Update the real pointer */
 443:.\Generated_Source\PSoC5/UART_1.c ****                 UART_1_rxBufferRead = loc_rxBufferRead;
 444:.\Generated_Source\PSoC5/UART_1.c **** 
 445:.\Generated_Source\PSoC5/UART_1.c ****                 if(UART_1_rxBufferLoopDetect != 0u )
 446:.\Generated_Source\PSoC5/UART_1.c ****                 {
 447:.\Generated_Source\PSoC5/UART_1.c ****                     UART_1_rxBufferLoopDetect = 0u;
 448:.\Generated_Source\PSoC5/UART_1.c ****                     #if( (UART_1_RX_INTERRUPT_ENABLED) && (UART_1_FLOW_CONTROL != 0u) && \
 449:.\Generated_Source\PSoC5/UART_1.c ****                          (UART_1_RXBUFFERSIZE > UART_1_FIFO_LENGTH) )
 450:.\Generated_Source\PSoC5/UART_1.c ****                         /* When Hardware Flow Control selected - return RX mask */
 451:.\Generated_Source\PSoC5/UART_1.c ****                         #if( UART_1_HD_ENABLED )
 452:.\Generated_Source\PSoC5/UART_1.c ****                             if((UART_1_CONTROL_REG & UART_1_CTRL_HD_SEND) == 0u)
 453:.\Generated_Source\PSoC5/UART_1.c ****                             {   /* In Half duplex mode return RX mask only in RX
 454:.\Generated_Source\PSoC5/UART_1.c ****                                 *  configuration set, otherwise
 455:.\Generated_Source\PSoC5/UART_1.c ****                                 *  mask will be returned in LoadRxConfig() API.
 456:.\Generated_Source\PSoC5/UART_1.c ****                                 */
 457:.\Generated_Source\PSoC5/UART_1.c ****                                 UART_1_RXSTATUS_MASK_REG  |= UART_1_RX_STS_FIFO_NOTEMPTY;
 458:.\Generated_Source\PSoC5/UART_1.c ****                             }
 459:.\Generated_Source\PSoC5/UART_1.c ****                         #else
 460:.\Generated_Source\PSoC5/UART_1.c ****                             UART_1_RXSTATUS_MASK_REG  |= UART_1_RX_STS_FIFO_NOTEMPTY;
 461:.\Generated_Source\PSoC5/UART_1.c ****                         #endif /* end UART_1_HD_ENABLED */
 462:.\Generated_Source\PSoC5/UART_1.c ****                     #endif /* UART_1_RX_INTERRUPT_ENABLED and Hardware flow control*/
 463:.\Generated_Source\PSoC5/UART_1.c ****                 }
 464:.\Generated_Source\PSoC5/UART_1.c ****             }
 465:.\Generated_Source\PSoC5/UART_1.c ****             else
 466:.\Generated_Source\PSoC5/UART_1.c ****             {   /* Needs to check status for RX_STS_FIFO_NOTEMPTY bit*/
 467:.\Generated_Source\PSoC5/UART_1.c ****                 rxData = UART_1_RXDATA_REG;
 468:.\Generated_Source\PSoC5/UART_1.c ****             }
 469:.\Generated_Source\PSoC5/UART_1.c **** 
 470:.\Generated_Source\PSoC5/UART_1.c ****             /* Enable Rx interrupt. */
 471:.\Generated_Source\PSoC5/UART_1.c ****             #if(UART_1_RX_INTERRUPT_ENABLED)
 472:.\Generated_Source\PSoC5/UART_1.c ****                 UART_1_EnableRxInt();
 473:.\Generated_Source\PSoC5/UART_1.c ****             #endif /* End UART_1_RX_INTERRUPT_ENABLED */
 474:.\Generated_Source\PSoC5/UART_1.c **** 
 475:.\Generated_Source\PSoC5/UART_1.c ****         #else /* UART_1_RXBUFFERSIZE > UART_1_FIFO_LENGTH */
 476:.\Generated_Source\PSoC5/UART_1.c **** 
 477:.\Generated_Source\PSoC5/UART_1.c ****             /* Needs to check status for RX_STS_FIFO_NOTEMPTY bit*/
 478:.\Generated_Source\PSoC5/UART_1.c ****             rxData = UART_1_RXDATA_REG;
 479:.\Generated_Source\PSoC5/UART_1.c **** 
 480:.\Generated_Source\PSoC5/UART_1.c ****         #endif /* UART_1_RXBUFFERSIZE > UART_1_FIFO_LENGTH */
 481:.\Generated_Source\PSoC5/UART_1.c **** 
 482:.\Generated_Source\PSoC5/UART_1.c ****         return(rxData);
 483:.\Generated_Source\PSoC5/UART_1.c ****     }
ARM GAS  C:\Users\acer\AppData\Local\Temp\ccQxlELY.s 			page 14


 484:.\Generated_Source\PSoC5/UART_1.c **** 
 485:.\Generated_Source\PSoC5/UART_1.c **** 
 486:.\Generated_Source\PSoC5/UART_1.c ****     /*******************************************************************************
 487:.\Generated_Source\PSoC5/UART_1.c ****     * Function Name: UART_1_ReadRxStatus
 488:.\Generated_Source\PSoC5/UART_1.c ****     ********************************************************************************
 489:.\Generated_Source\PSoC5/UART_1.c ****     *
 490:.\Generated_Source\PSoC5/UART_1.c ****     * Summary:
 491:.\Generated_Source\PSoC5/UART_1.c ****     *  Read the current state of the status register
 492:.\Generated_Source\PSoC5/UART_1.c ****     *  And detect software buffer overflow.
 493:.\Generated_Source\PSoC5/UART_1.c ****     *
 494:.\Generated_Source\PSoC5/UART_1.c ****     * Parameters:
 495:.\Generated_Source\PSoC5/UART_1.c ****     *  None.
 496:.\Generated_Source\PSoC5/UART_1.c ****     *
 497:.\Generated_Source\PSoC5/UART_1.c ****     * Return:
 498:.\Generated_Source\PSoC5/UART_1.c ****     *  Current state of the status register.
 499:.\Generated_Source\PSoC5/UART_1.c ****     *
 500:.\Generated_Source\PSoC5/UART_1.c ****     * Global Variables:
 501:.\Generated_Source\PSoC5/UART_1.c ****     *  UART_1_rxBufferOverflow - used to indicate overload condition.
 502:.\Generated_Source\PSoC5/UART_1.c ****     *   It set to one in RX interrupt when there isn?t free space in
 503:.\Generated_Source\PSoC5/UART_1.c ****     *   UART_1_rxBufferRead to write new data. This condition returned
 504:.\Generated_Source\PSoC5/UART_1.c ****     *   and cleared to zero by this API as an
 505:.\Generated_Source\PSoC5/UART_1.c ****     *   UART_1_RX_STS_SOFT_BUFF_OVER bit along with RX Status register
 506:.\Generated_Source\PSoC5/UART_1.c ****     *   bits.
 507:.\Generated_Source\PSoC5/UART_1.c ****     *
 508:.\Generated_Source\PSoC5/UART_1.c ****     *******************************************************************************/
 509:.\Generated_Source\PSoC5/UART_1.c ****     uint8 UART_1_ReadRxStatus(void) 
 510:.\Generated_Source\PSoC5/UART_1.c ****     {
 511:.\Generated_Source\PSoC5/UART_1.c ****         uint8 status;
 512:.\Generated_Source\PSoC5/UART_1.c **** 
 513:.\Generated_Source\PSoC5/UART_1.c ****         status = UART_1_RXSTATUS_REG & UART_1_RX_HW_MASK;
 514:.\Generated_Source\PSoC5/UART_1.c **** 
 515:.\Generated_Source\PSoC5/UART_1.c ****         #if(UART_1_RXBUFFERSIZE > UART_1_FIFO_LENGTH)
 516:.\Generated_Source\PSoC5/UART_1.c ****             if( UART_1_rxBufferOverflow != 0u )
 517:.\Generated_Source\PSoC5/UART_1.c ****             {
 518:.\Generated_Source\PSoC5/UART_1.c ****                 status |= UART_1_RX_STS_SOFT_BUFF_OVER;
 519:.\Generated_Source\PSoC5/UART_1.c ****                 UART_1_rxBufferOverflow = 0u;
 520:.\Generated_Source\PSoC5/UART_1.c ****             }
 521:.\Generated_Source\PSoC5/UART_1.c ****         #endif /* UART_1_RXBUFFERSIZE */
 522:.\Generated_Source\PSoC5/UART_1.c **** 
 523:.\Generated_Source\PSoC5/UART_1.c ****         return(status);
 524:.\Generated_Source\PSoC5/UART_1.c ****     }
 525:.\Generated_Source\PSoC5/UART_1.c **** 
 526:.\Generated_Source\PSoC5/UART_1.c **** 
 527:.\Generated_Source\PSoC5/UART_1.c ****     /*******************************************************************************
 528:.\Generated_Source\PSoC5/UART_1.c ****     * Function Name: UART_1_GetChar
 529:.\Generated_Source\PSoC5/UART_1.c ****     ********************************************************************************
 530:.\Generated_Source\PSoC5/UART_1.c ****     *
 531:.\Generated_Source\PSoC5/UART_1.c ****     * Summary:
 532:.\Generated_Source\PSoC5/UART_1.c ****     *  Reads UART RX buffer immediately, if data is not available or an error
 533:.\Generated_Source\PSoC5/UART_1.c ****     *  condition exists, zero is returned; otherwise, character is read and
 534:.\Generated_Source\PSoC5/UART_1.c ****     *  returned.
 535:.\Generated_Source\PSoC5/UART_1.c ****     *
 536:.\Generated_Source\PSoC5/UART_1.c ****     * Parameters:
 537:.\Generated_Source\PSoC5/UART_1.c ****     *  None.
 538:.\Generated_Source\PSoC5/UART_1.c ****     *
 539:.\Generated_Source\PSoC5/UART_1.c ****     * Return:
 540:.\Generated_Source\PSoC5/UART_1.c ****     *  Character read from UART RX buffer. ASCII characters from 1 to 255 are valid.
ARM GAS  C:\Users\acer\AppData\Local\Temp\ccQxlELY.s 			page 15


 541:.\Generated_Source\PSoC5/UART_1.c ****     *  A returned zero signifies an error condition or no data available.
 542:.\Generated_Source\PSoC5/UART_1.c ****     *
 543:.\Generated_Source\PSoC5/UART_1.c ****     * Global Variables:
 544:.\Generated_Source\PSoC5/UART_1.c ****     *  UART_1_rxBuffer - RAM buffer pointer for save received data.
 545:.\Generated_Source\PSoC5/UART_1.c ****     *  UART_1_rxBufferWrite - cyclic index for write to rxBuffer,
 546:.\Generated_Source\PSoC5/UART_1.c ****     *     checked to identify new data.
 547:.\Generated_Source\PSoC5/UART_1.c ****     *  UART_1_rxBufferRead - cyclic index for read from rxBuffer,
 548:.\Generated_Source\PSoC5/UART_1.c ****     *     incremented after each byte has been read from buffer.
 549:.\Generated_Source\PSoC5/UART_1.c ****     *  UART_1_rxBufferLoopDetect - creared if loop condition was detected
 550:.\Generated_Source\PSoC5/UART_1.c ****     *     in RX ISR.
 551:.\Generated_Source\PSoC5/UART_1.c ****     *
 552:.\Generated_Source\PSoC5/UART_1.c ****     * Reentrant:
 553:.\Generated_Source\PSoC5/UART_1.c ****     *  No.
 554:.\Generated_Source\PSoC5/UART_1.c ****     *
 555:.\Generated_Source\PSoC5/UART_1.c ****     *******************************************************************************/
 556:.\Generated_Source\PSoC5/UART_1.c ****     uint8 UART_1_GetChar(void) 
 557:.\Generated_Source\PSoC5/UART_1.c ****     {
 558:.\Generated_Source\PSoC5/UART_1.c ****         uint8 rxData = 0u;
 559:.\Generated_Source\PSoC5/UART_1.c ****         uint8 rxStatus;
 560:.\Generated_Source\PSoC5/UART_1.c **** 
 561:.\Generated_Source\PSoC5/UART_1.c ****         #if(UART_1_RXBUFFERSIZE > UART_1_FIFO_LENGTH)
 562:.\Generated_Source\PSoC5/UART_1.c ****             uint8 loc_rxBufferRead;
 563:.\Generated_Source\PSoC5/UART_1.c ****             uint8 loc_rxBufferWrite;
 564:.\Generated_Source\PSoC5/UART_1.c ****             /* Protect variables that could change on interrupt. */
 565:.\Generated_Source\PSoC5/UART_1.c ****             /* Disable Rx interrupt. */
 566:.\Generated_Source\PSoC5/UART_1.c ****             #if(UART_1_RX_INTERRUPT_ENABLED)
 567:.\Generated_Source\PSoC5/UART_1.c ****                 UART_1_DisableRxInt();
 568:.\Generated_Source\PSoC5/UART_1.c ****             #endif /* UART_1_RX_INTERRUPT_ENABLED */
 569:.\Generated_Source\PSoC5/UART_1.c ****             loc_rxBufferRead = UART_1_rxBufferRead;
 570:.\Generated_Source\PSoC5/UART_1.c ****             loc_rxBufferWrite = UART_1_rxBufferWrite;
 571:.\Generated_Source\PSoC5/UART_1.c **** 
 572:.\Generated_Source\PSoC5/UART_1.c ****             if( (UART_1_rxBufferLoopDetect != 0u) || (loc_rxBufferRead != loc_rxBufferWrite) )
 573:.\Generated_Source\PSoC5/UART_1.c ****             {
 574:.\Generated_Source\PSoC5/UART_1.c ****                 rxData = UART_1_rxBuffer[loc_rxBufferRead];
 575:.\Generated_Source\PSoC5/UART_1.c ****                 loc_rxBufferRead++;
 576:.\Generated_Source\PSoC5/UART_1.c ****                 if(loc_rxBufferRead >= UART_1_RXBUFFERSIZE)
 577:.\Generated_Source\PSoC5/UART_1.c ****                 {
 578:.\Generated_Source\PSoC5/UART_1.c ****                     loc_rxBufferRead = 0u;
 579:.\Generated_Source\PSoC5/UART_1.c ****                 }
 580:.\Generated_Source\PSoC5/UART_1.c ****                 /* Update the real pointer */
 581:.\Generated_Source\PSoC5/UART_1.c ****                 UART_1_rxBufferRead = loc_rxBufferRead;
 582:.\Generated_Source\PSoC5/UART_1.c **** 
 583:.\Generated_Source\PSoC5/UART_1.c ****                 if(UART_1_rxBufferLoopDetect > 0u )
 584:.\Generated_Source\PSoC5/UART_1.c ****                 {
 585:.\Generated_Source\PSoC5/UART_1.c ****                     UART_1_rxBufferLoopDetect = 0u;
 586:.\Generated_Source\PSoC5/UART_1.c ****                     #if( (UART_1_RX_INTERRUPT_ENABLED) && (UART_1_FLOW_CONTROL != 0u) )
 587:.\Generated_Source\PSoC5/UART_1.c ****                         /* When Hardware Flow Control selected - return RX mask */
 588:.\Generated_Source\PSoC5/UART_1.c ****                         #if( UART_1_HD_ENABLED )
 589:.\Generated_Source\PSoC5/UART_1.c ****                             if((UART_1_CONTROL_REG & UART_1_CTRL_HD_SEND) == 0u)
 590:.\Generated_Source\PSoC5/UART_1.c ****                             {   /* In Half duplex mode return RX mask only if
 591:.\Generated_Source\PSoC5/UART_1.c ****                                 *  RX configuration set, otherwise
 592:.\Generated_Source\PSoC5/UART_1.c ****                                 *  mask will be returned in LoadRxConfig() API.
 593:.\Generated_Source\PSoC5/UART_1.c ****                                 */
 594:.\Generated_Source\PSoC5/UART_1.c ****                                 UART_1_RXSTATUS_MASK_REG  |= UART_1_RX_STS_FIFO_NOTEMPTY;
 595:.\Generated_Source\PSoC5/UART_1.c ****                             }
 596:.\Generated_Source\PSoC5/UART_1.c ****                         #else
 597:.\Generated_Source\PSoC5/UART_1.c ****                             UART_1_RXSTATUS_MASK_REG  |= UART_1_RX_STS_FIFO_NOTEMPTY;
ARM GAS  C:\Users\acer\AppData\Local\Temp\ccQxlELY.s 			page 16


 598:.\Generated_Source\PSoC5/UART_1.c ****                         #endif /* end UART_1_HD_ENABLED */
 599:.\Generated_Source\PSoC5/UART_1.c ****                     #endif /* UART_1_RX_INTERRUPT_ENABLED and Hardware flow control*/
 600:.\Generated_Source\PSoC5/UART_1.c ****                 }
 601:.\Generated_Source\PSoC5/UART_1.c **** 
 602:.\Generated_Source\PSoC5/UART_1.c ****             }
 603:.\Generated_Source\PSoC5/UART_1.c ****             else
 604:.\Generated_Source\PSoC5/UART_1.c ****             {   rxStatus = UART_1_RXSTATUS_REG;
 605:.\Generated_Source\PSoC5/UART_1.c ****                 if((rxStatus & UART_1_RX_STS_FIFO_NOTEMPTY) != 0u)
 606:.\Generated_Source\PSoC5/UART_1.c ****                 {   /* Read received data from FIFO*/
 607:.\Generated_Source\PSoC5/UART_1.c ****                     rxData = UART_1_RXDATA_REG;
 608:.\Generated_Source\PSoC5/UART_1.c ****                     /*Check status on error*/
 609:.\Generated_Source\PSoC5/UART_1.c ****                     if((rxStatus & (UART_1_RX_STS_BREAK | UART_1_RX_STS_PAR_ERROR |
 610:.\Generated_Source\PSoC5/UART_1.c ****                                    UART_1_RX_STS_STOP_ERROR | UART_1_RX_STS_OVERRUN)) != 0u)
 611:.\Generated_Source\PSoC5/UART_1.c ****                     {
 612:.\Generated_Source\PSoC5/UART_1.c ****                         rxData = 0u;
 613:.\Generated_Source\PSoC5/UART_1.c ****                     }
 614:.\Generated_Source\PSoC5/UART_1.c ****                 }
 615:.\Generated_Source\PSoC5/UART_1.c ****             }
 616:.\Generated_Source\PSoC5/UART_1.c **** 
 617:.\Generated_Source\PSoC5/UART_1.c ****             /* Enable Rx interrupt. */
 618:.\Generated_Source\PSoC5/UART_1.c ****             #if(UART_1_RX_INTERRUPT_ENABLED)
 619:.\Generated_Source\PSoC5/UART_1.c ****                 UART_1_EnableRxInt();
 620:.\Generated_Source\PSoC5/UART_1.c ****             #endif /* UART_1_RX_INTERRUPT_ENABLED */
 621:.\Generated_Source\PSoC5/UART_1.c **** 
 622:.\Generated_Source\PSoC5/UART_1.c ****         #else /* UART_1_RXBUFFERSIZE > UART_1_FIFO_LENGTH */
 623:.\Generated_Source\PSoC5/UART_1.c **** 
 624:.\Generated_Source\PSoC5/UART_1.c ****             rxStatus =UART_1_RXSTATUS_REG;
 625:.\Generated_Source\PSoC5/UART_1.c ****             if((rxStatus & UART_1_RX_STS_FIFO_NOTEMPTY) != 0u)
 626:.\Generated_Source\PSoC5/UART_1.c ****             {   /* Read received data from FIFO*/
 627:.\Generated_Source\PSoC5/UART_1.c ****                 rxData = UART_1_RXDATA_REG;
 628:.\Generated_Source\PSoC5/UART_1.c ****                 /*Check status on error*/
 629:.\Generated_Source\PSoC5/UART_1.c ****                 if((rxStatus & (UART_1_RX_STS_BREAK | UART_1_RX_STS_PAR_ERROR |
 630:.\Generated_Source\PSoC5/UART_1.c ****                                UART_1_RX_STS_STOP_ERROR | UART_1_RX_STS_OVERRUN)) != 0u)
 631:.\Generated_Source\PSoC5/UART_1.c ****                 {
 632:.\Generated_Source\PSoC5/UART_1.c ****                     rxData = 0u;
 633:.\Generated_Source\PSoC5/UART_1.c ****                 }
 634:.\Generated_Source\PSoC5/UART_1.c ****             }
 635:.\Generated_Source\PSoC5/UART_1.c ****         #endif /* UART_1_RXBUFFERSIZE > UART_1_FIFO_LENGTH */
 636:.\Generated_Source\PSoC5/UART_1.c **** 
 637:.\Generated_Source\PSoC5/UART_1.c ****         return(rxData);
 638:.\Generated_Source\PSoC5/UART_1.c ****     }
 639:.\Generated_Source\PSoC5/UART_1.c **** 
 640:.\Generated_Source\PSoC5/UART_1.c **** 
 641:.\Generated_Source\PSoC5/UART_1.c ****     /*******************************************************************************
 642:.\Generated_Source\PSoC5/UART_1.c ****     * Function Name: UART_1_GetByte
 643:.\Generated_Source\PSoC5/UART_1.c ****     ********************************************************************************
 644:.\Generated_Source\PSoC5/UART_1.c ****     *
 645:.\Generated_Source\PSoC5/UART_1.c ****     * Summary:
 646:.\Generated_Source\PSoC5/UART_1.c ****     *  Grab the next available byte of data from the recieve FIFO
 647:.\Generated_Source\PSoC5/UART_1.c ****     *
 648:.\Generated_Source\PSoC5/UART_1.c ****     * Parameters:
 649:.\Generated_Source\PSoC5/UART_1.c ****     *  None.
 650:.\Generated_Source\PSoC5/UART_1.c ****     *
 651:.\Generated_Source\PSoC5/UART_1.c ****     * Return:
 652:.\Generated_Source\PSoC5/UART_1.c ****     *  MSB contains Status Register and LSB contains UART RX data
 653:.\Generated_Source\PSoC5/UART_1.c ****     *
 654:.\Generated_Source\PSoC5/UART_1.c ****     * Reentrant:
ARM GAS  C:\Users\acer\AppData\Local\Temp\ccQxlELY.s 			page 17


 655:.\Generated_Source\PSoC5/UART_1.c ****     *  No.
 656:.\Generated_Source\PSoC5/UART_1.c ****     *
 657:.\Generated_Source\PSoC5/UART_1.c ****     *******************************************************************************/
 658:.\Generated_Source\PSoC5/UART_1.c ****     uint16 UART_1_GetByte(void) 
 659:.\Generated_Source\PSoC5/UART_1.c ****     {
 660:.\Generated_Source\PSoC5/UART_1.c ****         return ( ((uint16)UART_1_ReadRxStatus() << 8u) | UART_1_ReadRxData() );
 661:.\Generated_Source\PSoC5/UART_1.c ****     }
 662:.\Generated_Source\PSoC5/UART_1.c **** 
 663:.\Generated_Source\PSoC5/UART_1.c **** 
 664:.\Generated_Source\PSoC5/UART_1.c ****     /*******************************************************************************
 665:.\Generated_Source\PSoC5/UART_1.c ****     * Function Name: UART_1_GetRxBufferSize
 666:.\Generated_Source\PSoC5/UART_1.c ****     ********************************************************************************
 667:.\Generated_Source\PSoC5/UART_1.c ****     *
 668:.\Generated_Source\PSoC5/UART_1.c ****     * Summary:
 669:.\Generated_Source\PSoC5/UART_1.c ****     *  Determine the amount of bytes left in the RX buffer and return the count in
 670:.\Generated_Source\PSoC5/UART_1.c ****     *  bytes
 671:.\Generated_Source\PSoC5/UART_1.c ****     *
 672:.\Generated_Source\PSoC5/UART_1.c ****     * Parameters:
 673:.\Generated_Source\PSoC5/UART_1.c ****     *  None.
 674:.\Generated_Source\PSoC5/UART_1.c ****     *
 675:.\Generated_Source\PSoC5/UART_1.c ****     * Return:
 676:.\Generated_Source\PSoC5/UART_1.c ****     *  uint8: Integer count of the number of bytes left
 677:.\Generated_Source\PSoC5/UART_1.c ****     *  in the RX buffer
 678:.\Generated_Source\PSoC5/UART_1.c ****     *
 679:.\Generated_Source\PSoC5/UART_1.c ****     * Global Variables:
 680:.\Generated_Source\PSoC5/UART_1.c ****     *  UART_1_rxBufferWrite - used to calculate left bytes.
 681:.\Generated_Source\PSoC5/UART_1.c ****     *  UART_1_rxBufferRead - used to calculate left bytes.
 682:.\Generated_Source\PSoC5/UART_1.c ****     *  UART_1_rxBufferLoopDetect - checked to decide left bytes amount.
 683:.\Generated_Source\PSoC5/UART_1.c ****     *
 684:.\Generated_Source\PSoC5/UART_1.c ****     * Reentrant:
 685:.\Generated_Source\PSoC5/UART_1.c ****     *  No.
 686:.\Generated_Source\PSoC5/UART_1.c ****     *
 687:.\Generated_Source\PSoC5/UART_1.c ****     * Theory:
 688:.\Generated_Source\PSoC5/UART_1.c ****     *  Allows the user to find out how full the RX Buffer is.
 689:.\Generated_Source\PSoC5/UART_1.c ****     *
 690:.\Generated_Source\PSoC5/UART_1.c ****     *******************************************************************************/
 691:.\Generated_Source\PSoC5/UART_1.c ****     uint8 UART_1_GetRxBufferSize(void)
 692:.\Generated_Source\PSoC5/UART_1.c ****                                                             
 693:.\Generated_Source\PSoC5/UART_1.c ****     {
 694:.\Generated_Source\PSoC5/UART_1.c ****         uint8 size;
 695:.\Generated_Source\PSoC5/UART_1.c **** 
 696:.\Generated_Source\PSoC5/UART_1.c ****         #if(UART_1_RXBUFFERSIZE > UART_1_FIFO_LENGTH)
 697:.\Generated_Source\PSoC5/UART_1.c **** 
 698:.\Generated_Source\PSoC5/UART_1.c ****             /* Disable Rx interrupt. */
 699:.\Generated_Source\PSoC5/UART_1.c ****             /* Protect variables that could change on interrupt. */
 700:.\Generated_Source\PSoC5/UART_1.c ****             #if(UART_1_RX_INTERRUPT_ENABLED)
 701:.\Generated_Source\PSoC5/UART_1.c ****                 UART_1_DisableRxInt();
 702:.\Generated_Source\PSoC5/UART_1.c ****             #endif /* UART_1_RX_INTERRUPT_ENABLED */
 703:.\Generated_Source\PSoC5/UART_1.c **** 
 704:.\Generated_Source\PSoC5/UART_1.c ****             if(UART_1_rxBufferRead == UART_1_rxBufferWrite)
 705:.\Generated_Source\PSoC5/UART_1.c ****             {
 706:.\Generated_Source\PSoC5/UART_1.c ****                 if(UART_1_rxBufferLoopDetect > 0u)
 707:.\Generated_Source\PSoC5/UART_1.c ****                 {
 708:.\Generated_Source\PSoC5/UART_1.c ****                     size = UART_1_RXBUFFERSIZE;
 709:.\Generated_Source\PSoC5/UART_1.c ****                 }
 710:.\Generated_Source\PSoC5/UART_1.c ****                 else
 711:.\Generated_Source\PSoC5/UART_1.c ****                 {
ARM GAS  C:\Users\acer\AppData\Local\Temp\ccQxlELY.s 			page 18


 712:.\Generated_Source\PSoC5/UART_1.c ****                     size = 0u;
 713:.\Generated_Source\PSoC5/UART_1.c ****                 }
 714:.\Generated_Source\PSoC5/UART_1.c ****             }
 715:.\Generated_Source\PSoC5/UART_1.c ****             else if(UART_1_rxBufferRead < UART_1_rxBufferWrite)
 716:.\Generated_Source\PSoC5/UART_1.c ****             {
 717:.\Generated_Source\PSoC5/UART_1.c ****                 size = (UART_1_rxBufferWrite - UART_1_rxBufferRead);
 718:.\Generated_Source\PSoC5/UART_1.c ****             }
 719:.\Generated_Source\PSoC5/UART_1.c ****             else
 720:.\Generated_Source\PSoC5/UART_1.c ****             {
 721:.\Generated_Source\PSoC5/UART_1.c ****                 size = (UART_1_RXBUFFERSIZE - UART_1_rxBufferRead) + UART_1_rxBufferWrite;
 722:.\Generated_Source\PSoC5/UART_1.c ****             }
 723:.\Generated_Source\PSoC5/UART_1.c **** 
 724:.\Generated_Source\PSoC5/UART_1.c ****             /* Enable Rx interrupt. */
 725:.\Generated_Source\PSoC5/UART_1.c ****             #if(UART_1_RX_INTERRUPT_ENABLED)
 726:.\Generated_Source\PSoC5/UART_1.c ****                 UART_1_EnableRxInt();
 727:.\Generated_Source\PSoC5/UART_1.c ****             #endif /* End UART_1_RX_INTERRUPT_ENABLED */
 728:.\Generated_Source\PSoC5/UART_1.c **** 
 729:.\Generated_Source\PSoC5/UART_1.c ****         #else /* UART_1_RXBUFFERSIZE > UART_1_FIFO_LENGTH */
 730:.\Generated_Source\PSoC5/UART_1.c **** 
 731:.\Generated_Source\PSoC5/UART_1.c ****             /* We can only know if there is data in the fifo. */
 732:.\Generated_Source\PSoC5/UART_1.c ****             size = ((UART_1_RXSTATUS_REG & UART_1_RX_STS_FIFO_NOTEMPTY) != 0u) ? 1u : 0u;
 733:.\Generated_Source\PSoC5/UART_1.c **** 
 734:.\Generated_Source\PSoC5/UART_1.c ****         #endif /* End UART_1_RXBUFFERSIZE > UART_1_FIFO_LENGTH */
 735:.\Generated_Source\PSoC5/UART_1.c **** 
 736:.\Generated_Source\PSoC5/UART_1.c ****         return(size);
 737:.\Generated_Source\PSoC5/UART_1.c ****     }
 738:.\Generated_Source\PSoC5/UART_1.c **** 
 739:.\Generated_Source\PSoC5/UART_1.c **** 
 740:.\Generated_Source\PSoC5/UART_1.c ****     /*******************************************************************************
 741:.\Generated_Source\PSoC5/UART_1.c ****     * Function Name: UART_1_ClearRxBuffer
 742:.\Generated_Source\PSoC5/UART_1.c ****     ********************************************************************************
 743:.\Generated_Source\PSoC5/UART_1.c ****     *
 744:.\Generated_Source\PSoC5/UART_1.c ****     * Summary:
 745:.\Generated_Source\PSoC5/UART_1.c ****     *  Clears the RX RAM buffer by setting the read and write pointers both to zero.
 746:.\Generated_Source\PSoC5/UART_1.c ****     *  Clears hardware RX FIFO.
 747:.\Generated_Source\PSoC5/UART_1.c ****     *
 748:.\Generated_Source\PSoC5/UART_1.c ****     * Parameters:
 749:.\Generated_Source\PSoC5/UART_1.c ****     *  None.
 750:.\Generated_Source\PSoC5/UART_1.c ****     *
 751:.\Generated_Source\PSoC5/UART_1.c ****     * Return:
 752:.\Generated_Source\PSoC5/UART_1.c ****     *  None.
 753:.\Generated_Source\PSoC5/UART_1.c ****     *
 754:.\Generated_Source\PSoC5/UART_1.c ****     * Global Variables:
 755:.\Generated_Source\PSoC5/UART_1.c ****     *  UART_1_rxBufferWrite - cleared to zero.
 756:.\Generated_Source\PSoC5/UART_1.c ****     *  UART_1_rxBufferRead - cleared to zero.
 757:.\Generated_Source\PSoC5/UART_1.c ****     *  UART_1_rxBufferLoopDetect - cleared to zero.
 758:.\Generated_Source\PSoC5/UART_1.c ****     *  UART_1_rxBufferOverflow - cleared to zero.
 759:.\Generated_Source\PSoC5/UART_1.c ****     *
 760:.\Generated_Source\PSoC5/UART_1.c ****     * Reentrant:
 761:.\Generated_Source\PSoC5/UART_1.c ****     *  No.
 762:.\Generated_Source\PSoC5/UART_1.c ****     *
 763:.\Generated_Source\PSoC5/UART_1.c ****     * Theory:
 764:.\Generated_Source\PSoC5/UART_1.c ****     *  Setting the pointers to zero makes the system believe there is no data to
 765:.\Generated_Source\PSoC5/UART_1.c ****     *  read and writing will resume at address 0 overwriting any data that may
 766:.\Generated_Source\PSoC5/UART_1.c ****     *  have remained in the RAM.
 767:.\Generated_Source\PSoC5/UART_1.c ****     *
 768:.\Generated_Source\PSoC5/UART_1.c ****     * Side Effects:
ARM GAS  C:\Users\acer\AppData\Local\Temp\ccQxlELY.s 			page 19


 769:.\Generated_Source\PSoC5/UART_1.c ****     *  Any received data not read from the RAM or FIFO buffer will be lost.
 770:.\Generated_Source\PSoC5/UART_1.c ****     *******************************************************************************/
 771:.\Generated_Source\PSoC5/UART_1.c ****     void UART_1_ClearRxBuffer(void) 
 772:.\Generated_Source\PSoC5/UART_1.c ****     {
 773:.\Generated_Source\PSoC5/UART_1.c ****         uint8 enableInterrupts;
 774:.\Generated_Source\PSoC5/UART_1.c **** 
 775:.\Generated_Source\PSoC5/UART_1.c ****         /* clear the HW FIFO */
 776:.\Generated_Source\PSoC5/UART_1.c ****         /* Enter critical section */
 777:.\Generated_Source\PSoC5/UART_1.c ****         enableInterrupts = CyEnterCriticalSection();
 778:.\Generated_Source\PSoC5/UART_1.c ****         UART_1_RXDATA_AUX_CTL_REG |=  UART_1_RX_FIFO_CLR;
 779:.\Generated_Source\PSoC5/UART_1.c ****         UART_1_RXDATA_AUX_CTL_REG &= (uint8)~UART_1_RX_FIFO_CLR;
 780:.\Generated_Source\PSoC5/UART_1.c ****         /* Exit critical section */
 781:.\Generated_Source\PSoC5/UART_1.c ****         CyExitCriticalSection(enableInterrupts);
 782:.\Generated_Source\PSoC5/UART_1.c **** 
 783:.\Generated_Source\PSoC5/UART_1.c ****         #if(UART_1_RXBUFFERSIZE > UART_1_FIFO_LENGTH)
 784:.\Generated_Source\PSoC5/UART_1.c ****             /* Disable Rx interrupt. */
 785:.\Generated_Source\PSoC5/UART_1.c ****             /* Protect variables that could change on interrupt. */
 786:.\Generated_Source\PSoC5/UART_1.c ****             #if(UART_1_RX_INTERRUPT_ENABLED)
 787:.\Generated_Source\PSoC5/UART_1.c ****                 UART_1_DisableRxInt();
 788:.\Generated_Source\PSoC5/UART_1.c ****             #endif /* End UART_1_RX_INTERRUPT_ENABLED */
 789:.\Generated_Source\PSoC5/UART_1.c **** 
 790:.\Generated_Source\PSoC5/UART_1.c ****             UART_1_rxBufferRead = 0u;
 791:.\Generated_Source\PSoC5/UART_1.c ****             UART_1_rxBufferWrite = 0u;
 792:.\Generated_Source\PSoC5/UART_1.c ****             UART_1_rxBufferLoopDetect = 0u;
 793:.\Generated_Source\PSoC5/UART_1.c ****             UART_1_rxBufferOverflow = 0u;
 794:.\Generated_Source\PSoC5/UART_1.c **** 
 795:.\Generated_Source\PSoC5/UART_1.c ****             /* Enable Rx interrupt. */
 796:.\Generated_Source\PSoC5/UART_1.c ****             #if(UART_1_RX_INTERRUPT_ENABLED)
 797:.\Generated_Source\PSoC5/UART_1.c ****                 UART_1_EnableRxInt();
 798:.\Generated_Source\PSoC5/UART_1.c ****             #endif /* End UART_1_RX_INTERRUPT_ENABLED */
 799:.\Generated_Source\PSoC5/UART_1.c ****         #endif /* End UART_1_RXBUFFERSIZE > UART_1_FIFO_LENGTH */
 800:.\Generated_Source\PSoC5/UART_1.c **** 
 801:.\Generated_Source\PSoC5/UART_1.c ****     }
 802:.\Generated_Source\PSoC5/UART_1.c **** 
 803:.\Generated_Source\PSoC5/UART_1.c **** 
 804:.\Generated_Source\PSoC5/UART_1.c ****     /*******************************************************************************
 805:.\Generated_Source\PSoC5/UART_1.c ****     * Function Name: UART_1_SetRxAddressMode
 806:.\Generated_Source\PSoC5/UART_1.c ****     ********************************************************************************
 807:.\Generated_Source\PSoC5/UART_1.c ****     *
 808:.\Generated_Source\PSoC5/UART_1.c ****     * Summary:
 809:.\Generated_Source\PSoC5/UART_1.c ****     *  Set the receive addressing mode
 810:.\Generated_Source\PSoC5/UART_1.c ****     *
 811:.\Generated_Source\PSoC5/UART_1.c ****     * Parameters:
 812:.\Generated_Source\PSoC5/UART_1.c ****     *  addressMode: Enumerated value indicating the mode of RX addressing
 813:.\Generated_Source\PSoC5/UART_1.c ****     *  UART_1__B_UART__AM_SW_BYTE_BYTE -  Software Byte-by-Byte address
 814:.\Generated_Source\PSoC5/UART_1.c ****     *                                               detection
 815:.\Generated_Source\PSoC5/UART_1.c ****     *  UART_1__B_UART__AM_SW_DETECT_TO_BUFFER - Software Detect to Buffer
 816:.\Generated_Source\PSoC5/UART_1.c ****     *                                               address detection
 817:.\Generated_Source\PSoC5/UART_1.c ****     *  UART_1__B_UART__AM_HW_BYTE_BY_BYTE - Hardware Byte-by-Byte address
 818:.\Generated_Source\PSoC5/UART_1.c ****     *                                               detection
 819:.\Generated_Source\PSoC5/UART_1.c ****     *  UART_1__B_UART__AM_HW_DETECT_TO_BUFFER - Hardware Detect to Buffer
 820:.\Generated_Source\PSoC5/UART_1.c ****     *                                               address detection
 821:.\Generated_Source\PSoC5/UART_1.c ****     *  UART_1__B_UART__AM_NONE - No address detection
 822:.\Generated_Source\PSoC5/UART_1.c ****     *
 823:.\Generated_Source\PSoC5/UART_1.c ****     * Return:
 824:.\Generated_Source\PSoC5/UART_1.c ****     *  None.
 825:.\Generated_Source\PSoC5/UART_1.c ****     *
ARM GAS  C:\Users\acer\AppData\Local\Temp\ccQxlELY.s 			page 20


 826:.\Generated_Source\PSoC5/UART_1.c ****     * Global Variables:
 827:.\Generated_Source\PSoC5/UART_1.c ****     *  UART_1_rxAddressMode - the parameter stored in this variable for
 828:.\Generated_Source\PSoC5/UART_1.c ****     *   the farther usage in RX ISR.
 829:.\Generated_Source\PSoC5/UART_1.c ****     *  UART_1_rxAddressDetected - set to initial state (0).
 830:.\Generated_Source\PSoC5/UART_1.c ****     *
 831:.\Generated_Source\PSoC5/UART_1.c ****     *******************************************************************************/
 832:.\Generated_Source\PSoC5/UART_1.c ****     void UART_1_SetRxAddressMode(uint8 addressMode)
 833:.\Generated_Source\PSoC5/UART_1.c ****                                                         
 834:.\Generated_Source\PSoC5/UART_1.c ****     {
 835:.\Generated_Source\PSoC5/UART_1.c ****         #if(UART_1_RXHW_ADDRESS_ENABLED)
 836:.\Generated_Source\PSoC5/UART_1.c ****             #if(UART_1_CONTROL_REG_REMOVED)
 837:.\Generated_Source\PSoC5/UART_1.c ****                 if(addressMode != 0u) { }     /* release compiler warning */
 838:.\Generated_Source\PSoC5/UART_1.c ****             #else /* UART_1_CONTROL_REG_REMOVED */
 839:.\Generated_Source\PSoC5/UART_1.c ****                 uint8 tmpCtrl;
 840:.\Generated_Source\PSoC5/UART_1.c ****                 tmpCtrl = UART_1_CONTROL_REG & (uint8)~UART_1_CTRL_RXADDR_MODE_MASK;
 841:.\Generated_Source\PSoC5/UART_1.c ****                 tmpCtrl |= (uint8)(addressMode << UART_1_CTRL_RXADDR_MODE0_SHIFT);
 842:.\Generated_Source\PSoC5/UART_1.c ****                 UART_1_CONTROL_REG = tmpCtrl;
 843:.\Generated_Source\PSoC5/UART_1.c ****                 #if(UART_1_RX_INTERRUPT_ENABLED && \
 844:.\Generated_Source\PSoC5/UART_1.c ****                    (UART_1_RXBUFFERSIZE > UART_1_FIFO_LENGTH) )
 845:.\Generated_Source\PSoC5/UART_1.c ****                     UART_1_rxAddressMode = addressMode;
 846:.\Generated_Source\PSoC5/UART_1.c ****                     UART_1_rxAddressDetected = 0u;
 847:.\Generated_Source\PSoC5/UART_1.c ****                 #endif /* End UART_1_RXBUFFERSIZE > UART_1_FIFO_LENGTH*/
 848:.\Generated_Source\PSoC5/UART_1.c ****             #endif /* End UART_1_CONTROL_REG_REMOVED */
 849:.\Generated_Source\PSoC5/UART_1.c ****         #else /* UART_1_RXHW_ADDRESS_ENABLED */
 850:.\Generated_Source\PSoC5/UART_1.c ****             if(addressMode != 0u) { }     /* release compiler warning */
 851:.\Generated_Source\PSoC5/UART_1.c ****         #endif /* End UART_1_RXHW_ADDRESS_ENABLED */
 852:.\Generated_Source\PSoC5/UART_1.c ****     }
 853:.\Generated_Source\PSoC5/UART_1.c **** 
 854:.\Generated_Source\PSoC5/UART_1.c **** 
 855:.\Generated_Source\PSoC5/UART_1.c ****     /*******************************************************************************
 856:.\Generated_Source\PSoC5/UART_1.c ****     * Function Name: UART_1_SetRxAddress1
 857:.\Generated_Source\PSoC5/UART_1.c ****     ********************************************************************************
 858:.\Generated_Source\PSoC5/UART_1.c ****     *
 859:.\Generated_Source\PSoC5/UART_1.c ****     * Summary:
 860:.\Generated_Source\PSoC5/UART_1.c ****     *  Set the first hardware address compare value
 861:.\Generated_Source\PSoC5/UART_1.c ****     *
 862:.\Generated_Source\PSoC5/UART_1.c ****     * Parameters:
 863:.\Generated_Source\PSoC5/UART_1.c ****     *  address
 864:.\Generated_Source\PSoC5/UART_1.c ****     *
 865:.\Generated_Source\PSoC5/UART_1.c ****     * Return:
 866:.\Generated_Source\PSoC5/UART_1.c ****     *  None.
 867:.\Generated_Source\PSoC5/UART_1.c ****     *
 868:.\Generated_Source\PSoC5/UART_1.c ****     *******************************************************************************/
 869:.\Generated_Source\PSoC5/UART_1.c ****     void UART_1_SetRxAddress1(uint8 address) 
 870:.\Generated_Source\PSoC5/UART_1.c **** 
 871:.\Generated_Source\PSoC5/UART_1.c ****     {
 872:.\Generated_Source\PSoC5/UART_1.c ****         UART_1_RXADDRESS1_REG = address;
 873:.\Generated_Source\PSoC5/UART_1.c ****     }
 874:.\Generated_Source\PSoC5/UART_1.c **** 
 875:.\Generated_Source\PSoC5/UART_1.c **** 
 876:.\Generated_Source\PSoC5/UART_1.c ****     /*******************************************************************************
 877:.\Generated_Source\PSoC5/UART_1.c ****     * Function Name: UART_1_SetRxAddress2
 878:.\Generated_Source\PSoC5/UART_1.c ****     ********************************************************************************
 879:.\Generated_Source\PSoC5/UART_1.c ****     *
 880:.\Generated_Source\PSoC5/UART_1.c ****     * Summary:
 881:.\Generated_Source\PSoC5/UART_1.c ****     *  Set the second hardware address compare value
 882:.\Generated_Source\PSoC5/UART_1.c ****     *
ARM GAS  C:\Users\acer\AppData\Local\Temp\ccQxlELY.s 			page 21


 883:.\Generated_Source\PSoC5/UART_1.c ****     * Parameters:
 884:.\Generated_Source\PSoC5/UART_1.c ****     *  address
 885:.\Generated_Source\PSoC5/UART_1.c ****     *
 886:.\Generated_Source\PSoC5/UART_1.c ****     * Return:
 887:.\Generated_Source\PSoC5/UART_1.c ****     *  None.
 888:.\Generated_Source\PSoC5/UART_1.c ****     *
 889:.\Generated_Source\PSoC5/UART_1.c ****     *******************************************************************************/
 890:.\Generated_Source\PSoC5/UART_1.c ****     void UART_1_SetRxAddress2(uint8 address) 
 891:.\Generated_Source\PSoC5/UART_1.c ****     {
 892:.\Generated_Source\PSoC5/UART_1.c ****         UART_1_RXADDRESS2_REG = address;
 893:.\Generated_Source\PSoC5/UART_1.c ****     }
 894:.\Generated_Source\PSoC5/UART_1.c **** 
 895:.\Generated_Source\PSoC5/UART_1.c **** #endif  /* UART_1_RX_ENABLED || UART_1_HD_ENABLED*/
 896:.\Generated_Source\PSoC5/UART_1.c **** 
 897:.\Generated_Source\PSoC5/UART_1.c **** 
 898:.\Generated_Source\PSoC5/UART_1.c **** #if( (UART_1_TX_ENABLED) || (UART_1_HD_ENABLED) )
 899:.\Generated_Source\PSoC5/UART_1.c **** 
 900:.\Generated_Source\PSoC5/UART_1.c ****     #if(UART_1_TX_INTERRUPT_ENABLED)
 901:.\Generated_Source\PSoC5/UART_1.c **** 
 902:.\Generated_Source\PSoC5/UART_1.c ****         /*******************************************************************************
 903:.\Generated_Source\PSoC5/UART_1.c ****         * Function Name: UART_1_EnableTxInt
 904:.\Generated_Source\PSoC5/UART_1.c ****         ********************************************************************************
 905:.\Generated_Source\PSoC5/UART_1.c ****         *
 906:.\Generated_Source\PSoC5/UART_1.c ****         * Summary:
 907:.\Generated_Source\PSoC5/UART_1.c ****         *  Enable TX interrupt generation
 908:.\Generated_Source\PSoC5/UART_1.c ****         *
 909:.\Generated_Source\PSoC5/UART_1.c ****         * Parameters:
 910:.\Generated_Source\PSoC5/UART_1.c ****         *  None.
 911:.\Generated_Source\PSoC5/UART_1.c ****         *
 912:.\Generated_Source\PSoC5/UART_1.c ****         * Return:
 913:.\Generated_Source\PSoC5/UART_1.c ****         *  None.
 914:.\Generated_Source\PSoC5/UART_1.c ****         *
 915:.\Generated_Source\PSoC5/UART_1.c ****         * Theory:
 916:.\Generated_Source\PSoC5/UART_1.c ****         *  Enable the interrupt output -or- the interrupt component itself
 917:.\Generated_Source\PSoC5/UART_1.c ****         *
 918:.\Generated_Source\PSoC5/UART_1.c ****         *******************************************************************************/
 919:.\Generated_Source\PSoC5/UART_1.c ****         void UART_1_EnableTxInt(void) 
 920:.\Generated_Source\PSoC5/UART_1.c ****         {
 921:.\Generated_Source\PSoC5/UART_1.c ****             CyIntEnable(UART_1_TX_VECT_NUM);
 922:.\Generated_Source\PSoC5/UART_1.c ****         }
 923:.\Generated_Source\PSoC5/UART_1.c **** 
 924:.\Generated_Source\PSoC5/UART_1.c **** 
 925:.\Generated_Source\PSoC5/UART_1.c ****         /*******************************************************************************
 926:.\Generated_Source\PSoC5/UART_1.c ****         * Function Name: UART_1_DisableTxInt
 927:.\Generated_Source\PSoC5/UART_1.c ****         ********************************************************************************
 928:.\Generated_Source\PSoC5/UART_1.c ****         *
 929:.\Generated_Source\PSoC5/UART_1.c ****         * Summary:
 930:.\Generated_Source\PSoC5/UART_1.c ****         *  Disable TX interrupt generation
 931:.\Generated_Source\PSoC5/UART_1.c ****         *
 932:.\Generated_Source\PSoC5/UART_1.c ****         * Parameters:
 933:.\Generated_Source\PSoC5/UART_1.c ****         *  None.
 934:.\Generated_Source\PSoC5/UART_1.c ****         *
 935:.\Generated_Source\PSoC5/UART_1.c ****         * Return:
 936:.\Generated_Source\PSoC5/UART_1.c ****         *  None.
 937:.\Generated_Source\PSoC5/UART_1.c ****         *
 938:.\Generated_Source\PSoC5/UART_1.c ****         * Theory:
 939:.\Generated_Source\PSoC5/UART_1.c ****         *  Disable the interrupt output -or- the interrupt component itself
ARM GAS  C:\Users\acer\AppData\Local\Temp\ccQxlELY.s 			page 22


 940:.\Generated_Source\PSoC5/UART_1.c ****         *
 941:.\Generated_Source\PSoC5/UART_1.c ****         *******************************************************************************/
 942:.\Generated_Source\PSoC5/UART_1.c ****         void UART_1_DisableTxInt(void) 
 943:.\Generated_Source\PSoC5/UART_1.c ****         {
 944:.\Generated_Source\PSoC5/UART_1.c ****             CyIntDisable(UART_1_TX_VECT_NUM);
 246              		.loc 1 944 0
 247 0032 0423     		movs	r3, #4
 248 0034 1360     		str	r3, [r2]
 249              	.LBE37:
 250              	.LBE36:
 264:.\Generated_Source\PSoC5/UART_1.c **** 
 251              		.loc 1 264 0
 252 0036 BDE81040 		pop	{r4, lr}
 253              		.cfi_restore 14
 254              		.cfi_restore 4
 255              		.cfi_def_cfa_offset 0
 256              	.LVL14:
 263:.\Generated_Source\PSoC5/UART_1.c **** }
 257              		.loc 1 263 0
 258 003a FFF7FEBF 		b	CyExitCriticalSection
 259              	.LVL15:
 260              	.L14:
 261 003e 00BF     		.align	2
 262              	.L13:
 263 0040 95640040 		.word	1073767573
 264 0044 96640040 		.word	1073767574
 265 0048 92640040 		.word	1073767570
 266 004c 80E100E0 		.word	-536813184
 267              		.cfi_endproc
 268              	.LFE3:
 269              		.size	UART_1_Stop, .-UART_1_Stop
 270              		.section	.text.UART_1_ReadControlRegister,"ax",%progbits
 271              		.align	1
 272              		.global	UART_1_ReadControlRegister
 273              		.thumb
 274              		.thumb_func
 275              		.type	UART_1_ReadControlRegister, %function
 276              	UART_1_ReadControlRegister:
 277              	.LFB4:
 282:.\Generated_Source\PSoC5/UART_1.c ****     #if( UART_1_CONTROL_REG_REMOVED )
 278              		.loc 1 282 0
 279              		.cfi_startproc
 280              		@ args = 0, pretend = 0, frame = 0
 281              		@ frame_needed = 0, uses_anonymous_args = 0
 282              		@ link register save eliminated.
 288:.\Generated_Source\PSoC5/UART_1.c **** 
 283              		.loc 1 288 0
 284 0000 0020     		movs	r0, #0
 285 0002 7047     		bx	lr
 286              		.cfi_endproc
 287              	.LFE4:
 288              		.size	UART_1_ReadControlRegister, .-UART_1_ReadControlRegister
 289              		.section	.text.UART_1_WriteControlRegister,"ax",%progbits
 290              		.align	1
 291              		.global	UART_1_WriteControlRegister
 292              		.thumb
 293              		.thumb_func
ARM GAS  C:\Users\acer\AppData\Local\Temp\ccQxlELY.s 			page 23


 294              		.type	UART_1_WriteControlRegister, %function
 295              	UART_1_WriteControlRegister:
 296              	.LFB5:
 306:.\Generated_Source\PSoC5/UART_1.c ****     #if( UART_1_CONTROL_REG_REMOVED )
 297              		.loc 1 306 0
 298              		.cfi_startproc
 299              		@ args = 0, pretend = 0, frame = 0
 300              		@ frame_needed = 0, uses_anonymous_args = 0
 301              		@ link register save eliminated.
 302              	.LVL16:
 303 0000 7047     		bx	lr
 304              		.cfi_endproc
 305              	.LFE5:
 306              		.size	UART_1_WriteControlRegister, .-UART_1_WriteControlRegister
 307              		.section	.text.UART_1_EnableRxInt,"ax",%progbits
 308              		.align	1
 309              		.global	UART_1_EnableRxInt
 310              		.thumb
 311              		.thumb_func
 312              		.type	UART_1_EnableRxInt, %function
 313              	UART_1_EnableRxInt:
 314              	.LFB6:
 337:.\Generated_Source\PSoC5/UART_1.c ****             CyIntEnable(UART_1_RX_VECT_NUM);
 315              		.loc 1 337 0
 316              		.cfi_startproc
 317              		@ args = 0, pretend = 0, frame = 0
 318              		@ frame_needed = 0, uses_anonymous_args = 0
 319              		@ link register save eliminated.
 338:.\Generated_Source\PSoC5/UART_1.c ****         }
 320              		.loc 1 338 0
 321 0000 014B     		ldr	r3, .L18
 322 0002 0222     		movs	r2, #2
 323 0004 1A60     		str	r2, [r3]
 324 0006 7047     		bx	lr
 325              	.L19:
 326              		.align	2
 327              	.L18:
 328 0008 00E100E0 		.word	-536813312
 329              		.cfi_endproc
 330              	.LFE6:
 331              		.size	UART_1_EnableRxInt, .-UART_1_EnableRxInt
 332              		.section	.text.UART_1_DisableRxInt,"ax",%progbits
 333              		.align	1
 334              		.global	UART_1_DisableRxInt
 335              		.thumb
 336              		.thumb_func
 337              		.type	UART_1_DisableRxInt, %function
 338              	UART_1_DisableRxInt:
 339              	.LFB7:
 360:.\Generated_Source\PSoC5/UART_1.c ****             CyIntDisable(UART_1_RX_VECT_NUM);
 340              		.loc 1 360 0
 341              		.cfi_startproc
 342              		@ args = 0, pretend = 0, frame = 0
 343              		@ frame_needed = 0, uses_anonymous_args = 0
 344              		@ link register save eliminated.
 361:.\Generated_Source\PSoC5/UART_1.c ****         }
 345              		.loc 1 361 0
ARM GAS  C:\Users\acer\AppData\Local\Temp\ccQxlELY.s 			page 24


 346 0000 014B     		ldr	r3, .L21
 347 0002 0222     		movs	r2, #2
 348 0004 1A60     		str	r2, [r3]
 349 0006 7047     		bx	lr
 350              	.L22:
 351              		.align	2
 352              	.L21:
 353 0008 80E100E0 		.word	-536813184
 354              		.cfi_endproc
 355              	.LFE7:
 356              		.size	UART_1_DisableRxInt, .-UART_1_DisableRxInt
 357              		.section	.text.UART_1_SetRxInterruptMode,"ax",%progbits
 358              		.align	1
 359              		.global	UART_1_SetRxInterruptMode
 360              		.thumb
 361              		.thumb_func
 362              		.type	UART_1_SetRxInterruptMode, %function
 363              	UART_1_SetRxInterruptMode:
 364              	.LFB8:
 386:.\Generated_Source\PSoC5/UART_1.c ****         UART_1_RXSTATUS_MASK_REG  = intSrc;
 365              		.loc 1 386 0
 366              		.cfi_startproc
 367              		@ args = 0, pretend = 0, frame = 0
 368              		@ frame_needed = 0, uses_anonymous_args = 0
 369              		@ link register save eliminated.
 370              	.LVL17:
 387:.\Generated_Source\PSoC5/UART_1.c ****     }
 371              		.loc 1 387 0
 372 0000 014B     		ldr	r3, .L24
 373 0002 1870     		strb	r0, [r3]
 374 0004 7047     		bx	lr
 375              	.L25:
 376 0006 00BF     		.align	2
 377              	.L24:
 378 0008 86640040 		.word	1073767558
 379              		.cfi_endproc
 380              	.LFE8:
 381              		.size	UART_1_SetRxInterruptMode, .-UART_1_SetRxInterruptMode
 382              		.section	.text.UART_1_ReadRxData,"ax",%progbits
 383              		.align	1
 384              		.global	UART_1_ReadRxData
 385              		.thumb
 386              		.thumb_func
 387              		.type	UART_1_ReadRxData, %function
 388              	UART_1_ReadRxData:
 389              	.LFB9:
 419:.\Generated_Source\PSoC5/UART_1.c ****         uint8 rxData;
 390              		.loc 1 419 0
 391              		.cfi_startproc
 392              		@ args = 0, pretend = 0, frame = 0
 393              		@ frame_needed = 0, uses_anonymous_args = 0
 394              		@ link register save eliminated.
 395              	.LBB38:
 396              	.LBB39:
 361:.\Generated_Source\PSoC5/UART_1.c ****         }
 397              		.loc 1 361 0
 398 0000 104B     		ldr	r3, .L34
ARM GAS  C:\Users\acer\AppData\Local\Temp\ccQxlELY.s 			page 25


 399 0002 0222     		movs	r2, #2
 400 0004 1A60     		str	r2, [r3]
 401              	.LBE39:
 402              	.LBE38:
 430:.\Generated_Source\PSoC5/UART_1.c ****             loc_rxBufferWrite = UART_1_rxBufferWrite;
 403              		.loc 1 430 0
 404 0006 104A     		ldr	r2, .L34+4
 405 0008 5378     		ldrb	r3, [r2, #1]	@ zero_extendqisi2
 431:.\Generated_Source\PSoC5/UART_1.c **** 
 406              		.loc 1 431 0
 407 000a 9178     		ldrb	r1, [r2, #2]	@ zero_extendqisi2
 433:.\Generated_Source\PSoC5/UART_1.c ****             {
 408              		.loc 1 433 0
 409 000c D078     		ldrb	r0, [r2, #3]	@ zero_extendqisi2
 430:.\Generated_Source\PSoC5/UART_1.c ****             loc_rxBufferWrite = UART_1_rxBufferWrite;
 410              		.loc 1 430 0
 411 000e DBB2     		uxtb	r3, r3
 412              	.LVL18:
 431:.\Generated_Source\PSoC5/UART_1.c **** 
 413              		.loc 1 431 0
 414 0010 C9B2     		uxtb	r1, r1
 415              	.LVL19:
 433:.\Generated_Source\PSoC5/UART_1.c ****             {
 416              		.loc 1 433 0
 417 0012 08B9     		cbnz	r0, .L27
 433:.\Generated_Source\PSoC5/UART_1.c ****             {
 418              		.loc 1 433 0 is_stmt 0 discriminator 1
 419 0014 8B42     		cmp	r3, r1
 420 0016 0ED0     		beq	.L28
 421              	.L27:
 435:.\Generated_Source\PSoC5/UART_1.c ****                 loc_rxBufferRead++;
 422              		.loc 1 435 0 is_stmt 1
 423 0018 0C49     		ldr	r1, .L34+8
 424              	.LVL20:
 425 001a C85C     		ldrb	r0, [r1, r3]	@ zero_extendqisi2
 436:.\Generated_Source\PSoC5/UART_1.c **** 
 426              		.loc 1 436 0
 427 001c 0133     		adds	r3, r3, #1
 428              	.LVL21:
 429 001e DBB2     		uxtb	r3, r3
 430              	.LVL22:
 440:.\Generated_Source\PSoC5/UART_1.c ****                 }
 431              		.loc 1 440 0
 432 0020 102B     		cmp	r3, #16
 433 0022 28BF     		it	cs
 434 0024 0023     		movcs	r3, #0
 443:.\Generated_Source\PSoC5/UART_1.c **** 
 435              		.loc 1 443 0
 436 0026 5370     		strb	r3, [r2, #1]
 445:.\Generated_Source\PSoC5/UART_1.c ****                 {
 437              		.loc 1 445 0
 438 0028 D378     		ldrb	r3, [r2, #3]	@ zero_extendqisi2
 435:.\Generated_Source\PSoC5/UART_1.c ****                 loc_rxBufferRead++;
 439              		.loc 1 435 0
 440 002a C0B2     		uxtb	r0, r0
 441              	.LVL23:
 445:.\Generated_Source\PSoC5/UART_1.c ****                 {
ARM GAS  C:\Users\acer\AppData\Local\Temp\ccQxlELY.s 			page 26


 442              		.loc 1 445 0
 443 002c 33B1     		cbz	r3, .L30
 447:.\Generated_Source\PSoC5/UART_1.c ****                     #if( (UART_1_RX_INTERRUPT_ENABLED) && (UART_1_FLOW_CONTROL != 0u) && \
 444              		.loc 1 447 0
 445 002e 064B     		ldr	r3, .L34+4
 446 0030 0022     		movs	r2, #0
 447 0032 DA70     		strb	r2, [r3, #3]
 448 0034 02E0     		b	.L30
 449              	.LVL24:
 450              	.L28:
 467:.\Generated_Source\PSoC5/UART_1.c ****             }
 451              		.loc 1 467 0
 452 0036 064B     		ldr	r3, .L34+12
 453              	.LVL25:
 454 0038 1878     		ldrb	r0, [r3]	@ zero_extendqisi2
 455 003a C0B2     		uxtb	r0, r0
 456              	.LVL26:
 457              	.L30:
 458              	.LBB40:
 459              	.LBB41:
 338:.\Generated_Source\PSoC5/UART_1.c ****         }
 460              		.loc 1 338 0
 461 003c 054B     		ldr	r3, .L34+16
 462 003e 0222     		movs	r2, #2
 463 0040 1A60     		str	r2, [r3]
 464              	.LBE41:
 465              	.LBE40:
 483:.\Generated_Source\PSoC5/UART_1.c **** 
 466              		.loc 1 483 0
 467 0042 7047     		bx	lr
 468              	.L35:
 469              		.align	2
 470              	.L34:
 471 0044 80E100E0 		.word	-536813184
 472 0048 00000000 		.word	.LANCHOR0
 473 004c 00000000 		.word	UART_1_rxBuffer
 474 0050 45640040 		.word	1073767493
 475 0054 00E100E0 		.word	-536813312
 476              		.cfi_endproc
 477              	.LFE9:
 478              		.size	UART_1_ReadRxData, .-UART_1_ReadRxData
 479              		.section	.text.UART_1_ReadRxStatus,"ax",%progbits
 480              		.align	1
 481              		.global	UART_1_ReadRxStatus
 482              		.thumb
 483              		.thumb_func
 484              		.type	UART_1_ReadRxStatus, %function
 485              	UART_1_ReadRxStatus:
 486              	.LFB10:
 510:.\Generated_Source\PSoC5/UART_1.c ****         uint8 status;
 487              		.loc 1 510 0
 488              		.cfi_startproc
 489              		@ args = 0, pretend = 0, frame = 0
 490              		@ frame_needed = 0, uses_anonymous_args = 0
 491              		@ link register save eliminated.
 513:.\Generated_Source\PSoC5/UART_1.c **** 
 492              		.loc 1 513 0
ARM GAS  C:\Users\acer\AppData\Local\Temp\ccQxlELY.s 			page 27


 493 0000 054B     		ldr	r3, .L41
 494 0002 1878     		ldrb	r0, [r3]	@ zero_extendqisi2
 516:.\Generated_Source\PSoC5/UART_1.c ****             {
 495              		.loc 1 516 0
 496 0004 054B     		ldr	r3, .L41+4
 513:.\Generated_Source\PSoC5/UART_1.c **** 
 497              		.loc 1 513 0
 498 0006 00F07F00 		and	r0, r0, #127
 499              	.LVL27:
 516:.\Generated_Source\PSoC5/UART_1.c ****             {
 500              		.loc 1 516 0
 501 000a 1A79     		ldrb	r2, [r3, #4]	@ zero_extendqisi2
 502 000c 1AB1     		cbz	r2, .L37
 519:.\Generated_Source\PSoC5/UART_1.c ****             }
 503              		.loc 1 519 0
 504 000e 0022     		movs	r2, #0
 518:.\Generated_Source\PSoC5/UART_1.c ****                 UART_1_rxBufferOverflow = 0u;
 505              		.loc 1 518 0
 506 0010 40F08000 		orr	r0, r0, #128
 507              	.LVL28:
 519:.\Generated_Source\PSoC5/UART_1.c ****             }
 508              		.loc 1 519 0
 509 0014 1A71     		strb	r2, [r3, #4]
 510              	.L37:
 524:.\Generated_Source\PSoC5/UART_1.c **** 
 511              		.loc 1 524 0
 512 0016 7047     		bx	lr
 513              	.L42:
 514              		.align	2
 515              	.L41:
 516 0018 66640040 		.word	1073767526
 517 001c 00000000 		.word	.LANCHOR0
 518              		.cfi_endproc
 519              	.LFE10:
 520              		.size	UART_1_ReadRxStatus, .-UART_1_ReadRxStatus
 521              		.section	.text.UART_1_GetChar,"ax",%progbits
 522              		.align	1
 523              		.global	UART_1_GetChar
 524              		.thumb
 525              		.thumb_func
 526              		.type	UART_1_GetChar, %function
 527              	UART_1_GetChar:
 528              	.LFB11:
 557:.\Generated_Source\PSoC5/UART_1.c ****         uint8 rxData = 0u;
 529              		.loc 1 557 0
 530              		.cfi_startproc
 531              		@ args = 0, pretend = 0, frame = 0
 532              		@ frame_needed = 0, uses_anonymous_args = 0
 533              		@ link register save eliminated.
 534              	.LVL29:
 535              	.LBB42:
 536              	.LBB43:
 361:.\Generated_Source\PSoC5/UART_1.c ****         }
 537              		.loc 1 361 0
 538 0000 164B     		ldr	r3, .L54
 539 0002 0222     		movs	r2, #2
 540 0004 1A60     		str	r2, [r3]
ARM GAS  C:\Users\acer\AppData\Local\Temp\ccQxlELY.s 			page 28


 541              	.LBE43:
 542              	.LBE42:
 569:.\Generated_Source\PSoC5/UART_1.c ****             loc_rxBufferWrite = UART_1_rxBufferWrite;
 543              		.loc 1 569 0
 544 0006 164A     		ldr	r2, .L54+4
 545 0008 5378     		ldrb	r3, [r2, #1]	@ zero_extendqisi2
 570:.\Generated_Source\PSoC5/UART_1.c **** 
 546              		.loc 1 570 0
 547 000a 9178     		ldrb	r1, [r2, #2]	@ zero_extendqisi2
 572:.\Generated_Source\PSoC5/UART_1.c ****             {
 548              		.loc 1 572 0
 549 000c D078     		ldrb	r0, [r2, #3]	@ zero_extendqisi2
 569:.\Generated_Source\PSoC5/UART_1.c ****             loc_rxBufferWrite = UART_1_rxBufferWrite;
 550              		.loc 1 569 0
 551 000e DBB2     		uxtb	r3, r3
 552              	.LVL30:
 570:.\Generated_Source\PSoC5/UART_1.c **** 
 553              		.loc 1 570 0
 554 0010 C9B2     		uxtb	r1, r1
 555              	.LVL31:
 572:.\Generated_Source\PSoC5/UART_1.c ****             {
 556              		.loc 1 572 0
 557 0012 08B9     		cbnz	r0, .L44
 572:.\Generated_Source\PSoC5/UART_1.c ****             {
 558              		.loc 1 572 0 is_stmt 0 discriminator 1
 559 0014 8B42     		cmp	r3, r1
 560 0016 0ED0     		beq	.L45
 561              	.L44:
 574:.\Generated_Source\PSoC5/UART_1.c ****                 loc_rxBufferRead++;
 562              		.loc 1 574 0 is_stmt 1
 563 0018 1249     		ldr	r1, .L54+8
 564              	.LVL32:
 565 001a C85C     		ldrb	r0, [r1, r3]	@ zero_extendqisi2
 575:.\Generated_Source\PSoC5/UART_1.c ****                 if(loc_rxBufferRead >= UART_1_RXBUFFERSIZE)
 566              		.loc 1 575 0
 567 001c 0133     		adds	r3, r3, #1
 568              	.LVL33:
 569 001e DBB2     		uxtb	r3, r3
 570              	.LVL34:
 578:.\Generated_Source\PSoC5/UART_1.c ****                 }
 571              		.loc 1 578 0
 572 0020 102B     		cmp	r3, #16
 573 0022 28BF     		it	cs
 574 0024 0023     		movcs	r3, #0
 581:.\Generated_Source\PSoC5/UART_1.c **** 
 575              		.loc 1 581 0
 576 0026 5370     		strb	r3, [r2, #1]
 583:.\Generated_Source\PSoC5/UART_1.c ****                 {
 577              		.loc 1 583 0
 578 0028 D378     		ldrb	r3, [r2, #3]	@ zero_extendqisi2
 574:.\Generated_Source\PSoC5/UART_1.c ****                 loc_rxBufferRead++;
 579              		.loc 1 574 0
 580 002a C0B2     		uxtb	r0, r0
 581              	.LVL35:
 583:.\Generated_Source\PSoC5/UART_1.c ****                 {
 582              		.loc 1 583 0
 583 002c 8BB1     		cbz	r3, .L47
ARM GAS  C:\Users\acer\AppData\Local\Temp\ccQxlELY.s 			page 29


 585:.\Generated_Source\PSoC5/UART_1.c ****                     #if( (UART_1_RX_INTERRUPT_ENABLED) && (UART_1_FLOW_CONTROL != 0u) )
 584              		.loc 1 585 0
 585 002e 0C4B     		ldr	r3, .L54+4
 586 0030 0022     		movs	r2, #0
 587 0032 DA70     		strb	r2, [r3, #3]
 588 0034 0DE0     		b	.L47
 589              	.LVL36:
 590              	.L45:
 604:.\Generated_Source\PSoC5/UART_1.c ****                 if((rxStatus & UART_1_RX_STS_FIFO_NOTEMPTY) != 0u)
 591              		.loc 1 604 0
 592 0036 0C4B     		ldr	r3, .L54+12
 593              	.LVL37:
 594 0038 1B78     		ldrb	r3, [r3]	@ zero_extendqisi2
 595 003a DBB2     		uxtb	r3, r3
 596              	.LVL38:
 605:.\Generated_Source\PSoC5/UART_1.c ****                 {   /* Read received data from FIFO*/
 597              		.loc 1 605 0
 598 003c 03F02002 		and	r2, r3, #32
 599 0040 02F0FF00 		and	r0, r2, #255
 600 0044 2AB1     		cbz	r2, .L47
 607:.\Generated_Source\PSoC5/UART_1.c ****                     /*Check status on error*/
 601              		.loc 1 607 0
 602 0046 094A     		ldr	r2, .L54+16
 612:.\Generated_Source\PSoC5/UART_1.c ****                     }
 603              		.loc 1 612 0
 604 0048 13F01E0F 		tst	r3, #30
 607:.\Generated_Source\PSoC5/UART_1.c ****                     /*Check status on error*/
 605              		.loc 1 607 0
 606 004c 1078     		ldrb	r0, [r2]	@ zero_extendqisi2
 607              	.LVL39:
 612:.\Generated_Source\PSoC5/UART_1.c ****                     }
 608              		.loc 1 612 0
 609 004e 18BF     		it	ne
 610 0050 0020     		movne	r0, #0
 611              	.LVL40:
 612              	.L47:
 613              	.LBB44:
 614              	.LBB45:
 338:.\Generated_Source\PSoC5/UART_1.c ****         }
 615              		.loc 1 338 0
 616 0052 074B     		ldr	r3, .L54+20
 617 0054 0222     		movs	r2, #2
 618 0056 1A60     		str	r2, [r3]
 619              	.LBE45:
 620              	.LBE44:
 638:.\Generated_Source\PSoC5/UART_1.c **** 
 621              		.loc 1 638 0
 622 0058 7047     		bx	lr
 623              	.L55:
 624 005a 00BF     		.align	2
 625              	.L54:
 626 005c 80E100E0 		.word	-536813184
 627 0060 00000000 		.word	.LANCHOR0
 628 0064 00000000 		.word	UART_1_rxBuffer
 629 0068 66640040 		.word	1073767526
 630 006c 45640040 		.word	1073767493
 631 0070 00E100E0 		.word	-536813312
ARM GAS  C:\Users\acer\AppData\Local\Temp\ccQxlELY.s 			page 30


 632              		.cfi_endproc
 633              	.LFE11:
 634              		.size	UART_1_GetChar, .-UART_1_GetChar
 635              		.section	.text.UART_1_GetByte,"ax",%progbits
 636              		.align	1
 637              		.global	UART_1_GetByte
 638              		.thumb
 639              		.thumb_func
 640              		.type	UART_1_GetByte, %function
 641              	UART_1_GetByte:
 642              	.LFB12:
 659:.\Generated_Source\PSoC5/UART_1.c ****         return ( ((uint16)UART_1_ReadRxStatus() << 8u) | UART_1_ReadRxData() );
 643              		.loc 1 659 0
 644              		.cfi_startproc
 645              		@ args = 0, pretend = 0, frame = 0
 646              		@ frame_needed = 0, uses_anonymous_args = 0
 647 0000 10B5     		push	{r4, lr}
 648              		.cfi_def_cfa_offset 8
 649              		.cfi_offset 4, -8
 650              		.cfi_offset 14, -4
 660:.\Generated_Source\PSoC5/UART_1.c ****     }
 651              		.loc 1 660 0
 652 0002 FFF7FEFF 		bl	UART_1_ReadRxStatus
 653              	.LVL41:
 654 0006 0446     		mov	r4, r0
 655 0008 FFF7FEFF 		bl	UART_1_ReadRxData
 656              	.LVL42:
 657 000c 40EA0420 		orr	r0, r0, r4, lsl #8
 661:.\Generated_Source\PSoC5/UART_1.c **** 
 658              		.loc 1 661 0
 659 0010 80B2     		uxth	r0, r0
 660 0012 10BD     		pop	{r4, pc}
 661              		.cfi_endproc
 662              	.LFE12:
 663              		.size	UART_1_GetByte, .-UART_1_GetByte
 664              		.section	.text.UART_1_GetRxBufferSize,"ax",%progbits
 665              		.align	1
 666              		.global	UART_1_GetRxBufferSize
 667              		.thumb
 668              		.thumb_func
 669              		.type	UART_1_GetRxBufferSize, %function
 670              	UART_1_GetRxBufferSize:
 671              	.LFB13:
 693:.\Generated_Source\PSoC5/UART_1.c ****         uint8 size;
 672              		.loc 1 693 0
 673              		.cfi_startproc
 674              		@ args = 0, pretend = 0, frame = 0
 675              		@ frame_needed = 0, uses_anonymous_args = 0
 676              		@ link register save eliminated.
 677              	.LBB46:
 678              	.LBB47:
 361:.\Generated_Source\PSoC5/UART_1.c ****         }
 679              		.loc 1 361 0
 680 0000 0F4B     		ldr	r3, .L63
 681 0002 0222     		movs	r2, #2
 682 0004 1A60     		str	r2, [r3]
 683              	.LBE47:
ARM GAS  C:\Users\acer\AppData\Local\Temp\ccQxlELY.s 			page 31


 684              	.LBE46:
 704:.\Generated_Source\PSoC5/UART_1.c ****             {
 685              		.loc 1 704 0
 686 0006 0F4A     		ldr	r2, .L63+4
 687 0008 5178     		ldrb	r1, [r2, #1]	@ zero_extendqisi2
 688 000a 9378     		ldrb	r3, [r2, #2]	@ zero_extendqisi2
 689 000c 9942     		cmp	r1, r3
 690 000e 05D1     		bne	.L58
 706:.\Generated_Source\PSoC5/UART_1.c ****                 {
 691              		.loc 1 706 0
 692 0010 D378     		ldrb	r3, [r2, #3]	@ zero_extendqisi2
 693 0012 002B     		cmp	r3, #0
 712:.\Generated_Source\PSoC5/UART_1.c ****                 }
 694              		.loc 1 712 0
 695 0014 14BF     		ite	ne
 696 0016 1020     		movne	r0, #16
 697 0018 0020     		moveq	r0, #0
 698 001a 0CE0     		b	.L59
 699              	.L58:
 715:.\Generated_Source\PSoC5/UART_1.c ****             {
 700              		.loc 1 715 0
 701 001c 5178     		ldrb	r1, [r2, #1]	@ zero_extendqisi2
 702 001e 9378     		ldrb	r3, [r2, #2]	@ zero_extendqisi2
 703 0020 9942     		cmp	r1, r3
 721:.\Generated_Source\PSoC5/UART_1.c ****             }
 704              		.loc 1 721 0
 705 0022 2BBF     		itete	cs
 706 0024 9078     		ldrbcs	r0, [r2, #2]	@ zero_extendqisi2
 717:.\Generated_Source\PSoC5/UART_1.c ****             }
 707              		.loc 1 717 0
 708 0026 9378     		ldrbcc	r3, [r2, #2]	@ zero_extendqisi2
 721:.\Generated_Source\PSoC5/UART_1.c ****             }
 709              		.loc 1 721 0
 710 0028 5378     		ldrbcs	r3, [r2, #1]	@ zero_extendqisi2
 717:.\Generated_Source\PSoC5/UART_1.c ****             }
 711              		.loc 1 717 0
 712 002a 5078     		ldrbcc	r0, [r2, #1]	@ zero_extendqisi2
 713 002c 2ABF     		itet	cs
 714 002e 1030     		addcs	r0, r0, #16
 715 0030 181A     		subcc	r0, r3, r0
 721:.\Generated_Source\PSoC5/UART_1.c ****             }
 716              		.loc 1 721 0
 717 0032 C01A     		subcs	r0, r0, r3
 718 0034 C0B2     		uxtb	r0, r0
 719              	.LVL43:
 720              	.L59:
 721              	.LBB48:
 722              	.LBB49:
 338:.\Generated_Source\PSoC5/UART_1.c ****         }
 723              		.loc 1 338 0
 724 0036 044B     		ldr	r3, .L63+8
 725 0038 0222     		movs	r2, #2
 726 003a 1A60     		str	r2, [r3]
 727              	.LBE49:
 728              	.LBE48:
 737:.\Generated_Source\PSoC5/UART_1.c **** 
 729              		.loc 1 737 0
ARM GAS  C:\Users\acer\AppData\Local\Temp\ccQxlELY.s 			page 32


 730 003c 7047     		bx	lr
 731              	.L64:
 732 003e 00BF     		.align	2
 733              	.L63:
 734 0040 80E100E0 		.word	-536813184
 735 0044 00000000 		.word	.LANCHOR0
 736 0048 00E100E0 		.word	-536813312
 737              		.cfi_endproc
 738              	.LFE13:
 739              		.size	UART_1_GetRxBufferSize, .-UART_1_GetRxBufferSize
 740              		.section	.text.UART_1_ClearRxBuffer,"ax",%progbits
 741              		.align	1
 742              		.global	UART_1_ClearRxBuffer
 743              		.thumb
 744              		.thumb_func
 745              		.type	UART_1_ClearRxBuffer, %function
 746              	UART_1_ClearRxBuffer:
 747              	.LFB14:
 772:.\Generated_Source\PSoC5/UART_1.c ****         uint8 enableInterrupts;
 748              		.loc 1 772 0
 749              		.cfi_startproc
 750              		@ args = 0, pretend = 0, frame = 0
 751              		@ frame_needed = 0, uses_anonymous_args = 0
 752 0000 08B5     		push	{r3, lr}
 753              		.cfi_def_cfa_offset 8
 754              		.cfi_offset 3, -8
 755              		.cfi_offset 14, -4
 777:.\Generated_Source\PSoC5/UART_1.c ****         UART_1_RXDATA_AUX_CTL_REG |=  UART_1_RX_FIFO_CLR;
 756              		.loc 1 777 0
 757 0002 FFF7FEFF 		bl	CyEnterCriticalSection
 758              	.LVL44:
 778:.\Generated_Source\PSoC5/UART_1.c ****         UART_1_RXDATA_AUX_CTL_REG &= (uint8)~UART_1_RX_FIFO_CLR;
 759              		.loc 1 778 0
 760 0006 0B4B     		ldr	r3, .L66
 761 0008 1A78     		ldrb	r2, [r3]	@ zero_extendqisi2
 762 000a 42F00102 		orr	r2, r2, #1
 763 000e 1A70     		strb	r2, [r3]
 779:.\Generated_Source\PSoC5/UART_1.c ****         /* Exit critical section */
 764              		.loc 1 779 0
 765 0010 1A78     		ldrb	r2, [r3]	@ zero_extendqisi2
 766 0012 02F0FE02 		and	r2, r2, #254
 767 0016 1A70     		strb	r2, [r3]
 781:.\Generated_Source\PSoC5/UART_1.c **** 
 768              		.loc 1 781 0
 769 0018 FFF7FEFF 		bl	CyExitCriticalSection
 770              	.LVL45:
 771              	.LBB50:
 772              	.LBB51:
 361:.\Generated_Source\PSoC5/UART_1.c ****         }
 773              		.loc 1 361 0
 774 001c 064B     		ldr	r3, .L66+4
 775 001e 0221     		movs	r1, #2
 776 0020 1960     		str	r1, [r3]
 777              	.LBE51:
 778              	.LBE50:
 790:.\Generated_Source\PSoC5/UART_1.c ****             UART_1_rxBufferWrite = 0u;
 779              		.loc 1 790 0
ARM GAS  C:\Users\acer\AppData\Local\Temp\ccQxlELY.s 			page 33


 780 0022 064B     		ldr	r3, .L66+8
 781 0024 0022     		movs	r2, #0
 782 0026 5A70     		strb	r2, [r3, #1]
 791:.\Generated_Source\PSoC5/UART_1.c ****             UART_1_rxBufferLoopDetect = 0u;
 783              		.loc 1 791 0
 784 0028 9A70     		strb	r2, [r3, #2]
 792:.\Generated_Source\PSoC5/UART_1.c ****             UART_1_rxBufferOverflow = 0u;
 785              		.loc 1 792 0
 786 002a DA70     		strb	r2, [r3, #3]
 793:.\Generated_Source\PSoC5/UART_1.c **** 
 787              		.loc 1 793 0
 788 002c 1A71     		strb	r2, [r3, #4]
 789              	.LBB52:
 790              	.LBB53:
 338:.\Generated_Source\PSoC5/UART_1.c ****         }
 791              		.loc 1 338 0
 792 002e 044B     		ldr	r3, .L66+12
 793 0030 1960     		str	r1, [r3]
 794 0032 08BD     		pop	{r3, pc}
 795              	.L67:
 796              		.align	2
 797              	.L66:
 798 0034 95640040 		.word	1073767573
 799 0038 80E100E0 		.word	-536813184
 800 003c 00000000 		.word	.LANCHOR0
 801 0040 00E100E0 		.word	-536813312
 802              	.LBE53:
 803              	.LBE52:
 804              		.cfi_endproc
 805              	.LFE14:
 806              		.size	UART_1_ClearRxBuffer, .-UART_1_ClearRxBuffer
 807              		.section	.text.UART_1_SetRxAddressMode,"ax",%progbits
 808              		.align	1
 809              		.global	UART_1_SetRxAddressMode
 810              		.thumb
 811              		.thumb_func
 812              		.type	UART_1_SetRxAddressMode, %function
 813              	UART_1_SetRxAddressMode:
 814              	.LFB15:
 834:.\Generated_Source\PSoC5/UART_1.c ****         #if(UART_1_RXHW_ADDRESS_ENABLED)
 815              		.loc 1 834 0
 816              		.cfi_startproc
 817              		@ args = 0, pretend = 0, frame = 0
 818              		@ frame_needed = 0, uses_anonymous_args = 0
 819              		@ link register save eliminated.
 820              	.LVL46:
 821 0000 7047     		bx	lr
 822              		.cfi_endproc
 823              	.LFE15:
 824              		.size	UART_1_SetRxAddressMode, .-UART_1_SetRxAddressMode
 825              		.section	.text.UART_1_SetRxAddress1,"ax",%progbits
 826              		.align	1
 827              		.global	UART_1_SetRxAddress1
 828              		.thumb
 829              		.thumb_func
 830              		.type	UART_1_SetRxAddress1, %function
 831              	UART_1_SetRxAddress1:
ARM GAS  C:\Users\acer\AppData\Local\Temp\ccQxlELY.s 			page 34


 832              	.LFB16:
 871:.\Generated_Source\PSoC5/UART_1.c ****         UART_1_RXADDRESS1_REG = address;
 833              		.loc 1 871 0
 834              		.cfi_startproc
 835              		@ args = 0, pretend = 0, frame = 0
 836              		@ frame_needed = 0, uses_anonymous_args = 0
 837              		@ link register save eliminated.
 838              	.LVL47:
 872:.\Generated_Source\PSoC5/UART_1.c ****     }
 839              		.loc 1 872 0
 840 0000 014B     		ldr	r3, .L70
 841 0002 1870     		strb	r0, [r3]
 842 0004 7047     		bx	lr
 843              	.L71:
 844 0006 00BF     		.align	2
 845              	.L70:
 846 0008 25640040 		.word	1073767461
 847              		.cfi_endproc
 848              	.LFE16:
 849              		.size	UART_1_SetRxAddress1, .-UART_1_SetRxAddress1
 850              		.section	.text.UART_1_SetRxAddress2,"ax",%progbits
 851              		.align	1
 852              		.global	UART_1_SetRxAddress2
 853              		.thumb
 854              		.thumb_func
 855              		.type	UART_1_SetRxAddress2, %function
 856              	UART_1_SetRxAddress2:
 857              	.LFB17:
 891:.\Generated_Source\PSoC5/UART_1.c ****         UART_1_RXADDRESS2_REG = address;
 858              		.loc 1 891 0
 859              		.cfi_startproc
 860              		@ args = 0, pretend = 0, frame = 0
 861              		@ frame_needed = 0, uses_anonymous_args = 0
 862              		@ link register save eliminated.
 863              	.LVL48:
 892:.\Generated_Source\PSoC5/UART_1.c ****     }
 864              		.loc 1 892 0
 865 0000 014B     		ldr	r3, .L73
 866 0002 1870     		strb	r0, [r3]
 867 0004 7047     		bx	lr
 868              	.L74:
 869 0006 00BF     		.align	2
 870              	.L73:
 871 0008 35640040 		.word	1073767477
 872              		.cfi_endproc
 873              	.LFE17:
 874              		.size	UART_1_SetRxAddress2, .-UART_1_SetRxAddress2
 875              		.section	.text.UART_1_EnableTxInt,"ax",%progbits
 876              		.align	1
 877              		.global	UART_1_EnableTxInt
 878              		.thumb
 879              		.thumb_func
 880              		.type	UART_1_EnableTxInt, %function
 881              	UART_1_EnableTxInt:
 882              	.LFB18:
 920:.\Generated_Source\PSoC5/UART_1.c ****             CyIntEnable(UART_1_TX_VECT_NUM);
 883              		.loc 1 920 0
ARM GAS  C:\Users\acer\AppData\Local\Temp\ccQxlELY.s 			page 35


 884              		.cfi_startproc
 885              		@ args = 0, pretend = 0, frame = 0
 886              		@ frame_needed = 0, uses_anonymous_args = 0
 887              		@ link register save eliminated.
 921:.\Generated_Source\PSoC5/UART_1.c ****         }
 888              		.loc 1 921 0
 889 0000 014B     		ldr	r3, .L76
 890 0002 0422     		movs	r2, #4
 891 0004 1A60     		str	r2, [r3]
 892 0006 7047     		bx	lr
 893              	.L77:
 894              		.align	2
 895              	.L76:
 896 0008 00E100E0 		.word	-536813312
 897              		.cfi_endproc
 898              	.LFE18:
 899              		.size	UART_1_EnableTxInt, .-UART_1_EnableTxInt
 900              		.section	.text.UART_1_DisableTxInt,"ax",%progbits
 901              		.align	1
 902              		.global	UART_1_DisableTxInt
 903              		.thumb
 904              		.thumb_func
 905              		.type	UART_1_DisableTxInt, %function
 906              	UART_1_DisableTxInt:
 907              	.LFB19:
 943:.\Generated_Source\PSoC5/UART_1.c ****             CyIntDisable(UART_1_TX_VECT_NUM);
 908              		.loc 1 943 0
 909              		.cfi_startproc
 910              		@ args = 0, pretend = 0, frame = 0
 911              		@ frame_needed = 0, uses_anonymous_args = 0
 912              		@ link register save eliminated.
 913              		.loc 1 944 0
 914 0000 014B     		ldr	r3, .L79
 915 0002 0422     		movs	r2, #4
 916 0004 1A60     		str	r2, [r3]
 917 0006 7047     		bx	lr
 918              	.L80:
 919              		.align	2
 920              	.L79:
 921 0008 80E100E0 		.word	-536813184
 922              		.cfi_endproc
 923              	.LFE19:
 924              		.size	UART_1_DisableTxInt, .-UART_1_DisableTxInt
 925              		.section	.text.UART_1_SetTxInterruptMode,"ax",%progbits
 926              		.align	1
 927              		.global	UART_1_SetTxInterruptMode
 928              		.thumb
 929              		.thumb_func
 930              		.type	UART_1_SetTxInterruptMode, %function
 931              	UART_1_SetTxInterruptMode:
 932              	.LFB20:
 945:.\Generated_Source\PSoC5/UART_1.c ****         }
 946:.\Generated_Source\PSoC5/UART_1.c **** 
 947:.\Generated_Source\PSoC5/UART_1.c ****     #endif /* UART_1_TX_INTERRUPT_ENABLED */
 948:.\Generated_Source\PSoC5/UART_1.c **** 
 949:.\Generated_Source\PSoC5/UART_1.c **** 
 950:.\Generated_Source\PSoC5/UART_1.c ****     /*******************************************************************************
ARM GAS  C:\Users\acer\AppData\Local\Temp\ccQxlELY.s 			page 36


 951:.\Generated_Source\PSoC5/UART_1.c ****     * Function Name: UART_1_SetTxInterruptMode
 952:.\Generated_Source\PSoC5/UART_1.c ****     ********************************************************************************
 953:.\Generated_Source\PSoC5/UART_1.c ****     *
 954:.\Generated_Source\PSoC5/UART_1.c ****     * Summary:
 955:.\Generated_Source\PSoC5/UART_1.c ****     *  Configure which status bits trigger an interrupt event
 956:.\Generated_Source\PSoC5/UART_1.c ****     *
 957:.\Generated_Source\PSoC5/UART_1.c ****     * Parameters:
 958:.\Generated_Source\PSoC5/UART_1.c ****     *  intSrc: An or'd combination of the desired status bit masks (defined in
 959:.\Generated_Source\PSoC5/UART_1.c ****     *          the header file)
 960:.\Generated_Source\PSoC5/UART_1.c ****     *
 961:.\Generated_Source\PSoC5/UART_1.c ****     * Return:
 962:.\Generated_Source\PSoC5/UART_1.c ****     *  None.
 963:.\Generated_Source\PSoC5/UART_1.c ****     *
 964:.\Generated_Source\PSoC5/UART_1.c ****     * Theory:
 965:.\Generated_Source\PSoC5/UART_1.c ****     *  Enables the output of specific status bits to the interrupt controller
 966:.\Generated_Source\PSoC5/UART_1.c ****     *
 967:.\Generated_Source\PSoC5/UART_1.c ****     *******************************************************************************/
 968:.\Generated_Source\PSoC5/UART_1.c ****     void UART_1_SetTxInterruptMode(uint8 intSrc) 
 969:.\Generated_Source\PSoC5/UART_1.c ****     {
 933              		.loc 1 969 0
 934              		.cfi_startproc
 935              		@ args = 0, pretend = 0, frame = 0
 936              		@ frame_needed = 0, uses_anonymous_args = 0
 937              		@ link register save eliminated.
 938              	.LVL49:
 970:.\Generated_Source\PSoC5/UART_1.c ****         UART_1_TXSTATUS_MASK_REG = intSrc;
 939              		.loc 1 970 0
 940 0000 014B     		ldr	r3, .L82
 941 0002 1870     		strb	r0, [r3]
 942 0004 7047     		bx	lr
 943              	.L83:
 944 0006 00BF     		.align	2
 945              	.L82:
 946 0008 82640040 		.word	1073767554
 947              		.cfi_endproc
 948              	.LFE20:
 949              		.size	UART_1_SetTxInterruptMode, .-UART_1_SetTxInterruptMode
 950              		.section	.text.UART_1_WriteTxData,"ax",%progbits
 951              		.align	1
 952              		.global	UART_1_WriteTxData
 953              		.thumb
 954              		.thumb_func
 955              		.type	UART_1_WriteTxData, %function
 956              	UART_1_WriteTxData:
 957              	.LFB21:
 971:.\Generated_Source\PSoC5/UART_1.c ****     }
 972:.\Generated_Source\PSoC5/UART_1.c **** 
 973:.\Generated_Source\PSoC5/UART_1.c **** 
 974:.\Generated_Source\PSoC5/UART_1.c ****     /*******************************************************************************
 975:.\Generated_Source\PSoC5/UART_1.c ****     * Function Name: UART_1_WriteTxData
 976:.\Generated_Source\PSoC5/UART_1.c ****     ********************************************************************************
 977:.\Generated_Source\PSoC5/UART_1.c ****     *
 978:.\Generated_Source\PSoC5/UART_1.c ****     * Summary:
 979:.\Generated_Source\PSoC5/UART_1.c ****     *  Write a byte of data to the Transmit FIFO or TX buffer to be sent when the
 980:.\Generated_Source\PSoC5/UART_1.c ****     *  bus is available. WriteTxData sends a byte without checking for buffer room
 981:.\Generated_Source\PSoC5/UART_1.c ****     *  or status. It is up to the user to separately check status.
 982:.\Generated_Source\PSoC5/UART_1.c ****     *
ARM GAS  C:\Users\acer\AppData\Local\Temp\ccQxlELY.s 			page 37


 983:.\Generated_Source\PSoC5/UART_1.c ****     * Parameters:
 984:.\Generated_Source\PSoC5/UART_1.c ****     *  TXDataByte: byte of data to place in the transmit FIFO
 985:.\Generated_Source\PSoC5/UART_1.c ****     *
 986:.\Generated_Source\PSoC5/UART_1.c ****     * Return:
 987:.\Generated_Source\PSoC5/UART_1.c ****     * void
 988:.\Generated_Source\PSoC5/UART_1.c ****     *
 989:.\Generated_Source\PSoC5/UART_1.c ****     * Global Variables:
 990:.\Generated_Source\PSoC5/UART_1.c ****     *  UART_1_txBuffer - RAM buffer pointer for save data for transmission
 991:.\Generated_Source\PSoC5/UART_1.c ****     *  UART_1_txBufferWrite - cyclic index for write to txBuffer,
 992:.\Generated_Source\PSoC5/UART_1.c ****     *    incremented after each byte saved to buffer.
 993:.\Generated_Source\PSoC5/UART_1.c ****     *  UART_1_txBufferRead - cyclic index for read from txBuffer,
 994:.\Generated_Source\PSoC5/UART_1.c ****     *    checked to identify the condition to write to FIFO directly or to TX buffer
 995:.\Generated_Source\PSoC5/UART_1.c ****     *  UART_1_initVar - checked to identify that the component has been
 996:.\Generated_Source\PSoC5/UART_1.c ****     *    initialized.
 997:.\Generated_Source\PSoC5/UART_1.c ****     *
 998:.\Generated_Source\PSoC5/UART_1.c ****     * Reentrant:
 999:.\Generated_Source\PSoC5/UART_1.c ****     *  No.
1000:.\Generated_Source\PSoC5/UART_1.c ****     *
1001:.\Generated_Source\PSoC5/UART_1.c ****     *******************************************************************************/
1002:.\Generated_Source\PSoC5/UART_1.c ****     void UART_1_WriteTxData(uint8 txDataByte) 
1003:.\Generated_Source\PSoC5/UART_1.c ****     {
 958              		.loc 1 1003 0
 959              		.cfi_startproc
 960              		@ args = 0, pretend = 0, frame = 0
 961              		@ frame_needed = 0, uses_anonymous_args = 0
 962              	.LVL50:
 963 0000 10B5     		push	{r4, lr}
 964              		.cfi_def_cfa_offset 8
 965              		.cfi_offset 4, -8
 966              		.cfi_offset 14, -4
1004:.\Generated_Source\PSoC5/UART_1.c ****         /* If not Initialized then skip this function*/
1005:.\Generated_Source\PSoC5/UART_1.c ****         if(UART_1_initVar != 0u)
 967              		.loc 1 1005 0
 968 0002 0F4B     		ldr	r3, .L92
 969 0004 1978     		ldrb	r1, [r3]	@ zero_extendqisi2
 970 0006 1A46     		mov	r2, r3
 971 0008 C9B1     		cbz	r1, .L84
 972              	.LBB54:
 973              	.LBB55:
 944:.\Generated_Source\PSoC5/UART_1.c ****         }
 974              		.loc 1 944 0
 975 000a 0E49     		ldr	r1, .L92+4
 976 000c 0424     		movs	r4, #4
 977 000e 0C60     		str	r4, [r1]
 978              	.LBE55:
 979              	.LBE54:
1006:.\Generated_Source\PSoC5/UART_1.c ****         {
1007:.\Generated_Source\PSoC5/UART_1.c ****             #if(UART_1_TXBUFFERSIZE > UART_1_FIFO_LENGTH)
1008:.\Generated_Source\PSoC5/UART_1.c **** 
1009:.\Generated_Source\PSoC5/UART_1.c ****                 /* Disable Tx interrupt. */
1010:.\Generated_Source\PSoC5/UART_1.c ****                 /* Protect variables that could change on interrupt. */
1011:.\Generated_Source\PSoC5/UART_1.c ****                 #if(UART_1_TX_INTERRUPT_ENABLED)
1012:.\Generated_Source\PSoC5/UART_1.c ****                     UART_1_DisableTxInt();
1013:.\Generated_Source\PSoC5/UART_1.c ****                 #endif /* End UART_1_TX_INTERRUPT_ENABLED */
1014:.\Generated_Source\PSoC5/UART_1.c **** 
1015:.\Generated_Source\PSoC5/UART_1.c ****                 if( (UART_1_txBufferRead == UART_1_txBufferWrite) &&
 980              		.loc 1 1015 0
ARM GAS  C:\Users\acer\AppData\Local\Temp\ccQxlELY.s 			page 38


 981 0010 5979     		ldrb	r1, [r3, #5]	@ zero_extendqisi2
 982 0012 9B79     		ldrb	r3, [r3, #6]	@ zero_extendqisi2
 983 0014 9942     		cmp	r1, r3
 984 0016 06D1     		bne	.L86
1016:.\Generated_Source\PSoC5/UART_1.c ****                     ((UART_1_TXSTATUS_REG & UART_1_TX_STS_FIFO_FULL) == 0u) )
 985              		.loc 1 1016 0 discriminator 1
 986 0018 0B49     		ldr	r1, .L92+8
 987 001a 0978     		ldrb	r1, [r1]	@ zero_extendqisi2
1015:.\Generated_Source\PSoC5/UART_1.c ****                     ((UART_1_TXSTATUS_REG & UART_1_TX_STS_FIFO_FULL) == 0u) )
 988              		.loc 1 1015 0 discriminator 1
 989 001c 4907     		lsls	r1, r1, #29
 990 001e 02D4     		bmi	.L86
1017:.\Generated_Source\PSoC5/UART_1.c ****                 {
1018:.\Generated_Source\PSoC5/UART_1.c ****                     /* Add directly to the FIFO. */
1019:.\Generated_Source\PSoC5/UART_1.c ****                     UART_1_TXDATA_REG = txDataByte;
 991              		.loc 1 1019 0
 992 0020 0A4B     		ldr	r3, .L92+12
 993 0022 1870     		strb	r0, [r3]
 994 0024 08E0     		b	.L87
 995              	.L86:
1020:.\Generated_Source\PSoC5/UART_1.c ****                 }
1021:.\Generated_Source\PSoC5/UART_1.c ****                 else
1022:.\Generated_Source\PSoC5/UART_1.c ****                 {
1023:.\Generated_Source\PSoC5/UART_1.c ****                     if(UART_1_txBufferWrite >= UART_1_TXBUFFERSIZE)
 996              		.loc 1 1023 0
 997 0026 0F2B     		cmp	r3, #15
1024:.\Generated_Source\PSoC5/UART_1.c ****                     {
1025:.\Generated_Source\PSoC5/UART_1.c ****                         UART_1_txBufferWrite = 0u;
 998              		.loc 1 1025 0
 999 0028 84BF     		itt	hi
 1000 002a 0023     		movhi	r3, #0
 1001 002c 9371     		strbhi	r3, [r2, #6]
1026:.\Generated_Source\PSoC5/UART_1.c ****                     }
1027:.\Generated_Source\PSoC5/UART_1.c **** 
1028:.\Generated_Source\PSoC5/UART_1.c ****                     UART_1_txBuffer[UART_1_txBufferWrite] = txDataByte;
 1002              		.loc 1 1028 0
 1003 002e 9379     		ldrb	r3, [r2, #6]	@ zero_extendqisi2
 1004 0030 0749     		ldr	r1, .L92+16
 1005 0032 C854     		strb	r0, [r1, r3]
1029:.\Generated_Source\PSoC5/UART_1.c **** 
1030:.\Generated_Source\PSoC5/UART_1.c ****                     /* Add to the software buffer. */
1031:.\Generated_Source\PSoC5/UART_1.c ****                     UART_1_txBufferWrite++;
 1006              		.loc 1 1031 0
 1007 0034 0133     		adds	r3, r3, #1
 1008 0036 9371     		strb	r3, [r2, #6]
 1009              	.L87:
 1010              	.LBB56:
 1011              	.LBB57:
 921:.\Generated_Source\PSoC5/UART_1.c ****         }
 1012              		.loc 1 921 0
 1013 0038 064B     		ldr	r3, .L92+20
 1014 003a 0422     		movs	r2, #4
 1015 003c 1A60     		str	r2, [r3]
 1016              	.L84:
 1017 003e 10BD     		pop	{r4, pc}
 1018              	.L93:
 1019              		.align	2
ARM GAS  C:\Users\acer\AppData\Local\Temp\ccQxlELY.s 			page 39


 1020              	.L92:
 1021 0040 00000000 		.word	.LANCHOR0
 1022 0044 80E100E0 		.word	-536813184
 1023 0048 62640040 		.word	1073767522
 1024 004c 42640040 		.word	1073767490
 1025 0050 00000000 		.word	UART_1_txBuffer
 1026 0054 00E100E0 		.word	-536813312
 1027              	.LBE57:
 1028              	.LBE56:
 1029              		.cfi_endproc
 1030              	.LFE21:
 1031              		.size	UART_1_WriteTxData, .-UART_1_WriteTxData
 1032              		.section	.text.UART_1_ReadTxStatus,"ax",%progbits
 1033              		.align	1
 1034              		.global	UART_1_ReadTxStatus
 1035              		.thumb
 1036              		.thumb_func
 1037              		.type	UART_1_ReadTxStatus, %function
 1038              	UART_1_ReadTxStatus:
 1039              	.LFB22:
1032:.\Generated_Source\PSoC5/UART_1.c **** 
1033:.\Generated_Source\PSoC5/UART_1.c ****                 }
1034:.\Generated_Source\PSoC5/UART_1.c **** 
1035:.\Generated_Source\PSoC5/UART_1.c ****                 /* Enable Tx interrupt. */
1036:.\Generated_Source\PSoC5/UART_1.c ****                 #if(UART_1_TX_INTERRUPT_ENABLED)
1037:.\Generated_Source\PSoC5/UART_1.c ****                     UART_1_EnableTxInt();
1038:.\Generated_Source\PSoC5/UART_1.c ****                 #endif /* End UART_1_TX_INTERRUPT_ENABLED */
1039:.\Generated_Source\PSoC5/UART_1.c **** 
1040:.\Generated_Source\PSoC5/UART_1.c ****             #else /* UART_1_TXBUFFERSIZE > UART_1_FIFO_LENGTH */
1041:.\Generated_Source\PSoC5/UART_1.c **** 
1042:.\Generated_Source\PSoC5/UART_1.c ****                 /* Add directly to the FIFO. */
1043:.\Generated_Source\PSoC5/UART_1.c ****                 UART_1_TXDATA_REG = txDataByte;
1044:.\Generated_Source\PSoC5/UART_1.c **** 
1045:.\Generated_Source\PSoC5/UART_1.c ****             #endif /* End UART_1_TXBUFFERSIZE > UART_1_FIFO_LENGTH */
1046:.\Generated_Source\PSoC5/UART_1.c ****         }
1047:.\Generated_Source\PSoC5/UART_1.c ****     }
1048:.\Generated_Source\PSoC5/UART_1.c **** 
1049:.\Generated_Source\PSoC5/UART_1.c **** 
1050:.\Generated_Source\PSoC5/UART_1.c ****     /*******************************************************************************
1051:.\Generated_Source\PSoC5/UART_1.c ****     * Function Name: UART_1_ReadTxStatus
1052:.\Generated_Source\PSoC5/UART_1.c ****     ********************************************************************************
1053:.\Generated_Source\PSoC5/UART_1.c ****     *
1054:.\Generated_Source\PSoC5/UART_1.c ****     * Summary:
1055:.\Generated_Source\PSoC5/UART_1.c ****     *  Read the status register for the component
1056:.\Generated_Source\PSoC5/UART_1.c ****     *
1057:.\Generated_Source\PSoC5/UART_1.c ****     * Parameters:
1058:.\Generated_Source\PSoC5/UART_1.c ****     *  None.
1059:.\Generated_Source\PSoC5/UART_1.c ****     *
1060:.\Generated_Source\PSoC5/UART_1.c ****     * Return:
1061:.\Generated_Source\PSoC5/UART_1.c ****     *  Contents of the status register
1062:.\Generated_Source\PSoC5/UART_1.c ****     *
1063:.\Generated_Source\PSoC5/UART_1.c ****     * Theory:
1064:.\Generated_Source\PSoC5/UART_1.c ****     *  This function reads the status register which is clear on read. It is up to
1065:.\Generated_Source\PSoC5/UART_1.c ****     *  the user to handle all bits in this return value accordingly, even if the bit
1066:.\Generated_Source\PSoC5/UART_1.c ****     *  was not enabled as an interrupt source the event happened and must be handled
1067:.\Generated_Source\PSoC5/UART_1.c ****     *  accordingly.
1068:.\Generated_Source\PSoC5/UART_1.c ****     *
ARM GAS  C:\Users\acer\AppData\Local\Temp\ccQxlELY.s 			page 40


1069:.\Generated_Source\PSoC5/UART_1.c ****     *******************************************************************************/
1070:.\Generated_Source\PSoC5/UART_1.c ****     uint8 UART_1_ReadTxStatus(void) 
1071:.\Generated_Source\PSoC5/UART_1.c ****     {
 1040              		.loc 1 1071 0
 1041              		.cfi_startproc
 1042              		@ args = 0, pretend = 0, frame = 0
 1043              		@ frame_needed = 0, uses_anonymous_args = 0
 1044              		@ link register save eliminated.
1072:.\Generated_Source\PSoC5/UART_1.c ****         return(UART_1_TXSTATUS_REG);
 1045              		.loc 1 1072 0
 1046 0000 014B     		ldr	r3, .L95
 1047 0002 1878     		ldrb	r0, [r3]	@ zero_extendqisi2
1073:.\Generated_Source\PSoC5/UART_1.c ****     }
 1048              		.loc 1 1073 0
 1049 0004 7047     		bx	lr
 1050              	.L96:
 1051 0006 00BF     		.align	2
 1052              	.L95:
 1053 0008 62640040 		.word	1073767522
 1054              		.cfi_endproc
 1055              	.LFE22:
 1056              		.size	UART_1_ReadTxStatus, .-UART_1_ReadTxStatus
 1057              		.section	.text.UART_1_PutChar,"ax",%progbits
 1058              		.align	1
 1059              		.global	UART_1_PutChar
 1060              		.thumb
 1061              		.thumb_func
 1062              		.type	UART_1_PutChar, %function
 1063              	UART_1_PutChar:
 1064              	.LFB23:
1074:.\Generated_Source\PSoC5/UART_1.c **** 
1075:.\Generated_Source\PSoC5/UART_1.c **** 
1076:.\Generated_Source\PSoC5/UART_1.c ****     /*******************************************************************************
1077:.\Generated_Source\PSoC5/UART_1.c ****     * Function Name: UART_1_PutChar
1078:.\Generated_Source\PSoC5/UART_1.c ****     ********************************************************************************
1079:.\Generated_Source\PSoC5/UART_1.c ****     *
1080:.\Generated_Source\PSoC5/UART_1.c ****     * Summary:
1081:.\Generated_Source\PSoC5/UART_1.c ****     *  Wait to send byte until TX register or buffer has room.
1082:.\Generated_Source\PSoC5/UART_1.c ****     *
1083:.\Generated_Source\PSoC5/UART_1.c ****     * Parameters:
1084:.\Generated_Source\PSoC5/UART_1.c ****     *  txDataByte: The 8-bit data value to send across the UART.
1085:.\Generated_Source\PSoC5/UART_1.c ****     *
1086:.\Generated_Source\PSoC5/UART_1.c ****     * Return:
1087:.\Generated_Source\PSoC5/UART_1.c ****     *  None.
1088:.\Generated_Source\PSoC5/UART_1.c ****     *
1089:.\Generated_Source\PSoC5/UART_1.c ****     * Global Variables:
1090:.\Generated_Source\PSoC5/UART_1.c ****     *  UART_1_txBuffer - RAM buffer pointer for save data for transmission
1091:.\Generated_Source\PSoC5/UART_1.c ****     *  UART_1_txBufferWrite - cyclic index for write to txBuffer,
1092:.\Generated_Source\PSoC5/UART_1.c ****     *     checked to identify free space in txBuffer and incremented after each byte
1093:.\Generated_Source\PSoC5/UART_1.c ****     *     saved to buffer.
1094:.\Generated_Source\PSoC5/UART_1.c ****     *  UART_1_txBufferRead - cyclic index for read from txBuffer,
1095:.\Generated_Source\PSoC5/UART_1.c ****     *     checked to identify free space in txBuffer.
1096:.\Generated_Source\PSoC5/UART_1.c ****     *  UART_1_initVar - checked to identify that the component has been
1097:.\Generated_Source\PSoC5/UART_1.c ****     *     initialized.
1098:.\Generated_Source\PSoC5/UART_1.c ****     *
1099:.\Generated_Source\PSoC5/UART_1.c ****     * Reentrant:
1100:.\Generated_Source\PSoC5/UART_1.c ****     *  No.
ARM GAS  C:\Users\acer\AppData\Local\Temp\ccQxlELY.s 			page 41


1101:.\Generated_Source\PSoC5/UART_1.c ****     *
1102:.\Generated_Source\PSoC5/UART_1.c ****     * Theory:
1103:.\Generated_Source\PSoC5/UART_1.c ****     *  Allows the user to transmit any byte of data in a single transfer
1104:.\Generated_Source\PSoC5/UART_1.c ****     *
1105:.\Generated_Source\PSoC5/UART_1.c ****     *******************************************************************************/
1106:.\Generated_Source\PSoC5/UART_1.c ****     void UART_1_PutChar(uint8 txDataByte) 
1107:.\Generated_Source\PSoC5/UART_1.c ****     {
 1065              		.loc 1 1107 0
 1066              		.cfi_startproc
 1067              		@ args = 0, pretend = 0, frame = 0
 1068              		@ frame_needed = 0, uses_anonymous_args = 0
 1069              	.LVL51:
 1070 0000 10B5     		push	{r4, lr}
 1071              		.cfi_def_cfa_offset 8
 1072              		.cfi_offset 4, -8
 1073              		.cfi_offset 14, -4
1108:.\Generated_Source\PSoC5/UART_1.c ****             #if(UART_1_TXBUFFERSIZE > UART_1_FIFO_LENGTH)
1109:.\Generated_Source\PSoC5/UART_1.c ****                 /* The temporary output pointer is used since it takes two instructions
1110:.\Generated_Source\PSoC5/UART_1.c ****                 *  to increment with a wrap, and we can't risk doing that with the real
1111:.\Generated_Source\PSoC5/UART_1.c ****                 *  pointer and getting an interrupt in between instructions.
1112:.\Generated_Source\PSoC5/UART_1.c ****                 */
1113:.\Generated_Source\PSoC5/UART_1.c ****                 uint8 loc_txBufferWrite;
1114:.\Generated_Source\PSoC5/UART_1.c ****                 uint8 loc_txBufferRead;
1115:.\Generated_Source\PSoC5/UART_1.c **** 
1116:.\Generated_Source\PSoC5/UART_1.c ****                 do{
1117:.\Generated_Source\PSoC5/UART_1.c ****                     /* Block if software buffer is full, so we don't overwrite. */
1118:.\Generated_Source\PSoC5/UART_1.c ****                     #if ((UART_1_TXBUFFERSIZE > UART_1_MAX_BYTE_VALUE) && (CY_PSOC3))
1119:.\Generated_Source\PSoC5/UART_1.c ****                         /* Disable TX interrupt to protect variables that could change on interrupt
1120:.\Generated_Source\PSoC5/UART_1.c ****                         CyIntDisable(UART_1_TX_VECT_NUM);
1121:.\Generated_Source\PSoC5/UART_1.c ****                     #endif /* End TXBUFFERSIZE > 255 */
1122:.\Generated_Source\PSoC5/UART_1.c ****                     loc_txBufferWrite = UART_1_txBufferWrite;
 1074              		.loc 1 1122 0
 1075 0002 104C     		ldr	r4, .L106
 1076 0004 A379     		ldrb	r3, [r4, #6]	@ zero_extendqisi2
 1077              	.L100:
 1078              	.LVL52:
1123:.\Generated_Source\PSoC5/UART_1.c ****                     loc_txBufferRead = UART_1_txBufferRead;
 1079              		.loc 1 1123 0
 1080 0006 6279     		ldrb	r2, [r4, #5]	@ zero_extendqisi2
 1081 0008 D2B2     		uxtb	r2, r2
 1082              	.LVL53:
1124:.\Generated_Source\PSoC5/UART_1.c ****                     #if ((UART_1_TXBUFFERSIZE > UART_1_MAX_BYTE_VALUE) && (CY_PSOC3))
1125:.\Generated_Source\PSoC5/UART_1.c ****                         /* Enable interrupt to continue transmission */
1126:.\Generated_Source\PSoC5/UART_1.c ****                         CyIntEnable(UART_1_TX_VECT_NUM);
1127:.\Generated_Source\PSoC5/UART_1.c ****                     #endif /* End TXBUFFERSIZE > 255 */
1128:.\Generated_Source\PSoC5/UART_1.c ****                 }while( (loc_txBufferWrite < loc_txBufferRead) ? (loc_txBufferWrite == (loc_txBuffe
 1083              		.loc 1 1128 0
 1084 000a 9342     		cmp	r3, r2
 1085 000c 02D2     		bcs	.L98
 1086              		.loc 1 1128 0 is_stmt 0 discriminator 1
 1087 000e 511E     		subs	r1, r2, #1
 1088 0010 8B42     		cmp	r3, r1
 1089 0012 01E0     		b	.L105
 1090              	.L98:
1129:.\Generated_Source\PSoC5/UART_1.c ****                                         ((loc_txBufferWrite - loc_txBufferRead) ==
 1091              		.loc 1 1129 0 is_stmt 1 discriminator 2
 1092 0014 991A     		subs	r1, r3, r2
ARM GAS  C:\Users\acer\AppData\Local\Temp\ccQxlELY.s 			page 42


1128:.\Generated_Source\PSoC5/UART_1.c ****                                         ((loc_txBufferWrite - loc_txBufferRead) ==
 1093              		.loc 1 1128 0 discriminator 2
 1094 0016 0F29     		cmp	r1, #15
 1095              	.L105:
 1096 0018 14BF     		ite	ne
 1097 001a 0021     		movne	r1, #0
 1098 001c 0121     		moveq	r1, #1
1130:.\Generated_Source\PSoC5/UART_1.c ****                                         (uint8)(UART_1_TXBUFFERSIZE - 1u)) );
 1099              		.loc 1 1130 0 discriminator 2
 1100 001e 0029     		cmp	r1, #0
 1101 0020 F1D1     		bne	.L100
1131:.\Generated_Source\PSoC5/UART_1.c **** 
1132:.\Generated_Source\PSoC5/UART_1.c ****                 if( (loc_txBufferRead == loc_txBufferWrite) &&
 1102              		.loc 1 1132 0
 1103 0022 9A42     		cmp	r2, r3
 1104 0024 06D1     		bne	.L101
1133:.\Generated_Source\PSoC5/UART_1.c ****                     ((UART_1_TXSTATUS_REG & UART_1_TX_STS_FIFO_FULL) == 0u) )
 1105              		.loc 1 1133 0 discriminator 1
 1106 0026 084A     		ldr	r2, .L106+4
 1107              	.LVL54:
 1108 0028 1278     		ldrb	r2, [r2]	@ zero_extendqisi2
1132:.\Generated_Source\PSoC5/UART_1.c ****                     ((UART_1_TXSTATUS_REG & UART_1_TX_STS_FIFO_FULL) == 0u) )
 1109              		.loc 1 1132 0 discriminator 1
 1110 002a 5207     		lsls	r2, r2, #29
 1111 002c 02D4     		bmi	.L101
1134:.\Generated_Source\PSoC5/UART_1.c ****                 {
1135:.\Generated_Source\PSoC5/UART_1.c ****                     /* Add directly to the FIFO. */
1136:.\Generated_Source\PSoC5/UART_1.c ****                     UART_1_TXDATA_REG = txDataByte;
 1112              		.loc 1 1136 0
 1113 002e 074B     		ldr	r3, .L106+8
 1114 0030 1870     		strb	r0, [r3]
 1115              	.LVL55:
 1116 0032 10BD     		pop	{r4, pc}
 1117              	.LVL56:
 1118              	.L101:
1137:.\Generated_Source\PSoC5/UART_1.c ****                 }
1138:.\Generated_Source\PSoC5/UART_1.c ****                 else
1139:.\Generated_Source\PSoC5/UART_1.c ****                 {
1140:.\Generated_Source\PSoC5/UART_1.c ****                     if(loc_txBufferWrite >= UART_1_TXBUFFERSIZE)
1141:.\Generated_Source\PSoC5/UART_1.c ****                     {
1142:.\Generated_Source\PSoC5/UART_1.c ****                         loc_txBufferWrite = 0u;
 1119              		.loc 1 1142 0
 1120 0034 102B     		cmp	r3, #16
1143:.\Generated_Source\PSoC5/UART_1.c ****                     }
1144:.\Generated_Source\PSoC5/UART_1.c ****                     /* Add to the software buffer. */
1145:.\Generated_Source\PSoC5/UART_1.c ****                     UART_1_txBuffer[loc_txBufferWrite] = txDataByte;
 1121              		.loc 1 1145 0
 1122 0036 064A     		ldr	r2, .L106+12
1142:.\Generated_Source\PSoC5/UART_1.c ****                     }
 1123              		.loc 1 1142 0
 1124 0038 28BF     		it	cs
 1125 003a 0023     		movcs	r3, #0
 1126              	.LVL57:
 1127              		.loc 1 1145 0
 1128 003c D054     		strb	r0, [r2, r3]
 1129              	.LVL58:
1146:.\Generated_Source\PSoC5/UART_1.c ****                     loc_txBufferWrite++;
ARM GAS  C:\Users\acer\AppData\Local\Temp\ccQxlELY.s 			page 43


 1130              		.loc 1 1146 0
 1131 003e 0133     		adds	r3, r3, #1
 1132              	.LVL59:
1147:.\Generated_Source\PSoC5/UART_1.c **** 
1148:.\Generated_Source\PSoC5/UART_1.c ****                     /* Finally, update the real output pointer */
1149:.\Generated_Source\PSoC5/UART_1.c ****                     #if ((UART_1_TXBUFFERSIZE > UART_1_MAX_BYTE_VALUE) && (CY_PSOC3))
1150:.\Generated_Source\PSoC5/UART_1.c ****                         CyIntDisable(UART_1_TX_VECT_NUM);
1151:.\Generated_Source\PSoC5/UART_1.c ****                     #endif /* End TXBUFFERSIZE > 255 */
1152:.\Generated_Source\PSoC5/UART_1.c ****                     UART_1_txBufferWrite = loc_txBufferWrite;
 1133              		.loc 1 1152 0
 1134 0040 A371     		strb	r3, [r4, #6]
 1135 0042 10BD     		pop	{r4, pc}
 1136              	.L107:
 1137              		.align	2
 1138              	.L106:
 1139 0044 00000000 		.word	.LANCHOR0
 1140 0048 62640040 		.word	1073767522
 1141 004c 42640040 		.word	1073767490
 1142 0050 00000000 		.word	UART_1_txBuffer
 1143              		.cfi_endproc
 1144              	.LFE23:
 1145              		.size	UART_1_PutChar, .-UART_1_PutChar
 1146              		.section	.text.UART_1_PutString,"ax",%progbits
 1147              		.align	1
 1148              		.global	UART_1_PutString
 1149              		.thumb
 1150              		.thumb_func
 1151              		.type	UART_1_PutString, %function
 1152              	UART_1_PutString:
 1153              	.LFB24:
1153:.\Generated_Source\PSoC5/UART_1.c ****                     #if ((UART_1_TXBUFFERSIZE > UART_1_MAX_BYTE_VALUE) && (CY_PSOC3))
1154:.\Generated_Source\PSoC5/UART_1.c ****                         CyIntEnable(UART_1_TX_VECT_NUM);
1155:.\Generated_Source\PSoC5/UART_1.c ****                     #endif /* End TXBUFFERSIZE > 255 */
1156:.\Generated_Source\PSoC5/UART_1.c ****                 }
1157:.\Generated_Source\PSoC5/UART_1.c **** 
1158:.\Generated_Source\PSoC5/UART_1.c ****             #else /* UART_1_TXBUFFERSIZE > UART_1_FIFO_LENGTH */
1159:.\Generated_Source\PSoC5/UART_1.c **** 
1160:.\Generated_Source\PSoC5/UART_1.c ****                 while((UART_1_TXSTATUS_REG & UART_1_TX_STS_FIFO_FULL) != 0u)
1161:.\Generated_Source\PSoC5/UART_1.c ****                 {
1162:.\Generated_Source\PSoC5/UART_1.c ****                     ; /* Wait for room in the FIFO. */
1163:.\Generated_Source\PSoC5/UART_1.c ****                 }
1164:.\Generated_Source\PSoC5/UART_1.c **** 
1165:.\Generated_Source\PSoC5/UART_1.c ****                 /* Add directly to the FIFO. */
1166:.\Generated_Source\PSoC5/UART_1.c ****                 UART_1_TXDATA_REG = txDataByte;
1167:.\Generated_Source\PSoC5/UART_1.c **** 
1168:.\Generated_Source\PSoC5/UART_1.c ****             #endif /* End UART_1_TXBUFFERSIZE > UART_1_FIFO_LENGTH */
1169:.\Generated_Source\PSoC5/UART_1.c ****     }
1170:.\Generated_Source\PSoC5/UART_1.c **** 
1171:.\Generated_Source\PSoC5/UART_1.c **** 
1172:.\Generated_Source\PSoC5/UART_1.c ****     /*******************************************************************************
1173:.\Generated_Source\PSoC5/UART_1.c ****     * Function Name: UART_1_PutString
1174:.\Generated_Source\PSoC5/UART_1.c ****     ********************************************************************************
1175:.\Generated_Source\PSoC5/UART_1.c ****     *
1176:.\Generated_Source\PSoC5/UART_1.c ****     * Summary:
1177:.\Generated_Source\PSoC5/UART_1.c ****     *  Write a Sequence of bytes on the Transmit line. Data comes from RAM or ROM.
1178:.\Generated_Source\PSoC5/UART_1.c ****     *
1179:.\Generated_Source\PSoC5/UART_1.c ****     * Parameters:
ARM GAS  C:\Users\acer\AppData\Local\Temp\ccQxlELY.s 			page 44


1180:.\Generated_Source\PSoC5/UART_1.c ****     *  string: char pointer to character string of Data to Send.
1181:.\Generated_Source\PSoC5/UART_1.c ****     *
1182:.\Generated_Source\PSoC5/UART_1.c ****     * Return:
1183:.\Generated_Source\PSoC5/UART_1.c ****     *  None.
1184:.\Generated_Source\PSoC5/UART_1.c ****     *
1185:.\Generated_Source\PSoC5/UART_1.c ****     * Global Variables:
1186:.\Generated_Source\PSoC5/UART_1.c ****     *  UART_1_initVar - checked to identify that the component has been
1187:.\Generated_Source\PSoC5/UART_1.c ****     *     initialized.
1188:.\Generated_Source\PSoC5/UART_1.c ****     *
1189:.\Generated_Source\PSoC5/UART_1.c ****     * Reentrant:
1190:.\Generated_Source\PSoC5/UART_1.c ****     *  No.
1191:.\Generated_Source\PSoC5/UART_1.c ****     *
1192:.\Generated_Source\PSoC5/UART_1.c ****     * Theory:
1193:.\Generated_Source\PSoC5/UART_1.c ****     *  This function will block if there is not enough memory to place the whole
1194:.\Generated_Source\PSoC5/UART_1.c ****     *  string, it will block until the entire string has been written to the
1195:.\Generated_Source\PSoC5/UART_1.c ****     *  transmit buffer.
1196:.\Generated_Source\PSoC5/UART_1.c ****     *
1197:.\Generated_Source\PSoC5/UART_1.c ****     *******************************************************************************/
1198:.\Generated_Source\PSoC5/UART_1.c ****     void UART_1_PutString(const char8 string[]) 
1199:.\Generated_Source\PSoC5/UART_1.c ****     {
 1154              		.loc 1 1199 0
 1155              		.cfi_startproc
 1156              		@ args = 0, pretend = 0, frame = 0
 1157              		@ frame_needed = 0, uses_anonymous_args = 0
 1158              	.LVL60:
 1159 0000 38B5     		push	{r3, r4, r5, lr}
 1160              		.cfi_def_cfa_offset 16
 1161              		.cfi_offset 3, -16
 1162              		.cfi_offset 4, -12
 1163              		.cfi_offset 5, -8
 1164              		.cfi_offset 14, -4
1200:.\Generated_Source\PSoC5/UART_1.c ****         uint16 buf_index = 0u;
1201:.\Generated_Source\PSoC5/UART_1.c ****         /* If not Initialized then skip this function*/
1202:.\Generated_Source\PSoC5/UART_1.c ****         if(UART_1_initVar != 0u)
 1165              		.loc 1 1202 0
 1166 0002 074B     		ldr	r3, .L114
1199:.\Generated_Source\PSoC5/UART_1.c ****         uint16 buf_index = 0u;
 1167              		.loc 1 1199 0
 1168 0004 0546     		mov	r5, r0
 1169              		.loc 1 1202 0
 1170 0006 1B78     		ldrb	r3, [r3]	@ zero_extendqisi2
 1171 0008 03B9     		cbnz	r3, .L112
 1172 000a 38BD     		pop	{r3, r4, r5, pc}
 1173              	.L112:
 1174 000c 0024     		movs	r4, #0
 1175              	.LVL61:
 1176              	.L109:
1203:.\Generated_Source\PSoC5/UART_1.c ****         {
1204:.\Generated_Source\PSoC5/UART_1.c ****             /* This is a blocking function, it will not exit until all data is sent*/
1205:.\Generated_Source\PSoC5/UART_1.c ****             while(string[buf_index] != (char8)0)
 1177              		.loc 1 1205 0
 1178 000e A3B2     		uxth	r3, r4
 1179              	.LVL62:
 1180 0010 E85C     		ldrb	r0, [r5, r3]	@ zero_extendqisi2
 1181 0012 0134     		adds	r4, r4, #1
 1182 0014 10B1     		cbz	r0, .L113
1206:.\Generated_Source\PSoC5/UART_1.c ****             {
ARM GAS  C:\Users\acer\AppData\Local\Temp\ccQxlELY.s 			page 45


1207:.\Generated_Source\PSoC5/UART_1.c ****                 UART_1_PutChar((uint8)string[buf_index]);
 1183              		.loc 1 1207 0
 1184 0016 FFF7FEFF 		bl	UART_1_PutChar
 1185              	.LVL63:
 1186 001a F8E7     		b	.L109
 1187              	.LVL64:
 1188              	.L113:
 1189 001c 38BD     		pop	{r3, r4, r5, pc}
 1190              	.LVL65:
 1191              	.L115:
 1192 001e 00BF     		.align	2
 1193              	.L114:
 1194 0020 00000000 		.word	.LANCHOR0
 1195              		.cfi_endproc
 1196              	.LFE24:
 1197              		.size	UART_1_PutString, .-UART_1_PutString
 1198              		.section	.text.UART_1_PutArray,"ax",%progbits
 1199              		.align	1
 1200              		.global	UART_1_PutArray
 1201              		.thumb
 1202              		.thumb_func
 1203              		.type	UART_1_PutArray, %function
 1204              	UART_1_PutArray:
 1205              	.LFB25:
1208:.\Generated_Source\PSoC5/UART_1.c ****                 buf_index++;
1209:.\Generated_Source\PSoC5/UART_1.c ****             }
1210:.\Generated_Source\PSoC5/UART_1.c ****         }
1211:.\Generated_Source\PSoC5/UART_1.c ****     }
1212:.\Generated_Source\PSoC5/UART_1.c **** 
1213:.\Generated_Source\PSoC5/UART_1.c **** 
1214:.\Generated_Source\PSoC5/UART_1.c ****     /*******************************************************************************
1215:.\Generated_Source\PSoC5/UART_1.c ****     * Function Name: UART_1_PutArray
1216:.\Generated_Source\PSoC5/UART_1.c ****     ********************************************************************************
1217:.\Generated_Source\PSoC5/UART_1.c ****     *
1218:.\Generated_Source\PSoC5/UART_1.c ****     * Summary:
1219:.\Generated_Source\PSoC5/UART_1.c ****     *  Write a Sequence of bytes on the Transmit line. Data comes from RAM or ROM.
1220:.\Generated_Source\PSoC5/UART_1.c ****     *
1221:.\Generated_Source\PSoC5/UART_1.c ****     * Parameters:
1222:.\Generated_Source\PSoC5/UART_1.c ****     *  string: Address of the memory array residing in RAM or ROM.
1223:.\Generated_Source\PSoC5/UART_1.c ****     *  byteCount: Number of Bytes to be transmitted.
1224:.\Generated_Source\PSoC5/UART_1.c ****     *
1225:.\Generated_Source\PSoC5/UART_1.c ****     * Return:
1226:.\Generated_Source\PSoC5/UART_1.c ****     *  None.
1227:.\Generated_Source\PSoC5/UART_1.c ****     *
1228:.\Generated_Source\PSoC5/UART_1.c ****     * Global Variables:
1229:.\Generated_Source\PSoC5/UART_1.c ****     *  UART_1_initVar - checked to identify that the component has been
1230:.\Generated_Source\PSoC5/UART_1.c ****     *     initialized.
1231:.\Generated_Source\PSoC5/UART_1.c ****     *
1232:.\Generated_Source\PSoC5/UART_1.c ****     * Reentrant:
1233:.\Generated_Source\PSoC5/UART_1.c ****     *  No.
1234:.\Generated_Source\PSoC5/UART_1.c ****     *
1235:.\Generated_Source\PSoC5/UART_1.c ****     *******************************************************************************/
1236:.\Generated_Source\PSoC5/UART_1.c ****     void UART_1_PutArray(const uint8 string[], uint8 byteCount)
1237:.\Generated_Source\PSoC5/UART_1.c ****                                                                     
1238:.\Generated_Source\PSoC5/UART_1.c ****     {
 1206              		.loc 1 1238 0
 1207              		.cfi_startproc
ARM GAS  C:\Users\acer\AppData\Local\Temp\ccQxlELY.s 			page 46


 1208              		@ args = 0, pretend = 0, frame = 0
 1209              		@ frame_needed = 0, uses_anonymous_args = 0
 1210              	.LVL66:
 1211 0000 70B5     		push	{r4, r5, r6, lr}
 1212              		.cfi_def_cfa_offset 16
 1213              		.cfi_offset 4, -16
 1214              		.cfi_offset 5, -12
 1215              		.cfi_offset 6, -8
 1216              		.cfi_offset 14, -4
1239:.\Generated_Source\PSoC5/UART_1.c ****         uint8 buf_index = 0u;
1240:.\Generated_Source\PSoC5/UART_1.c ****         /* If not Initialized then skip this function*/
1241:.\Generated_Source\PSoC5/UART_1.c ****         if(UART_1_initVar != 0u)
 1217              		.loc 1 1241 0
 1218 0002 074B     		ldr	r3, .L121
1238:.\Generated_Source\PSoC5/UART_1.c ****         uint8 buf_index = 0u;
 1219              		.loc 1 1238 0
 1220 0004 0546     		mov	r5, r0
 1221              		.loc 1 1241 0
 1222 0006 1B78     		ldrb	r3, [r3]	@ zero_extendqisi2
1238:.\Generated_Source\PSoC5/UART_1.c ****         uint8 buf_index = 0u;
 1223              		.loc 1 1238 0
 1224 0008 0E46     		mov	r6, r1
 1225              		.loc 1 1241 0
 1226 000a 43B1     		cbz	r3, .L116
 1227 000c 0446     		mov	r4, r0
 1228              	.LVL67:
 1229              	.L118:
1242:.\Generated_Source\PSoC5/UART_1.c ****         {
1243:.\Generated_Source\PSoC5/UART_1.c ****             do
1244:.\Generated_Source\PSoC5/UART_1.c ****             {
1245:.\Generated_Source\PSoC5/UART_1.c ****                 UART_1_PutChar(string[buf_index]);
 1230              		.loc 1 1245 0 discriminator 1
 1231 000e 14F8010B 		ldrb	r0, [r4], #1	@ zero_extendqisi2
 1232              	.LVL68:
 1233 0012 FFF7FEFF 		bl	UART_1_PutChar
 1234              	.LVL69:
 1235 0016 631B     		subs	r3, r4, r5
1246:.\Generated_Source\PSoC5/UART_1.c ****                 buf_index++;
1247:.\Generated_Source\PSoC5/UART_1.c ****             }while(buf_index < byteCount);
 1236              		.loc 1 1247 0 discriminator 1
 1237 0018 DBB2     		uxtb	r3, r3
 1238 001a B342     		cmp	r3, r6
 1239 001c F7D3     		bcc	.L118
 1240              	.LVL70:
 1241              	.L116:
 1242 001e 70BD     		pop	{r4, r5, r6, pc}
 1243              	.LVL71:
 1244              	.L122:
 1245              		.align	2
 1246              	.L121:
 1247 0020 00000000 		.word	.LANCHOR0
 1248              		.cfi_endproc
 1249              	.LFE25:
 1250              		.size	UART_1_PutArray, .-UART_1_PutArray
 1251              		.section	.text.UART_1_PutCRLF,"ax",%progbits
 1252              		.align	1
 1253              		.global	UART_1_PutCRLF
ARM GAS  C:\Users\acer\AppData\Local\Temp\ccQxlELY.s 			page 47


 1254              		.thumb
 1255              		.thumb_func
 1256              		.type	UART_1_PutCRLF, %function
 1257              	UART_1_PutCRLF:
 1258              	.LFB26:
1248:.\Generated_Source\PSoC5/UART_1.c ****         }
1249:.\Generated_Source\PSoC5/UART_1.c ****     }
1250:.\Generated_Source\PSoC5/UART_1.c **** 
1251:.\Generated_Source\PSoC5/UART_1.c **** 
1252:.\Generated_Source\PSoC5/UART_1.c ****     /*******************************************************************************
1253:.\Generated_Source\PSoC5/UART_1.c ****     * Function Name: UART_1_PutCRLF
1254:.\Generated_Source\PSoC5/UART_1.c ****     ********************************************************************************
1255:.\Generated_Source\PSoC5/UART_1.c ****     *
1256:.\Generated_Source\PSoC5/UART_1.c ****     * Summary:
1257:.\Generated_Source\PSoC5/UART_1.c ****     *  Write a character and then carriage return and line feed.
1258:.\Generated_Source\PSoC5/UART_1.c ****     *
1259:.\Generated_Source\PSoC5/UART_1.c ****     * Parameters:
1260:.\Generated_Source\PSoC5/UART_1.c ****     *  txDataByte: uint8 Character to send.
1261:.\Generated_Source\PSoC5/UART_1.c ****     *
1262:.\Generated_Source\PSoC5/UART_1.c ****     * Return:
1263:.\Generated_Source\PSoC5/UART_1.c ****     *  None.
1264:.\Generated_Source\PSoC5/UART_1.c ****     *
1265:.\Generated_Source\PSoC5/UART_1.c ****     * Global Variables:
1266:.\Generated_Source\PSoC5/UART_1.c ****     *  UART_1_initVar - checked to identify that the component has been
1267:.\Generated_Source\PSoC5/UART_1.c ****     *     initialized.
1268:.\Generated_Source\PSoC5/UART_1.c ****     *
1269:.\Generated_Source\PSoC5/UART_1.c ****     * Reentrant:
1270:.\Generated_Source\PSoC5/UART_1.c ****     *  No.
1271:.\Generated_Source\PSoC5/UART_1.c ****     *
1272:.\Generated_Source\PSoC5/UART_1.c ****     *******************************************************************************/
1273:.\Generated_Source\PSoC5/UART_1.c ****     void UART_1_PutCRLF(uint8 txDataByte) 
1274:.\Generated_Source\PSoC5/UART_1.c ****     {
 1259              		.loc 1 1274 0
 1260              		.cfi_startproc
 1261              		@ args = 0, pretend = 0, frame = 0
 1262              		@ frame_needed = 0, uses_anonymous_args = 0
 1263              	.LVL72:
 1264 0000 08B5     		push	{r3, lr}
 1265              		.cfi_def_cfa_offset 8
 1266              		.cfi_offset 3, -8
 1267              		.cfi_offset 14, -4
1275:.\Generated_Source\PSoC5/UART_1.c ****         /* If not Initialized then skip this function*/
1276:.\Generated_Source\PSoC5/UART_1.c ****         if(UART_1_initVar != 0u)
 1268              		.loc 1 1276 0
 1269 0002 074B     		ldr	r3, .L125
 1270 0004 1B78     		ldrb	r3, [r3]	@ zero_extendqisi2
 1271 0006 4BB1     		cbz	r3, .L123
1277:.\Generated_Source\PSoC5/UART_1.c ****         {
1278:.\Generated_Source\PSoC5/UART_1.c ****             UART_1_PutChar(txDataByte);
 1272              		.loc 1 1278 0
 1273 0008 FFF7FEFF 		bl	UART_1_PutChar
 1274              	.LVL73:
1279:.\Generated_Source\PSoC5/UART_1.c ****             UART_1_PutChar(0x0Du);
 1275              		.loc 1 1279 0
 1276 000c 0D20     		movs	r0, #13
 1277 000e FFF7FEFF 		bl	UART_1_PutChar
 1278              	.LVL74:
ARM GAS  C:\Users\acer\AppData\Local\Temp\ccQxlELY.s 			page 48


1280:.\Generated_Source\PSoC5/UART_1.c ****             UART_1_PutChar(0x0Au);
1281:.\Generated_Source\PSoC5/UART_1.c ****         }
1282:.\Generated_Source\PSoC5/UART_1.c ****     }
 1279              		.loc 1 1282 0
 1280 0012 BDE80840 		pop	{r3, lr}
 1281              		.cfi_remember_state
 1282              		.cfi_restore 14
 1283              		.cfi_restore 3
 1284              		.cfi_def_cfa_offset 0
1280:.\Generated_Source\PSoC5/UART_1.c ****             UART_1_PutChar(0x0Au);
 1285              		.loc 1 1280 0
 1286 0016 0A20     		movs	r0, #10
 1287 0018 FFF7FEBF 		b	UART_1_PutChar
 1288              	.LVL75:
 1289              	.L123:
 1290              		.cfi_restore_state
 1291 001c 08BD     		pop	{r3, pc}
 1292              	.L126:
 1293 001e 00BF     		.align	2
 1294              	.L125:
 1295 0020 00000000 		.word	.LANCHOR0
 1296              		.cfi_endproc
 1297              	.LFE26:
 1298              		.size	UART_1_PutCRLF, .-UART_1_PutCRLF
 1299              		.section	.text.UART_1_GetTxBufferSize,"ax",%progbits
 1300              		.align	1
 1301              		.global	UART_1_GetTxBufferSize
 1302              		.thumb
 1303              		.thumb_func
 1304              		.type	UART_1_GetTxBufferSize, %function
 1305              	UART_1_GetTxBufferSize:
 1306              	.LFB27:
1283:.\Generated_Source\PSoC5/UART_1.c **** 
1284:.\Generated_Source\PSoC5/UART_1.c **** 
1285:.\Generated_Source\PSoC5/UART_1.c ****     /*******************************************************************************
1286:.\Generated_Source\PSoC5/UART_1.c ****     * Function Name: UART_1_GetTxBufferSize
1287:.\Generated_Source\PSoC5/UART_1.c ****     ********************************************************************************
1288:.\Generated_Source\PSoC5/UART_1.c ****     *
1289:.\Generated_Source\PSoC5/UART_1.c ****     * Summary:
1290:.\Generated_Source\PSoC5/UART_1.c ****     *  Determine the amount of space left in the TX buffer and return the count in
1291:.\Generated_Source\PSoC5/UART_1.c ****     *  bytes
1292:.\Generated_Source\PSoC5/UART_1.c ****     *
1293:.\Generated_Source\PSoC5/UART_1.c ****     * Parameters:
1294:.\Generated_Source\PSoC5/UART_1.c ****     *  None.
1295:.\Generated_Source\PSoC5/UART_1.c ****     *
1296:.\Generated_Source\PSoC5/UART_1.c ****     * Return:
1297:.\Generated_Source\PSoC5/UART_1.c ****     *  Integer count of the number of bytes left in the TX buffer
1298:.\Generated_Source\PSoC5/UART_1.c ****     *
1299:.\Generated_Source\PSoC5/UART_1.c ****     * Global Variables:
1300:.\Generated_Source\PSoC5/UART_1.c ****     *  UART_1_txBufferWrite - used to calculate left space.
1301:.\Generated_Source\PSoC5/UART_1.c ****     *  UART_1_txBufferRead - used to calculate left space.
1302:.\Generated_Source\PSoC5/UART_1.c ****     *
1303:.\Generated_Source\PSoC5/UART_1.c ****     * Reentrant:
1304:.\Generated_Source\PSoC5/UART_1.c ****     *  No.
1305:.\Generated_Source\PSoC5/UART_1.c ****     *
1306:.\Generated_Source\PSoC5/UART_1.c ****     * Theory:
1307:.\Generated_Source\PSoC5/UART_1.c ****     *  Allows the user to find out how full the TX Buffer is.
ARM GAS  C:\Users\acer\AppData\Local\Temp\ccQxlELY.s 			page 49


1308:.\Generated_Source\PSoC5/UART_1.c ****     *
1309:.\Generated_Source\PSoC5/UART_1.c ****     *******************************************************************************/
1310:.\Generated_Source\PSoC5/UART_1.c ****     uint8 UART_1_GetTxBufferSize(void)
1311:.\Generated_Source\PSoC5/UART_1.c ****                                                             
1312:.\Generated_Source\PSoC5/UART_1.c ****     {
 1307              		.loc 1 1312 0
 1308              		.cfi_startproc
 1309              		@ args = 0, pretend = 0, frame = 0
 1310              		@ frame_needed = 0, uses_anonymous_args = 0
 1311              		@ link register save eliminated.
 1312              	.LBB58:
 1313              	.LBB59:
 944:.\Generated_Source\PSoC5/UART_1.c ****         }
 1314              		.loc 1 944 0
 1315 0000 0A4B     		ldr	r3, .L132
 1316 0002 0422     		movs	r2, #4
 1317 0004 1A60     		str	r2, [r3]
 1318              	.LBE59:
 1319              	.LBE58:
1313:.\Generated_Source\PSoC5/UART_1.c ****         uint8 size;
1314:.\Generated_Source\PSoC5/UART_1.c **** 
1315:.\Generated_Source\PSoC5/UART_1.c ****         #if(UART_1_TXBUFFERSIZE > UART_1_FIFO_LENGTH)
1316:.\Generated_Source\PSoC5/UART_1.c **** 
1317:.\Generated_Source\PSoC5/UART_1.c ****             /* Disable Tx interrupt. */
1318:.\Generated_Source\PSoC5/UART_1.c ****             /* Protect variables that could change on interrupt. */
1319:.\Generated_Source\PSoC5/UART_1.c ****             #if(UART_1_TX_INTERRUPT_ENABLED)
1320:.\Generated_Source\PSoC5/UART_1.c ****                 UART_1_DisableTxInt();
1321:.\Generated_Source\PSoC5/UART_1.c ****             #endif /* End UART_1_TX_INTERRUPT_ENABLED */
1322:.\Generated_Source\PSoC5/UART_1.c **** 
1323:.\Generated_Source\PSoC5/UART_1.c ****             if(UART_1_txBufferRead == UART_1_txBufferWrite)
 1320              		.loc 1 1323 0
 1321 0006 0A4A     		ldr	r2, .L132+4
 1322 0008 5179     		ldrb	r1, [r2, #5]	@ zero_extendqisi2
 1323 000a 9379     		ldrb	r3, [r2, #6]	@ zero_extendqisi2
 1324 000c 9942     		cmp	r1, r3
 1325 000e 07D0     		beq	.L130
1324:.\Generated_Source\PSoC5/UART_1.c ****             {
1325:.\Generated_Source\PSoC5/UART_1.c ****                 size = 0u;
1326:.\Generated_Source\PSoC5/UART_1.c ****             }
1327:.\Generated_Source\PSoC5/UART_1.c ****             else if(UART_1_txBufferRead < UART_1_txBufferWrite)
 1326              		.loc 1 1327 0
 1327 0010 5179     		ldrb	r1, [r2, #5]	@ zero_extendqisi2
1328:.\Generated_Source\PSoC5/UART_1.c ****             {
1329:.\Generated_Source\PSoC5/UART_1.c ****                 size = (UART_1_txBufferWrite - UART_1_txBufferRead);
 1328              		.loc 1 1329 0
 1329 0012 5079     		ldrb	r0, [r2, #5]	@ zero_extendqisi2
1327:.\Generated_Source\PSoC5/UART_1.c ****             {
 1330              		.loc 1 1327 0
 1331 0014 9942     		cmp	r1, r3
 1332 0016 28BF     		it	cs
 1333 0018 1033     		addcs	r3, r3, #16
1330:.\Generated_Source\PSoC5/UART_1.c ****             }
1331:.\Generated_Source\PSoC5/UART_1.c ****             else
1332:.\Generated_Source\PSoC5/UART_1.c ****             {
1333:.\Generated_Source\PSoC5/UART_1.c ****                 size = (UART_1_TXBUFFERSIZE - UART_1_txBufferRead) + UART_1_txBufferWrite;
 1334              		.loc 1 1333 0
 1335 001a 181A     		subs	r0, r3, r0
ARM GAS  C:\Users\acer\AppData\Local\Temp\ccQxlELY.s 			page 50


 1336 001c C0B2     		uxtb	r0, r0
 1337              	.LVL76:
 1338 001e 00E0     		b	.L128
 1339              	.LVL77:
 1340              	.L130:
1325:.\Generated_Source\PSoC5/UART_1.c ****             }
 1341              		.loc 1 1325 0
 1342 0020 0020     		movs	r0, #0
 1343              	.L128:
 1344              	.LVL78:
 1345              	.LBB60:
 1346              	.LBB61:
 921:.\Generated_Source\PSoC5/UART_1.c ****         }
 1347              		.loc 1 921 0
 1348 0022 044B     		ldr	r3, .L132+8
 1349 0024 0422     		movs	r2, #4
 1350 0026 1A60     		str	r2, [r3]
 1351              	.LBE61:
 1352              	.LBE60:
1334:.\Generated_Source\PSoC5/UART_1.c ****             }
1335:.\Generated_Source\PSoC5/UART_1.c **** 
1336:.\Generated_Source\PSoC5/UART_1.c ****             /* Enable Tx interrupt. */
1337:.\Generated_Source\PSoC5/UART_1.c ****             #if(UART_1_TX_INTERRUPT_ENABLED)
1338:.\Generated_Source\PSoC5/UART_1.c ****                 UART_1_EnableTxInt();
1339:.\Generated_Source\PSoC5/UART_1.c ****             #endif /* End UART_1_TX_INTERRUPT_ENABLED */
1340:.\Generated_Source\PSoC5/UART_1.c **** 
1341:.\Generated_Source\PSoC5/UART_1.c ****         #else /* UART_1_TXBUFFERSIZE > UART_1_FIFO_LENGTH */
1342:.\Generated_Source\PSoC5/UART_1.c **** 
1343:.\Generated_Source\PSoC5/UART_1.c ****             size = UART_1_TXSTATUS_REG;
1344:.\Generated_Source\PSoC5/UART_1.c **** 
1345:.\Generated_Source\PSoC5/UART_1.c ****             /* Is the fifo is full. */
1346:.\Generated_Source\PSoC5/UART_1.c ****             if((size & UART_1_TX_STS_FIFO_FULL) != 0u)
1347:.\Generated_Source\PSoC5/UART_1.c ****             {
1348:.\Generated_Source\PSoC5/UART_1.c ****                 size = UART_1_FIFO_LENGTH;
1349:.\Generated_Source\PSoC5/UART_1.c ****             }
1350:.\Generated_Source\PSoC5/UART_1.c ****             else if((size & UART_1_TX_STS_FIFO_EMPTY) != 0u)
1351:.\Generated_Source\PSoC5/UART_1.c ****             {
1352:.\Generated_Source\PSoC5/UART_1.c ****                 size = 0u;
1353:.\Generated_Source\PSoC5/UART_1.c ****             }
1354:.\Generated_Source\PSoC5/UART_1.c ****             else
1355:.\Generated_Source\PSoC5/UART_1.c ****             {
1356:.\Generated_Source\PSoC5/UART_1.c ****                 /* We only know there is data in the fifo. */
1357:.\Generated_Source\PSoC5/UART_1.c ****                 size = 1u;
1358:.\Generated_Source\PSoC5/UART_1.c ****             }
1359:.\Generated_Source\PSoC5/UART_1.c **** 
1360:.\Generated_Source\PSoC5/UART_1.c ****         #endif /* End UART_1_TXBUFFERSIZE > UART_1_FIFO_LENGTH */
1361:.\Generated_Source\PSoC5/UART_1.c **** 
1362:.\Generated_Source\PSoC5/UART_1.c ****         return(size);
1363:.\Generated_Source\PSoC5/UART_1.c ****     }
 1353              		.loc 1 1363 0
 1354 0028 7047     		bx	lr
 1355              	.L133:
 1356 002a 00BF     		.align	2
 1357              	.L132:
 1358 002c 80E100E0 		.word	-536813184
 1359 0030 00000000 		.word	.LANCHOR0
 1360 0034 00E100E0 		.word	-536813312
ARM GAS  C:\Users\acer\AppData\Local\Temp\ccQxlELY.s 			page 51


 1361              		.cfi_endproc
 1362              	.LFE27:
 1363              		.size	UART_1_GetTxBufferSize, .-UART_1_GetTxBufferSize
 1364              		.section	.text.UART_1_ClearTxBuffer,"ax",%progbits
 1365              		.align	1
 1366              		.global	UART_1_ClearTxBuffer
 1367              		.thumb
 1368              		.thumb_func
 1369              		.type	UART_1_ClearTxBuffer, %function
 1370              	UART_1_ClearTxBuffer:
 1371              	.LFB28:
1364:.\Generated_Source\PSoC5/UART_1.c **** 
1365:.\Generated_Source\PSoC5/UART_1.c **** 
1366:.\Generated_Source\PSoC5/UART_1.c ****     /*******************************************************************************
1367:.\Generated_Source\PSoC5/UART_1.c ****     * Function Name: UART_1_ClearTxBuffer
1368:.\Generated_Source\PSoC5/UART_1.c ****     ********************************************************************************
1369:.\Generated_Source\PSoC5/UART_1.c ****     *
1370:.\Generated_Source\PSoC5/UART_1.c ****     * Summary:
1371:.\Generated_Source\PSoC5/UART_1.c ****     *  Clears the TX RAM buffer by setting the read and write pointers both to zero.
1372:.\Generated_Source\PSoC5/UART_1.c ****     *  Clears the hardware TX FIFO.  Any data present in the FIFO will not be sent.
1373:.\Generated_Source\PSoC5/UART_1.c ****     *
1374:.\Generated_Source\PSoC5/UART_1.c ****     * Parameters:
1375:.\Generated_Source\PSoC5/UART_1.c ****     *  None.
1376:.\Generated_Source\PSoC5/UART_1.c ****     *
1377:.\Generated_Source\PSoC5/UART_1.c ****     * Return:
1378:.\Generated_Source\PSoC5/UART_1.c ****     *  None.
1379:.\Generated_Source\PSoC5/UART_1.c ****     *
1380:.\Generated_Source\PSoC5/UART_1.c ****     * Global Variables:
1381:.\Generated_Source\PSoC5/UART_1.c ****     *  UART_1_txBufferWrite - cleared to zero.
1382:.\Generated_Source\PSoC5/UART_1.c ****     *  UART_1_txBufferRead - cleared to zero.
1383:.\Generated_Source\PSoC5/UART_1.c ****     *
1384:.\Generated_Source\PSoC5/UART_1.c ****     * Reentrant:
1385:.\Generated_Source\PSoC5/UART_1.c ****     *  No.
1386:.\Generated_Source\PSoC5/UART_1.c ****     *
1387:.\Generated_Source\PSoC5/UART_1.c ****     * Theory:
1388:.\Generated_Source\PSoC5/UART_1.c ****     *  Setting the pointers to zero makes the system believe there is no data to
1389:.\Generated_Source\PSoC5/UART_1.c ****     *  read and writing will resume at address 0 overwriting any data that may have
1390:.\Generated_Source\PSoC5/UART_1.c ****     *  remained in the RAM.
1391:.\Generated_Source\PSoC5/UART_1.c ****     *
1392:.\Generated_Source\PSoC5/UART_1.c ****     * Side Effects:
1393:.\Generated_Source\PSoC5/UART_1.c ****     *  Any received data not read from the RAM buffer will be lost when overwritten.
1394:.\Generated_Source\PSoC5/UART_1.c ****     *
1395:.\Generated_Source\PSoC5/UART_1.c ****     *******************************************************************************/
1396:.\Generated_Source\PSoC5/UART_1.c ****     void UART_1_ClearTxBuffer(void) 
1397:.\Generated_Source\PSoC5/UART_1.c ****     {
 1372              		.loc 1 1397 0
 1373              		.cfi_startproc
 1374              		@ args = 0, pretend = 0, frame = 0
 1375              		@ frame_needed = 0, uses_anonymous_args = 0
 1376 0000 08B5     		push	{r3, lr}
 1377              		.cfi_def_cfa_offset 8
 1378              		.cfi_offset 3, -8
 1379              		.cfi_offset 14, -4
1398:.\Generated_Source\PSoC5/UART_1.c ****         uint8 enableInterrupts;
1399:.\Generated_Source\PSoC5/UART_1.c **** 
1400:.\Generated_Source\PSoC5/UART_1.c ****         /* Enter critical section */
1401:.\Generated_Source\PSoC5/UART_1.c ****         enableInterrupts = CyEnterCriticalSection();
ARM GAS  C:\Users\acer\AppData\Local\Temp\ccQxlELY.s 			page 52


 1380              		.loc 1 1401 0
 1381 0002 FFF7FEFF 		bl	CyEnterCriticalSection
 1382              	.LVL79:
1402:.\Generated_Source\PSoC5/UART_1.c ****         /* clear the HW FIFO */
1403:.\Generated_Source\PSoC5/UART_1.c ****         UART_1_TXDATA_AUX_CTL_REG |=  UART_1_TX_FIFO_CLR;
 1383              		.loc 1 1403 0
 1384 0006 0A4B     		ldr	r3, .L135
 1385 0008 1A78     		ldrb	r2, [r3]	@ zero_extendqisi2
 1386 000a 42F00102 		orr	r2, r2, #1
 1387 000e 1A70     		strb	r2, [r3]
1404:.\Generated_Source\PSoC5/UART_1.c ****         UART_1_TXDATA_AUX_CTL_REG &= (uint8)~UART_1_TX_FIFO_CLR;
 1388              		.loc 1 1404 0
 1389 0010 1A78     		ldrb	r2, [r3]	@ zero_extendqisi2
 1390 0012 02F0FE02 		and	r2, r2, #254
 1391 0016 1A70     		strb	r2, [r3]
1405:.\Generated_Source\PSoC5/UART_1.c ****         /* Exit critical section */
1406:.\Generated_Source\PSoC5/UART_1.c ****         CyExitCriticalSection(enableInterrupts);
 1392              		.loc 1 1406 0
 1393 0018 FFF7FEFF 		bl	CyExitCriticalSection
 1394              	.LVL80:
 1395              	.LBB62:
 1396              	.LBB63:
 944:.\Generated_Source\PSoC5/UART_1.c ****         }
 1397              		.loc 1 944 0
 1398 001c 054A     		ldr	r2, .L135+4
 1399 001e 0423     		movs	r3, #4
 1400 0020 1360     		str	r3, [r2]
 1401              	.LBE63:
 1402              	.LBE62:
1407:.\Generated_Source\PSoC5/UART_1.c **** 
1408:.\Generated_Source\PSoC5/UART_1.c ****         #if(UART_1_TXBUFFERSIZE > UART_1_FIFO_LENGTH)
1409:.\Generated_Source\PSoC5/UART_1.c **** 
1410:.\Generated_Source\PSoC5/UART_1.c ****             /* Disable Tx interrupt. */
1411:.\Generated_Source\PSoC5/UART_1.c ****             /* Protect variables that could change on interrupt. */
1412:.\Generated_Source\PSoC5/UART_1.c ****             #if(UART_1_TX_INTERRUPT_ENABLED)
1413:.\Generated_Source\PSoC5/UART_1.c ****                 UART_1_DisableTxInt();
1414:.\Generated_Source\PSoC5/UART_1.c ****             #endif /* End UART_1_TX_INTERRUPT_ENABLED */
1415:.\Generated_Source\PSoC5/UART_1.c **** 
1416:.\Generated_Source\PSoC5/UART_1.c ****             UART_1_txBufferRead = 0u;
 1403              		.loc 1 1416 0
 1404 0022 054A     		ldr	r2, .L135+8
 1405 0024 0021     		movs	r1, #0
 1406 0026 5171     		strb	r1, [r2, #5]
1417:.\Generated_Source\PSoC5/UART_1.c ****             UART_1_txBufferWrite = 0u;
 1407              		.loc 1 1417 0
 1408 0028 9171     		strb	r1, [r2, #6]
 1409              	.LBB64:
 1410              	.LBB65:
 921:.\Generated_Source\PSoC5/UART_1.c ****         }
 1411              		.loc 1 921 0
 1412 002a 044A     		ldr	r2, .L135+12
 1413 002c 1360     		str	r3, [r2]
 1414 002e 08BD     		pop	{r3, pc}
 1415              	.L136:
 1416              		.align	2
 1417              	.L135:
 1418 0030 92640040 		.word	1073767570
ARM GAS  C:\Users\acer\AppData\Local\Temp\ccQxlELY.s 			page 53


 1419 0034 80E100E0 		.word	-536813184
 1420 0038 00000000 		.word	.LANCHOR0
 1421 003c 00E100E0 		.word	-536813312
 1422              	.LBE65:
 1423              	.LBE64:
 1424              		.cfi_endproc
 1425              	.LFE28:
 1426              		.size	UART_1_ClearTxBuffer, .-UART_1_ClearTxBuffer
 1427              		.section	.text.UART_1_SendBreak,"ax",%progbits
 1428              		.align	1
 1429              		.global	UART_1_SendBreak
 1430              		.thumb
 1431              		.thumb_func
 1432              		.type	UART_1_SendBreak, %function
 1433              	UART_1_SendBreak:
 1434              	.LFB29:
1418:.\Generated_Source\PSoC5/UART_1.c **** 
1419:.\Generated_Source\PSoC5/UART_1.c ****             /* Enable Tx interrupt. */
1420:.\Generated_Source\PSoC5/UART_1.c ****             #if(UART_1_TX_INTERRUPT_ENABLED)
1421:.\Generated_Source\PSoC5/UART_1.c ****                 UART_1_EnableTxInt();
1422:.\Generated_Source\PSoC5/UART_1.c ****             #endif /* End UART_1_TX_INTERRUPT_ENABLED */
1423:.\Generated_Source\PSoC5/UART_1.c **** 
1424:.\Generated_Source\PSoC5/UART_1.c ****         #endif /* End UART_1_TXBUFFERSIZE > UART_1_FIFO_LENGTH */
1425:.\Generated_Source\PSoC5/UART_1.c ****     }
1426:.\Generated_Source\PSoC5/UART_1.c **** 
1427:.\Generated_Source\PSoC5/UART_1.c **** 
1428:.\Generated_Source\PSoC5/UART_1.c ****     /*******************************************************************************
1429:.\Generated_Source\PSoC5/UART_1.c ****     * Function Name: UART_1_SendBreak
1430:.\Generated_Source\PSoC5/UART_1.c ****     ********************************************************************************
1431:.\Generated_Source\PSoC5/UART_1.c ****     *
1432:.\Generated_Source\PSoC5/UART_1.c ****     * Summary:
1433:.\Generated_Source\PSoC5/UART_1.c ****     *  Write a Break command to the UART
1434:.\Generated_Source\PSoC5/UART_1.c ****     *
1435:.\Generated_Source\PSoC5/UART_1.c ****     * Parameters:
1436:.\Generated_Source\PSoC5/UART_1.c ****     *  uint8 retMode:  Wait mode,
1437:.\Generated_Source\PSoC5/UART_1.c ****     *   0 - Initialize registers for Break, sends the Break signal and return
1438:.\Generated_Source\PSoC5/UART_1.c ****     *       imediately.
1439:.\Generated_Source\PSoC5/UART_1.c ****     *   1 - Wait until Break sending is complete, reinitialize registers to normal
1440:.\Generated_Source\PSoC5/UART_1.c ****     *       transmission mode then return.
1441:.\Generated_Source\PSoC5/UART_1.c ****     *   2 - Reinitialize registers to normal transmission mode then return.
1442:.\Generated_Source\PSoC5/UART_1.c ****     *   3 - both steps: 0 and 1
1443:.\Generated_Source\PSoC5/UART_1.c ****     *       init registers for Break, send Break signal
1444:.\Generated_Source\PSoC5/UART_1.c ****     *       wait until Break sending is complete, reinit registers to normal
1445:.\Generated_Source\PSoC5/UART_1.c ****     *       transmission mode then return.
1446:.\Generated_Source\PSoC5/UART_1.c ****     *
1447:.\Generated_Source\PSoC5/UART_1.c ****     * Return:
1448:.\Generated_Source\PSoC5/UART_1.c ****     *  None.
1449:.\Generated_Source\PSoC5/UART_1.c ****     *
1450:.\Generated_Source\PSoC5/UART_1.c ****     * Global Variables:
1451:.\Generated_Source\PSoC5/UART_1.c ****     *  UART_1_initVar - checked to identify that the component has been
1452:.\Generated_Source\PSoC5/UART_1.c ****     *     initialized.
1453:.\Generated_Source\PSoC5/UART_1.c ****     *  tx_period - static variable, used for keeping TX period configuration.
1454:.\Generated_Source\PSoC5/UART_1.c ****     *
1455:.\Generated_Source\PSoC5/UART_1.c ****     * Reentrant:
1456:.\Generated_Source\PSoC5/UART_1.c ****     *  No.
1457:.\Generated_Source\PSoC5/UART_1.c ****     *
1458:.\Generated_Source\PSoC5/UART_1.c ****     * Theory:
ARM GAS  C:\Users\acer\AppData\Local\Temp\ccQxlELY.s 			page 54


1459:.\Generated_Source\PSoC5/UART_1.c ****     *  SendBreak function initializes registers to send 13-bit break signal. It is
1460:.\Generated_Source\PSoC5/UART_1.c ****     *  important to return the registers configuration to normal for continue 8-bit
1461:.\Generated_Source\PSoC5/UART_1.c ****     *  operation.
1462:.\Generated_Source\PSoC5/UART_1.c ****     *  Trere are 3 variants for this API usage:
1463:.\Generated_Source\PSoC5/UART_1.c ****     *  1) SendBreak(3) - function will send the Break signal and take care on the
1464:.\Generated_Source\PSoC5/UART_1.c ****     *     configuration returning. Funcition will block CPU untill transmition
1465:.\Generated_Source\PSoC5/UART_1.c ****     *     complete.
1466:.\Generated_Source\PSoC5/UART_1.c ****     *  2) User may want to use bloking time if UART configured to the low speed
1467:.\Generated_Source\PSoC5/UART_1.c ****     *     operation
1468:.\Generated_Source\PSoC5/UART_1.c ****     *     Emample for this case:
1469:.\Generated_Source\PSoC5/UART_1.c ****     *     SendBreak(0);     - init Break signal transmition
1470:.\Generated_Source\PSoC5/UART_1.c ****     *         Add your code here to use CPU time
1471:.\Generated_Source\PSoC5/UART_1.c ****     *     SendBreak(1);     - complete Break operation
1472:.\Generated_Source\PSoC5/UART_1.c ****     *  3) Same to 2) but user may want to init and use the interrupt for complete
1473:.\Generated_Source\PSoC5/UART_1.c ****     *     break operation.
1474:.\Generated_Source\PSoC5/UART_1.c ****     *     Example for this case:
1475:.\Generated_Source\PSoC5/UART_1.c ****     *     Init TX interrupt whith "TX - On TX Complete" parameter
1476:.\Generated_Source\PSoC5/UART_1.c ****     *     SendBreak(0);     - init Break signal transmition
1477:.\Generated_Source\PSoC5/UART_1.c ****     *         Add your code here to use CPU time
1478:.\Generated_Source\PSoC5/UART_1.c ****     *     When interrupt appear with UART_TX_STS_COMPLETE status:
1479:.\Generated_Source\PSoC5/UART_1.c ****     *     SendBreak(2);     - complete Break operation
1480:.\Generated_Source\PSoC5/UART_1.c ****     *
1481:.\Generated_Source\PSoC5/UART_1.c ****     * Side Effects:
1482:.\Generated_Source\PSoC5/UART_1.c ****     *   Uses static variable to keep registers configuration.
1483:.\Generated_Source\PSoC5/UART_1.c ****     *
1484:.\Generated_Source\PSoC5/UART_1.c ****     *******************************************************************************/
1485:.\Generated_Source\PSoC5/UART_1.c ****     void UART_1_SendBreak(uint8 retMode) 
1486:.\Generated_Source\PSoC5/UART_1.c ****     {
 1435              		.loc 1 1486 0
 1436              		.cfi_startproc
 1437              		@ args = 0, pretend = 0, frame = 0
 1438              		@ frame_needed = 0, uses_anonymous_args = 0
 1439              		@ link register save eliminated.
 1440              	.LVL81:
1487:.\Generated_Source\PSoC5/UART_1.c **** 
1488:.\Generated_Source\PSoC5/UART_1.c ****         /* If not Initialized then skip this function*/
1489:.\Generated_Source\PSoC5/UART_1.c ****         if(UART_1_initVar != 0u)
 1441              		.loc 1 1489 0
 1442 0000 124B     		ldr	r3, .L160
 1443 0002 1A78     		ldrb	r2, [r3]	@ zero_extendqisi2
 1444 0004 02B3     		cbz	r2, .L137
 1445              	.LBB66:
1490:.\Generated_Source\PSoC5/UART_1.c ****         {
1491:.\Generated_Source\PSoC5/UART_1.c ****             /*Set the Counter to 13-bits and transmit a 00 byte*/
1492:.\Generated_Source\PSoC5/UART_1.c ****             /*When that is done then reset the counter value back*/
1493:.\Generated_Source\PSoC5/UART_1.c ****             uint8 tmpStat;
1494:.\Generated_Source\PSoC5/UART_1.c **** 
1495:.\Generated_Source\PSoC5/UART_1.c ****             #if(UART_1_HD_ENABLED) /* Half Duplex mode*/
1496:.\Generated_Source\PSoC5/UART_1.c **** 
1497:.\Generated_Source\PSoC5/UART_1.c ****                 if( (retMode == UART_1_SEND_BREAK) ||
1498:.\Generated_Source\PSoC5/UART_1.c ****                     (retMode == UART_1_SEND_WAIT_REINIT ) )
1499:.\Generated_Source\PSoC5/UART_1.c ****                 {
1500:.\Generated_Source\PSoC5/UART_1.c ****                     /* CTRL_HD_SEND_BREAK - sends break bits in HD mode*/
1501:.\Generated_Source\PSoC5/UART_1.c ****                     UART_1_WriteControlRegister(UART_1_ReadControlRegister() |
1502:.\Generated_Source\PSoC5/UART_1.c ****                                                           UART_1_CTRL_HD_SEND_BREAK);
1503:.\Generated_Source\PSoC5/UART_1.c ****                     /* Send zeros*/
1504:.\Generated_Source\PSoC5/UART_1.c ****                     UART_1_TXDATA_REG = 0u;
ARM GAS  C:\Users\acer\AppData\Local\Temp\ccQxlELY.s 			page 55


1505:.\Generated_Source\PSoC5/UART_1.c **** 
1506:.\Generated_Source\PSoC5/UART_1.c ****                     do /*wait until transmit starts*/
1507:.\Generated_Source\PSoC5/UART_1.c ****                     {
1508:.\Generated_Source\PSoC5/UART_1.c ****                         tmpStat = UART_1_TXSTATUS_REG;
1509:.\Generated_Source\PSoC5/UART_1.c ****                     }while((tmpStat & UART_1_TX_STS_FIFO_EMPTY) != 0u);
1510:.\Generated_Source\PSoC5/UART_1.c ****                 }
1511:.\Generated_Source\PSoC5/UART_1.c **** 
1512:.\Generated_Source\PSoC5/UART_1.c ****                 if( (retMode == UART_1_WAIT_FOR_COMPLETE_REINIT) ||
1513:.\Generated_Source\PSoC5/UART_1.c ****                     (retMode == UART_1_SEND_WAIT_REINIT) )
1514:.\Generated_Source\PSoC5/UART_1.c ****                 {
1515:.\Generated_Source\PSoC5/UART_1.c ****                     do /*wait until transmit complete*/
1516:.\Generated_Source\PSoC5/UART_1.c ****                     {
1517:.\Generated_Source\PSoC5/UART_1.c ****                         tmpStat = UART_1_TXSTATUS_REG;
1518:.\Generated_Source\PSoC5/UART_1.c ****                     }while(((uint8)~tmpStat & UART_1_TX_STS_COMPLETE) != 0u);
1519:.\Generated_Source\PSoC5/UART_1.c ****                 }
1520:.\Generated_Source\PSoC5/UART_1.c **** 
1521:.\Generated_Source\PSoC5/UART_1.c ****                 if( (retMode == UART_1_WAIT_FOR_COMPLETE_REINIT) ||
1522:.\Generated_Source\PSoC5/UART_1.c ****                     (retMode == UART_1_REINIT) ||
1523:.\Generated_Source\PSoC5/UART_1.c ****                     (retMode == UART_1_SEND_WAIT_REINIT) )
1524:.\Generated_Source\PSoC5/UART_1.c ****                 {
1525:.\Generated_Source\PSoC5/UART_1.c ****                     UART_1_WriteControlRegister(UART_1_ReadControlRegister() &
1526:.\Generated_Source\PSoC5/UART_1.c ****                                                   (uint8)~UART_1_CTRL_HD_SEND_BREAK);
1527:.\Generated_Source\PSoC5/UART_1.c ****                 }
1528:.\Generated_Source\PSoC5/UART_1.c **** 
1529:.\Generated_Source\PSoC5/UART_1.c ****             #else /* UART_1_HD_ENABLED Full Duplex mode */
1530:.\Generated_Source\PSoC5/UART_1.c **** 
1531:.\Generated_Source\PSoC5/UART_1.c ****                 static uint8 tx_period;
1532:.\Generated_Source\PSoC5/UART_1.c **** 
1533:.\Generated_Source\PSoC5/UART_1.c ****                 if( (retMode == UART_1_SEND_BREAK) ||
 1446              		.loc 1 1533 0
 1447 0006 08B1     		cbz	r0, .L140
 1448              		.loc 1 1533 0 is_stmt 0 discriminator 1
 1449 0008 0328     		cmp	r0, #3
 1450 000a 1BD1     		bne	.L141
 1451              	.L140:
1534:.\Generated_Source\PSoC5/UART_1.c ****                     (retMode == UART_1_SEND_WAIT_REINIT) )
1535:.\Generated_Source\PSoC5/UART_1.c ****                 {
1536:.\Generated_Source\PSoC5/UART_1.c ****                     /* CTRL_HD_SEND_BREAK - skip to send parity bit at Break signal in Full Duplex 
1537:.\Generated_Source\PSoC5/UART_1.c ****                     #if( (UART_1_PARITY_TYPE != UART_1__B_UART__NONE_REVB) || \
1538:.\Generated_Source\PSoC5/UART_1.c ****                                         (UART_1_PARITY_TYPE_SW != 0u) )
1539:.\Generated_Source\PSoC5/UART_1.c ****                         UART_1_WriteControlRegister(UART_1_ReadControlRegister() |
1540:.\Generated_Source\PSoC5/UART_1.c ****                                                               UART_1_CTRL_HD_SEND_BREAK);
1541:.\Generated_Source\PSoC5/UART_1.c ****                     #endif /* End UART_1_PARITY_TYPE != UART_1__B_UART__NONE_REVB  */
1542:.\Generated_Source\PSoC5/UART_1.c **** 
1543:.\Generated_Source\PSoC5/UART_1.c ****                     #if(UART_1_TXCLKGEN_DP)
1544:.\Generated_Source\PSoC5/UART_1.c ****                         tx_period = UART_1_TXBITCLKTX_COMPLETE_REG;
 1452              		.loc 1 1544 0 is_stmt 1
 1453 000c 104A     		ldr	r2, .L160+4
 1454 000e 1178     		ldrb	r1, [r2]	@ zero_extendqisi2
 1455 0010 D971     		strb	r1, [r3, #7]
1545:.\Generated_Source\PSoC5/UART_1.c ****                         UART_1_TXBITCLKTX_COMPLETE_REG = UART_1_TXBITCTR_BREAKBITS;
 1456              		.loc 1 1545 0
 1457 0012 6721     		movs	r1, #103
 1458 0014 1170     		strb	r1, [r2]
1546:.\Generated_Source\PSoC5/UART_1.c ****                     #else
1547:.\Generated_Source\PSoC5/UART_1.c ****                         tx_period = UART_1_TXBITCTR_PERIOD_REG;
1548:.\Generated_Source\PSoC5/UART_1.c ****                         UART_1_TXBITCTR_PERIOD_REG = UART_1_TXBITCTR_BREAKBITS8X;
ARM GAS  C:\Users\acer\AppData\Local\Temp\ccQxlELY.s 			page 56


1549:.\Generated_Source\PSoC5/UART_1.c ****                     #endif /* End UART_1_TXCLKGEN_DP */
1550:.\Generated_Source\PSoC5/UART_1.c **** 
1551:.\Generated_Source\PSoC5/UART_1.c ****                     /* Send zeros*/
1552:.\Generated_Source\PSoC5/UART_1.c ****                     UART_1_TXDATA_REG = 0u;
 1459              		.loc 1 1552 0
 1460 0016 0021     		movs	r1, #0
 1461 0018 D173     		strb	r1, [r2, #15]
 1462              	.L142:
1553:.\Generated_Source\PSoC5/UART_1.c **** 
1554:.\Generated_Source\PSoC5/UART_1.c ****                     do /* wait until transmit starts */
1555:.\Generated_Source\PSoC5/UART_1.c ****                     {
1556:.\Generated_Source\PSoC5/UART_1.c ****                         tmpStat = UART_1_TXSTATUS_REG;
 1463              		.loc 1 1556 0 discriminator 1
 1464 001a 0E4A     		ldr	r2, .L160+8
 1465 001c 1278     		ldrb	r2, [r2]	@ zero_extendqisi2
 1466              	.LVL82:
1557:.\Generated_Source\PSoC5/UART_1.c ****                     }while((tmpStat & UART_1_TX_STS_FIFO_EMPTY) != 0u);
 1467              		.loc 1 1557 0 discriminator 1
 1468 001e 9107     		lsls	r1, r2, #30
 1469 0020 FBD4     		bmi	.L142
1558:.\Generated_Source\PSoC5/UART_1.c ****                 }
1559:.\Generated_Source\PSoC5/UART_1.c **** 
1560:.\Generated_Source\PSoC5/UART_1.c ****                 if( (retMode == UART_1_WAIT_FOR_COMPLETE_REINIT) ||
 1470              		.loc 1 1560 0
 1471 0022 00F0FD02 		and	r2, r0, #253
 1472              	.LVL83:
 1473 0026 012A     		cmp	r2, #1
 1474              	.L159:
 1475 0028 03D0     		beq	.L146
 1476              	.L147:
1561:.\Generated_Source\PSoC5/UART_1.c ****                     (retMode == UART_1_SEND_WAIT_REINIT) )
1562:.\Generated_Source\PSoC5/UART_1.c ****                 {
1563:.\Generated_Source\PSoC5/UART_1.c ****                     do /*wait until transmit complete*/
1564:.\Generated_Source\PSoC5/UART_1.c ****                     {
1565:.\Generated_Source\PSoC5/UART_1.c ****                         tmpStat = UART_1_TXSTATUS_REG;
1566:.\Generated_Source\PSoC5/UART_1.c ****                     }while(((uint8)~tmpStat & UART_1_TX_STS_COMPLETE) != 0u);
1567:.\Generated_Source\PSoC5/UART_1.c ****                 }
1568:.\Generated_Source\PSoC5/UART_1.c **** 
1569:.\Generated_Source\PSoC5/UART_1.c ****                 if( (retMode == UART_1_WAIT_FOR_COMPLETE_REINIT) ||
 1477              		.loc 1 1569 0
 1478 002a 0138     		subs	r0, r0, #1
 1479              	.LVL84:
 1480 002c 0228     		cmp	r0, #2
 1481 002e 05D9     		bls	.L144
 1482 0030 7047     		bx	lr
 1483              	.LVL85:
 1484              	.L146:
1565:.\Generated_Source\PSoC5/UART_1.c ****                     }while(((uint8)~tmpStat & UART_1_TX_STS_COMPLETE) != 0u);
 1485              		.loc 1 1565 0 discriminator 1
 1486 0032 084A     		ldr	r2, .L160+8
 1487 0034 1278     		ldrb	r2, [r2]	@ zero_extendqisi2
 1488              	.LVL86:
1566:.\Generated_Source\PSoC5/UART_1.c ****                 }
 1489              		.loc 1 1566 0 discriminator 1
 1490 0036 D207     		lsls	r2, r2, #31
 1491              	.LVL87:
 1492 0038 FBD5     		bpl	.L146
ARM GAS  C:\Users\acer\AppData\Local\Temp\ccQxlELY.s 			page 57


 1493 003a F6E7     		b	.L147
 1494              	.LVL88:
 1495              	.L144:
1570:.\Generated_Source\PSoC5/UART_1.c ****                     (retMode == UART_1_REINIT) ||
1571:.\Generated_Source\PSoC5/UART_1.c ****                     (retMode == UART_1_SEND_WAIT_REINIT) )
1572:.\Generated_Source\PSoC5/UART_1.c ****                 {
1573:.\Generated_Source\PSoC5/UART_1.c **** 
1574:.\Generated_Source\PSoC5/UART_1.c ****                     #if(UART_1_TXCLKGEN_DP)
1575:.\Generated_Source\PSoC5/UART_1.c ****                         UART_1_TXBITCLKTX_COMPLETE_REG = tx_period;
 1496              		.loc 1 1575 0
 1497 003c DA79     		ldrb	r2, [r3, #7]	@ zero_extendqisi2
 1498 003e 044B     		ldr	r3, .L160+4
 1499 0040 1A70     		strb	r2, [r3]
 1500 0042 7047     		bx	lr
 1501              	.LVL89:
 1502              	.L141:
1560:.\Generated_Source\PSoC5/UART_1.c ****                     (retMode == UART_1_SEND_WAIT_REINIT) )
 1503              		.loc 1 1560 0
 1504 0044 0128     		cmp	r0, #1
 1505 0046 EFE7     		b	.L159
 1506              	.L137:
 1507 0048 7047     		bx	lr
 1508              	.L161:
 1509 004a 00BF     		.align	2
 1510              	.L160:
 1511 004c 00000000 		.word	.LANCHOR0
 1512 0050 33640040 		.word	1073767475
 1513 0054 62640040 		.word	1073767522
 1514              	.LBE66:
 1515              		.cfi_endproc
 1516              	.LFE29:
 1517              		.size	UART_1_SendBreak, .-UART_1_SendBreak
 1518              		.section	.text.UART_1_SetTxAddressMode,"ax",%progbits
 1519              		.align	1
 1520              		.global	UART_1_SetTxAddressMode
 1521              		.thumb
 1522              		.thumb_func
 1523              		.type	UART_1_SetTxAddressMode, %function
 1524              	UART_1_SetTxAddressMode:
 1525              	.LFB30:
1576:.\Generated_Source\PSoC5/UART_1.c ****                     #else
1577:.\Generated_Source\PSoC5/UART_1.c ****                         UART_1_TXBITCTR_PERIOD_REG = tx_period;
1578:.\Generated_Source\PSoC5/UART_1.c ****                     #endif /* End UART_1_TXCLKGEN_DP */
1579:.\Generated_Source\PSoC5/UART_1.c **** 
1580:.\Generated_Source\PSoC5/UART_1.c ****                     #if( (UART_1_PARITY_TYPE != UART_1__B_UART__NONE_REVB) || \
1581:.\Generated_Source\PSoC5/UART_1.c ****                          (UART_1_PARITY_TYPE_SW != 0u) )
1582:.\Generated_Source\PSoC5/UART_1.c ****                         UART_1_WriteControlRegister(UART_1_ReadControlRegister() &
1583:.\Generated_Source\PSoC5/UART_1.c ****                                                       (uint8)~UART_1_CTRL_HD_SEND_BREAK);
1584:.\Generated_Source\PSoC5/UART_1.c ****                     #endif /* End UART_1_PARITY_TYPE != NONE */
1585:.\Generated_Source\PSoC5/UART_1.c ****                 }
1586:.\Generated_Source\PSoC5/UART_1.c ****             #endif    /* End UART_1_HD_ENABLED */
1587:.\Generated_Source\PSoC5/UART_1.c ****         }
1588:.\Generated_Source\PSoC5/UART_1.c ****     }
1589:.\Generated_Source\PSoC5/UART_1.c **** 
1590:.\Generated_Source\PSoC5/UART_1.c **** 
1591:.\Generated_Source\PSoC5/UART_1.c ****     /*******************************************************************************
1592:.\Generated_Source\PSoC5/UART_1.c ****     * Function Name: UART_1_SetTxAddressMode
ARM GAS  C:\Users\acer\AppData\Local\Temp\ccQxlELY.s 			page 58


1593:.\Generated_Source\PSoC5/UART_1.c ****     ********************************************************************************
1594:.\Generated_Source\PSoC5/UART_1.c ****     *
1595:.\Generated_Source\PSoC5/UART_1.c ****     * Summary:
1596:.\Generated_Source\PSoC5/UART_1.c ****     *  Set the transmit addressing mode
1597:.\Generated_Source\PSoC5/UART_1.c ****     *
1598:.\Generated_Source\PSoC5/UART_1.c ****     * Parameters:
1599:.\Generated_Source\PSoC5/UART_1.c ****     *  addressMode: 0 -> Space
1600:.\Generated_Source\PSoC5/UART_1.c ****     *               1 -> Mark
1601:.\Generated_Source\PSoC5/UART_1.c ****     *
1602:.\Generated_Source\PSoC5/UART_1.c ****     * Return:
1603:.\Generated_Source\PSoC5/UART_1.c ****     *  None.
1604:.\Generated_Source\PSoC5/UART_1.c ****     *
1605:.\Generated_Source\PSoC5/UART_1.c ****     *******************************************************************************/
1606:.\Generated_Source\PSoC5/UART_1.c ****     void UART_1_SetTxAddressMode(uint8 addressMode) 
1607:.\Generated_Source\PSoC5/UART_1.c ****     {
 1526              		.loc 1 1607 0
 1527              		.cfi_startproc
 1528              		@ args = 0, pretend = 0, frame = 0
 1529              		@ frame_needed = 0, uses_anonymous_args = 0
 1530              		@ link register save eliminated.
 1531              	.LVL90:
 1532 0000 7047     		bx	lr
 1533              		.cfi_endproc
 1534              	.LFE30:
 1535              		.size	UART_1_SetTxAddressMode, .-UART_1_SetTxAddressMode
 1536              		.global	UART_1_rxBufferOverflow
 1537              		.global	UART_1_rxBufferLoopDetect
 1538              		.global	UART_1_rxBufferWrite
 1539              		.global	UART_1_rxBufferRead
 1540              		.comm	UART_1_rxBuffer,16,1
 1541              		.global	UART_1_txBufferWrite
 1542              		.global	UART_1_txBufferRead
 1543              		.comm	UART_1_txBuffer,16,1
 1544              		.global	UART_1_initVar
 1545              		.bss
 1546              		.set	.LANCHOR0,. + 0
 1547              		.type	UART_1_initVar, %object
 1548              		.size	UART_1_initVar, 1
 1549              	UART_1_initVar:
 1550 0000 00       		.space	1
 1551              		.type	UART_1_rxBufferRead, %object
 1552              		.size	UART_1_rxBufferRead, 1
 1553              	UART_1_rxBufferRead:
 1554 0001 00       		.space	1
 1555              		.type	UART_1_rxBufferWrite, %object
 1556              		.size	UART_1_rxBufferWrite, 1
 1557              	UART_1_rxBufferWrite:
 1558 0002 00       		.space	1
 1559              		.type	UART_1_rxBufferLoopDetect, %object
 1560              		.size	UART_1_rxBufferLoopDetect, 1
 1561              	UART_1_rxBufferLoopDetect:
 1562 0003 00       		.space	1
 1563              		.type	UART_1_rxBufferOverflow, %object
 1564              		.size	UART_1_rxBufferOverflow, 1
 1565              	UART_1_rxBufferOverflow:
 1566 0004 00       		.space	1
 1567              		.type	UART_1_txBufferRead, %object
ARM GAS  C:\Users\acer\AppData\Local\Temp\ccQxlELY.s 			page 59


 1568              		.size	UART_1_txBufferRead, 1
 1569              	UART_1_txBufferRead:
 1570 0005 00       		.space	1
 1571              		.type	UART_1_txBufferWrite, %object
 1572              		.size	UART_1_txBufferWrite, 1
 1573              	UART_1_txBufferWrite:
 1574 0006 00       		.space	1
 1575              		.type	tx_period.5031, %object
 1576              		.size	tx_period.5031, 1
 1577              	tx_period.5031:
 1578 0007 00       		.space	1
 1579              		.text
 1580              	.Letext0:
 1581              		.file 2 ".\\Generated_Source\\PSoC5\\cytypes.h"
 1582              		.file 3 ".\\Generated_Source\\PSoC5\\UART_1_IntClock.h"
 1583              		.file 4 ".\\Generated_Source\\PSoC5\\CyLib.h"
 1584              		.section	.debug_info,"",%progbits
 1585              	.Ldebug_info0:
 1586 0000 07090000 		.4byte	0x907
 1587 0004 0400     		.2byte	0x4
 1588 0006 00000000 		.4byte	.Ldebug_abbrev0
 1589 000a 04       		.byte	0x4
 1590 000b 01       		.uleb128 0x1
 1591 000c C2010000 		.4byte	.LASF84
 1592 0010 01       		.byte	0x1
 1593 0011 3A010000 		.4byte	.LASF85
 1594 0015 EA040000 		.4byte	.LASF86
 1595 0019 00000000 		.4byte	.Ldebug_ranges0+0
 1596 001d 00000000 		.4byte	0
 1597 0021 00000000 		.4byte	.Ldebug_line0
 1598 0025 02       		.uleb128 0x2
 1599 0026 01       		.byte	0x1
 1600 0027 06       		.byte	0x6
 1601 0028 F0000000 		.4byte	.LASF0
 1602 002c 02       		.uleb128 0x2
 1603 002d 01       		.byte	0x1
 1604 002e 08       		.byte	0x8
 1605 002f 48040000 		.4byte	.LASF1
 1606 0033 02       		.uleb128 0x2
 1607 0034 02       		.byte	0x2
 1608 0035 05       		.byte	0x5
 1609 0036 56040000 		.4byte	.LASF2
 1610 003a 02       		.uleb128 0x2
 1611 003b 02       		.byte	0x2
 1612 003c 07       		.byte	0x7
 1613 003d 8C020000 		.4byte	.LASF3
 1614 0041 02       		.uleb128 0x2
 1615 0042 04       		.byte	0x4
 1616 0043 05       		.byte	0x5
 1617 0044 0B010000 		.4byte	.LASF4
 1618 0048 02       		.uleb128 0x2
 1619 0049 04       		.byte	0x4
 1620 004a 07       		.byte	0x7
 1621 004b 64020000 		.4byte	.LASF5
 1622 004f 02       		.uleb128 0x2
 1623 0050 08       		.byte	0x8
 1624 0051 05       		.byte	0x5
ARM GAS  C:\Users\acer\AppData\Local\Temp\ccQxlELY.s 			page 60


 1625 0052 E2000000 		.4byte	.LASF6
 1626 0056 02       		.uleb128 0x2
 1627 0057 08       		.byte	0x8
 1628 0058 07       		.byte	0x7
 1629 0059 9C000000 		.4byte	.LASF7
 1630 005d 03       		.uleb128 0x3
 1631 005e 04       		.byte	0x4
 1632 005f 05       		.byte	0x5
 1633 0060 696E7400 		.ascii	"int\000"
 1634 0064 02       		.uleb128 0x2
 1635 0065 04       		.byte	0x4
 1636 0066 07       		.byte	0x7
 1637 0067 A1010000 		.4byte	.LASF8
 1638 006b 04       		.uleb128 0x4
 1639 006c 21010000 		.4byte	.LASF9
 1640 0070 02       		.byte	0x2
 1641 0071 A1       		.byte	0xa1
 1642 0072 2C000000 		.4byte	0x2c
 1643 0076 04       		.uleb128 0x4
 1644 0077 00000000 		.4byte	.LASF10
 1645 007b 02       		.byte	0x2
 1646 007c A2       		.byte	0xa2
 1647 007d 3A000000 		.4byte	0x3a
 1648 0081 04       		.uleb128 0x4
 1649 0082 5C010000 		.4byte	.LASF11
 1650 0086 02       		.byte	0x2
 1651 0087 A3       		.byte	0xa3
 1652 0088 48000000 		.4byte	0x48
 1653 008c 02       		.uleb128 0x2
 1654 008d 04       		.byte	0x4
 1655 008e 04       		.byte	0x4
 1656 008f FF030000 		.4byte	.LASF12
 1657 0093 02       		.uleb128 0x2
 1658 0094 08       		.byte	0x8
 1659 0095 04       		.byte	0x4
 1660 0096 27010000 		.4byte	.LASF13
 1661 009a 04       		.uleb128 0x4
 1662 009b 88050000 		.4byte	.LASF14
 1663 009f 02       		.byte	0x2
 1664 00a0 B2       		.byte	0xb2
 1665 00a1 A5000000 		.4byte	0xa5
 1666 00a5 02       		.uleb128 0x2
 1667 00a6 01       		.byte	0x1
 1668 00a7 08       		.byte	0x8
 1669 00a8 61050000 		.4byte	.LASF15
 1670 00ac 05       		.uleb128 0x5
 1671 00ad 43040000 		.4byte	.LASF16
 1672 00b1 02       		.byte	0x2
 1673 00b2 4B01     		.2byte	0x14b
 1674 00b4 B8000000 		.4byte	0xb8
 1675 00b8 06       		.uleb128 0x6
 1676 00b9 6B000000 		.4byte	0x6b
 1677 00bd 05       		.uleb128 0x5
 1678 00be 43030000 		.4byte	.LASF17
 1679 00c2 02       		.byte	0x2
 1680 00c3 4D01     		.2byte	0x14d
 1681 00c5 C9000000 		.4byte	0xc9
ARM GAS  C:\Users\acer\AppData\Local\Temp\ccQxlELY.s 			page 61


 1682 00c9 06       		.uleb128 0x6
 1683 00ca 81000000 		.4byte	0x81
 1684 00ce 05       		.uleb128 0x5
 1685 00cf 66050000 		.4byte	.LASF18
 1686 00d3 02       		.byte	0x2
 1687 00d4 5D01     		.2byte	0x15d
 1688 00d6 DA000000 		.4byte	0xda
 1689 00da 07       		.uleb128 0x7
 1690 00db 04       		.byte	0x4
 1691 00dc E0000000 		.4byte	0xe0
 1692 00e0 08       		.uleb128 0x8
 1693 00e1 02       		.uleb128 0x2
 1694 00e2 04       		.byte	0x4
 1695 00e3 07       		.byte	0x7
 1696 00e4 64030000 		.4byte	.LASF19
 1697 00e8 09       		.uleb128 0x9
 1698 00e9 88000000 		.4byte	.LASF20
 1699 00ed 01       		.byte	0x1
 1700 00ee 6701     		.2byte	0x167
 1701 00f0 01       		.byte	0x1
 1702 00f1 09       		.uleb128 0x9
 1703 00f2 90040000 		.4byte	.LASF21
 1704 00f6 01       		.byte	0x1
 1705 00f7 5001     		.2byte	0x150
 1706 00f9 01       		.byte	0x1
 1707 00fa 09       		.uleb128 0x9
 1708 00fb 50020000 		.4byte	.LASF22
 1709 00ff 01       		.byte	0x1
 1710 0100 AE03     		.2byte	0x3ae
 1711 0102 01       		.byte	0x1
 1712 0103 09       		.uleb128 0x9
 1713 0104 25060000 		.4byte	.LASF23
 1714 0108 01       		.byte	0x1
 1715 0109 9703     		.2byte	0x397
 1716 010b 01       		.byte	0x1
 1717 010c 0A       		.uleb128 0xa
 1718 010d 8E050000 		.4byte	.LASF24
 1719 0111 01       		.byte	0x1
 1720 0112 65       		.byte	0x65
 1721 0113 00000000 		.4byte	.LFB1
 1722 0117 50000000 		.4byte	.LFE1-.LFB1
 1723 011b 01       		.uleb128 0x1
 1724 011c 9C       		.byte	0x9c
 1725 011d 74010000 		.4byte	0x174
 1726 0121 0B       		.uleb128 0xb
 1727 0122 0A000000 		.4byte	.LVL0
 1728 0126 B0080000 		.4byte	0x8b0
 1729 012a 34010000 		.4byte	0x134
 1730 012e 0C       		.uleb128 0xc
 1731 012f 01       		.uleb128 0x1
 1732 0130 50       		.byte	0x50
 1733 0131 01       		.uleb128 0x1
 1734 0132 31       		.byte	0x31
 1735 0133 00       		.byte	0
 1736 0134 0B       		.uleb128 0xb
 1737 0135 12000000 		.4byte	.LVL1
 1738 0139 CA080000 		.4byte	0x8ca
ARM GAS  C:\Users\acer\AppData\Local\Temp\ccQxlELY.s 			page 62


 1739 013d 4C010000 		.4byte	0x14c
 1740 0141 0C       		.uleb128 0xc
 1741 0142 01       		.uleb128 0x1
 1742 0143 51       		.byte	0x51
 1743 0144 01       		.uleb128 0x1
 1744 0145 37       		.byte	0x37
 1745 0146 0C       		.uleb128 0xc
 1746 0147 01       		.uleb128 0x1
 1747 0148 50       		.byte	0x50
 1748 0149 01       		.uleb128 0x1
 1749 014a 31       		.byte	0x31
 1750 014b 00       		.byte	0
 1751 014c 0B       		.uleb128 0xb
 1752 014d 24000000 		.4byte	.LVL2
 1753 0151 B0080000 		.4byte	0x8b0
 1754 0155 5F010000 		.4byte	0x15f
 1755 0159 0C       		.uleb128 0xc
 1756 015a 01       		.uleb128 0x1
 1757 015b 50       		.byte	0x50
 1758 015c 01       		.uleb128 0x1
 1759 015d 32       		.byte	0x32
 1760 015e 00       		.byte	0
 1761 015f 0D       		.uleb128 0xd
 1762 0160 2C000000 		.4byte	.LVL3
 1763 0164 CA080000 		.4byte	0x8ca
 1764 0168 0C       		.uleb128 0xc
 1765 0169 01       		.uleb128 0x1
 1766 016a 51       		.byte	0x51
 1767 016b 01       		.uleb128 0x1
 1768 016c 37       		.byte	0x37
 1769 016d 0C       		.uleb128 0xc
 1770 016e 01       		.uleb128 0x1
 1771 016f 50       		.byte	0x50
 1772 0170 01       		.uleb128 0x1
 1773 0171 32       		.byte	0x32
 1774 0172 00       		.byte	0
 1775 0173 00       		.byte	0
 1776 0174 0A       		.uleb128 0xa
 1777 0175 AE020000 		.4byte	.LASF25
 1778 0179 01       		.byte	0x1
 1779 017a AE       		.byte	0xae
 1780 017b 00000000 		.4byte	.LFB2
 1781 017f 48000000 		.4byte	.LFE2-.LFB2
 1782 0183 01       		.uleb128 0x1
 1783 0184 9C       		.byte	0x9c
 1784 0185 B4010000 		.4byte	0x1b4
 1785 0189 0E       		.uleb128 0xe
 1786 018a 9A050000 		.4byte	.LASF28
 1787 018e 01       		.byte	0x1
 1788 018f B0       		.byte	0xb0
 1789 0190 6B000000 		.4byte	0x6b
 1790 0194 00000000 		.4byte	.LLST0
 1791 0198 0F       		.uleb128 0xf
 1792 0199 06000000 		.4byte	.LVL4
 1793 019d E0080000 		.4byte	0x8e0
 1794 01a1 0F       		.uleb128 0xf
 1795 01a2 32000000 		.4byte	.LVL6
ARM GAS  C:\Users\acer\AppData\Local\Temp\ccQxlELY.s 			page 63


 1796 01a6 EB080000 		.4byte	0x8eb
 1797 01aa 10       		.uleb128 0x10
 1798 01ab 3C000000 		.4byte	.LVL8
 1799 01af F2080000 		.4byte	0x8f2
 1800 01b3 00       		.byte	0
 1801 01b4 0A       		.uleb128 0xa
 1802 01b5 14010000 		.4byte	.LASF26
 1803 01b9 01       		.byte	0x1
 1804 01ba 49       		.byte	0x49
 1805 01bb 00000000 		.4byte	.LFB0
 1806 01bf 1C000000 		.4byte	.LFE0-.LFB0
 1807 01c3 01       		.uleb128 0x1
 1808 01c4 9C       		.byte	0x9c
 1809 01c5 DC010000 		.4byte	0x1dc
 1810 01c9 0F       		.uleb128 0xf
 1811 01ca 0C000000 		.4byte	.LVL9
 1812 01ce 0C010000 		.4byte	0x10c
 1813 01d2 10       		.uleb128 0x10
 1814 01d3 18000000 		.4byte	.LVL10
 1815 01d7 74010000 		.4byte	0x174
 1816 01db 00       		.byte	0
 1817 01dc 0A       		.uleb128 0xa
 1818 01dd 28030000 		.4byte	.LASF27
 1819 01e1 01       		.byte	0x1
 1820 01e2 E3       		.byte	0xe3
 1821 01e3 00000000 		.4byte	.LFB3
 1822 01e7 50000000 		.4byte	.LFE3-.LFB3
 1823 01eb 01       		.uleb128 0x1
 1824 01ec 9C       		.byte	0x9c
 1825 01ed 3B020000 		.4byte	0x23b
 1826 01f1 0E       		.uleb128 0xe
 1827 01f2 9A050000 		.4byte	.LASF28
 1828 01f6 01       		.byte	0x1
 1829 01f7 E5       		.byte	0xe5
 1830 01f8 6B000000 		.4byte	0x6b
 1831 01fc 13000000 		.4byte	.LLST1
 1832 0200 11       		.uleb128 0x11
 1833 0201 E8000000 		.4byte	0xe8
 1834 0205 24000000 		.4byte	.LBB34
 1835 0209 06000000 		.4byte	.LBE34-.LBB34
 1836 020d 01       		.byte	0x1
 1837 020e FC       		.byte	0xfc
 1838 020f 12       		.uleb128 0x12
 1839 0210 FA000000 		.4byte	0xfa
 1840 0214 32000000 		.4byte	.LBB36
 1841 0218 04000000 		.4byte	.LBE36-.LBB36
 1842 021c 01       		.byte	0x1
 1843 021d 0301     		.2byte	0x103
 1844 021f 0F       		.uleb128 0xf
 1845 0220 06000000 		.4byte	.LVL11
 1846 0224 E0080000 		.4byte	0x8e0
 1847 0228 0F       		.uleb128 0xf
 1848 0229 16000000 		.4byte	.LVL13
 1849 022d 03090000 		.4byte	0x903
 1850 0231 10       		.uleb128 0x10
 1851 0232 3E000000 		.4byte	.LVL15
 1852 0236 F2080000 		.4byte	0x8f2
ARM GAS  C:\Users\acer\AppData\Local\Temp\ccQxlELY.s 			page 64


 1853 023a 00       		.byte	0
 1854 023b 13       		.uleb128 0x13
 1855 023c 0D030000 		.4byte	.LASF53
 1856 0240 01       		.byte	0x1
 1857 0241 1901     		.2byte	0x119
 1858 0243 6B000000 		.4byte	0x6b
 1859 0247 00000000 		.4byte	.LFB4
 1860 024b 04000000 		.4byte	.LFE4-.LFB4
 1861 024f 01       		.uleb128 0x1
 1862 0250 9C       		.byte	0x9c
 1863 0251 14       		.uleb128 0x14
 1864 0252 74040000 		.4byte	.LASF29
 1865 0256 01       		.byte	0x1
 1866 0257 3101     		.2byte	0x131
 1867 0259 00000000 		.4byte	.LFB5
 1868 025d 02000000 		.4byte	.LFE5-.LFB5
 1869 0261 01       		.uleb128 0x1
 1870 0262 9C       		.byte	0x9c
 1871 0263 76020000 		.4byte	0x276
 1872 0267 15       		.uleb128 0x15
 1873 0268 63010000 		.4byte	.LASF31
 1874 026c 01       		.byte	0x1
 1875 026d 3101     		.2byte	0x131
 1876 026f 6B000000 		.4byte	0x6b
 1877 0273 01       		.uleb128 0x1
 1878 0274 50       		.byte	0x50
 1879 0275 00       		.byte	0
 1880 0276 16       		.uleb128 0x16
 1881 0277 F1000000 		.4byte	0xf1
 1882 027b 00000000 		.4byte	.LFB6
 1883 027f 0C000000 		.4byte	.LFE6-.LFB6
 1884 0283 01       		.uleb128 0x1
 1885 0284 9C       		.byte	0x9c
 1886 0285 16       		.uleb128 0x16
 1887 0286 E8000000 		.4byte	0xe8
 1888 028a 00000000 		.4byte	.LFB7
 1889 028e 0C000000 		.4byte	.LFE7-.LFB7
 1890 0292 01       		.uleb128 0x1
 1891 0293 9C       		.byte	0x9c
 1892 0294 14       		.uleb128 0x14
 1893 0295 6B010000 		.4byte	.LASF30
 1894 0299 01       		.byte	0x1
 1895 029a 8101     		.2byte	0x181
 1896 029c 00000000 		.4byte	.LFB8
 1897 02a0 0C000000 		.4byte	.LFE8-.LFB8
 1898 02a4 01       		.uleb128 0x1
 1899 02a5 9C       		.byte	0x9c
 1900 02a6 B9020000 		.4byte	0x2b9
 1901 02aa 15       		.uleb128 0x15
 1902 02ab 06030000 		.4byte	.LASF32
 1903 02af 01       		.byte	0x1
 1904 02b0 8101     		.2byte	0x181
 1905 02b2 6B000000 		.4byte	0x6b
 1906 02b6 01       		.uleb128 0x1
 1907 02b7 50       		.byte	0x50
 1908 02b8 00       		.byte	0
 1909 02b9 17       		.uleb128 0x17
ARM GAS  C:\Users\acer\AppData\Local\Temp\ccQxlELY.s 			page 65


 1910 02ba 76000000 		.4byte	.LASF36
 1911 02be 01       		.byte	0x1
 1912 02bf A201     		.2byte	0x1a2
 1913 02c1 6B000000 		.4byte	0x6b
 1914 02c5 00000000 		.4byte	.LFB9
 1915 02c9 58000000 		.4byte	.LFE9-.LFB9
 1916 02cd 01       		.uleb128 0x1
 1917 02ce 9C       		.byte	0x9c
 1918 02cf 24030000 		.4byte	0x324
 1919 02d3 18       		.uleb128 0x18
 1920 02d4 D3040000 		.4byte	.LASF33
 1921 02d8 01       		.byte	0x1
 1922 02d9 A401     		.2byte	0x1a4
 1923 02db 6B000000 		.4byte	0x6b
 1924 02df 26000000 		.4byte	.LLST2
 1925 02e3 18       		.uleb128 0x18
 1926 02e4 BC020000 		.4byte	.LASF34
 1927 02e8 01       		.byte	0x1
 1928 02e9 A701     		.2byte	0x1a7
 1929 02eb 6B000000 		.4byte	0x6b
 1930 02ef 44000000 		.4byte	.LLST3
 1931 02f3 18       		.uleb128 0x18
 1932 02f4 1C000000 		.4byte	.LASF35
 1933 02f8 01       		.byte	0x1
 1934 02f9 A801     		.2byte	0x1a8
 1935 02fb 6B000000 		.4byte	0x6b
 1936 02ff 6F000000 		.4byte	.LLST4
 1937 0303 12       		.uleb128 0x12
 1938 0304 E8000000 		.4byte	0xe8
 1939 0308 00000000 		.4byte	.LBB38
 1940 030c 06000000 		.4byte	.LBE38-.LBB38
 1941 0310 01       		.byte	0x1
 1942 0311 AC01     		.2byte	0x1ac
 1943 0313 12       		.uleb128 0x12
 1944 0314 F1000000 		.4byte	0xf1
 1945 0318 3C000000 		.4byte	.LBB40
 1946 031c 06000000 		.4byte	.LBE40-.LBB40
 1947 0320 01       		.byte	0x1
 1948 0321 D801     		.2byte	0x1d8
 1949 0323 00       		.byte	0
 1950 0324 17       		.uleb128 0x17
 1951 0325 02060000 		.4byte	.LASF37
 1952 0329 01       		.byte	0x1
 1953 032a FD01     		.2byte	0x1fd
 1954 032c 6B000000 		.4byte	0x6b
 1955 0330 00000000 		.4byte	.LFB10
 1956 0334 20000000 		.4byte	.LFE10-.LFB10
 1957 0338 01       		.uleb128 0x1
 1958 0339 9C       		.byte	0x9c
 1959 033a 4D030000 		.4byte	0x34d
 1960 033e 19       		.uleb128 0x19
 1961 033f AB050000 		.4byte	.LASF38
 1962 0343 01       		.byte	0x1
 1963 0344 FF01     		.2byte	0x1ff
 1964 0346 6B000000 		.4byte	0x6b
 1965 034a 01       		.uleb128 0x1
 1966 034b 50       		.byte	0x50
ARM GAS  C:\Users\acer\AppData\Local\Temp\ccQxlELY.s 			page 66


 1967 034c 00       		.byte	0
 1968 034d 17       		.uleb128 0x17
 1969 034e 16060000 		.4byte	.LASF39
 1970 0352 01       		.byte	0x1
 1971 0353 2C02     		.2byte	0x22c
 1972 0355 6B000000 		.4byte	0x6b
 1973 0359 00000000 		.4byte	.LFB11
 1974 035d 74000000 		.4byte	.LFE11-.LFB11
 1975 0361 01       		.uleb128 0x1
 1976 0362 9C       		.byte	0x9c
 1977 0363 C8030000 		.4byte	0x3c8
 1978 0367 18       		.uleb128 0x18
 1979 0368 D3040000 		.4byte	.LASF33
 1980 036c 01       		.byte	0x1
 1981 036d 2E02     		.2byte	0x22e
 1982 036f 6B000000 		.4byte	0x6b
 1983 0373 8D000000 		.4byte	.LLST5
 1984 0377 18       		.uleb128 0x18
 1985 0378 CB030000 		.4byte	.LASF40
 1986 037c 01       		.byte	0x1
 1987 037d 2F02     		.2byte	0x22f
 1988 037f 6B000000 		.4byte	0x6b
 1989 0383 C3000000 		.4byte	.LLST6
 1990 0387 18       		.uleb128 0x18
 1991 0388 BC020000 		.4byte	.LASF34
 1992 038c 01       		.byte	0x1
 1993 038d 3202     		.2byte	0x232
 1994 038f 6B000000 		.4byte	0x6b
 1995 0393 D6000000 		.4byte	.LLST7
 1996 0397 18       		.uleb128 0x18
 1997 0398 1C000000 		.4byte	.LASF35
 1998 039c 01       		.byte	0x1
 1999 039d 3302     		.2byte	0x233
 2000 039f 6B000000 		.4byte	0x6b
 2001 03a3 01010000 		.4byte	.LLST8
 2002 03a7 12       		.uleb128 0x12
 2003 03a8 E8000000 		.4byte	0xe8
 2004 03ac 00000000 		.4byte	.LBB42
 2005 03b0 06000000 		.4byte	.LBE42-.LBB42
 2006 03b4 01       		.byte	0x1
 2007 03b5 3702     		.2byte	0x237
 2008 03b7 12       		.uleb128 0x12
 2009 03b8 F1000000 		.4byte	0xf1
 2010 03bc 52000000 		.4byte	.LBB44
 2011 03c0 06000000 		.4byte	.LBE44-.LBB44
 2012 03c4 01       		.byte	0x1
 2013 03c5 6B02     		.2byte	0x26b
 2014 03c7 00       		.byte	0
 2015 03c8 17       		.uleb128 0x17
 2016 03c9 34030000 		.4byte	.LASF41
 2017 03cd 01       		.byte	0x1
 2018 03ce 9202     		.2byte	0x292
 2019 03d0 76000000 		.4byte	0x76
 2020 03d4 00000000 		.4byte	.LFB12
 2021 03d8 14000000 		.4byte	.LFE12-.LFB12
 2022 03dc 01       		.uleb128 0x1
 2023 03dd 9C       		.byte	0x9c
ARM GAS  C:\Users\acer\AppData\Local\Temp\ccQxlELY.s 			page 67


 2024 03de F5030000 		.4byte	0x3f5
 2025 03e2 0F       		.uleb128 0xf
 2026 03e3 06000000 		.4byte	.LVL41
 2027 03e7 24030000 		.4byte	0x324
 2028 03eb 0F       		.uleb128 0xf
 2029 03ec 0C000000 		.4byte	.LVL42
 2030 03f0 B9020000 		.4byte	0x2b9
 2031 03f4 00       		.byte	0
 2032 03f5 17       		.uleb128 0x17
 2033 03f6 BC040000 		.4byte	.LASF42
 2034 03fa 01       		.byte	0x1
 2035 03fb B302     		.2byte	0x2b3
 2036 03fd 6B000000 		.4byte	0x6b
 2037 0401 00000000 		.4byte	.LFB13
 2038 0405 4C000000 		.4byte	.LFE13-.LFB13
 2039 0409 01       		.uleb128 0x1
 2040 040a 9C       		.byte	0x9c
 2041 040b 3E040000 		.4byte	0x43e
 2042 040f 19       		.uleb128 0x19
 2043 0410 87020000 		.4byte	.LASF43
 2044 0414 01       		.byte	0x1
 2045 0415 B602     		.2byte	0x2b6
 2046 0417 6B000000 		.4byte	0x6b
 2047 041b 01       		.uleb128 0x1
 2048 041c 50       		.byte	0x50
 2049 041d 12       		.uleb128 0x12
 2050 041e E8000000 		.4byte	0xe8
 2051 0422 00000000 		.4byte	.LBB46
 2052 0426 06000000 		.4byte	.LBE46-.LBB46
 2053 042a 01       		.byte	0x1
 2054 042b BD02     		.2byte	0x2bd
 2055 042d 12       		.uleb128 0x12
 2056 042e F1000000 		.4byte	0xf1
 2057 0432 36000000 		.4byte	.LBB48
 2058 0436 06000000 		.4byte	.LBE48-.LBB48
 2059 043a 01       		.byte	0x1
 2060 043b D602     		.2byte	0x2d6
 2061 043d 00       		.byte	0
 2062 043e 14       		.uleb128 0x14
 2063 043f 16040000 		.4byte	.LASF44
 2064 0443 01       		.byte	0x1
 2065 0444 0303     		.2byte	0x303
 2066 0446 00000000 		.4byte	.LFB14
 2067 044a 44000000 		.4byte	.LFE14-.LFB14
 2068 044e 01       		.uleb128 0x1
 2069 044f 9C       		.byte	0x9c
 2070 0450 97040000 		.4byte	0x497
 2071 0454 18       		.uleb128 0x18
 2072 0455 9A050000 		.4byte	.LASF28
 2073 0459 01       		.byte	0x1
 2074 045a 0503     		.2byte	0x305
 2075 045c 6B000000 		.4byte	0x6b
 2076 0460 1F010000 		.4byte	.LLST9
 2077 0464 12       		.uleb128 0x12
 2078 0465 E8000000 		.4byte	0xe8
 2079 0469 1C000000 		.4byte	.LBB50
 2080 046d 06000000 		.4byte	.LBE50-.LBB50
ARM GAS  C:\Users\acer\AppData\Local\Temp\ccQxlELY.s 			page 68


 2081 0471 01       		.byte	0x1
 2082 0472 1303     		.2byte	0x313
 2083 0474 12       		.uleb128 0x12
 2084 0475 F1000000 		.4byte	0xf1
 2085 0479 2E000000 		.4byte	.LBB52
 2086 047d 16000000 		.4byte	.LBE52-.LBB52
 2087 0481 01       		.byte	0x1
 2088 0482 1D03     		.2byte	0x31d
 2089 0484 0F       		.uleb128 0xf
 2090 0485 06000000 		.4byte	.LVL44
 2091 0489 E0080000 		.4byte	0x8e0
 2092 048d 0F       		.uleb128 0xf
 2093 048e 1C000000 		.4byte	.LVL45
 2094 0492 F2080000 		.4byte	0x8f2
 2095 0496 00       		.byte	0
 2096 0497 14       		.uleb128 0x14
 2097 0498 2B040000 		.4byte	.LASF45
 2098 049c 01       		.byte	0x1
 2099 049d 4003     		.2byte	0x340
 2100 049f 00000000 		.4byte	.LFB15
 2101 04a3 02000000 		.4byte	.LFE15-.LFB15
 2102 04a7 01       		.uleb128 0x1
 2103 04a8 9C       		.byte	0x9c
 2104 04a9 BC040000 		.4byte	0x4bc
 2105 04ad 15       		.uleb128 0x15
 2106 04ae 2E010000 		.4byte	.LASF46
 2107 04b2 01       		.byte	0x1
 2108 04b3 4003     		.2byte	0x340
 2109 04b5 6B000000 		.4byte	0x6b
 2110 04b9 01       		.uleb128 0x1
 2111 04ba 50       		.byte	0x50
 2112 04bb 00       		.byte	0
 2113 04bc 14       		.uleb128 0x14
 2114 04bd 6D030000 		.4byte	.LASF47
 2115 04c1 01       		.byte	0x1
 2116 04c2 6503     		.2byte	0x365
 2117 04c4 00000000 		.4byte	.LFB16
 2118 04c8 0C000000 		.4byte	.LFE16-.LFB16
 2119 04cc 01       		.uleb128 0x1
 2120 04cd 9C       		.byte	0x9c
 2121 04ce E1040000 		.4byte	0x4e1
 2122 04d2 15       		.uleb128 0x15
 2123 04d3 A9030000 		.4byte	.LASF48
 2124 04d7 01       		.byte	0x1
 2125 04d8 6503     		.2byte	0x365
 2126 04da 6B000000 		.4byte	0x6b
 2127 04de 01       		.uleb128 0x1
 2128 04df 50       		.byte	0x50
 2129 04e0 00       		.byte	0
 2130 04e1 14       		.uleb128 0x14
 2131 04e2 82030000 		.4byte	.LASF49
 2132 04e6 01       		.byte	0x1
 2133 04e7 7A03     		.2byte	0x37a
 2134 04e9 00000000 		.4byte	.LFB17
 2135 04ed 0C000000 		.4byte	.LFE17-.LFB17
 2136 04f1 01       		.uleb128 0x1
 2137 04f2 9C       		.byte	0x9c
ARM GAS  C:\Users\acer\AppData\Local\Temp\ccQxlELY.s 			page 69


 2138 04f3 06050000 		.4byte	0x506
 2139 04f7 15       		.uleb128 0x15
 2140 04f8 A9030000 		.4byte	.LASF48
 2141 04fc 01       		.byte	0x1
 2142 04fd 7A03     		.2byte	0x37a
 2143 04ff 6B000000 		.4byte	0x6b
 2144 0503 01       		.uleb128 0x1
 2145 0504 50       		.byte	0x50
 2146 0505 00       		.byte	0
 2147 0506 16       		.uleb128 0x16
 2148 0507 03010000 		.4byte	0x103
 2149 050b 00000000 		.4byte	.LFB18
 2150 050f 0C000000 		.4byte	.LFE18-.LFB18
 2151 0513 01       		.uleb128 0x1
 2152 0514 9C       		.byte	0x9c
 2153 0515 16       		.uleb128 0x16
 2154 0516 FA000000 		.4byte	0xfa
 2155 051a 00000000 		.4byte	.LFB19
 2156 051e 0C000000 		.4byte	.LFE19-.LFB19
 2157 0522 01       		.uleb128 0x1
 2158 0523 9C       		.byte	0x9c
 2159 0524 14       		.uleb128 0x14
 2160 0525 D4030000 		.4byte	.LASF50
 2161 0529 01       		.byte	0x1
 2162 052a C803     		.2byte	0x3c8
 2163 052c 00000000 		.4byte	.LFB20
 2164 0530 0C000000 		.4byte	.LFE20-.LFB20
 2165 0534 01       		.uleb128 0x1
 2166 0535 9C       		.byte	0x9c
 2167 0536 49050000 		.4byte	0x549
 2168 053a 15       		.uleb128 0x15
 2169 053b 06030000 		.4byte	.LASF32
 2170 053f 01       		.byte	0x1
 2171 0540 C803     		.2byte	0x3c8
 2172 0542 6B000000 		.4byte	0x6b
 2173 0546 01       		.uleb128 0x1
 2174 0547 50       		.byte	0x50
 2175 0548 00       		.byte	0
 2176 0549 14       		.uleb128 0x14
 2177 054a 49030000 		.4byte	.LASF51
 2178 054e 01       		.byte	0x1
 2179 054f EA03     		.2byte	0x3ea
 2180 0551 00000000 		.4byte	.LFB21
 2181 0555 58000000 		.4byte	.LFE21-.LFB21
 2182 0559 01       		.uleb128 0x1
 2183 055a 9C       		.byte	0x9c
 2184 055b 8E050000 		.4byte	0x58e
 2185 055f 15       		.uleb128 0x15
 2186 0560 44000000 		.4byte	.LASF52
 2187 0564 01       		.byte	0x1
 2188 0565 EA03     		.2byte	0x3ea
 2189 0567 6B000000 		.4byte	0x6b
 2190 056b 01       		.uleb128 0x1
 2191 056c 50       		.byte	0x50
 2192 056d 12       		.uleb128 0x12
 2193 056e FA000000 		.4byte	0xfa
 2194 0572 0A000000 		.4byte	.LBB54
ARM GAS  C:\Users\acer\AppData\Local\Temp\ccQxlELY.s 			page 70


 2195 0576 06000000 		.4byte	.LBE54-.LBB54
 2196 057a 01       		.byte	0x1
 2197 057b F403     		.2byte	0x3f4
 2198 057d 12       		.uleb128 0x12
 2199 057e 03010000 		.4byte	0x103
 2200 0582 38000000 		.4byte	.LBB56
 2201 0586 20000000 		.4byte	.LBE56-.LBB56
 2202 058a 01       		.byte	0x1
 2203 058b 0D04     		.2byte	0x40d
 2204 058d 00       		.byte	0
 2205 058e 13       		.uleb128 0x13
 2206 058f AE010000 		.4byte	.LASF54
 2207 0593 01       		.byte	0x1
 2208 0594 2E04     		.2byte	0x42e
 2209 0596 6B000000 		.4byte	0x6b
 2210 059a 00000000 		.4byte	.LFB22
 2211 059e 0C000000 		.4byte	.LFE22-.LFB22
 2212 05a2 01       		.uleb128 0x1
 2213 05a3 9C       		.byte	0x9c
 2214 05a4 14       		.uleb128 0x14
 2215 05a5 4F000000 		.4byte	.LASF55
 2216 05a9 01       		.byte	0x1
 2217 05aa 5204     		.2byte	0x452
 2218 05ac 00000000 		.4byte	.LFB23
 2219 05b0 54000000 		.4byte	.LFE23-.LFB23
 2220 05b4 01       		.uleb128 0x1
 2221 05b5 9C       		.byte	0x9c
 2222 05b6 E9050000 		.4byte	0x5e9
 2223 05ba 15       		.uleb128 0x15
 2224 05bb 44000000 		.4byte	.LASF52
 2225 05bf 01       		.byte	0x1
 2226 05c0 5204     		.2byte	0x452
 2227 05c2 6B000000 		.4byte	0x6b
 2228 05c6 01       		.uleb128 0x1
 2229 05c7 50       		.byte	0x50
 2230 05c8 18       		.uleb128 0x18
 2231 05c9 97030000 		.4byte	.LASF56
 2232 05cd 01       		.byte	0x1
 2233 05ce 5904     		.2byte	0x459
 2234 05d0 6B000000 		.4byte	0x6b
 2235 05d4 32010000 		.4byte	.LLST10
 2236 05d8 18       		.uleb128 0x18
 2237 05d9 76020000 		.4byte	.LASF57
 2238 05dd 01       		.byte	0x1
 2239 05de 5A04     		.2byte	0x45a
 2240 05e0 6B000000 		.4byte	0x6b
 2241 05e4 7D010000 		.4byte	.LLST11
 2242 05e8 00       		.byte	0
 2243 05e9 14       		.uleb128 0x14
 2244 05ea 05040000 		.4byte	.LASF58
 2245 05ee 01       		.byte	0x1
 2246 05ef AE04     		.2byte	0x4ae
 2247 05f1 00000000 		.4byte	.LFB24
 2248 05f5 24000000 		.4byte	.LFE24-.LFB24
 2249 05f9 01       		.uleb128 0x1
 2250 05fa 9C       		.byte	0x9c
 2251 05fb 29060000 		.4byte	0x629
ARM GAS  C:\Users\acer\AppData\Local\Temp\ccQxlELY.s 			page 71


 2252 05ff 1A       		.uleb128 0x1a
 2253 0600 5E000000 		.4byte	.LASF59
 2254 0604 01       		.byte	0x1
 2255 0605 AE04     		.2byte	0x4ae
 2256 0607 29060000 		.4byte	0x629
 2257 060b 90010000 		.4byte	.LLST12
 2258 060f 18       		.uleb128 0x18
 2259 0610 38060000 		.4byte	.LASF60
 2260 0614 01       		.byte	0x1
 2261 0615 B004     		.2byte	0x4b0
 2262 0617 76000000 		.4byte	0x76
 2263 061b BC010000 		.4byte	.LLST13
 2264 061f 0F       		.uleb128 0xf
 2265 0620 1A000000 		.4byte	.LVL63
 2266 0624 A4050000 		.4byte	0x5a4
 2267 0628 00       		.byte	0
 2268 0629 07       		.uleb128 0x7
 2269 062a 04       		.byte	0x4
 2270 062b 2F060000 		.4byte	0x62f
 2271 062f 1B       		.uleb128 0x1b
 2272 0630 9A000000 		.4byte	0x9a
 2273 0634 14       		.uleb128 0x14
 2274 0635 42060000 		.4byte	.LASF61
 2275 0639 01       		.byte	0x1
 2276 063a D404     		.2byte	0x4d4
 2277 063c 00000000 		.4byte	.LFB25
 2278 0640 24000000 		.4byte	.LFE25-.LFB25
 2279 0644 01       		.uleb128 0x1
 2280 0645 9C       		.byte	0x9c
 2281 0646 84060000 		.4byte	0x684
 2282 064a 1A       		.uleb128 0x1a
 2283 064b 5E000000 		.4byte	.LASF59
 2284 064f 01       		.byte	0x1
 2285 0650 D404     		.2byte	0x4d4
 2286 0652 84060000 		.4byte	0x684
 2287 0656 FC010000 		.4byte	.LLST14
 2288 065a 1A       		.uleb128 0x1a
 2289 065b B2040000 		.4byte	.LASF62
 2290 065f 01       		.byte	0x1
 2291 0660 D404     		.2byte	0x4d4
 2292 0662 6B000000 		.4byte	0x6b
 2293 0666 28020000 		.4byte	.LLST15
 2294 066a 18       		.uleb128 0x18
 2295 066b 38060000 		.4byte	.LASF60
 2296 066f 01       		.byte	0x1
 2297 0670 D704     		.2byte	0x4d7
 2298 0672 6B000000 		.4byte	0x6b
 2299 0676 49020000 		.4byte	.LLST16
 2300 067a 0F       		.uleb128 0xf
 2301 067b 16000000 		.4byte	.LVL69
 2302 067f A4050000 		.4byte	0x5a4
 2303 0683 00       		.byte	0
 2304 0684 07       		.uleb128 0x7
 2305 0685 04       		.byte	0x4
 2306 0686 8A060000 		.4byte	0x68a
 2307 068a 1B       		.uleb128 0x1b
 2308 068b 6B000000 		.4byte	0x6b
ARM GAS  C:\Users\acer\AppData\Local\Temp\ccQxlELY.s 			page 72


 2309 068f 14       		.uleb128 0x14
 2310 0690 FC000000 		.4byte	.LASF63
 2311 0694 01       		.byte	0x1
 2312 0695 F904     		.2byte	0x4f9
 2313 0697 00000000 		.4byte	.LFB26
 2314 069b 24000000 		.4byte	.LFE26-.LFB26
 2315 069f 01       		.uleb128 0x1
 2316 06a0 9C       		.byte	0x9c
 2317 06a1 E1060000 		.4byte	0x6e1
 2318 06a5 1A       		.uleb128 0x1a
 2319 06a6 44000000 		.4byte	.LASF52
 2320 06aa 01       		.byte	0x1
 2321 06ab F904     		.2byte	0x4f9
 2322 06ad 6B000000 		.4byte	0x6b
 2323 06b1 7D020000 		.4byte	.LLST17
 2324 06b5 0F       		.uleb128 0xf
 2325 06b6 0C000000 		.4byte	.LVL73
 2326 06ba A4050000 		.4byte	0x5a4
 2327 06be 0B       		.uleb128 0xb
 2328 06bf 12000000 		.4byte	.LVL74
 2329 06c3 A4050000 		.4byte	0x5a4
 2330 06c7 D1060000 		.4byte	0x6d1
 2331 06cb 0C       		.uleb128 0xc
 2332 06cc 01       		.uleb128 0x1
 2333 06cd 50       		.byte	0x50
 2334 06ce 01       		.uleb128 0x1
 2335 06cf 3D       		.byte	0x3d
 2336 06d0 00       		.byte	0
 2337 06d1 1C       		.uleb128 0x1c
 2338 06d2 1C000000 		.4byte	.LVL75
 2339 06d6 A4050000 		.4byte	0x5a4
 2340 06da 0C       		.uleb128 0xc
 2341 06db 01       		.uleb128 0x1
 2342 06dc 50       		.byte	0x50
 2343 06dd 01       		.uleb128 0x1
 2344 06de 3A       		.byte	0x3a
 2345 06df 00       		.byte	0
 2346 06e0 00       		.byte	0
 2347 06e1 17       		.uleb128 0x17
 2348 06e2 CB000000 		.4byte	.LASF64
 2349 06e6 01       		.byte	0x1
 2350 06e7 1E05     		.2byte	0x51e
 2351 06e9 6B000000 		.4byte	0x6b
 2352 06ed 00000000 		.4byte	.LFB27
 2353 06f1 38000000 		.4byte	.LFE27-.LFB27
 2354 06f5 01       		.uleb128 0x1
 2355 06f6 9C       		.byte	0x9c
 2356 06f7 2C070000 		.4byte	0x72c
 2357 06fb 18       		.uleb128 0x18
 2358 06fc 87020000 		.4byte	.LASF43
 2359 0700 01       		.byte	0x1
 2360 0701 2105     		.2byte	0x521
 2361 0703 6B000000 		.4byte	0x6b
 2362 0707 A9020000 		.4byte	.LLST18
 2363 070b 12       		.uleb128 0x12
 2364 070c FA000000 		.4byte	0xfa
 2365 0710 00000000 		.4byte	.LBB58
ARM GAS  C:\Users\acer\AppData\Local\Temp\ccQxlELY.s 			page 73


 2366 0714 06000000 		.4byte	.LBE58-.LBB58
 2367 0718 01       		.byte	0x1
 2368 0719 2805     		.2byte	0x528
 2369 071b 12       		.uleb128 0x12
 2370 071c 03010000 		.4byte	0x103
 2371 0720 22000000 		.4byte	.LBB60
 2372 0724 06000000 		.4byte	.LBE60-.LBB60
 2373 0728 01       		.byte	0x1
 2374 0729 3A05     		.2byte	0x53a
 2375 072b 00       		.byte	0
 2376 072c 14       		.uleb128 0x14
 2377 072d 07000000 		.4byte	.LASF65
 2378 0731 01       		.byte	0x1
 2379 0732 7405     		.2byte	0x574
 2380 0734 00000000 		.4byte	.LFB28
 2381 0738 40000000 		.4byte	.LFE28-.LFB28
 2382 073c 01       		.uleb128 0x1
 2383 073d 9C       		.byte	0x9c
 2384 073e 85070000 		.4byte	0x785
 2385 0742 18       		.uleb128 0x18
 2386 0743 9A050000 		.4byte	.LASF28
 2387 0747 01       		.byte	0x1
 2388 0748 7605     		.2byte	0x576
 2389 074a 6B000000 		.4byte	0x6b
 2390 074e C7020000 		.4byte	.LLST19
 2391 0752 12       		.uleb128 0x12
 2392 0753 FA000000 		.4byte	0xfa
 2393 0757 1C000000 		.4byte	.LBB62
 2394 075b 06000000 		.4byte	.LBE62-.LBB62
 2395 075f 01       		.byte	0x1
 2396 0760 8505     		.2byte	0x585
 2397 0762 12       		.uleb128 0x12
 2398 0763 03010000 		.4byte	0x103
 2399 0767 2A000000 		.4byte	.LBB64
 2400 076b 16000000 		.4byte	.LBE64-.LBB64
 2401 076f 01       		.byte	0x1
 2402 0770 8D05     		.2byte	0x58d
 2403 0772 0F       		.uleb128 0xf
 2404 0773 06000000 		.4byte	.LVL79
 2405 0777 E0080000 		.4byte	0x8e0
 2406 077b 0F       		.uleb128 0xf
 2407 077c 1C000000 		.4byte	.LVL80
 2408 0780 F2080000 		.4byte	0x8f2
 2409 0784 00       		.byte	0
 2410 0785 14       		.uleb128 0x14
 2411 0786 65000000 		.4byte	.LASF66
 2412 078a 01       		.byte	0x1
 2413 078b CD05     		.2byte	0x5cd
 2414 078d 00000000 		.4byte	.LFB29
 2415 0791 58000000 		.4byte	.LFE29-.LFB29
 2416 0795 01       		.uleb128 0x1
 2417 0796 9C       		.byte	0x9c
 2418 0797 D8070000 		.4byte	0x7d8
 2419 079b 1A       		.uleb128 0x1a
 2420 079c 99010000 		.4byte	.LASF67
 2421 07a0 01       		.byte	0x1
 2422 07a1 CD05     		.2byte	0x5cd
ARM GAS  C:\Users\acer\AppData\Local\Temp\ccQxlELY.s 			page 74


 2423 07a3 6B000000 		.4byte	0x6b
 2424 07a7 DA020000 		.4byte	.LLST20
 2425 07ab 1D       		.uleb128 0x1d
 2426 07ac 06000000 		.4byte	.LBB66
 2427 07b0 52000000 		.4byte	.LBE66-.LBB66
 2428 07b4 18       		.uleb128 0x18
 2429 07b5 5C030000 		.4byte	.LASF68
 2430 07b9 01       		.byte	0x1
 2431 07ba D505     		.2byte	0x5d5
 2432 07bc 6B000000 		.4byte	0x6b
 2433 07c0 1F030000 		.4byte	.LLST21
 2434 07c4 19       		.uleb128 0x19
 2435 07c5 E5020000 		.4byte	.LASF69
 2436 07c9 01       		.byte	0x1
 2437 07ca FB05     		.2byte	0x5fb
 2438 07cc 6B000000 		.4byte	0x6b
 2439 07d0 05       		.uleb128 0x5
 2440 07d1 03       		.byte	0x3
 2441 07d2 07000000 		.4byte	tx_period.5031
 2442 07d6 00       		.byte	0
 2443 07d7 00       		.byte	0
 2444 07d8 14       		.uleb128 0x14
 2445 07d9 CD020000 		.4byte	.LASF70
 2446 07dd 01       		.byte	0x1
 2447 07de 4606     		.2byte	0x646
 2448 07e0 00000000 		.4byte	.LFB30
 2449 07e4 02000000 		.4byte	.LFE30-.LFB30
 2450 07e8 01       		.uleb128 0x1
 2451 07e9 9C       		.byte	0x9c
 2452 07ea FD070000 		.4byte	0x7fd
 2453 07ee 15       		.uleb128 0x15
 2454 07ef 2E010000 		.4byte	.LASF46
 2455 07f3 01       		.byte	0x1
 2456 07f4 4606     		.2byte	0x646
 2457 07f6 6B000000 		.4byte	0x6b
 2458 07fa 01       		.uleb128 0x1
 2459 07fb 50       		.byte	0x50
 2460 07fc 00       		.byte	0
 2461 07fd 1E       		.uleb128 0x1e
 2462 07fe A3040000 		.4byte	.LASF71
 2463 0802 01       		.byte	0x1
 2464 0803 1C       		.byte	0x1c
 2465 0804 6B000000 		.4byte	0x6b
 2466 0808 05       		.uleb128 0x5
 2467 0809 03       		.byte	0x3
 2468 080a 00000000 		.4byte	UART_1_initVar
 2469 080e 1F       		.uleb128 0x1f
 2470 080f 6B000000 		.4byte	0x6b
 2471 0813 1E080000 		.4byte	0x81e
 2472 0817 20       		.uleb128 0x20
 2473 0818 E1000000 		.4byte	0xe1
 2474 081c 0F       		.byte	0xf
 2475 081d 00       		.byte	0
 2476 081e 1E       		.uleb128 0x1e
 2477 081f DD050000 		.4byte	.LASF72
 2478 0823 01       		.byte	0x1
 2479 0824 1E       		.byte	0x1e
ARM GAS  C:\Users\acer\AppData\Local\Temp\ccQxlELY.s 			page 75


 2480 0825 2F080000 		.4byte	0x82f
 2481 0829 05       		.uleb128 0x5
 2482 082a 03       		.byte	0x3
 2483 082b 00000000 		.4byte	UART_1_txBuffer
 2484 082f 06       		.uleb128 0x6
 2485 0830 0E080000 		.4byte	0x80e
 2486 0834 1E       		.uleb128 0x1e
 2487 0835 60040000 		.4byte	.LASF73
 2488 0839 01       		.byte	0x1
 2489 083a 1F       		.byte	0x1f
 2490 083b B8000000 		.4byte	0xb8
 2491 083f 05       		.uleb128 0x5
 2492 0840 03       		.byte	0x3
 2493 0841 00000000 		.4byte	UART_1_txBufferRead
 2494 0845 1E       		.uleb128 0x1e
 2495 0846 73050000 		.4byte	.LASF74
 2496 084a 01       		.byte	0x1
 2497 084b 20       		.byte	0x20
 2498 084c 6B000000 		.4byte	0x6b
 2499 0850 05       		.uleb128 0x5
 2500 0851 03       		.byte	0x3
 2501 0852 00000000 		.4byte	UART_1_txBufferWrite
 2502 0856 1E       		.uleb128 0x1e
 2503 0857 DA040000 		.4byte	.LASF75
 2504 085b 01       		.byte	0x1
 2505 085c 24       		.byte	0x24
 2506 085d 67080000 		.4byte	0x867
 2507 0861 05       		.uleb128 0x5
 2508 0862 03       		.byte	0x3
 2509 0863 00000000 		.4byte	UART_1_rxBuffer
 2510 0867 06       		.uleb128 0x6
 2511 0868 0E080000 		.4byte	0x80e
 2512 086c 1E       		.uleb128 0x1e
 2513 086d 85010000 		.4byte	.LASF76
 2514 0871 01       		.byte	0x1
 2515 0872 25       		.byte	0x25
 2516 0873 B8000000 		.4byte	0xb8
 2517 0877 05       		.uleb128 0x5
 2518 0878 03       		.byte	0x3
 2519 0879 00000000 		.4byte	UART_1_rxBufferRead
 2520 087d 1E       		.uleb128 0x1e
 2521 087e ED050000 		.4byte	.LASF77
 2522 0882 01       		.byte	0x1
 2523 0883 26       		.byte	0x26
 2524 0884 B8000000 		.4byte	0xb8
 2525 0888 05       		.uleb128 0x5
 2526 0889 03       		.byte	0x3
 2527 088a 00000000 		.4byte	UART_1_rxBufferWrite
 2528 088e 1E       		.uleb128 0x1e
 2529 088f B1030000 		.4byte	.LASF78
 2530 0893 01       		.byte	0x1
 2531 0894 27       		.byte	0x27
 2532 0895 B8000000 		.4byte	0xb8
 2533 0899 05       		.uleb128 0x5
 2534 089a 03       		.byte	0x3
 2535 089b 00000000 		.4byte	UART_1_rxBufferLoopDetect
 2536 089f 1E       		.uleb128 0x1e
ARM GAS  C:\Users\acer\AppData\Local\Temp\ccQxlELY.s 			page 76


 2537 08a0 B3000000 		.4byte	.LASF79
 2538 08a4 01       		.byte	0x1
 2539 08a5 28       		.byte	0x28
 2540 08a6 B8000000 		.4byte	0xb8
 2541 08aa 05       		.uleb128 0x5
 2542 08ab 03       		.byte	0x3
 2543 08ac 00000000 		.4byte	UART_1_rxBufferOverflow
 2544 08b0 21       		.uleb128 0x21
 2545 08b1 9F020000 		.4byte	.LASF87
 2546 08b5 04       		.byte	0x4
 2547 08b6 89       		.byte	0x89
 2548 08b7 CE000000 		.4byte	0xce
 2549 08bb CA080000 		.4byte	0x8ca
 2550 08bf 22       		.uleb128 0x22
 2551 08c0 6B000000 		.4byte	0x6b
 2552 08c4 22       		.uleb128 0x22
 2553 08c5 CE000000 		.4byte	0xce
 2554 08c9 00       		.byte	0
 2555 08ca 23       		.uleb128 0x23
 2556 08cb EE030000 		.4byte	.LASF81
 2557 08cf 04       		.byte	0x4
 2558 08d0 8C       		.byte	0x8c
 2559 08d1 E0080000 		.4byte	0x8e0
 2560 08d5 22       		.uleb128 0x22
 2561 08d6 6B000000 		.4byte	0x6b
 2562 08da 22       		.uleb128 0x22
 2563 08db 6B000000 		.4byte	0x6b
 2564 08df 00       		.byte	0
 2565 08e0 24       		.uleb128 0x24
 2566 08e1 EF020000 		.4byte	.LASF88
 2567 08e5 04       		.byte	0x4
 2568 08e6 7E       		.byte	0x7e
 2569 08e7 6B000000 		.4byte	0x6b
 2570 08eb 25       		.uleb128 0x25
 2571 08ec B2050000 		.4byte	.LASF80
 2572 08f0 03       		.byte	0x3
 2573 08f1 27       		.byte	0x27
 2574 08f2 23       		.uleb128 0x23
 2575 08f3 2E000000 		.4byte	.LASF82
 2576 08f7 04       		.byte	0x4
 2577 08f8 7F       		.byte	0x7f
 2578 08f9 03090000 		.4byte	0x903
 2579 08fd 22       		.uleb128 0x22
 2580 08fe 6B000000 		.4byte	0x6b
 2581 0902 00       		.byte	0
 2582 0903 25       		.uleb128 0x25
 2583 0904 C8050000 		.4byte	.LASF83
 2584 0908 03       		.byte	0x3
 2585 0909 28       		.byte	0x28
 2586 090a 00       		.byte	0
 2587              		.section	.debug_abbrev,"",%progbits
 2588              	.Ldebug_abbrev0:
 2589 0000 01       		.uleb128 0x1
 2590 0001 11       		.uleb128 0x11
 2591 0002 01       		.byte	0x1
 2592 0003 25       		.uleb128 0x25
 2593 0004 0E       		.uleb128 0xe
ARM GAS  C:\Users\acer\AppData\Local\Temp\ccQxlELY.s 			page 77


 2594 0005 13       		.uleb128 0x13
 2595 0006 0B       		.uleb128 0xb
 2596 0007 03       		.uleb128 0x3
 2597 0008 0E       		.uleb128 0xe
 2598 0009 1B       		.uleb128 0x1b
 2599 000a 0E       		.uleb128 0xe
 2600 000b 55       		.uleb128 0x55
 2601 000c 17       		.uleb128 0x17
 2602 000d 11       		.uleb128 0x11
 2603 000e 01       		.uleb128 0x1
 2604 000f 10       		.uleb128 0x10
 2605 0010 17       		.uleb128 0x17
 2606 0011 00       		.byte	0
 2607 0012 00       		.byte	0
 2608 0013 02       		.uleb128 0x2
 2609 0014 24       		.uleb128 0x24
 2610 0015 00       		.byte	0
 2611 0016 0B       		.uleb128 0xb
 2612 0017 0B       		.uleb128 0xb
 2613 0018 3E       		.uleb128 0x3e
 2614 0019 0B       		.uleb128 0xb
 2615 001a 03       		.uleb128 0x3
 2616 001b 0E       		.uleb128 0xe
 2617 001c 00       		.byte	0
 2618 001d 00       		.byte	0
 2619 001e 03       		.uleb128 0x3
 2620 001f 24       		.uleb128 0x24
 2621 0020 00       		.byte	0
 2622 0021 0B       		.uleb128 0xb
 2623 0022 0B       		.uleb128 0xb
 2624 0023 3E       		.uleb128 0x3e
 2625 0024 0B       		.uleb128 0xb
 2626 0025 03       		.uleb128 0x3
 2627 0026 08       		.uleb128 0x8
 2628 0027 00       		.byte	0
 2629 0028 00       		.byte	0
 2630 0029 04       		.uleb128 0x4
 2631 002a 16       		.uleb128 0x16
 2632 002b 00       		.byte	0
 2633 002c 03       		.uleb128 0x3
 2634 002d 0E       		.uleb128 0xe
 2635 002e 3A       		.uleb128 0x3a
 2636 002f 0B       		.uleb128 0xb
 2637 0030 3B       		.uleb128 0x3b
 2638 0031 0B       		.uleb128 0xb
 2639 0032 49       		.uleb128 0x49
 2640 0033 13       		.uleb128 0x13
 2641 0034 00       		.byte	0
 2642 0035 00       		.byte	0
 2643 0036 05       		.uleb128 0x5
 2644 0037 16       		.uleb128 0x16
 2645 0038 00       		.byte	0
 2646 0039 03       		.uleb128 0x3
 2647 003a 0E       		.uleb128 0xe
 2648 003b 3A       		.uleb128 0x3a
 2649 003c 0B       		.uleb128 0xb
 2650 003d 3B       		.uleb128 0x3b
ARM GAS  C:\Users\acer\AppData\Local\Temp\ccQxlELY.s 			page 78


 2651 003e 05       		.uleb128 0x5
 2652 003f 49       		.uleb128 0x49
 2653 0040 13       		.uleb128 0x13
 2654 0041 00       		.byte	0
 2655 0042 00       		.byte	0
 2656 0043 06       		.uleb128 0x6
 2657 0044 35       		.uleb128 0x35
 2658 0045 00       		.byte	0
 2659 0046 49       		.uleb128 0x49
 2660 0047 13       		.uleb128 0x13
 2661 0048 00       		.byte	0
 2662 0049 00       		.byte	0
 2663 004a 07       		.uleb128 0x7
 2664 004b 0F       		.uleb128 0xf
 2665 004c 00       		.byte	0
 2666 004d 0B       		.uleb128 0xb
 2667 004e 0B       		.uleb128 0xb
 2668 004f 49       		.uleb128 0x49
 2669 0050 13       		.uleb128 0x13
 2670 0051 00       		.byte	0
 2671 0052 00       		.byte	0
 2672 0053 08       		.uleb128 0x8
 2673 0054 15       		.uleb128 0x15
 2674 0055 00       		.byte	0
 2675 0056 27       		.uleb128 0x27
 2676 0057 19       		.uleb128 0x19
 2677 0058 00       		.byte	0
 2678 0059 00       		.byte	0
 2679 005a 09       		.uleb128 0x9
 2680 005b 2E       		.uleb128 0x2e
 2681 005c 00       		.byte	0
 2682 005d 3F       		.uleb128 0x3f
 2683 005e 19       		.uleb128 0x19
 2684 005f 03       		.uleb128 0x3
 2685 0060 0E       		.uleb128 0xe
 2686 0061 3A       		.uleb128 0x3a
 2687 0062 0B       		.uleb128 0xb
 2688 0063 3B       		.uleb128 0x3b
 2689 0064 05       		.uleb128 0x5
 2690 0065 27       		.uleb128 0x27
 2691 0066 19       		.uleb128 0x19
 2692 0067 20       		.uleb128 0x20
 2693 0068 0B       		.uleb128 0xb
 2694 0069 00       		.byte	0
 2695 006a 00       		.byte	0
 2696 006b 0A       		.uleb128 0xa
 2697 006c 2E       		.uleb128 0x2e
 2698 006d 01       		.byte	0x1
 2699 006e 3F       		.uleb128 0x3f
 2700 006f 19       		.uleb128 0x19
 2701 0070 03       		.uleb128 0x3
 2702 0071 0E       		.uleb128 0xe
 2703 0072 3A       		.uleb128 0x3a
 2704 0073 0B       		.uleb128 0xb
 2705 0074 3B       		.uleb128 0x3b
 2706 0075 0B       		.uleb128 0xb
 2707 0076 27       		.uleb128 0x27
ARM GAS  C:\Users\acer\AppData\Local\Temp\ccQxlELY.s 			page 79


 2708 0077 19       		.uleb128 0x19
 2709 0078 11       		.uleb128 0x11
 2710 0079 01       		.uleb128 0x1
 2711 007a 12       		.uleb128 0x12
 2712 007b 06       		.uleb128 0x6
 2713 007c 40       		.uleb128 0x40
 2714 007d 18       		.uleb128 0x18
 2715 007e 9742     		.uleb128 0x2117
 2716 0080 19       		.uleb128 0x19
 2717 0081 01       		.uleb128 0x1
 2718 0082 13       		.uleb128 0x13
 2719 0083 00       		.byte	0
 2720 0084 00       		.byte	0
 2721 0085 0B       		.uleb128 0xb
 2722 0086 898201   		.uleb128 0x4109
 2723 0089 01       		.byte	0x1
 2724 008a 11       		.uleb128 0x11
 2725 008b 01       		.uleb128 0x1
 2726 008c 31       		.uleb128 0x31
 2727 008d 13       		.uleb128 0x13
 2728 008e 01       		.uleb128 0x1
 2729 008f 13       		.uleb128 0x13
 2730 0090 00       		.byte	0
 2731 0091 00       		.byte	0
 2732 0092 0C       		.uleb128 0xc
 2733 0093 8A8201   		.uleb128 0x410a
 2734 0096 00       		.byte	0
 2735 0097 02       		.uleb128 0x2
 2736 0098 18       		.uleb128 0x18
 2737 0099 9142     		.uleb128 0x2111
 2738 009b 18       		.uleb128 0x18
 2739 009c 00       		.byte	0
 2740 009d 00       		.byte	0
 2741 009e 0D       		.uleb128 0xd
 2742 009f 898201   		.uleb128 0x4109
 2743 00a2 01       		.byte	0x1
 2744 00a3 11       		.uleb128 0x11
 2745 00a4 01       		.uleb128 0x1
 2746 00a5 31       		.uleb128 0x31
 2747 00a6 13       		.uleb128 0x13
 2748 00a7 00       		.byte	0
 2749 00a8 00       		.byte	0
 2750 00a9 0E       		.uleb128 0xe
 2751 00aa 34       		.uleb128 0x34
 2752 00ab 00       		.byte	0
 2753 00ac 03       		.uleb128 0x3
 2754 00ad 0E       		.uleb128 0xe
 2755 00ae 3A       		.uleb128 0x3a
 2756 00af 0B       		.uleb128 0xb
 2757 00b0 3B       		.uleb128 0x3b
 2758 00b1 0B       		.uleb128 0xb
 2759 00b2 49       		.uleb128 0x49
 2760 00b3 13       		.uleb128 0x13
 2761 00b4 02       		.uleb128 0x2
 2762 00b5 17       		.uleb128 0x17
 2763 00b6 00       		.byte	0
 2764 00b7 00       		.byte	0
ARM GAS  C:\Users\acer\AppData\Local\Temp\ccQxlELY.s 			page 80


 2765 00b8 0F       		.uleb128 0xf
 2766 00b9 898201   		.uleb128 0x4109
 2767 00bc 00       		.byte	0
 2768 00bd 11       		.uleb128 0x11
 2769 00be 01       		.uleb128 0x1
 2770 00bf 31       		.uleb128 0x31
 2771 00c0 13       		.uleb128 0x13
 2772 00c1 00       		.byte	0
 2773 00c2 00       		.byte	0
 2774 00c3 10       		.uleb128 0x10
 2775 00c4 898201   		.uleb128 0x4109
 2776 00c7 00       		.byte	0
 2777 00c8 11       		.uleb128 0x11
 2778 00c9 01       		.uleb128 0x1
 2779 00ca 9542     		.uleb128 0x2115
 2780 00cc 19       		.uleb128 0x19
 2781 00cd 31       		.uleb128 0x31
 2782 00ce 13       		.uleb128 0x13
 2783 00cf 00       		.byte	0
 2784 00d0 00       		.byte	0
 2785 00d1 11       		.uleb128 0x11
 2786 00d2 1D       		.uleb128 0x1d
 2787 00d3 00       		.byte	0
 2788 00d4 31       		.uleb128 0x31
 2789 00d5 13       		.uleb128 0x13
 2790 00d6 11       		.uleb128 0x11
 2791 00d7 01       		.uleb128 0x1
 2792 00d8 12       		.uleb128 0x12
 2793 00d9 06       		.uleb128 0x6
 2794 00da 58       		.uleb128 0x58
 2795 00db 0B       		.uleb128 0xb
 2796 00dc 59       		.uleb128 0x59
 2797 00dd 0B       		.uleb128 0xb
 2798 00de 00       		.byte	0
 2799 00df 00       		.byte	0
 2800 00e0 12       		.uleb128 0x12
 2801 00e1 1D       		.uleb128 0x1d
 2802 00e2 00       		.byte	0
 2803 00e3 31       		.uleb128 0x31
 2804 00e4 13       		.uleb128 0x13
 2805 00e5 11       		.uleb128 0x11
 2806 00e6 01       		.uleb128 0x1
 2807 00e7 12       		.uleb128 0x12
 2808 00e8 06       		.uleb128 0x6
 2809 00e9 58       		.uleb128 0x58
 2810 00ea 0B       		.uleb128 0xb
 2811 00eb 59       		.uleb128 0x59
 2812 00ec 05       		.uleb128 0x5
 2813 00ed 00       		.byte	0
 2814 00ee 00       		.byte	0
 2815 00ef 13       		.uleb128 0x13
 2816 00f0 2E       		.uleb128 0x2e
 2817 00f1 00       		.byte	0
 2818 00f2 3F       		.uleb128 0x3f
 2819 00f3 19       		.uleb128 0x19
 2820 00f4 03       		.uleb128 0x3
 2821 00f5 0E       		.uleb128 0xe
ARM GAS  C:\Users\acer\AppData\Local\Temp\ccQxlELY.s 			page 81


 2822 00f6 3A       		.uleb128 0x3a
 2823 00f7 0B       		.uleb128 0xb
 2824 00f8 3B       		.uleb128 0x3b
 2825 00f9 05       		.uleb128 0x5
 2826 00fa 27       		.uleb128 0x27
 2827 00fb 19       		.uleb128 0x19
 2828 00fc 49       		.uleb128 0x49
 2829 00fd 13       		.uleb128 0x13
 2830 00fe 11       		.uleb128 0x11
 2831 00ff 01       		.uleb128 0x1
 2832 0100 12       		.uleb128 0x12
 2833 0101 06       		.uleb128 0x6
 2834 0102 40       		.uleb128 0x40
 2835 0103 18       		.uleb128 0x18
 2836 0104 9742     		.uleb128 0x2117
 2837 0106 19       		.uleb128 0x19
 2838 0107 00       		.byte	0
 2839 0108 00       		.byte	0
 2840 0109 14       		.uleb128 0x14
 2841 010a 2E       		.uleb128 0x2e
 2842 010b 01       		.byte	0x1
 2843 010c 3F       		.uleb128 0x3f
 2844 010d 19       		.uleb128 0x19
 2845 010e 03       		.uleb128 0x3
 2846 010f 0E       		.uleb128 0xe
 2847 0110 3A       		.uleb128 0x3a
 2848 0111 0B       		.uleb128 0xb
 2849 0112 3B       		.uleb128 0x3b
 2850 0113 05       		.uleb128 0x5
 2851 0114 27       		.uleb128 0x27
 2852 0115 19       		.uleb128 0x19
 2853 0116 11       		.uleb128 0x11
 2854 0117 01       		.uleb128 0x1
 2855 0118 12       		.uleb128 0x12
 2856 0119 06       		.uleb128 0x6
 2857 011a 40       		.uleb128 0x40
 2858 011b 18       		.uleb128 0x18
 2859 011c 9742     		.uleb128 0x2117
 2860 011e 19       		.uleb128 0x19
 2861 011f 01       		.uleb128 0x1
 2862 0120 13       		.uleb128 0x13
 2863 0121 00       		.byte	0
 2864 0122 00       		.byte	0
 2865 0123 15       		.uleb128 0x15
 2866 0124 05       		.uleb128 0x5
 2867 0125 00       		.byte	0
 2868 0126 03       		.uleb128 0x3
 2869 0127 0E       		.uleb128 0xe
 2870 0128 3A       		.uleb128 0x3a
 2871 0129 0B       		.uleb128 0xb
 2872 012a 3B       		.uleb128 0x3b
 2873 012b 05       		.uleb128 0x5
 2874 012c 49       		.uleb128 0x49
 2875 012d 13       		.uleb128 0x13
 2876 012e 02       		.uleb128 0x2
 2877 012f 18       		.uleb128 0x18
 2878 0130 00       		.byte	0
ARM GAS  C:\Users\acer\AppData\Local\Temp\ccQxlELY.s 			page 82


 2879 0131 00       		.byte	0
 2880 0132 16       		.uleb128 0x16
 2881 0133 2E       		.uleb128 0x2e
 2882 0134 00       		.byte	0
 2883 0135 31       		.uleb128 0x31
 2884 0136 13       		.uleb128 0x13
 2885 0137 11       		.uleb128 0x11
 2886 0138 01       		.uleb128 0x1
 2887 0139 12       		.uleb128 0x12
 2888 013a 06       		.uleb128 0x6
 2889 013b 40       		.uleb128 0x40
 2890 013c 18       		.uleb128 0x18
 2891 013d 9742     		.uleb128 0x2117
 2892 013f 19       		.uleb128 0x19
 2893 0140 00       		.byte	0
 2894 0141 00       		.byte	0
 2895 0142 17       		.uleb128 0x17
 2896 0143 2E       		.uleb128 0x2e
 2897 0144 01       		.byte	0x1
 2898 0145 3F       		.uleb128 0x3f
 2899 0146 19       		.uleb128 0x19
 2900 0147 03       		.uleb128 0x3
 2901 0148 0E       		.uleb128 0xe
 2902 0149 3A       		.uleb128 0x3a
 2903 014a 0B       		.uleb128 0xb
 2904 014b 3B       		.uleb128 0x3b
 2905 014c 05       		.uleb128 0x5
 2906 014d 27       		.uleb128 0x27
 2907 014e 19       		.uleb128 0x19
 2908 014f 49       		.uleb128 0x49
 2909 0150 13       		.uleb128 0x13
 2910 0151 11       		.uleb128 0x11
 2911 0152 01       		.uleb128 0x1
 2912 0153 12       		.uleb128 0x12
 2913 0154 06       		.uleb128 0x6
 2914 0155 40       		.uleb128 0x40
 2915 0156 18       		.uleb128 0x18
 2916 0157 9742     		.uleb128 0x2117
 2917 0159 19       		.uleb128 0x19
 2918 015a 01       		.uleb128 0x1
 2919 015b 13       		.uleb128 0x13
 2920 015c 00       		.byte	0
 2921 015d 00       		.byte	0
 2922 015e 18       		.uleb128 0x18
 2923 015f 34       		.uleb128 0x34
 2924 0160 00       		.byte	0
 2925 0161 03       		.uleb128 0x3
 2926 0162 0E       		.uleb128 0xe
 2927 0163 3A       		.uleb128 0x3a
 2928 0164 0B       		.uleb128 0xb
 2929 0165 3B       		.uleb128 0x3b
 2930 0166 05       		.uleb128 0x5
 2931 0167 49       		.uleb128 0x49
 2932 0168 13       		.uleb128 0x13
 2933 0169 02       		.uleb128 0x2
 2934 016a 17       		.uleb128 0x17
 2935 016b 00       		.byte	0
ARM GAS  C:\Users\acer\AppData\Local\Temp\ccQxlELY.s 			page 83


 2936 016c 00       		.byte	0
 2937 016d 19       		.uleb128 0x19
 2938 016e 34       		.uleb128 0x34
 2939 016f 00       		.byte	0
 2940 0170 03       		.uleb128 0x3
 2941 0171 0E       		.uleb128 0xe
 2942 0172 3A       		.uleb128 0x3a
 2943 0173 0B       		.uleb128 0xb
 2944 0174 3B       		.uleb128 0x3b
 2945 0175 05       		.uleb128 0x5
 2946 0176 49       		.uleb128 0x49
 2947 0177 13       		.uleb128 0x13
 2948 0178 02       		.uleb128 0x2
 2949 0179 18       		.uleb128 0x18
 2950 017a 00       		.byte	0
 2951 017b 00       		.byte	0
 2952 017c 1A       		.uleb128 0x1a
 2953 017d 05       		.uleb128 0x5
 2954 017e 00       		.byte	0
 2955 017f 03       		.uleb128 0x3
 2956 0180 0E       		.uleb128 0xe
 2957 0181 3A       		.uleb128 0x3a
 2958 0182 0B       		.uleb128 0xb
 2959 0183 3B       		.uleb128 0x3b
 2960 0184 05       		.uleb128 0x5
 2961 0185 49       		.uleb128 0x49
 2962 0186 13       		.uleb128 0x13
 2963 0187 02       		.uleb128 0x2
 2964 0188 17       		.uleb128 0x17
 2965 0189 00       		.byte	0
 2966 018a 00       		.byte	0
 2967 018b 1B       		.uleb128 0x1b
 2968 018c 26       		.uleb128 0x26
 2969 018d 00       		.byte	0
 2970 018e 49       		.uleb128 0x49
 2971 018f 13       		.uleb128 0x13
 2972 0190 00       		.byte	0
 2973 0191 00       		.byte	0
 2974 0192 1C       		.uleb128 0x1c
 2975 0193 898201   		.uleb128 0x4109
 2976 0196 01       		.byte	0x1
 2977 0197 11       		.uleb128 0x11
 2978 0198 01       		.uleb128 0x1
 2979 0199 9542     		.uleb128 0x2115
 2980 019b 19       		.uleb128 0x19
 2981 019c 31       		.uleb128 0x31
 2982 019d 13       		.uleb128 0x13
 2983 019e 00       		.byte	0
 2984 019f 00       		.byte	0
 2985 01a0 1D       		.uleb128 0x1d
 2986 01a1 0B       		.uleb128 0xb
 2987 01a2 01       		.byte	0x1
 2988 01a3 11       		.uleb128 0x11
 2989 01a4 01       		.uleb128 0x1
 2990 01a5 12       		.uleb128 0x12
 2991 01a6 06       		.uleb128 0x6
 2992 01a7 00       		.byte	0
ARM GAS  C:\Users\acer\AppData\Local\Temp\ccQxlELY.s 			page 84


 2993 01a8 00       		.byte	0
 2994 01a9 1E       		.uleb128 0x1e
 2995 01aa 34       		.uleb128 0x34
 2996 01ab 00       		.byte	0
 2997 01ac 03       		.uleb128 0x3
 2998 01ad 0E       		.uleb128 0xe
 2999 01ae 3A       		.uleb128 0x3a
 3000 01af 0B       		.uleb128 0xb
 3001 01b0 3B       		.uleb128 0x3b
 3002 01b1 0B       		.uleb128 0xb
 3003 01b2 49       		.uleb128 0x49
 3004 01b3 13       		.uleb128 0x13
 3005 01b4 3F       		.uleb128 0x3f
 3006 01b5 19       		.uleb128 0x19
 3007 01b6 02       		.uleb128 0x2
 3008 01b7 18       		.uleb128 0x18
 3009 01b8 00       		.byte	0
 3010 01b9 00       		.byte	0
 3011 01ba 1F       		.uleb128 0x1f
 3012 01bb 01       		.uleb128 0x1
 3013 01bc 01       		.byte	0x1
 3014 01bd 49       		.uleb128 0x49
 3015 01be 13       		.uleb128 0x13
 3016 01bf 01       		.uleb128 0x1
 3017 01c0 13       		.uleb128 0x13
 3018 01c1 00       		.byte	0
 3019 01c2 00       		.byte	0
 3020 01c3 20       		.uleb128 0x20
 3021 01c4 21       		.uleb128 0x21
 3022 01c5 00       		.byte	0
 3023 01c6 49       		.uleb128 0x49
 3024 01c7 13       		.uleb128 0x13
 3025 01c8 2F       		.uleb128 0x2f
 3026 01c9 0B       		.uleb128 0xb
 3027 01ca 00       		.byte	0
 3028 01cb 00       		.byte	0
 3029 01cc 21       		.uleb128 0x21
 3030 01cd 2E       		.uleb128 0x2e
 3031 01ce 01       		.byte	0x1
 3032 01cf 3F       		.uleb128 0x3f
 3033 01d0 19       		.uleb128 0x19
 3034 01d1 03       		.uleb128 0x3
 3035 01d2 0E       		.uleb128 0xe
 3036 01d3 3A       		.uleb128 0x3a
 3037 01d4 0B       		.uleb128 0xb
 3038 01d5 3B       		.uleb128 0x3b
 3039 01d6 0B       		.uleb128 0xb
 3040 01d7 27       		.uleb128 0x27
 3041 01d8 19       		.uleb128 0x19
 3042 01d9 49       		.uleb128 0x49
 3043 01da 13       		.uleb128 0x13
 3044 01db 3C       		.uleb128 0x3c
 3045 01dc 19       		.uleb128 0x19
 3046 01dd 01       		.uleb128 0x1
 3047 01de 13       		.uleb128 0x13
 3048 01df 00       		.byte	0
 3049 01e0 00       		.byte	0
ARM GAS  C:\Users\acer\AppData\Local\Temp\ccQxlELY.s 			page 85


 3050 01e1 22       		.uleb128 0x22
 3051 01e2 05       		.uleb128 0x5
 3052 01e3 00       		.byte	0
 3053 01e4 49       		.uleb128 0x49
 3054 01e5 13       		.uleb128 0x13
 3055 01e6 00       		.byte	0
 3056 01e7 00       		.byte	0
 3057 01e8 23       		.uleb128 0x23
 3058 01e9 2E       		.uleb128 0x2e
 3059 01ea 01       		.byte	0x1
 3060 01eb 3F       		.uleb128 0x3f
 3061 01ec 19       		.uleb128 0x19
 3062 01ed 03       		.uleb128 0x3
 3063 01ee 0E       		.uleb128 0xe
 3064 01ef 3A       		.uleb128 0x3a
 3065 01f0 0B       		.uleb128 0xb
 3066 01f1 3B       		.uleb128 0x3b
 3067 01f2 0B       		.uleb128 0xb
 3068 01f3 27       		.uleb128 0x27
 3069 01f4 19       		.uleb128 0x19
 3070 01f5 3C       		.uleb128 0x3c
 3071 01f6 19       		.uleb128 0x19
 3072 01f7 01       		.uleb128 0x1
 3073 01f8 13       		.uleb128 0x13
 3074 01f9 00       		.byte	0
 3075 01fa 00       		.byte	0
 3076 01fb 24       		.uleb128 0x24
 3077 01fc 2E       		.uleb128 0x2e
 3078 01fd 00       		.byte	0
 3079 01fe 3F       		.uleb128 0x3f
 3080 01ff 19       		.uleb128 0x19
 3081 0200 03       		.uleb128 0x3
 3082 0201 0E       		.uleb128 0xe
 3083 0202 3A       		.uleb128 0x3a
 3084 0203 0B       		.uleb128 0xb
 3085 0204 3B       		.uleb128 0x3b
 3086 0205 0B       		.uleb128 0xb
 3087 0206 27       		.uleb128 0x27
 3088 0207 19       		.uleb128 0x19
 3089 0208 49       		.uleb128 0x49
 3090 0209 13       		.uleb128 0x13
 3091 020a 3C       		.uleb128 0x3c
 3092 020b 19       		.uleb128 0x19
 3093 020c 00       		.byte	0
 3094 020d 00       		.byte	0
 3095 020e 25       		.uleb128 0x25
 3096 020f 2E       		.uleb128 0x2e
 3097 0210 00       		.byte	0
 3098 0211 3F       		.uleb128 0x3f
 3099 0212 19       		.uleb128 0x19
 3100 0213 03       		.uleb128 0x3
 3101 0214 0E       		.uleb128 0xe
 3102 0215 3A       		.uleb128 0x3a
 3103 0216 0B       		.uleb128 0xb
 3104 0217 3B       		.uleb128 0x3b
 3105 0218 0B       		.uleb128 0xb
 3106 0219 27       		.uleb128 0x27
ARM GAS  C:\Users\acer\AppData\Local\Temp\ccQxlELY.s 			page 86


 3107 021a 19       		.uleb128 0x19
 3108 021b 3C       		.uleb128 0x3c
 3109 021c 19       		.uleb128 0x19
 3110 021d 00       		.byte	0
 3111 021e 00       		.byte	0
 3112 021f 00       		.byte	0
 3113              		.section	.debug_loc,"",%progbits
 3114              	.Ldebug_loc0:
 3115              	.LLST0:
 3116 0000 08000000 		.4byte	.LVL5
 3117 0004 38000000 		.4byte	.LVL7
 3118 0008 0100     		.2byte	0x1
 3119 000a 54       		.byte	0x54
 3120 000b 00000000 		.4byte	0
 3121 000f 00000000 		.4byte	0
 3122              	.LLST1:
 3123 0013 08000000 		.4byte	.LVL12
 3124 0017 3A000000 		.4byte	.LVL14
 3125 001b 0100     		.2byte	0x1
 3126 001d 54       		.byte	0x54
 3127 001e 00000000 		.4byte	0
 3128 0022 00000000 		.4byte	0
 3129              	.LLST2:
 3130 0026 2C000000 		.4byte	.LVL23
 3131 002a 36000000 		.4byte	.LVL24
 3132 002e 0100     		.2byte	0x1
 3133 0030 50       		.byte	0x50
 3134 0031 3C000000 		.4byte	.LVL26
 3135 0035 58000000 		.4byte	.LFE9
 3136 0039 0100     		.2byte	0x1
 3137 003b 50       		.byte	0x50
 3138 003c 00000000 		.4byte	0
 3139 0040 00000000 		.4byte	0
 3140              	.LLST3:
 3141 0044 10000000 		.4byte	.LVL18
 3142 0048 1E000000 		.4byte	.LVL21
 3143 004c 0100     		.2byte	0x1
 3144 004e 53       		.byte	0x53
 3145 004f 1E000000 		.4byte	.LVL21
 3146 0053 20000000 		.4byte	.LVL22
 3147 0057 0300     		.2byte	0x3
 3148 0059 73       		.byte	0x73
 3149 005a 7F       		.sleb128 -1
 3150 005b 9F       		.byte	0x9f
 3151 005c 36000000 		.4byte	.LVL24
 3152 0060 38000000 		.4byte	.LVL25
 3153 0064 0100     		.2byte	0x1
 3154 0066 53       		.byte	0x53
 3155 0067 00000000 		.4byte	0
 3156 006b 00000000 		.4byte	0
 3157              	.LLST4:
 3158 006f 12000000 		.4byte	.LVL19
 3159 0073 1A000000 		.4byte	.LVL20
 3160 0077 0100     		.2byte	0x1
 3161 0079 51       		.byte	0x51
 3162 007a 36000000 		.4byte	.LVL24
 3163 007e 3C000000 		.4byte	.LVL26
ARM GAS  C:\Users\acer\AppData\Local\Temp\ccQxlELY.s 			page 87


 3164 0082 0100     		.2byte	0x1
 3165 0084 51       		.byte	0x51
 3166 0085 00000000 		.4byte	0
 3167 0089 00000000 		.4byte	0
 3168              	.LLST5:
 3169 008d 00000000 		.4byte	.LVL29
 3170 0091 2C000000 		.4byte	.LVL35
 3171 0095 0200     		.2byte	0x2
 3172 0097 30       		.byte	0x30
 3173 0098 9F       		.byte	0x9f
 3174 0099 2C000000 		.4byte	.LVL35
 3175 009d 36000000 		.4byte	.LVL36
 3176 00a1 0100     		.2byte	0x1
 3177 00a3 50       		.byte	0x50
 3178 00a4 36000000 		.4byte	.LVL36
 3179 00a8 4E000000 		.4byte	.LVL39
 3180 00ac 0200     		.2byte	0x2
 3181 00ae 30       		.byte	0x30
 3182 00af 9F       		.byte	0x9f
 3183 00b0 4E000000 		.4byte	.LVL39
 3184 00b4 74000000 		.4byte	.LFE11
 3185 00b8 0100     		.2byte	0x1
 3186 00ba 50       		.byte	0x50
 3187 00bb 00000000 		.4byte	0
 3188 00bf 00000000 		.4byte	0
 3189              	.LLST6:
 3190 00c3 3C000000 		.4byte	.LVL38
 3191 00c7 52000000 		.4byte	.LVL40
 3192 00cb 0100     		.2byte	0x1
 3193 00cd 53       		.byte	0x53
 3194 00ce 00000000 		.4byte	0
 3195 00d2 00000000 		.4byte	0
 3196              	.LLST7:
 3197 00d6 10000000 		.4byte	.LVL30
 3198 00da 1E000000 		.4byte	.LVL33
 3199 00de 0100     		.2byte	0x1
 3200 00e0 53       		.byte	0x53
 3201 00e1 1E000000 		.4byte	.LVL33
 3202 00e5 20000000 		.4byte	.LVL34
 3203 00e9 0300     		.2byte	0x3
 3204 00eb 73       		.byte	0x73
 3205 00ec 7F       		.sleb128 -1
 3206 00ed 9F       		.byte	0x9f
 3207 00ee 36000000 		.4byte	.LVL36
 3208 00f2 38000000 		.4byte	.LVL37
 3209 00f6 0100     		.2byte	0x1
 3210 00f8 53       		.byte	0x53
 3211 00f9 00000000 		.4byte	0
 3212 00fd 00000000 		.4byte	0
 3213              	.LLST8:
 3214 0101 12000000 		.4byte	.LVL31
 3215 0105 1A000000 		.4byte	.LVL32
 3216 0109 0100     		.2byte	0x1
 3217 010b 51       		.byte	0x51
 3218 010c 36000000 		.4byte	.LVL36
 3219 0110 52000000 		.4byte	.LVL40
 3220 0114 0100     		.2byte	0x1
ARM GAS  C:\Users\acer\AppData\Local\Temp\ccQxlELY.s 			page 88


 3221 0116 51       		.byte	0x51
 3222 0117 00000000 		.4byte	0
 3223 011b 00000000 		.4byte	0
 3224              	.LLST9:
 3225 011f 06000000 		.4byte	.LVL44
 3226 0123 1B000000 		.4byte	.LVL45-1
 3227 0127 0100     		.2byte	0x1
 3228 0129 50       		.byte	0x50
 3229 012a 00000000 		.4byte	0
 3230 012e 00000000 		.4byte	0
 3231              	.LLST10:
 3232 0132 06000000 		.4byte	.LVL52
 3233 0136 32000000 		.4byte	.LVL55
 3234 013a 0500     		.2byte	0x5
 3235 013c 03       		.byte	0x3
 3236 013d 00000000 		.4byte	UART_1_txBufferWrite
 3237 0141 34000000 		.4byte	.LVL56
 3238 0145 3C000000 		.4byte	.LVL57
 3239 0149 0500     		.2byte	0x5
 3240 014b 03       		.byte	0x3
 3241 014c 00000000 		.4byte	UART_1_txBufferWrite
 3242 0150 3C000000 		.4byte	.LVL57
 3243 0154 3E000000 		.4byte	.LVL58
 3244 0158 0100     		.2byte	0x1
 3245 015a 53       		.byte	0x53
 3246 015b 3E000000 		.4byte	.LVL58
 3247 015f 40000000 		.4byte	.LVL59
 3248 0163 0300     		.2byte	0x3
 3249 0165 73       		.byte	0x73
 3250 0166 01       		.sleb128 1
 3251 0167 9F       		.byte	0x9f
 3252 0168 40000000 		.4byte	.LVL59
 3253 016c 54000000 		.4byte	.LFE23
 3254 0170 0300     		.2byte	0x3
 3255 0172 73       		.byte	0x73
 3256 0173 00       		.sleb128 0
 3257 0174 9F       		.byte	0x9f
 3258 0175 00000000 		.4byte	0
 3259 0179 00000000 		.4byte	0
 3260              	.LLST11:
 3261 017d 0A000000 		.4byte	.LVL53
 3262 0181 28000000 		.4byte	.LVL54
 3263 0185 0100     		.2byte	0x1
 3264 0187 52       		.byte	0x52
 3265 0188 00000000 		.4byte	0
 3266 018c 00000000 		.4byte	0
 3267              	.LLST12:
 3268 0190 00000000 		.4byte	.LVL60
 3269 0194 0E000000 		.4byte	.LVL61
 3270 0198 0100     		.2byte	0x1
 3271 019a 50       		.byte	0x50
 3272 019b 0E000000 		.4byte	.LVL61
 3273 019f 1E000000 		.4byte	.LVL65
 3274 01a3 0100     		.2byte	0x1
 3275 01a5 55       		.byte	0x55
 3276 01a6 1E000000 		.4byte	.LVL65
 3277 01aa 24000000 		.4byte	.LFE24
ARM GAS  C:\Users\acer\AppData\Local\Temp\ccQxlELY.s 			page 89


 3278 01ae 0400     		.2byte	0x4
 3279 01b0 F3       		.byte	0xf3
 3280 01b1 01       		.uleb128 0x1
 3281 01b2 50       		.byte	0x50
 3282 01b3 9F       		.byte	0x9f
 3283 01b4 00000000 		.4byte	0
 3284 01b8 00000000 		.4byte	0
 3285              	.LLST13:
 3286 01bc 00000000 		.4byte	.LVL60
 3287 01c0 0E000000 		.4byte	.LVL61
 3288 01c4 0200     		.2byte	0x2
 3289 01c6 30       		.byte	0x30
 3290 01c7 9F       		.byte	0x9f
 3291 01c8 0E000000 		.4byte	.LVL61
 3292 01cc 10000000 		.4byte	.LVL62
 3293 01d0 0100     		.2byte	0x1
 3294 01d2 54       		.byte	0x54
 3295 01d3 10000000 		.4byte	.LVL62
 3296 01d7 19000000 		.4byte	.LVL63-1
 3297 01db 0100     		.2byte	0x1
 3298 01dd 53       		.byte	0x53
 3299 01de 1A000000 		.4byte	.LVL63
 3300 01e2 1C000000 		.4byte	.LVL64
 3301 01e6 0100     		.2byte	0x1
 3302 01e8 54       		.byte	0x54
 3303 01e9 1C000000 		.4byte	.LVL64
 3304 01ed 1E000000 		.4byte	.LVL65
 3305 01f1 0100     		.2byte	0x1
 3306 01f3 53       		.byte	0x53
 3307 01f4 00000000 		.4byte	0
 3308 01f8 00000000 		.4byte	0
 3309              	.LLST14:
 3310 01fc 00000000 		.4byte	.LVL66
 3311 0200 0E000000 		.4byte	.LVL67
 3312 0204 0100     		.2byte	0x1
 3313 0206 50       		.byte	0x50
 3314 0207 0E000000 		.4byte	.LVL67
 3315 020b 20000000 		.4byte	.LVL71
 3316 020f 0100     		.2byte	0x1
 3317 0211 55       		.byte	0x55
 3318 0212 20000000 		.4byte	.LVL71
 3319 0216 24000000 		.4byte	.LFE25
 3320 021a 0400     		.2byte	0x4
 3321 021c F3       		.byte	0xf3
 3322 021d 01       		.uleb128 0x1
 3323 021e 50       		.byte	0x50
 3324 021f 9F       		.byte	0x9f
 3325 0220 00000000 		.4byte	0
 3326 0224 00000000 		.4byte	0
 3327              	.LLST15:
 3328 0228 00000000 		.4byte	.LVL66
 3329 022c 0E000000 		.4byte	.LVL67
 3330 0230 0100     		.2byte	0x1
 3331 0232 51       		.byte	0x51
 3332 0233 0E000000 		.4byte	.LVL67
 3333 0237 24000000 		.4byte	.LFE25
 3334 023b 0400     		.2byte	0x4
ARM GAS  C:\Users\acer\AppData\Local\Temp\ccQxlELY.s 			page 90


 3335 023d F3       		.byte	0xf3
 3336 023e 01       		.uleb128 0x1
 3337 023f 51       		.byte	0x51
 3338 0240 9F       		.byte	0x9f
 3339 0241 00000000 		.4byte	0
 3340 0245 00000000 		.4byte	0
 3341              	.LLST16:
 3342 0249 00000000 		.4byte	.LVL66
 3343 024d 0E000000 		.4byte	.LVL67
 3344 0251 0200     		.2byte	0x2
 3345 0253 30       		.byte	0x30
 3346 0254 9F       		.byte	0x9f
 3347 0255 0E000000 		.4byte	.LVL67
 3348 0259 12000000 		.4byte	.LVL68
 3349 025d 0600     		.2byte	0x6
 3350 025f 74       		.byte	0x74
 3351 0260 00       		.sleb128 0
 3352 0261 75       		.byte	0x75
 3353 0262 00       		.sleb128 0
 3354 0263 1C       		.byte	0x1c
 3355 0264 9F       		.byte	0x9f
 3356 0265 16000000 		.4byte	.LVL69
 3357 0269 1E000000 		.4byte	.LVL70
 3358 026d 0600     		.2byte	0x6
 3359 026f 74       		.byte	0x74
 3360 0270 00       		.sleb128 0
 3361 0271 75       		.byte	0x75
 3362 0272 00       		.sleb128 0
 3363 0273 1C       		.byte	0x1c
 3364 0274 9F       		.byte	0x9f
 3365 0275 00000000 		.4byte	0
 3366 0279 00000000 		.4byte	0
 3367              	.LLST17:
 3368 027d 00000000 		.4byte	.LVL72
 3369 0281 0B000000 		.4byte	.LVL73-1
 3370 0285 0100     		.2byte	0x1
 3371 0287 50       		.byte	0x50
 3372 0288 0B000000 		.4byte	.LVL73-1
 3373 028c 1C000000 		.4byte	.LVL75
 3374 0290 0400     		.2byte	0x4
 3375 0292 F3       		.byte	0xf3
 3376 0293 01       		.uleb128 0x1
 3377 0294 50       		.byte	0x50
 3378 0295 9F       		.byte	0x9f
 3379 0296 1C000000 		.4byte	.LVL75
 3380 029a 24000000 		.4byte	.LFE26
 3381 029e 0100     		.2byte	0x1
 3382 02a0 50       		.byte	0x50
 3383 02a1 00000000 		.4byte	0
 3384 02a5 00000000 		.4byte	0
 3385              	.LLST18:
 3386 02a9 1E000000 		.4byte	.LVL76
 3387 02ad 20000000 		.4byte	.LVL77
 3388 02b1 0100     		.2byte	0x1
 3389 02b3 50       		.byte	0x50
 3390 02b4 22000000 		.4byte	.LVL78
 3391 02b8 38000000 		.4byte	.LFE27
ARM GAS  C:\Users\acer\AppData\Local\Temp\ccQxlELY.s 			page 91


 3392 02bc 0100     		.2byte	0x1
 3393 02be 50       		.byte	0x50
 3394 02bf 00000000 		.4byte	0
 3395 02c3 00000000 		.4byte	0
 3396              	.LLST19:
 3397 02c7 06000000 		.4byte	.LVL79
 3398 02cb 1B000000 		.4byte	.LVL80-1
 3399 02cf 0100     		.2byte	0x1
 3400 02d1 50       		.byte	0x50
 3401 02d2 00000000 		.4byte	0
 3402 02d6 00000000 		.4byte	0
 3403              	.LLST20:
 3404 02da 00000000 		.4byte	.LVL81
 3405 02de 2C000000 		.4byte	.LVL84
 3406 02e2 0100     		.2byte	0x1
 3407 02e4 50       		.byte	0x50
 3408 02e5 2C000000 		.4byte	.LVL84
 3409 02e9 32000000 		.4byte	.LVL85
 3410 02ed 0400     		.2byte	0x4
 3411 02ef F3       		.byte	0xf3
 3412 02f0 01       		.uleb128 0x1
 3413 02f1 50       		.byte	0x50
 3414 02f2 9F       		.byte	0x9f
 3415 02f3 32000000 		.4byte	.LVL85
 3416 02f7 3C000000 		.4byte	.LVL88
 3417 02fb 0100     		.2byte	0x1
 3418 02fd 50       		.byte	0x50
 3419 02fe 3C000000 		.4byte	.LVL88
 3420 0302 44000000 		.4byte	.LVL89
 3421 0306 0400     		.2byte	0x4
 3422 0308 F3       		.byte	0xf3
 3423 0309 01       		.uleb128 0x1
 3424 030a 50       		.byte	0x50
 3425 030b 9F       		.byte	0x9f
 3426 030c 44000000 		.4byte	.LVL89
 3427 0310 58000000 		.4byte	.LFE29
 3428 0314 0100     		.2byte	0x1
 3429 0316 50       		.byte	0x50
 3430 0317 00000000 		.4byte	0
 3431 031b 00000000 		.4byte	0
 3432              	.LLST21:
 3433 031f 1E000000 		.4byte	.LVL82
 3434 0323 26000000 		.4byte	.LVL83
 3435 0327 0100     		.2byte	0x1
 3436 0329 52       		.byte	0x52
 3437 032a 36000000 		.4byte	.LVL86
 3438 032e 38000000 		.4byte	.LVL87
 3439 0332 0100     		.2byte	0x1
 3440 0334 52       		.byte	0x52
 3441 0335 00000000 		.4byte	0
 3442 0339 00000000 		.4byte	0
 3443              		.section	.debug_aranges,"",%progbits
 3444 0000 0C010000 		.4byte	0x10c
 3445 0004 0200     		.2byte	0x2
 3446 0006 00000000 		.4byte	.Ldebug_info0
 3447 000a 04       		.byte	0x4
 3448 000b 00       		.byte	0
ARM GAS  C:\Users\acer\AppData\Local\Temp\ccQxlELY.s 			page 92


 3449 000c 0000     		.2byte	0
 3450 000e 0000     		.2byte	0
 3451 0010 00000000 		.4byte	.LFB1
 3452 0014 50000000 		.4byte	.LFE1-.LFB1
 3453 0018 00000000 		.4byte	.LFB2
 3454 001c 48000000 		.4byte	.LFE2-.LFB2
 3455 0020 00000000 		.4byte	.LFB0
 3456 0024 1C000000 		.4byte	.LFE0-.LFB0
 3457 0028 00000000 		.4byte	.LFB3
 3458 002c 50000000 		.4byte	.LFE3-.LFB3
 3459 0030 00000000 		.4byte	.LFB4
 3460 0034 04000000 		.4byte	.LFE4-.LFB4
 3461 0038 00000000 		.4byte	.LFB5
 3462 003c 02000000 		.4byte	.LFE5-.LFB5
 3463 0040 00000000 		.4byte	.LFB6
 3464 0044 0C000000 		.4byte	.LFE6-.LFB6
 3465 0048 00000000 		.4byte	.LFB7
 3466 004c 0C000000 		.4byte	.LFE7-.LFB7
 3467 0050 00000000 		.4byte	.LFB8
 3468 0054 0C000000 		.4byte	.LFE8-.LFB8
 3469 0058 00000000 		.4byte	.LFB9
 3470 005c 58000000 		.4byte	.LFE9-.LFB9
 3471 0060 00000000 		.4byte	.LFB10
 3472 0064 20000000 		.4byte	.LFE10-.LFB10
 3473 0068 00000000 		.4byte	.LFB11
 3474 006c 74000000 		.4byte	.LFE11-.LFB11
 3475 0070 00000000 		.4byte	.LFB12
 3476 0074 14000000 		.4byte	.LFE12-.LFB12
 3477 0078 00000000 		.4byte	.LFB13
 3478 007c 4C000000 		.4byte	.LFE13-.LFB13
 3479 0080 00000000 		.4byte	.LFB14
 3480 0084 44000000 		.4byte	.LFE14-.LFB14
 3481 0088 00000000 		.4byte	.LFB15
 3482 008c 02000000 		.4byte	.LFE15-.LFB15
 3483 0090 00000000 		.4byte	.LFB16
 3484 0094 0C000000 		.4byte	.LFE16-.LFB16
 3485 0098 00000000 		.4byte	.LFB17
 3486 009c 0C000000 		.4byte	.LFE17-.LFB17
 3487 00a0 00000000 		.4byte	.LFB18
 3488 00a4 0C000000 		.4byte	.LFE18-.LFB18
 3489 00a8 00000000 		.4byte	.LFB19
 3490 00ac 0C000000 		.4byte	.LFE19-.LFB19
 3491 00b0 00000000 		.4byte	.LFB20
 3492 00b4 0C000000 		.4byte	.LFE20-.LFB20
 3493 00b8 00000000 		.4byte	.LFB21
 3494 00bc 58000000 		.4byte	.LFE21-.LFB21
 3495 00c0 00000000 		.4byte	.LFB22
 3496 00c4 0C000000 		.4byte	.LFE22-.LFB22
 3497 00c8 00000000 		.4byte	.LFB23
 3498 00cc 54000000 		.4byte	.LFE23-.LFB23
 3499 00d0 00000000 		.4byte	.LFB24
 3500 00d4 24000000 		.4byte	.LFE24-.LFB24
 3501 00d8 00000000 		.4byte	.LFB25
 3502 00dc 24000000 		.4byte	.LFE25-.LFB25
 3503 00e0 00000000 		.4byte	.LFB26
 3504 00e4 24000000 		.4byte	.LFE26-.LFB26
 3505 00e8 00000000 		.4byte	.LFB27
ARM GAS  C:\Users\acer\AppData\Local\Temp\ccQxlELY.s 			page 93


 3506 00ec 38000000 		.4byte	.LFE27-.LFB27
 3507 00f0 00000000 		.4byte	.LFB28
 3508 00f4 40000000 		.4byte	.LFE28-.LFB28
 3509 00f8 00000000 		.4byte	.LFB29
 3510 00fc 58000000 		.4byte	.LFE29-.LFB29
 3511 0100 00000000 		.4byte	.LFB30
 3512 0104 02000000 		.4byte	.LFE30-.LFB30
 3513 0108 00000000 		.4byte	0
 3514 010c 00000000 		.4byte	0
 3515              		.section	.debug_ranges,"",%progbits
 3516              	.Ldebug_ranges0:
 3517 0000 00000000 		.4byte	.LFB1
 3518 0004 50000000 		.4byte	.LFE1
 3519 0008 00000000 		.4byte	.LFB2
 3520 000c 48000000 		.4byte	.LFE2
 3521 0010 00000000 		.4byte	.LFB0
 3522 0014 1C000000 		.4byte	.LFE0
 3523 0018 00000000 		.4byte	.LFB3
 3524 001c 50000000 		.4byte	.LFE3
 3525 0020 00000000 		.4byte	.LFB4
 3526 0024 04000000 		.4byte	.LFE4
 3527 0028 00000000 		.4byte	.LFB5
 3528 002c 02000000 		.4byte	.LFE5
 3529 0030 00000000 		.4byte	.LFB6
 3530 0034 0C000000 		.4byte	.LFE6
 3531 0038 00000000 		.4byte	.LFB7
 3532 003c 0C000000 		.4byte	.LFE7
 3533 0040 00000000 		.4byte	.LFB8
 3534 0044 0C000000 		.4byte	.LFE8
 3535 0048 00000000 		.4byte	.LFB9
 3536 004c 58000000 		.4byte	.LFE9
 3537 0050 00000000 		.4byte	.LFB10
 3538 0054 20000000 		.4byte	.LFE10
 3539 0058 00000000 		.4byte	.LFB11
 3540 005c 74000000 		.4byte	.LFE11
 3541 0060 00000000 		.4byte	.LFB12
 3542 0064 14000000 		.4byte	.LFE12
 3543 0068 00000000 		.4byte	.LFB13
 3544 006c 4C000000 		.4byte	.LFE13
 3545 0070 00000000 		.4byte	.LFB14
 3546 0074 44000000 		.4byte	.LFE14
 3547 0078 00000000 		.4byte	.LFB15
 3548 007c 02000000 		.4byte	.LFE15
 3549 0080 00000000 		.4byte	.LFB16
 3550 0084 0C000000 		.4byte	.LFE16
 3551 0088 00000000 		.4byte	.LFB17
 3552 008c 0C000000 		.4byte	.LFE17
 3553 0090 00000000 		.4byte	.LFB18
 3554 0094 0C000000 		.4byte	.LFE18
 3555 0098 00000000 		.4byte	.LFB19
 3556 009c 0C000000 		.4byte	.LFE19
 3557 00a0 00000000 		.4byte	.LFB20
 3558 00a4 0C000000 		.4byte	.LFE20
 3559 00a8 00000000 		.4byte	.LFB21
 3560 00ac 58000000 		.4byte	.LFE21
 3561 00b0 00000000 		.4byte	.LFB22
 3562 00b4 0C000000 		.4byte	.LFE22
ARM GAS  C:\Users\acer\AppData\Local\Temp\ccQxlELY.s 			page 94


 3563 00b8 00000000 		.4byte	.LFB23
 3564 00bc 54000000 		.4byte	.LFE23
 3565 00c0 00000000 		.4byte	.LFB24
 3566 00c4 24000000 		.4byte	.LFE24
 3567 00c8 00000000 		.4byte	.LFB25
 3568 00cc 24000000 		.4byte	.LFE25
 3569 00d0 00000000 		.4byte	.LFB26
 3570 00d4 24000000 		.4byte	.LFE26
 3571 00d8 00000000 		.4byte	.LFB27
 3572 00dc 38000000 		.4byte	.LFE27
 3573 00e0 00000000 		.4byte	.LFB28
 3574 00e4 40000000 		.4byte	.LFE28
 3575 00e8 00000000 		.4byte	.LFB29
 3576 00ec 58000000 		.4byte	.LFE29
 3577 00f0 00000000 		.4byte	.LFB30
 3578 00f4 02000000 		.4byte	.LFE30
 3579 00f8 00000000 		.4byte	0
 3580 00fc 00000000 		.4byte	0
 3581              		.section	.debug_line,"",%progbits
 3582              	.Ldebug_line0:
 3583 0000 F1030000 		.section	.debug_str,"MS",%progbits,1
 3583      02006500 
 3583      00000201 
 3583      FB0E0D00 
 3583      01010101 
 3584              	.LASF10:
 3585 0000 75696E74 		.ascii	"uint16\000"
 3585      313600
 3586              	.LASF65:
 3587 0007 55415254 		.ascii	"UART_1_ClearTxBuffer\000"
 3587      5F315F43 
 3587      6C656172 
 3587      54784275 
 3587      66666572 
 3588              	.LASF35:
 3589 001c 6C6F635F 		.ascii	"loc_rxBufferWrite\000"
 3589      72784275 
 3589      66666572 
 3589      57726974 
 3589      6500
 3590              	.LASF82:
 3591 002e 43794578 		.ascii	"CyExitCriticalSection\000"
 3591      69744372 
 3591      69746963 
 3591      616C5365 
 3591      6374696F 
 3592              	.LASF52:
 3593 0044 74784461 		.ascii	"txDataByte\000"
 3593      74614279 
 3593      746500
 3594              	.LASF55:
 3595 004f 55415254 		.ascii	"UART_1_PutChar\000"
 3595      5F315F50 
 3595      75744368 
 3595      617200
 3596              	.LASF59:
 3597 005e 73747269 		.ascii	"string\000"
ARM GAS  C:\Users\acer\AppData\Local\Temp\ccQxlELY.s 			page 95


 3597      6E6700
 3598              	.LASF66:
 3599 0065 55415254 		.ascii	"UART_1_SendBreak\000"
 3599      5F315F53 
 3599      656E6442 
 3599      7265616B 
 3599      00
 3600              	.LASF36:
 3601 0076 55415254 		.ascii	"UART_1_ReadRxData\000"
 3601      5F315F52 
 3601      65616452 
 3601      78446174 
 3601      6100
 3602              	.LASF20:
 3603 0088 55415254 		.ascii	"UART_1_DisableRxInt\000"
 3603      5F315F44 
 3603      69736162 
 3603      6C655278 
 3603      496E7400 
 3604              	.LASF7:
 3605 009c 6C6F6E67 		.ascii	"long long unsigned int\000"
 3605      206C6F6E 
 3605      6720756E 
 3605      7369676E 
 3605      65642069 
 3606              	.LASF79:
 3607 00b3 55415254 		.ascii	"UART_1_rxBufferOverflow\000"
 3607      5F315F72 
 3607      78427566 
 3607      6665724F 
 3607      76657266 
 3608              	.LASF64:
 3609 00cb 55415254 		.ascii	"UART_1_GetTxBufferSize\000"
 3609      5F315F47 
 3609      65745478 
 3609      42756666 
 3609      65725369 
 3610              	.LASF6:
 3611 00e2 6C6F6E67 		.ascii	"long long int\000"
 3611      206C6F6E 
 3611      6720696E 
 3611      7400
 3612              	.LASF0:
 3613 00f0 7369676E 		.ascii	"signed char\000"
 3613      65642063 
 3613      68617200 
 3614              	.LASF63:
 3615 00fc 55415254 		.ascii	"UART_1_PutCRLF\000"
 3615      5F315F50 
 3615      75744352 
 3615      4C4600
 3616              	.LASF4:
 3617 010b 6C6F6E67 		.ascii	"long int\000"
 3617      20696E74 
 3617      00
 3618              	.LASF26:
 3619 0114 55415254 		.ascii	"UART_1_Start\000"
ARM GAS  C:\Users\acer\AppData\Local\Temp\ccQxlELY.s 			page 96


 3619      5F315F53 
 3619      74617274 
 3619      00
 3620              	.LASF9:
 3621 0121 75696E74 		.ascii	"uint8\000"
 3621      3800
 3622              	.LASF13:
 3623 0127 646F7562 		.ascii	"double\000"
 3623      6C6500
 3624              	.LASF46:
 3625 012e 61646472 		.ascii	"addressMode\000"
 3625      6573734D 
 3625      6F646500 
 3626              	.LASF85:
 3627 013a 2E5C4765 		.ascii	".\\Generated_Source\\PSoC5\\UART_1.c\000"
 3627      6E657261 
 3627      7465645F 
 3627      536F7572 
 3627      63655C50 
 3628              	.LASF11:
 3629 015c 75696E74 		.ascii	"uint32\000"
 3629      333200
 3630              	.LASF31:
 3631 0163 636F6E74 		.ascii	"control\000"
 3631      726F6C00 
 3632              	.LASF30:
 3633 016b 55415254 		.ascii	"UART_1_SetRxInterruptMode\000"
 3633      5F315F53 
 3633      65745278 
 3633      496E7465 
 3633      72727570 
 3634              	.LASF76:
 3635 0185 55415254 		.ascii	"UART_1_rxBufferRead\000"
 3635      5F315F72 
 3635      78427566 
 3635      66657252 
 3635      65616400 
 3636              	.LASF67:
 3637 0199 7265744D 		.ascii	"retMode\000"
 3637      6F646500 
 3638              	.LASF8:
 3639 01a1 756E7369 		.ascii	"unsigned int\000"
 3639      676E6564 
 3639      20696E74 
 3639      00
 3640              	.LASF54:
 3641 01ae 55415254 		.ascii	"UART_1_ReadTxStatus\000"
 3641      5F315F52 
 3641      65616454 
 3641      78537461 
 3641      74757300 
 3642              	.LASF84:
 3643 01c2 474E5520 		.ascii	"GNU C 4.9.3 20150303 (release) [ARM/embedded-4_9-br"
 3643      4320342E 
 3643      392E3320 
 3643      32303135 
 3643      30333033 
ARM GAS  C:\Users\acer\AppData\Local\Temp\ccQxlELY.s 			page 97


 3644 01f5 616E6368 		.ascii	"anch revision 221220] -mcpu=cortex-m3 -mthumb -g -O"
 3644      20726576 
 3644      6973696F 
 3644      6E203232 
 3644      31323230 
 3645 0228 73202D66 		.ascii	"s -ffunction-sections -ffat-lto-objects\000"
 3645      66756E63 
 3645      74696F6E 
 3645      2D736563 
 3645      74696F6E 
 3646              	.LASF22:
 3647 0250 55415254 		.ascii	"UART_1_DisableTxInt\000"
 3647      5F315F44 
 3647      69736162 
 3647      6C655478 
 3647      496E7400 
 3648              	.LASF5:
 3649 0264 6C6F6E67 		.ascii	"long unsigned int\000"
 3649      20756E73 
 3649      69676E65 
 3649      6420696E 
 3649      7400
 3650              	.LASF57:
 3651 0276 6C6F635F 		.ascii	"loc_txBufferRead\000"
 3651      74784275 
 3651      66666572 
 3651      52656164 
 3651      00
 3652              	.LASF43:
 3653 0287 73697A65 		.ascii	"size\000"
 3653      00
 3654              	.LASF3:
 3655 028c 73686F72 		.ascii	"short unsigned int\000"
 3655      7420756E 
 3655      7369676E 
 3655      65642069 
 3655      6E7400
 3656              	.LASF87:
 3657 029f 4379496E 		.ascii	"CyIntSetVector\000"
 3657      74536574 
 3657      56656374 
 3657      6F7200
 3658              	.LASF25:
 3659 02ae 55415254 		.ascii	"UART_1_Enable\000"
 3659      5F315F45 
 3659      6E61626C 
 3659      6500
 3660              	.LASF34:
 3661 02bc 6C6F635F 		.ascii	"loc_rxBufferRead\000"
 3661      72784275 
 3661      66666572 
 3661      52656164 
 3661      00
 3662              	.LASF70:
 3663 02cd 55415254 		.ascii	"UART_1_SetTxAddressMode\000"
 3663      5F315F53 
 3663      65745478 
ARM GAS  C:\Users\acer\AppData\Local\Temp\ccQxlELY.s 			page 98


 3663      41646472 
 3663      6573734D 
 3664              	.LASF69:
 3665 02e5 74785F70 		.ascii	"tx_period\000"
 3665      6572696F 
 3665      6400
 3666              	.LASF88:
 3667 02ef 4379456E 		.ascii	"CyEnterCriticalSection\000"
 3667      74657243 
 3667      72697469 
 3667      63616C53 
 3667      65637469 
 3668              	.LASF32:
 3669 0306 696E7453 		.ascii	"intSrc\000"
 3669      726300
 3670              	.LASF53:
 3671 030d 55415254 		.ascii	"UART_1_ReadControlRegister\000"
 3671      5F315F52 
 3671      65616443 
 3671      6F6E7472 
 3671      6F6C5265 
 3672              	.LASF27:
 3673 0328 55415254 		.ascii	"UART_1_Stop\000"
 3673      5F315F53 
 3673      746F7000 
 3674              	.LASF41:
 3675 0334 55415254 		.ascii	"UART_1_GetByte\000"
 3675      5F315F47 
 3675      65744279 
 3675      746500
 3676              	.LASF17:
 3677 0343 72656733 		.ascii	"reg32\000"
 3677      3200
 3678              	.LASF51:
 3679 0349 55415254 		.ascii	"UART_1_WriteTxData\000"
 3679      5F315F57 
 3679      72697465 
 3679      54784461 
 3679      746100
 3680              	.LASF68:
 3681 035c 746D7053 		.ascii	"tmpStat\000"
 3681      74617400 
 3682              	.LASF19:
 3683 0364 73697A65 		.ascii	"sizetype\000"
 3683      74797065 
 3683      00
 3684              	.LASF47:
 3685 036d 55415254 		.ascii	"UART_1_SetRxAddress1\000"
 3685      5F315F53 
 3685      65745278 
 3685      41646472 
 3685      65737331 
 3686              	.LASF49:
 3687 0382 55415254 		.ascii	"UART_1_SetRxAddress2\000"
 3687      5F315F53 
 3687      65745278 
 3687      41646472 
ARM GAS  C:\Users\acer\AppData\Local\Temp\ccQxlELY.s 			page 99


 3687      65737332 
 3688              	.LASF56:
 3689 0397 6C6F635F 		.ascii	"loc_txBufferWrite\000"
 3689      74784275 
 3689      66666572 
 3689      57726974 
 3689      6500
 3690              	.LASF48:
 3691 03a9 61646472 		.ascii	"address\000"
 3691      65737300 
 3692              	.LASF78:
 3693 03b1 55415254 		.ascii	"UART_1_rxBufferLoopDetect\000"
 3693      5F315F72 
 3693      78427566 
 3693      6665724C 
 3693      6F6F7044 
 3694              	.LASF40:
 3695 03cb 72785374 		.ascii	"rxStatus\000"
 3695      61747573 
 3695      00
 3696              	.LASF50:
 3697 03d4 55415254 		.ascii	"UART_1_SetTxInterruptMode\000"
 3697      5F315F53 
 3697      65745478 
 3697      496E7465 
 3697      72727570 
 3698              	.LASF81:
 3699 03ee 4379496E 		.ascii	"CyIntSetPriority\000"
 3699      74536574 
 3699      5072696F 
 3699      72697479 
 3699      00
 3700              	.LASF12:
 3701 03ff 666C6F61 		.ascii	"float\000"
 3701      7400
 3702              	.LASF58:
 3703 0405 55415254 		.ascii	"UART_1_PutString\000"
 3703      5F315F50 
 3703      75745374 
 3703      72696E67 
 3703      00
 3704              	.LASF44:
 3705 0416 55415254 		.ascii	"UART_1_ClearRxBuffer\000"
 3705      5F315F43 
 3705      6C656172 
 3705      52784275 
 3705      66666572 
 3706              	.LASF45:
 3707 042b 55415254 		.ascii	"UART_1_SetRxAddressMode\000"
 3707      5F315F53 
 3707      65745278 
 3707      41646472 
 3707      6573734D 
 3708              	.LASF16:
 3709 0443 72656738 		.ascii	"reg8\000"
 3709      00
 3710              	.LASF1:
ARM GAS  C:\Users\acer\AppData\Local\Temp\ccQxlELY.s 			page 100


 3711 0448 756E7369 		.ascii	"unsigned char\000"
 3711      676E6564 
 3711      20636861 
 3711      7200
 3712              	.LASF2:
 3713 0456 73686F72 		.ascii	"short int\000"
 3713      7420696E 
 3713      7400
 3714              	.LASF73:
 3715 0460 55415254 		.ascii	"UART_1_txBufferRead\000"
 3715      5F315F74 
 3715      78427566 
 3715      66657252 
 3715      65616400 
 3716              	.LASF29:
 3717 0474 55415254 		.ascii	"UART_1_WriteControlRegister\000"
 3717      5F315F57 
 3717      72697465 
 3717      436F6E74 
 3717      726F6C52 
 3718              	.LASF21:
 3719 0490 55415254 		.ascii	"UART_1_EnableRxInt\000"
 3719      5F315F45 
 3719      6E61626C 
 3719      65527849 
 3719      6E7400
 3720              	.LASF71:
 3721 04a3 55415254 		.ascii	"UART_1_initVar\000"
 3721      5F315F69 
 3721      6E697456 
 3721      617200
 3722              	.LASF62:
 3723 04b2 62797465 		.ascii	"byteCount\000"
 3723      436F756E 
 3723      7400
 3724              	.LASF42:
 3725 04bc 55415254 		.ascii	"UART_1_GetRxBufferSize\000"
 3725      5F315F47 
 3725      65745278 
 3725      42756666 
 3725      65725369 
 3726              	.LASF33:
 3727 04d3 72784461 		.ascii	"rxData\000"
 3727      746100
 3728              	.LASF75:
 3729 04da 55415254 		.ascii	"UART_1_rxBuffer\000"
 3729      5F315F72 
 3729      78427566 
 3729      66657200 
 3730              	.LASF86:
 3731 04ea 443A5C53 		.ascii	"D:\\START_UP\\COMPANY_STARTUP\\3_platform_based_dev"
 3731      54415254 
 3731      5F55505C 
 3731      434F4D50 
 3731      414E595F 
 3732 051a 656C6F70 		.ascii	"elopments\\PSOC_PROJECTS\\platform\\platform\\Psoc_"
 3732      6D656E74 
ARM GAS  C:\Users\acer\AppData\Local\Temp\ccQxlELY.s 			page 101


 3732      735C5053 
 3732      4F435F50 
 3732      524F4A45 
 3733 0549 506C6174 		.ascii	"Platform\\Design02.cydsn\000"
 3733      666F726D 
 3733      5C446573 
 3733      69676E30 
 3733      322E6379 
 3734              	.LASF15:
 3735 0561 63686172 		.ascii	"char\000"
 3735      00
 3736              	.LASF18:
 3737 0566 63796973 		.ascii	"cyisraddress\000"
 3737      72616464 
 3737      72657373 
 3737      00
 3738              	.LASF74:
 3739 0573 55415254 		.ascii	"UART_1_txBufferWrite\000"
 3739      5F315F74 
 3739      78427566 
 3739      66657257 
 3739      72697465 
 3740              	.LASF14:
 3741 0588 63686172 		.ascii	"char8\000"
 3741      3800
 3742              	.LASF24:
 3743 058e 55415254 		.ascii	"UART_1_Init\000"
 3743      5F315F49 
 3743      6E697400 
 3744              	.LASF28:
 3745 059a 656E6162 		.ascii	"enableInterrupts\000"
 3745      6C65496E 
 3745      74657272 
 3745      75707473 
 3745      00
 3746              	.LASF38:
 3747 05ab 73746174 		.ascii	"status\000"
 3747      757300
 3748              	.LASF80:
 3749 05b2 55415254 		.ascii	"UART_1_IntClock_Start\000"
 3749      5F315F49 
 3749      6E74436C 
 3749      6F636B5F 
 3749      53746172 
 3750              	.LASF83:
 3751 05c8 55415254 		.ascii	"UART_1_IntClock_Stop\000"
 3751      5F315F49 
 3751      6E74436C 
 3751      6F636B5F 
 3751      53746F70 
 3752              	.LASF72:
 3753 05dd 55415254 		.ascii	"UART_1_txBuffer\000"
 3753      5F315F74 
 3753      78427566 
 3753      66657200 
 3754              	.LASF77:
 3755 05ed 55415254 		.ascii	"UART_1_rxBufferWrite\000"
ARM GAS  C:\Users\acer\AppData\Local\Temp\ccQxlELY.s 			page 102


 3755      5F315F72 
 3755      78427566 
 3755      66657257 
 3755      72697465 
 3756              	.LASF37:
 3757 0602 55415254 		.ascii	"UART_1_ReadRxStatus\000"
 3757      5F315F52 
 3757      65616452 
 3757      78537461 
 3757      74757300 
 3758              	.LASF39:
 3759 0616 55415254 		.ascii	"UART_1_GetChar\000"
 3759      5F315F47 
 3759      65744368 
 3759      617200
 3760              	.LASF23:
 3761 0625 55415254 		.ascii	"UART_1_EnableTxInt\000"
 3761      5F315F45 
 3761      6E61626C 
 3761      65547849 
 3761      6E7400
 3762              	.LASF60:
 3763 0638 6275665F 		.ascii	"buf_index\000"
 3763      696E6465 
 3763      7800
 3764              	.LASF61:
 3765 0642 55415254 		.ascii	"UART_1_PutArray\000"
 3765      5F315F50 
 3765      75744172 
 3765      72617900 
 3766              		.ident	"GCC: (GNU Tools for ARM Embedded Processors) 4.9.3 20150303 (release) [ARM/embedded-4_9-br
