ARM GAS  C:\Users\acer\AppData\Local\Temp\ccWBcvWa.s 			page 1


   1              		.syntax unified
   2              		.cpu cortex-m3
   3              		.fpu softvfp
   4              		.eabi_attribute 20, 1
   5              		.eabi_attribute 21, 1
   6              		.eabi_attribute 23, 3
   7              		.eabi_attribute 24, 1
   8              		.eabi_attribute 25, 1
   9              		.eabi_attribute 26, 1
  10              		.eabi_attribute 30, 4
  11              		.eabi_attribute 34, 1
  12              		.eabi_attribute 18, 4
  13              		.thumb
  14              		.file	"wifi.c"
  15              		.text
  16              	.Ltext0:
  17              		.cfi_sections	.debug_frame
  18              		.section	.text.wifi_module_manager,"ax",%progbits
  19              		.align	1
  20              		.global	wifi_module_manager
  21              		.thumb
  22              		.thumb_func
  23              		.type	wifi_module_manager, %function
  24              	wifi_module_manager:
  25              	.LFB56:
  26              		.file 1 ".\\wifi.c"
   1:.\wifi.c      **** /* ========================================
   2:.\wifi.c      ****  *
   3:.\wifi.c      ****  * Copyright YOUR COMPANY, THE YEAR
   4:.\wifi.c      ****  * All Rights Reserved
   5:.\wifi.c      ****  * UNPUBLISHED, LICENSED SOFTWARE.
   6:.\wifi.c      ****  *
   7:.\wifi.c      ****  * CONFIDENTIAL AND PROPRIETARY INFORMATION
   8:.\wifi.c      ****  * WHICH IS THE PROPERTY OF your company.
   9:.\wifi.c      ****  *
  10:.\wifi.c      ****  * ========================================
  11:.\wifi.c      **** */
  12:.\wifi.c      **** // this moule uses the uar as base for tx and rx
  13:.\wifi.c      **** #include <project.h>
  14:.\wifi.c      **** #include "common.h"
  15:.\wifi.c      **** #include "wifi.h"
  16:.\wifi.c      **** static uint8  stWifiModule; // wifi module state machine status
  17:.\wifi.c      **** void wifi_module_manager(void)  // called every 100ms
  18:.\wifi.c      **** {
  27              		.loc 1 18 0
  28              		.cfi_startproc
  29              		@ args = 0, pretend = 0, frame = 0
  30              		@ frame_needed = 0, uses_anonymous_args = 0
  31 0000 38B5     		push	{r3, r4, r5, lr}
  32              		.cfi_def_cfa_offset 16
  33              		.cfi_offset 3, -16
  34              		.cfi_offset 4, -12
  35              		.cfi_offset 5, -8
  36              		.cfi_offset 14, -4
  19:.\wifi.c      ****    static uint8 CommandNum; 
  20:.\wifi.c      ****        switch(stWifiModule)
  37              		.loc 1 20 0
ARM GAS  C:\Users\acer\AppData\Local\Temp\ccWBcvWa.s 			page 2


  38 0002 0A4C     		ldr	r4, .L5
  39 0004 2378     		ldrb	r3, [r4]	@ zero_extendqisi2
  40 0006 012B     		cmp	r3, #1
  41 0008 0FD1     		bne	.L1
  21:.\wifi.c      ****        {
  22:.\wifi.c      ****            case WIFI_IDLE : break; 
  23:.\wifi.c      ****            case WFI_INI: UART_1_PutString(WifiIniCmd[CommandNum]);   // send all required initializ
  42              		.loc 1 23 0
  43 000a 6378     		ldrb	r3, [r4, #1]	@ zero_extendqisi2
  44 000c 084D     		ldr	r5, .L5+4
  45 000e 55F82300 		ldr	r0, [r5, r3, lsl #2]
  46 0012 FFF7FEFF 		bl	UART_1_PutString
  47              	.LVL0:
  24:.\wifi.c      ****                       CommandNum++;
  48              		.loc 1 24 0
  49 0016 6378     		ldrb	r3, [r4, #1]	@ zero_extendqisi2
  50 0018 0133     		adds	r3, r3, #1
  51 001a DBB2     		uxtb	r3, r3
  52 001c 6370     		strb	r3, [r4, #1]
  25:.\wifi.c      ****                       if((*WifiIniCmd[CommandNum])==0x00)  //nonly null is end of coomand
  53              		.loc 1 25 0
  54 001e 55F82330 		ldr	r3, [r5, r3, lsl #2]
  55 0022 1B78     		ldrb	r3, [r3]	@ zero_extendqisi2
  56 0024 0BB9     		cbnz	r3, .L1
  26:.\wifi.c      ****                       {
  27:.\wifi.c      ****                             stWifiModule=WIFI_IDLE;
  57              		.loc 1 27 0
  58 0026 2370     		strb	r3, [r4]
  28:.\wifi.c      ****                             CommandNum=0;
  59              		.loc 1 28 0
  60 0028 6370     		strb	r3, [r4, #1]
  61              	.L1:
  62 002a 38BD     		pop	{r3, r4, r5, pc}
  63              	.L6:
  64              		.align	2
  65              	.L5:
  66 002c 00000000 		.word	.LANCHOR0
  67 0030 00000000 		.word	.LANCHOR1
  68              		.cfi_endproc
  69              	.LFE56:
  70              		.size	wifi_module_manager, .-wifi_module_manager
  71              		.section	.text.wifi_module_config,"ax",%progbits
  72              		.align	1
  73              		.global	wifi_module_config
  74              		.thumb
  75              		.thumb_func
  76              		.type	wifi_module_config, %function
  77              	wifi_module_config:
  78              	.LFB57:
  29:.\wifi.c      ****                       }
  30:.\wifi.c      ****                       break;
  31:.\wifi.c      ****             default:break;
  32:.\wifi.c      ****        }
  33:.\wifi.c      **** }
  34:.\wifi.c      **** void wifi_module_config(uint8 Command)
  35:.\wifi.c      **** {
  79              		.loc 1 35 0
ARM GAS  C:\Users\acer\AppData\Local\Temp\ccWBcvWa.s 			page 3


  80              		.cfi_startproc
  81              		@ args = 0, pretend = 0, frame = 0
  82              		@ frame_needed = 0, uses_anonymous_args = 0
  83              		@ link register save eliminated.
  84              	.LVL1:
  36:.\wifi.c      ****     switch(Command)
  85              		.loc 1 36 0
  86 0000 0128     		cmp	r0, #1
  37:.\wifi.c      ****     {
  38:.\wifi.c      ****         case WFI_INI:
  39:.\wifi.c      ****                      stWifiModule=WFI_INI; 
  87              		.loc 1 39 0
  88 0002 04BF     		itt	eq
  89 0004 014B     		ldreq	r3, .L10
  90 0006 1870     		strbeq	r0, [r3]
  91 0008 7047     		bx	lr
  92              	.L11:
  93 000a 00BF     		.align	2
  94              	.L10:
  95 000c 00000000 		.word	.LANCHOR0
  96              		.cfi_endproc
  97              	.LFE57:
  98              		.size	wifi_module_config, .-wifi_module_config
  99              		.global	WifiIniCmd
 100              		.section	.rodata.str1.1,"aMS",%progbits,1
 101              	.LC0:
 102 0000 41540D0A 		.ascii	"AT\015\012\000"
 102      00
 103              	.LC1:
 104 0005 41542B43 		.ascii	"AT+CWMODE=3\015\012\000"
 104      574D4F44 
 104      453D330D 
 104      0A00
 105              	.LC2:
 106 0013 41542B52 		.ascii	"AT+RST\015\012\000"
 106      53540D0A 
 106      00
 107              	.LC3:
 108 001c 41542B43 		.ascii	"AT+CWJAP=NETGEAR,strongviolet962\015\012\000"
 108      574A4150 
 108      3D4E4554 
 108      47454152 
 108      2C737472 
 109              	.LC4:
 110 003f 41542B43 		.ascii	"AT+CIPMUX=1\015\012\000"
 110      49504D55 
 110      583D310D 
 110      0A00
 111              	.LC5:
 112 004d 41542B43 		.ascii	"AT+CIPSTART=4,TCP,google.com,80\015\012\000"
 112      49505354 
 112      4152543D 
 112      342C5443 
 112      502C676F 
 113              	.LC6:
 114 006f 00       		.ascii	"\000"
 115              		.data
ARM GAS  C:\Users\acer\AppData\Local\Temp\ccWBcvWa.s 			page 4


 116              		.align	2
 117              		.set	.LANCHOR1,. + 0
 118              		.type	WifiIniCmd, %object
 119              		.size	WifiIniCmd, 28
 120              	WifiIniCmd:
 121 0000 00000000 		.word	.LC0
 122 0004 05000000 		.word	.LC1
 123 0008 13000000 		.word	.LC2
 124 000c 1C000000 		.word	.LC3
 125 0010 3F000000 		.word	.LC4
 126 0014 4D000000 		.word	.LC5
 127 0018 6F000000 		.word	.LC6
 128              		.bss
 129              		.set	.LANCHOR0,. + 0
 130              		.type	stWifiModule, %object
 131              		.size	stWifiModule, 1
 132              	stWifiModule:
 133 0000 00       		.space	1
 134              		.type	CommandNum.5840, %object
 135              		.size	CommandNum.5840, 1
 136              	CommandNum.5840:
 137 0001 00       		.space	1
 138              		.text
 139              	.Letext0:
 140              		.file 2 "c:\\program files\\cypress\\psoc creator\\3.3\\psoc creator\\import\\gnu\\arm\\4.9.3\\arm
 141              		.file 3 "c:\\program files\\cypress\\psoc creator\\3.3\\psoc creator\\import\\gnu\\arm\\4.9.3\\arm
 142              		.file 4 "Generated_Source\\PSoC5/cytypes.h"
 143              		.file 5 "Generated_Source\\PSoC5/core_cm3.h"
 144              		.file 6 ".\\wifi.h"
 145              		.file 7 "Generated_Source\\PSoC5/UART_1.h"